	.text
	.syntax unified
	.eabi_attribute	67, "2.09"	@ Tag_conformance
	.cpu	cortex-m23
	.eabi_attribute	6, 16	@ Tag_CPU_arch
	.eabi_attribute	7, 77	@ Tag_CPU_arch_profile
	.eabi_attribute	8, 0	@ Tag_ARM_ISA_use
	.eabi_attribute	9, 3	@ Tag_THUMB_ISA_use
	.eabi_attribute	34, 0	@ Tag_CPU_unaligned_access
	.eabi_attribute	17, 1	@ Tag_ABI_PCS_GOT_use
	.eabi_attribute	20, 2	@ Tag_ABI_FP_denormal
	.eabi_attribute	21, 0	@ Tag_ABI_FP_exceptions
	.eabi_attribute	23, 1	@ Tag_ABI_FP_number_model
	.eabi_attribute	24, 1	@ Tag_ABI_align_needed
	.eabi_attribute	25, 1	@ Tag_ABI_align_preserved
	.eabi_attribute	38, 1	@ Tag_ABI_FP_16bit_format
	.eabi_attribute	18, 4	@ Tag_ABI_PCS_wchar_t
	.eabi_attribute	26, 2	@ Tag_ABI_enum_size
	.eabi_attribute	14, 0	@ Tag_ABI_PCS_R9_use
	.file	"app.c"
	.file	1 "C:\\Users\\Anaya\\AppData\\Local\\Keil_v5\\ARM\\ARMCLANG\\bin\\..\\include" "stdint.h"
	.file	2 "D:\\work\\dheeraj\\local\\CEL\\CCC\\CCC_CPU0\\Code" "source/app.c"
	.file	3 "D:\\work\\dheeraj\\local\\CEL\\CCC\\CCC_CPU0\\Code" "source/Include\\app.h"
	.file	4 "D:\\work\\dheeraj\\local\\CEL\\CCC\\CCC_CPU0\\Code" "./source/oled/include\\SH1106.h"
	.file	5 "D:\\work\\dheeraj\\local\\CEL\\CCC\\CCC_CPU0\\Code" "../../CCC_common/Library/Device/Nuvoton/M261/Include\\wdt_reg.h"
	.file	6 "D:\\work\\dheeraj\\local\\CEL\\CCC\\CCC_CPU0\\Code" "source/Include\\interlock.h"
	.section	.text.cpu_sm,"ax",%progbits
	.hidden	cpu_sm                          @ -- Begin function cpu_sm
	.globl	cpu_sm
	.p2align	2
	.type	cpu_sm,%function
	.code	16                              @ @cpu_sm
	.thumb_func
cpu_sm:
.Lfunc_begin0:
	.loc	2 155 0                         @ source/app.c:155:0
	.fnstart
	.cfi_sections .debug_frame
	.cfi_startproc
@ %bb.0:
	.save	{r7, lr}
	push	{r7, lr}
	.cfi_def_cfa_offset 8
	.cfi_offset lr, -4
	.cfi_offset r7, -8
	.pad	#16
	sub	sp, #16
	.cfi_def_cfa_offset 24
.Ltmp0:
	.loc	2 158 9 prologue_end            @ source/app.c:158:9
	ldr	r0, __arm_cp.0_0
	ldrb	r0, [r0]
	.loc	2 158 2 is_stmt 0               @ source/app.c:158:2
	str	r0, [sp, #8]                    @ 4-byte Spill
	cbz	r0, .LBB0_3
	b	.LBB0_1
.LBB0_1:
	ldr	r0, [sp, #8]                    @ 4-byte Reload
	cmp	r0, #1
	beq	.LBB0_4
	b	.LBB0_2
.LBB0_2:
	ldr	r0, [sp, #8]                    @ 4-byte Reload
	cmp	r0, #2
	beq	.LBB0_8
	b	.LBB0_12
.LBB0_3:
.Ltmp1:
	.loc	2 160 14 is_stmt 1              @ source/app.c:160:14
	ldr	r1, __arm_cp.0_0
	movs	r0, #1
	str	r0, [sp, #4]                    @ 4-byte Spill
	strb	r0, [r1]
	.loc	2 161 4                         @ source/app.c:161:4
	bl	set_ctrl_defaults
	.loc	2 162 4                         @ source/app.c:162:4
	bl	oled_screen_init
	ldr	r0, [sp, #4]                    @ 4-byte Reload
	.loc	2 163 28                        @ source/app.c:163:28
	ldr	r2, __arm_cp.0_5
	movs	r1, #0
	strb	r1, [r2]
	.loc	2 164 22                        @ source/app.c:164:22
	ldr	r1, __arm_cp.0_6
	str	r0, [r1, #124]
	.loc	2 165 14                        @ source/app.c:165:14
	ldr	r1, __arm_cp.0_7
	strb	r0, [r1]
	ldr	r0, __arm_cp.0_8
	.loc	2 166 4                         @ source/app.c:166:4
	bl	wait_ms
	.loc	2 167 18                        @ source/app.c:167:18
	ldr	r1, __arm_cp.0_9
	movw	r0, #1000
	strh	r0, [r1, #10]
	.loc	2 175 4                         @ source/app.c:175:4
	b	.LBB0_13
.LBB0_4:
	.loc	2 0 4 is_stmt 0                 @ source/app.c:0:4
	movs	r0, #1
	.loc	2 180 8 is_stmt 1               @ source/app.c:180:8
	bl	read_switch_settings
	mov	r1, r0
	add	r0, sp, #12
	.loc	2 180 6 is_stmt 0               @ source/app.c:180:6
	strb	r1, [r0]
.Ltmp2:
	.loc	2 181 8 is_stmt 1               @ source/app.c:181:8
	ldrb	r0, [r0]
.Ltmp3:
	.loc	2 181 8 is_stmt 0               @ source/app.c:181:8
	cbz	r0, .LBB0_6
	b	.LBB0_5
.LBB0_5:
.Ltmp4:
	.loc	2 182 5 is_stmt 1               @ source/app.c:182:5
	b	.LBB0_13
.Ltmp5:
.LBB0_6:
	.loc	2 185 5                         @ source/app.c:185:5
	bl	update_cpu_ctrls
	b	.LBB0_7
.Ltmp6:
.LBB0_7:
	.loc	2 188 19                        @ source/app.c:188:19
	ldr	r1, __arm_cp.0_4
	movs	r0, #1
	strb	r0, [r1, #1]
	movs	r0, #0
	.loc	2 189 4                         @ source/app.c:189:4
	bl	check_flash
	.loc	2 194 4                         @ source/app.c:194:4
	bl	SH1106_Clear
	.loc	2 195 14                        @ source/app.c:195:14
	ldr	r1, __arm_cp.0_0
	movs	r0, #2
	strb	r0, [r1]
	.loc	2 196 4                         @ source/app.c:196:4
	b	.LBB0_13
.LBB0_8:
	.loc	2 198 4                         @ source/app.c:198:4
	bl	schedule_events
	.loc	2 199 4                         @ source/app.c:199:4
	bl	check_if_reset_initiated
	.loc	2 200 4                         @ source/app.c:200:4
	bl	poll_gps
	.loc	2 201 4                         @ source/app.c:201:4
	bl	schedule_events
	.loc	2 202 4                         @ source/app.c:202:4
	bl	cpu_read_write
	.loc	2 203 4                         @ source/app.c:203:4
	bl	send_com_pkt
	.loc	2 204 4                         @ source/app.c:204:4
	bl	rcv_com_pkt
	.loc	2 205 4                         @ source/app.c:205:4
	bl	send_el_pkt
	.loc	2 206 4                         @ source/app.c:206:4
	bl	fpga_read_write
	movs	r0, #1
	.loc	2 207 4                         @ source/app.c:207:4
	bl	check_flash
	.loc	2 208 4                         @ source/app.c:208:4
	bl	update_oled_screen
	.loc	2 209 4                         @ source/app.c:209:4
	bl	check_faults
	ldr	r1, __arm_cp.0_1
	ldr	r0, __arm_cp.0_2
	.loc	2 213 4                         @ source/app.c:213:4
	str	r0, [r1]
.Ltmp7:
	.loc	2 220 8                         @ source/app.c:220:8
	ldr	r0, __arm_cp.0_3
	ldrb	r0, [r0]
.Ltmp8:
	.loc	2 220 7 is_stmt 0               @ source/app.c:220:7
	lsls	r0, r0, #31
	cbz	r0, .LBB0_11
	b	.LBB0_9
.LBB0_9:
.Ltmp9:
	.loc	2 221 5 is_stmt 1               @ source/app.c:221:5
	b	.LBB0_10
.LBB0_10:                               @ =>This Inner Loop Header: Depth=1
	b	.LBB0_10
.Ltmp10:
.LBB0_11:
	.loc	2 226 4                         @ source/app.c:226:4
	b	.LBB0_13
.LBB0_12:
	.loc	2 229 4                         @ source/app.c:229:4
	b	.LBB0_13
.Ltmp11:
.LBB0_13:
	.loc	2 231 1 epilogue_begin          @ source/app.c:231:1
	add	sp, #16
	pop	{r7, pc}
.Ltmp12:
	.loc	2 0 1 is_stmt 0                 @ :0:1
.Ltmp13:
	.p2align	2
@ %bb.14:
__arm_cp.0_0:
	.long	cpu_state
.Lcpi_end0:
	.size	__arm_cp.0_0, .Lcpi_end0-__arm_cp.0_0
__arm_cp.0_1:
	.long	1074003976                      @ 0x40040008
.Lcpi_end1:
	.size	__arm_cp.0_1, .Lcpi_end1-__arm_cp.0_1
__arm_cp.0_2:
	.long	23205                           @ 0x5aa5
.Lcpi_end2:
	.size	__arm_cp.0_2, .Lcpi_end2-__arm_cp.0_2
__arm_cp.0_3:
	.long	g_test_hang
.Lcpi_end3:
	.size	__arm_cp.0_3, .Lcpi_end3-__arm_cp.0_3
__arm_cp.0_4:
	.long	ev
.Lcpi_end4:
	.size	__arm_cp.0_4, .Lcpi_end4-__arm_cp.0_4
__arm_cp.0_5:
	.long	is_enabled_check_faults
.Lcpi_end5:
	.size	__arm_cp.0_5, .Lcpi_end5-__arm_cp.0_5
__arm_cp.0_6:
	.long	sys
.Lcpi_end6:
	.size	__arm_cp.0_6, .Lcpi_end6-__arm_cp.0_6
__arm_cp.0_7:
	.long	b_inReset
.Lcpi_end7:
	.size	__arm_cp.0_7, .Lcpi_end7-__arm_cp.0_7
__arm_cp.0_8:
	.long	5000                            @ 0x1388
.Lcpi_end8:
	.size	__arm_cp.0_8, .Lcpi_end8-__arm_cp.0_8
__arm_cp.0_9:
	.long	tmr
.Lcpi_end9:
	.size	__arm_cp.0_9, .Lcpi_end9-__arm_cp.0_9
.Lfunc_end0:
	.size	cpu_sm, .Lfunc_end0-cpu_sm
	.cfi_endproc
	.cantunwind
	.fnend
                                        @ -- End function
	.section	.text.oled_screen_init,"ax",%progbits
	.p2align	2                               @ -- Begin function oled_screen_init
	.type	oled_screen_init,%function
	.code	16                              @ @oled_screen_init
	.thumb_func
oled_screen_init:
.Lfunc_begin1:
	.loc	2 110 0 is_stmt 1               @ source/app.c:110:0
	.fnstart
	.cfi_startproc
@ %bb.0:
	.save	{r7, lr}
	push	{r7, lr}
	.cfi_def_cfa_offset 8
	.cfi_offset lr, -4
	.cfi_offset r7, -8
.Ltmp14:
	.loc	2 111 2 prologue_end            @ source/app.c:111:2
	bl	SH1106_Init
	movs	r0, #0
	movs	r1, #32
	.loc	2 112 2                         @ source/app.c:112:2
	bl	SH1106_GotoXY
	.loc	2 113 2                         @ source/app.c:113:2
	ldr	r0, __arm_cp.1_0
	ldr	r1, __arm_cp.1_1
	movs	r2, #1
	bl	SH1106_Puts
	.loc	2 114 2                         @ source/app.c:114:2
	bl	SH1106_UpdateScreen
	.loc	2 115 1 epilogue_begin          @ source/app.c:115:1
	pop	{r7, pc}
.Ltmp15:
	.loc	2 0 1 is_stmt 0                 @ :0:1
.Ltmp16:
	.p2align	2
@ %bb.1:
__arm_cp.1_0:
	.long	.L.str
.Lcpi_end10:
	.size	__arm_cp.1_0, .Lcpi_end10-__arm_cp.1_0
__arm_cp.1_1:
	.long	Font_7x10
.Lcpi_end11:
	.size	__arm_cp.1_1, .Lcpi_end11-__arm_cp.1_1
.Lfunc_end1:
	.size	oled_screen_init, .Lfunc_end1-oled_screen_init
	.cfi_endproc
	.cantunwind
	.fnend
                                        @ -- End function
	.section	.text.check_flash,"ax",%progbits
	.p2align	2                               @ -- Begin function check_flash
	.type	check_flash,%function
	.code	16                              @ @check_flash
	.thumb_func
check_flash:
.Lfunc_begin2:
	.loc	2 437 0 is_stmt 1               @ source/app.c:437:0
	.fnstart
	.cfi_startproc
@ %bb.0:
	.save	{r4, lr}
	push	{r4, lr}
	.cfi_def_cfa_offset 8
	.cfi_offset lr, -4
	.cfi_offset r4, -8
	.pad	#16
	sub	sp, #16
	.cfi_def_cfa_offset 24
                                        @ kill: def $r1 killed $r0
	add	r1, sp, #12
	strb	r0, [r1]
.Ltmp17:
	.loc	2 443 9 prologue_end            @ source/app.c:443:9
	ldr	r0, __arm_cp.2_0
	ldrb	r0, [r0, #1]
	.loc	2 443 21 is_stmt 0              @ source/app.c:443:21
	lsls	r0, r0, #31
	cbz	r0, .LBB2_2
	b	.LBB2_1
.LBB2_1:
	.loc	2 443 36                        @ source/app.c:443:36
	ldr	r0, __arm_cp.2_1
	ldrb	r0, [r0, #29]
.Ltmp18:
	.loc	2 443 5                         @ source/app.c:443:5
	cbz	r0, .LBB2_3
	b	.LBB2_2
.LBB2_2:
.Ltmp19:
	.loc	2 445 2 is_stmt 1               @ source/app.c:445:2
	b	.LBB2_38
.Ltmp20:
.LBB2_3:
	.loc	2 447 18                        @ source/app.c:447:18
	ldr	r1, __arm_cp.2_0
	movs	r0, #0
	strb	r0, [r1, #1]
	.loc	2 450 33                        @ source/app.c:450:33
	ldr	r2, __arm_cp.2_2
	ldrb	r1, [r2]
	movs	r3, #1
	orrs	r1, r3
	strb	r1, [r2]
	add	r1, sp, #8
.Ltmp21:
	.loc	2 451 8                         @ source/app.c:451:8
	strb	r0, [r1]
	.loc	2 451 7 is_stmt 0               @ source/app.c:451:7
	b	.LBB2_4
.LBB2_4:                                @ =>This Inner Loop Header: Depth=1
	.loc	2 0 7                           @ source/app.c:0:7
	add	r0, sp, #8
.Ltmp22:
	.loc	2 451 11                        @ source/app.c:451:11
	ldrb	r0, [r0]
.Ltmp23:
	.loc	2 451 3                         @ source/app.c:451:3
	cmp	r0, #2
	bhi	.LBB2_7
	b	.LBB2_5
.LBB2_5:                                @   in Loop: Header=BB2_4 Depth=1
	.loc	2 0 3                           @ source/app.c:0:3
	add	r0, sp, #8
.Ltmp24:
	.loc	2 452 20 is_stmt 1              @ source/app.c:452:20
	ldrb	r0, [r0]
	movs	r1, #1
	.loc	2 452 4 is_stmt 0               @ source/app.c:452:4
	bl	write_cpu_ctrls
	.loc	2 453 3 is_stmt 1               @ source/app.c:453:3
	b	.LBB2_6
.Ltmp25:
.LBB2_6:                                @   in Loop: Header=BB2_4 Depth=1
	.loc	2 451 17                        @ source/app.c:451:17
	ldr	r0, [sp, #8]
	adds	r0, r0, #1
	add	r1, sp, #8
	strb	r0, [r1]
	.loc	2 451 3 is_stmt 0               @ source/app.c:451:3
	b	.LBB2_4
.Ltmp26:
.LBB2_7:
	.loc	2 454 33 is_stmt 1              @ source/app.c:454:33
	ldr	r1, __arm_cp.2_2
	ldrb	r0, [r1]
	movs	r2, #254
	ands	r0, r2
	strb	r0, [r1]
	.loc	2 457 3                         @ source/app.c:457:3
	ldr	r0, __arm_cp.2_3
	adds	r0, #12
	bl	get_flash_checksum
	movw	r0, #1000
	.loc	2 459 3                         @ source/app.c:459:3
	bl	wait_ms
	add	r1, sp, #8
	movs	r0, #0
.Ltmp27:
	.loc	2 461 8                         @ source/app.c:461:8
	strb	r0, [r1]
	.loc	2 461 7 is_stmt 0               @ source/app.c:461:7
	b	.LBB2_8
.LBB2_8:                                @ =>This Inner Loop Header: Depth=1
	.loc	2 0 7                           @ source/app.c:0:7
	add	r0, sp, #8
.Ltmp28:
	.loc	2 461 11                        @ source/app.c:461:11
	ldrb	r0, [r0]
.Ltmp29:
	.loc	2 461 3                         @ source/app.c:461:3
	cmp	r0, #2
	bhi	.LBB2_11
	b	.LBB2_9
.LBB2_9:                                @   in Loop: Header=BB2_8 Depth=1
	.loc	2 0 3                           @ source/app.c:0:3
	add	r0, sp, #8
.Ltmp30:
	.loc	2 462 24 is_stmt 1              @ source/app.c:462:24
	ldrb	r0, [r0]
	.loc	2 462 4 is_stmt 0               @ source/app.c:462:4
	bl	read_flash_checksum
	.loc	2 463 3 is_stmt 1               @ source/app.c:463:3
	b	.LBB2_10
.Ltmp31:
.LBB2_10:                               @   in Loop: Header=BB2_8 Depth=1
	.loc	2 461 17                        @ source/app.c:461:17
	ldr	r0, [sp, #8]
	adds	r0, r0, #1
	add	r1, sp, #8
	strb	r0, [r1]
	.loc	2 461 3 is_stmt 0               @ source/app.c:461:3
	b	.LBB2_8
.Ltmp32:
.LBB2_11:
	.loc	2 0 3                           @ source/app.c:0:3
	add	r0, sp, #12
.Ltmp33:
	.loc	2 465 6 is_stmt 1               @ source/app.c:465:6
	ldrb	r0, [r0]
.Ltmp34:
	.loc	2 465 6 is_stmt 0               @ source/app.c:465:6
	cbnz	r0, .LBB2_21
	b	.LBB2_12
.LBB2_12:
.Ltmp35:
	.loc	2 466 29 is_stmt 1              @ source/app.c:466:29
	ldr	r0, __arm_cp.2_3
	ldr	r0, [r0, #12]
	.loc	2 466 23 is_stmt 0              @ source/app.c:466:23
	ldr	r1, __arm_cp.2_6
	str	r0, [r1, #60]
	add	r1, sp, #8
	movs	r0, #0
.Ltmp36:
	.loc	2 468 9 is_stmt 1               @ source/app.c:468:9
	strb	r0, [r1]
	.loc	2 468 8 is_stmt 0               @ source/app.c:468:8
	b	.LBB2_13
.LBB2_13:                               @ =>This Loop Header: Depth=1
                                        @     Child Loop BB2_15 Depth 2
	.loc	2 0 8                           @ source/app.c:0:8
	add	r0, sp, #8
.Ltmp37:
	.loc	2 468 13                        @ source/app.c:468:13
	ldrb	r0, [r0]
.Ltmp38:
	.loc	2 468 4                         @ source/app.c:468:4
	cmp	r0, #2
	bhi	.LBB2_20
	b	.LBB2_14
.LBB2_14:                               @   in Loop: Header=BB2_13 Depth=1
	.loc	2 0 4                           @ source/app.c:0:4
	add	r1, sp, #4
	movs	r0, #0
.Ltmp39:
	.loc	2 469 10 is_stmt 1              @ source/app.c:469:10
	strb	r0, [r1]
	.loc	2 469 9 is_stmt 0               @ source/app.c:469:9
	b	.LBB2_15
.LBB2_15:                               @   Parent Loop BB2_13 Depth=1
                                        @ =>  This Inner Loop Header: Depth=2
	.loc	2 0 9                           @ source/app.c:0:9
	add	r0, sp, #4
.Ltmp40:
	.loc	2 469 14                        @ source/app.c:469:14
	ldrb	r0, [r0]
.Ltmp41:
	.loc	2 469 5                         @ source/app.c:469:5
	cmp	r0, #3
	bhi	.LBB2_18
	b	.LBB2_16
.LBB2_16:                               @   in Loop: Header=BB2_15 Depth=2
	.loc	2 0 5                           @ source/app.c:0:5
	add	r0, sp, #8
.Ltmp42:
	.loc	2 470 36 is_stmt 1              @ source/app.c:470:36
	ldrb	r1, [r0]
	ldr	r2, __arm_cp.2_4
	.loc	2 470 33 is_stmt 0              @ source/app.c:470:33
	muls	r2, r1, r2
	ldr	r0, __arm_cp.2_5
	adds	r0, r0, r2
	add	r2, sp, #4
	.loc	2 470 54                        @ source/app.c:470:54
	ldrb	r2, [r2]
	.loc	2 470 39                        @ source/app.c:470:39
	adds	r0, r0, r2
	.loc	2 470 33                        @ source/app.c:470:33
	ldrb	r0, [r0, #14]
	movs	r3, #5
	.loc	2 470 6                         @ source/app.c:470:6
	muls	r3, r1, r3
	ldr	r1, __arm_cp.2_6
	adds	r1, r1, r3
	adds	r1, r1, r2
	movs	r2, #44
	.loc	2 470 31                        @ source/app.c:470:31
	strb	r0, [r1, r2]
	.loc	2 471 5 is_stmt 1               @ source/app.c:471:5
	b	.LBB2_17
.Ltmp43:
.LBB2_17:                               @   in Loop: Header=BB2_15 Depth=2
	.loc	2 469 20                        @ source/app.c:469:20
	ldr	r0, [sp, #4]
	adds	r0, r0, #1
	add	r1, sp, #4
	strb	r0, [r1]
	.loc	2 469 5 is_stmt 0               @ source/app.c:469:5
	b	.LBB2_15
.Ltmp44:
.LBB2_18:                               @   in Loop: Header=BB2_13 Depth=1
	.loc	2 472 4 is_stmt 1               @ source/app.c:472:4
	b	.LBB2_19
.Ltmp45:
.LBB2_19:                               @   in Loop: Header=BB2_13 Depth=1
	.loc	2 468 19                        @ source/app.c:468:19
	ldr	r0, [sp, #8]
	adds	r0, r0, #1
	add	r1, sp, #8
	strb	r0, [r1]
	.loc	2 468 4 is_stmt 0               @ source/app.c:468:4
	b	.LBB2_13
.Ltmp46:
.LBB2_20:
	.loc	2 473 3 is_stmt 1               @ source/app.c:473:3
	b	.LBB2_37
.Ltmp47:
.LBB2_21:
	.loc	2 0 3 is_stmt 0                 @ source/app.c:0:3
	add	r0, sp, #12
.Ltmp48:
	.loc	2 474 11 is_stmt 1              @ source/app.c:474:11
	ldrb	r0, [r0]
.Ltmp49:
	.loc	2 474 11 is_stmt 0              @ source/app.c:474:11
	cmp	r0, #1
	bne	.LBB2_35
	b	.LBB2_22
.LBB2_22:
	.loc	2 0 11                          @ source/app.c:0:11
	add	r1, sp, #8
	movs	r0, #0
.Ltmp50:
	.loc	2 475 9 is_stmt 1               @ source/app.c:475:9
	strb	r0, [r1]
	.loc	2 475 8 is_stmt 0               @ source/app.c:475:8
	b	.LBB2_23
.LBB2_23:                               @ =>This Loop Header: Depth=1
                                        @     Child Loop BB2_27 Depth 2
	.loc	2 0 8                           @ source/app.c:0:8
	add	r0, sp, #8
.Ltmp51:
	.loc	2 475 13                        @ source/app.c:475:13
	ldrb	r0, [r0]
.Ltmp52:
	.loc	2 475 4                         @ source/app.c:475:4
	cmp	r0, #2
	bhi	.LBB2_34
	b	.LBB2_24
.LBB2_24:                               @   in Loop: Header=BB2_23 Depth=1
	.loc	2 0 4                           @ source/app.c:0:4
	add	r2, sp, #8
.Ltmp53:
	.loc	2 476 8 is_stmt 1               @ source/app.c:476:8
	ldrb	r0, [r2]
	ldr	r1, __arm_cp.2_4
	.loc	2 476 5 is_stmt 0               @ source/app.c:476:5
	mov	r3, r1
	muls	r3, r0, r3
	ldr	r0, __arm_cp.2_5
	adds	r4, r0, r3
	movs	r3, #0
	.loc	2 476 26                        @ source/app.c:476:26
	strb	r3, [r4, #5]
.Ltmp54:
	.loc	2 477 11 is_stmt 1              @ source/app.c:477:11
	ldrb	r2, [r2]
	.loc	2 477 8 is_stmt 0               @ source/app.c:477:8
	muls	r1, r2, r1
	adds	r0, r0, r1
	ldrb	r0, [r0, #18]
.Ltmp55:
	.loc	2 477 8                         @ source/app.c:477:8
	cbz	r0, .LBB2_26
	b	.LBB2_25
.LBB2_25:                               @   in Loop: Header=BB2_23 Depth=1
	.loc	2 0 8                           @ source/app.c:0:8
	add	r0, sp, #8
.Ltmp56:
	.loc	2 478 9 is_stmt 1               @ source/app.c:478:9
	ldrb	r0, [r0]
	ldr	r1, __arm_cp.2_4
	.loc	2 478 6 is_stmt 0               @ source/app.c:478:6
	muls	r1, r0, r1
	ldr	r0, __arm_cp.2_5
	adds	r1, r0, r1
	movs	r0, #1
	.loc	2 478 27                        @ source/app.c:478:27
	strb	r0, [r1, #5]
	.loc	2 479 5 is_stmt 1               @ source/app.c:479:5
	b	.LBB2_26
.Ltmp57:
.LBB2_26:                               @   in Loop: Header=BB2_23 Depth=1
	.loc	2 0 5 is_stmt 0                 @ source/app.c:0:5
	add	r1, sp, #4
	movs	r0, #0
.Ltmp58:
	.loc	2 481 10 is_stmt 1              @ source/app.c:481:10
	strb	r0, [r1]
	.loc	2 481 9 is_stmt 0               @ source/app.c:481:9
	b	.LBB2_27
.LBB2_27:                               @   Parent Loop BB2_23 Depth=1
                                        @ =>  This Inner Loop Header: Depth=2
	.loc	2 0 9                           @ source/app.c:0:9
	add	r0, sp, #4
.Ltmp59:
	.loc	2 481 14                        @ source/app.c:481:14
	ldrb	r0, [r0]
.Ltmp60:
	.loc	2 481 5                         @ source/app.c:481:5
	cmp	r0, #3
	bhi	.LBB2_32
	b	.LBB2_28
.LBB2_28:                               @   in Loop: Header=BB2_27 Depth=2
	.loc	2 0 5                           @ source/app.c:0:5
	add	r0, sp, #8
.Ltmp61:
	.loc	2 482 28 is_stmt 1              @ source/app.c:482:28
	ldrb	r1, [r0]
	movs	r2, #5
	.loc	2 482 9 is_stmt 0               @ source/app.c:482:9
	muls	r2, r1, r2
	ldr	r0, __arm_cp.2_6
	adds	r0, r0, r2
	add	r2, sp, #4
	.loc	2 482 31                        @ source/app.c:482:31
	ldrb	r2, [r2]
	.loc	2 482 9                         @ source/app.c:482:9
	adds	r0, r0, r2
	movs	r3, #44
	ldrb	r0, [r0, r3]
	ldr	r3, __arm_cp.2_4
	.loc	2 482 37                        @ source/app.c:482:37
	muls	r3, r1, r3
	ldr	r1, __arm_cp.2_5
	adds	r1, r1, r3
	.loc	2 482 43                        @ source/app.c:482:43
	adds	r1, r1, r2
	.loc	2 482 37                        @ source/app.c:482:37
	ldrb	r1, [r1, #14]
.Ltmp62:
	.loc	2 482 9                         @ source/app.c:482:9
	cmp	r0, r1
	beq	.LBB2_30
	b	.LBB2_29
.LBB2_29:                               @   in Loop: Header=BB2_27 Depth=2
	.loc	2 0 9                           @ source/app.c:0:9
	add	r0, sp, #8
.Ltmp63:
	.loc	2 483 10 is_stmt 1              @ source/app.c:483:10
	ldrb	r0, [r0]
	ldr	r1, __arm_cp.2_4
	.loc	2 483 7 is_stmt 0               @ source/app.c:483:7
	muls	r1, r0, r1
	ldr	r0, __arm_cp.2_5
	adds	r1, r0, r1
	movs	r0, #1
	.loc	2 483 28                        @ source/app.c:483:28
	strb	r0, [r1, #5]
	.loc	2 484 6 is_stmt 1               @ source/app.c:484:6
	b	.LBB2_30
.Ltmp64:
.LBB2_30:                               @   in Loop: Header=BB2_27 Depth=2
	.loc	2 485 5                         @ source/app.c:485:5
	b	.LBB2_31
.Ltmp65:
.LBB2_31:                               @   in Loop: Header=BB2_27 Depth=2
	.loc	2 481 20                        @ source/app.c:481:20
	ldr	r0, [sp, #4]
	adds	r0, r0, #1
	add	r1, sp, #4
	strb	r0, [r1]
	.loc	2 481 5 is_stmt 0               @ source/app.c:481:5
	b	.LBB2_27
.Ltmp66:
.LBB2_32:                               @   in Loop: Header=BB2_23 Depth=1
	.loc	2 486 4 is_stmt 1               @ source/app.c:486:4
	b	.LBB2_33
.Ltmp67:
.LBB2_33:                               @   in Loop: Header=BB2_23 Depth=1
	.loc	2 475 19                        @ source/app.c:475:19
	ldr	r0, [sp, #8]
	adds	r0, r0, #1
	add	r1, sp, #8
	strb	r0, [r1]
	.loc	2 475 4 is_stmt 0               @ source/app.c:475:4
	b	.LBB2_23
.Ltmp68:
.LBB2_34:
	.loc	2 487 3 is_stmt 1               @ source/app.c:487:3
	b	.LBB2_36
.Ltmp69:
.LBB2_35:
	.loc	2 0 3 is_stmt 0                 @ source/app.c:0:3
	b	.LBB2_36
.LBB2_36:
	b	.LBB2_37
.LBB2_37:
	b	.LBB2_38
.LBB2_38:
	.loc	2 492 1 epilogue_begin is_stmt 1 @ source/app.c:492:1
	add	sp, #16
	pop	{r4, pc}
.Ltmp70:
	.loc	2 0 1 is_stmt 0                 @ :0:1
.Ltmp71:
	.p2align	2
@ %bb.39:
__arm_cp.2_0:
	.long	ev
.Lcpi_end12:
	.size	__arm_cp.2_0, .Lcpi_end12-__arm_cp.2_0
__arm_cp.2_1:
	.long	spi_com_cpu
.Lcpi_end13:
	.size	__arm_cp.2_1, .Lcpi_end13-__arm_cp.2_1
__arm_cp.2_2:
	.long	cpu_ctrls_u
.Lcpi_end14:
	.size	__arm_cp.2_2, .Lcpi_end14-__arm_cp.2_2
__arm_cp.2_3:
	.long	sys
.Lcpi_end15:
	.size	__arm_cp.2_3, .Lcpi_end15-__arm_cp.2_3
__arm_cp.2_4:
	.long	1702                            @ 0x6a6
.Lcpi_end16:
	.size	__arm_cp.2_4, .Lcpi_end16-__arm_cp.2_4
__arm_cp.2_5:
	.long	pe
.Lcpi_end17:
	.size	__arm_cp.2_5, .Lcpi_end17-__arm_cp.2_5
__arm_cp.2_6:
	.long	cfg
.Lcpi_end18:
	.size	__arm_cp.2_6, .Lcpi_end18-__arm_cp.2_6
.Lfunc_end2:
	.size	check_flash, .Lfunc_end2-check_flash
	.cfi_endproc
	.cantunwind
	.fnend
                                        @ -- End function
	.section	.text.check_if_reset_initiated,"ax",%progbits
	.p2align	2                               @ -- Begin function check_if_reset_initiated
	.type	check_if_reset_initiated,%function
	.code	16                              @ @check_if_reset_initiated
	.thumb_func
check_if_reset_initiated:
.Lfunc_begin3:
	.loc	2 1447 0 is_stmt 1              @ source/app.c:1447:0
	.fnstart
	.cfi_startproc
@ %bb.0:
	.pad	#8
	sub	sp, #8
	.cfi_def_cfa_offset 8
.Ltmp72:
	.loc	2 1450 7 prologue_end           @ source/app.c:1450:7
	ldr	r0, __arm_cp.3_0
	ldr	r1, __arm_cp.3_1
	adds	r0, r0, r1
	str	r0, [sp, #4]
	.loc	2 1452 9                        @ source/app.c:1452:9
	movs	r1, #0
	ldr	r0, __arm_cp.3_2
	ldrsb	r0, [r0, r1]
	.loc	2 1452 2 is_stmt 0              @ source/app.c:1452:2
	adds	r0, r0, #1
	str	r0, [sp]                        @ 4-byte Spill
	cmp	r0, #6
	bls	.LBB3_1
	b	.LBB3_30
.LBB3_1:
	ldr	r1, [sp]                        @ 4-byte Reload
	lsls	r2, r1, #2
	adr	r0, .LJTI3_0
	adds	r0, r0, r2
	mov	pc, r0
@ %bb.2:
	.loc	2 0 2                           @ source/app.c:0:2
	.p2align	2
.LJTI3_0:
	b.w	.LBB3_3
	b.w	.LBB3_6
	b.w	.LBB3_9
	b.w	.LBB3_13
	b.w	.LBB3_17
	b.w	.LBB3_18
	b.w	.LBB3_26
.LBB3_3:
.Ltmp73:
	.loc	2 1454 30 is_stmt 1             @ source/app.c:1454:30
	ldr	r1, __arm_cp.3_7
	ldrb	r0, [r1]
	movs	r2, #191
	ands	r0, r2
	strb	r0, [r1]
	.loc	2 1455 33                       @ source/app.c:1455:33
	ldrb	r0, [r1]
	movs	r2, #128
	orrs	r0, r2
	strb	r0, [r1]
.Ltmp74:
	.loc	2 1456 11                       @ source/app.c:1456:11
	ldr	r0, __arm_cp.3_3
	ldrh	r0, [r0, #10]
.Ltmp75:
	.loc	2 1456 7 is_stmt 0              @ source/app.c:1456:7
	cbnz	r0, .LBB3_5
	b	.LBB3_4
.LBB3_4:
.Ltmp76:
	.loc	2 1457 23 is_stmt 1             @ source/app.c:1457:23
	ldr	r1, __arm_cp.3_4
	movs	r0, #1
	str	r0, [r1, #124]
	movs	r2, #121
	.loc	2 1458 18                       @ source/app.c:1458:18
	strb	r0, [r1, r2]
	.loc	2 1459 21                       @ source/app.c:1459:21
	ldr	r2, __arm_cp.3_2
	movs	r1, #0
	strb	r1, [r2]
	.loc	2 1460 15                       @ source/app.c:1460:15
	ldr	r1, __arm_cp.3_5
	strb	r0, [r1]
	.loc	2 1461 4                        @ source/app.c:1461:4
	b	.LBB3_5
.Ltmp77:
.LBB3_5:
	.loc	2 1462 4                        @ source/app.c:1462:4
	b	.LBB3_30
.LBB3_6:
.Ltmp78:
	.loc	2 1464 7                        @ source/app.c:1464:7
	ldr	r0, [sp, #4]
	.loc	2 1464 13 is_stmt 0             @ source/app.c:1464:13
	ldrb	r0, [r0, #4]
	lsrs	r0, r0, #6
.Ltmp79:
	.loc	2 1464 7                        @ source/app.c:1464:7
	cmp	r0, #1
	bne	.LBB3_8
	b	.LBB3_7
.LBB3_7:
.Ltmp80:
	.loc	2 1465 21 is_stmt 1             @ source/app.c:1465:21
	ldr	r1, __arm_cp.3_2
	movs	r0, #1
	strb	r0, [r1]
	.loc	2 1466 4                        @ source/app.c:1466:4
	b	.LBB3_8
.Ltmp81:
.LBB3_8:
	.loc	2 1467 4                        @ source/app.c:1467:4
	b	.LBB3_30
.LBB3_9:
.Ltmp82:
	.loc	2 1469 11                       @ source/app.c:1469:11
	ldr	r0, __arm_cp.3_4
	movs	r1, #128
	ldrb	r0, [r0, r1]
	.loc	2 1469 31 is_stmt 0             @ source/app.c:1469:31
	cmp	r0, #19
	bgt	.LBB3_11
	b	.LBB3_10
.LBB3_10:
	.loc	2 1469 39                       @ source/app.c:1469:39
	ldr	r0, __arm_cp.3_4
	movs	r1, #129
	ldrb	r0, [r0, r1]
.Ltmp83:
	.loc	2 1469 7                        @ source/app.c:1469:7
	cmp	r0, #10
	blt	.LBB3_12
	b	.LBB3_11
.LBB3_11:
.Ltmp84:
	.loc	2 1470 23 is_stmt 1             @ source/app.c:1470:23
	ldr	r1, __arm_cp.3_4
	movs	r0, #2
	str	r0, [r1, #124]
	movs	r3, #121
	movs	r2, #1
	.loc	2 1471 18                       @ source/app.c:1471:18
	strb	r2, [r1, r3]
	.loc	2 1472 21                       @ source/app.c:1472:21
	ldr	r2, __arm_cp.3_2
	strb	r0, [r2]
	movs	r2, #128
	movs	r0, #0
	.loc	2 1473 23                       @ source/app.c:1473:23
	strb	r0, [r1, r2]
	.loc	2 1474 29                       @ source/app.c:1474:29
	ldr	r1, __arm_cp.3_7
	ldrb	r0, [r1]
	movs	r3, #191
	ands	r0, r3
	strb	r0, [r1]
	.loc	2 1475 31                       @ source/app.c:1475:31
	ldrb	r0, [r1]
	orrs	r0, r2
	strb	r0, [r1]
	.loc	2 1476 4                        @ source/app.c:1476:4
	b	.LBB3_12
.Ltmp85:
.LBB3_12:
	.loc	2 1477 4                        @ source/app.c:1477:4
	b	.LBB3_30
.LBB3_13:
.Ltmp86:
	.loc	2 1479 12                       @ source/app.c:1479:12
	ldr	r0, __arm_cp.3_4
	movs	r1, #129
	ldrb	r0, [r0, r1]
	.loc	2 1479 37 is_stmt 0             @ source/app.c:1479:37
	cmp	r0, #9
	bgt	.LBB3_15
	b	.LBB3_14
.LBB3_14:
	.loc	2 1479 45                       @ source/app.c:1479:45
	ldr	r0, __arm_cp.3_4
	movs	r1, #130
	ldrb	r0, [r0, r1]
.Ltmp87:
	.loc	2 1479 7                        @ source/app.c:1479:7
	cmp	r0, #10
	blt	.LBB3_16
	b	.LBB3_15
.LBB3_15:
.Ltmp88:
	.loc	2 1480 18 is_stmt 1             @ source/app.c:1480:18
	ldr	r1, __arm_cp.3_4
	movs	r2, #121
	movs	r0, #0
	strb	r0, [r1, r2]
	movs	r2, #130
	.loc	2 1481 19                       @ source/app.c:1481:19
	strb	r0, [r1, r2]
	movs	r2, #129
	.loc	2 1482 27                       @ source/app.c:1482:27
	strb	r0, [r1, r2]
	movs	r2, #128
	.loc	2 1483 23                       @ source/app.c:1483:23
	strb	r0, [r1, r2]
	.loc	2 1484 21                       @ source/app.c:1484:21
	ldr	r3, __arm_cp.3_2
	movs	r2, #3
	strb	r2, [r3]
	.loc	2 1485 15                       @ source/app.c:1485:15
	ldr	r2, __arm_cp.3_5
	strb	r0, [r2]
	.loc	2 1486 23                       @ source/app.c:1486:23
	str	r0, [r1, #124]
	.loc	2 1487 4                        @ source/app.c:1487:4
	b	.LBB3_16
.Ltmp89:
.LBB3_16:
	.loc	2 1488 4                        @ source/app.c:1488:4
	b	.LBB3_30
.LBB3_17:
	.loc	2 1490 20                       @ source/app.c:1490:20
	ldr	r1, __arm_cp.3_2
	movs	r0, #5
	strb	r0, [r1]
	.loc	2 1491 17                       @ source/app.c:1491:17
	ldr	r1, __arm_cp.3_4
	movs	r2, #121
	movs	r0, #0
	strb	r0, [r1, r2]
	.loc	2 1493 20                       @ source/app.c:1493:20
	ldr	r1, __arm_cp.3_6
	movs	r0, #1
	strb	r0, [r1]
	.loc	2 1494 4                        @ source/app.c:1494:4
	b	.LBB3_30
.LBB3_18:
.Ltmp90:
	.loc	2 1496 11                       @ source/app.c:1496:11
	ldr	r0, __arm_cp.3_4
	movs	r1, #128
	ldrb	r0, [r0, r1]
.Ltmp91:
	.loc	2 1496 7 is_stmt 0              @ source/app.c:1496:7
	cmp	r0, #20
	blt	.LBB3_20
	b	.LBB3_19
.LBB3_19:
.Ltmp92:
	.loc	2 1497 23 is_stmt 1             @ source/app.c:1497:23
	ldr	r2, __arm_cp.3_4
	movs	r0, #2
	str	r0, [r2, #124]
	movs	r3, #128
	movs	r1, #0
	.loc	2 1498 23                       @ source/app.c:1498:23
	strb	r1, [r2, r3]
	.loc	2 1499 21                       @ source/app.c:1499:21
	ldr	r1, __arm_cp.3_2
	strb	r0, [r1]
	.loc	2 1501 4                        @ source/app.c:1501:4
	b	.LBB3_20
.Ltmp93:
.LBB3_20:
	.loc	2 1502 11                       @ source/app.c:1502:11
	ldr	r0, __arm_cp.3_4
	movs	r1, #129
	ldrb	r0, [r0, r1]
.Ltmp94:
	.loc	2 1502 7 is_stmt 0              @ source/app.c:1502:7
	cbz	r0, .LBB3_22
	b	.LBB3_21
.LBB3_21:
.Ltmp95:
	.loc	2 1503 21 is_stmt 1             @ source/app.c:1503:21
	ldr	r1, __arm_cp.3_2
	movs	r0, #2
	strb	r0, [r1]
	.loc	2 1504 4                        @ source/app.c:1504:4
	b	.LBB3_25
.Ltmp96:
.LBB3_22:
	.loc	2 1505 16                       @ source/app.c:1505:16
	ldr	r0, __arm_cp.3_4
	movs	r1, #130
	ldrb	r0, [r0, r1]
.Ltmp97:
	.loc	2 1505 12 is_stmt 0             @ source/app.c:1505:12
	cbz	r0, .LBB3_24
	b	.LBB3_23
.LBB3_23:
.Ltmp98:
	.loc	2 1506 21 is_stmt 1             @ source/app.c:1506:21
	ldr	r1, __arm_cp.3_2
	movs	r0, #2
	strb	r0, [r1]
	.loc	2 1507 4                        @ source/app.c:1507:4
	b	.LBB3_24
.Ltmp99:
.LBB3_24:
	.loc	2 0 4 is_stmt 0                 @ source/app.c:0:4
	b	.LBB3_25
.LBB3_25:
	.loc	2 1508 4 is_stmt 1              @ source/app.c:1508:4
	b	.LBB3_30
.LBB3_26:
.Ltmp100:
	.loc	2 1510 11                       @ source/app.c:1510:11
	ldr	r0, __arm_cp.3_3
	ldrh	r0, [r0, #10]
	.loc	2 1510 26 is_stmt 0             @ source/app.c:1510:26
	cbz	r0, .LBB3_28
	b	.LBB3_27
.LBB3_27:
	.loc	2 1510 33                       @ source/app.c:1510:33
	ldr	r0, __arm_cp.3_4
	movs	r1, #128
	ldrb	r0, [r0, r1]
.Ltmp101:
	.loc	2 1510 7                        @ source/app.c:1510:7
	cmp	r0, #20
	blt	.LBB3_29
	b	.LBB3_28
.LBB3_28:
.Ltmp102:
	.loc	2 1511 23 is_stmt 1             @ source/app.c:1511:23
	ldr	r1, __arm_cp.3_4
	movs	r0, #1
	str	r0, [r1, #124]
	movs	r2, #121
	.loc	2 1512 18                       @ source/app.c:1512:18
	strb	r0, [r1, r2]
	.loc	2 1513 21                       @ source/app.c:1513:21
	ldr	r2, __arm_cp.3_2
	movs	r1, #255
	strb	r1, [r2]
	.loc	2 1514 15                       @ source/app.c:1514:15
	ldr	r1, __arm_cp.3_5
	strb	r0, [r1]
	.loc	2 1515 4                        @ source/app.c:1515:4
	b	.LBB3_29
.Ltmp103:
.LBB3_29:
	.loc	2 1516 4                        @ source/app.c:1516:4
	b	.LBB3_30
.Ltmp104:
.LBB3_30:
	.loc	2 1520 5                        @ source/app.c:1520:5
	ldr	r0, [sp, #4]
	.loc	2 1520 11 is_stmt 0             @ source/app.c:1520:11
	ldrb	r0, [r0, #4]
	lsrs	r0, r0, #6
.Ltmp105:
	.loc	2 1520 5                        @ source/app.c:1520:5
	cmp	r0, #1
	bne	.LBB3_32
	b	.LBB3_31
.LBB3_31:
.Ltmp106:
	.loc	2 1521 17 is_stmt 1             @ source/app.c:1521:17
	ldr	r1, __arm_cp.3_3
	movw	r0, #1000
	strh	r0, [r1, #10]
	.loc	2 1522 2                        @ source/app.c:1522:2
	b	.LBB3_33
.Ltmp107:
.LBB3_32:
	.loc	2 0 2 is_stmt 0                 @ source/app.c:0:2
	b	.LBB3_33
.LBB3_33:
.Ltmp108:
	.loc	2 1527 9 is_stmt 1              @ source/app.c:1527:9
	ldr	r0, __arm_cp.3_3
	ldrh	r0, [r0, #14]
.Ltmp109:
	.loc	2 1527 5 is_stmt 0              @ source/app.c:1527:5
	cbnz	r0, .LBB3_35
	b	.LBB3_34
.LBB3_34:
.Ltmp110:
	.loc	2 1528 25 is_stmt 1             @ source/app.c:1528:25
	ldr	r1, __arm_cp.3_4
	movs	r2, #129
	movs	r0, #0
	strb	r0, [r1, r2]
	.loc	2 1529 2                        @ source/app.c:1529:2
	b	.LBB3_36
.Ltmp111:
.LBB3_35:
	.loc	2 0 2 is_stmt 0                 @ source/app.c:0:2
	b	.LBB3_36
.LBB3_36:
.Ltmp112:
	.loc	2 1534 9 is_stmt 1              @ source/app.c:1534:9
	ldr	r0, __arm_cp.3_3
	ldrh	r0, [r0, #16]
.Ltmp113:
	.loc	2 1534 5 is_stmt 0              @ source/app.c:1534:5
	cbnz	r0, .LBB3_38
	b	.LBB3_37
.LBB3_37:
.Ltmp114:
	.loc	2 1535 17 is_stmt 1             @ source/app.c:1535:17
	ldr	r1, __arm_cp.3_4
	movs	r2, #130
	movs	r0, #0
	strb	r0, [r1, r2]
	.loc	2 1536 2                        @ source/app.c:1536:2
	b	.LBB3_39
.Ltmp115:
.LBB3_38:
	.loc	2 0 2 is_stmt 0                 @ source/app.c:0:2
	b	.LBB3_39
.LBB3_39:
.Ltmp116:
	.loc	2 1541 9 is_stmt 1              @ source/app.c:1541:9
	ldr	r0, __arm_cp.3_3
	ldrh	r0, [r0, #12]
.Ltmp117:
	.loc	2 1541 5 is_stmt 0              @ source/app.c:1541:5
	cbnz	r0, .LBB3_41
	b	.LBB3_40
.LBB3_40:
.Ltmp118:
	.loc	2 1542 21 is_stmt 1             @ source/app.c:1542:21
	ldr	r1, __arm_cp.3_4
	movs	r2, #128
	movs	r0, #0
	strb	r0, [r1, r2]
	.loc	2 1543 2                        @ source/app.c:1543:2
	b	.LBB3_42
.Ltmp119:
.LBB3_41:
	.loc	2 0 2 is_stmt 0                 @ source/app.c:0:2
	b	.LBB3_42
.LBB3_42:
	.loc	2 1547 1 epilogue_begin is_stmt 1 @ source/app.c:1547:1
	add	sp, #8
	bx	lr
.Ltmp120:
	.loc	2 0 1 is_stmt 0                 @ :0:1
.Ltmp121:
	.p2align	2
@ %bb.43:
__arm_cp.3_0:
	.long	pe
.Lcpi_end19:
	.size	__arm_cp.3_0, .Lcpi_end19-__arm_cp.3_0
__arm_cp.3_1:
	.long	5125                            @ 0x1405
.Lcpi_end20:
	.size	__arm_cp.3_1, .Lcpi_end20-__arm_cp.3_1
__arm_cp.3_2:
	.long	check_if_reset_initiated.state_reset_seq
.Lcpi_end21:
	.size	__arm_cp.3_2, .Lcpi_end21-__arm_cp.3_2
__arm_cp.3_3:
	.long	tmr
.Lcpi_end22:
	.size	__arm_cp.3_3, .Lcpi_end22-__arm_cp.3_3
__arm_cp.3_4:
	.long	sys
.Lcpi_end23:
	.size	__arm_cp.3_4, .Lcpi_end23-__arm_cp.3_4
__arm_cp.3_5:
	.long	b_inReset
.Lcpi_end24:
	.size	__arm_cp.3_5, .Lcpi_end24-__arm_cp.3_5
__arm_cp.3_6:
	.long	reset_completed
.Lcpi_end25:
	.size	__arm_cp.3_6, .Lcpi_end25-__arm_cp.3_6
__arm_cp.3_7:
	.long	cpu_ctrls_u
.Lcpi_end26:
	.size	__arm_cp.3_7, .Lcpi_end26-__arm_cp.3_7
.Lfunc_end3:
	.size	check_if_reset_initiated, .Lfunc_end3-check_if_reset_initiated
	.cfi_endproc
	.cantunwind
	.fnend
                                        @ -- End function
	.section	.text.cpu_read_write,"ax",%progbits
	.p2align	2                               @ -- Begin function cpu_read_write
	.type	cpu_read_write,%function
	.code	16                              @ @cpu_read_write
	.thumb_func
cpu_read_write:
.Lfunc_begin4:
	.loc	2 576 0 is_stmt 1               @ source/app.c:576:0
	.fnstart
	.cfi_startproc
@ %bb.0:
	.save	{r7, lr}
	push	{r7, lr}
	.cfi_def_cfa_offset 8
	.cfi_offset lr, -4
	.cfi_offset r7, -8
	.pad	#8
	sub	sp, #8
	.cfi_def_cfa_offset 16
.Ltmp122:
	.loc	2 581 17 prologue_end           @ source/app.c:581:17
	ldr	r0, __arm_cp.4_0
	ldrb	r0, [r0, #29]
.Ltmp123:
	.loc	2 581 5 is_stmt 0               @ source/app.c:581:5
	cbz	r0, .LBB4_2
	b	.LBB4_1
.LBB4_1:
.Ltmp124:
	.loc	2 583 2 is_stmt 1               @ source/app.c:583:2
	b	.LBB4_39
.Ltmp125:
.LBB4_2:
	.loc	2 585 6                         @ source/app.c:585:6
	ldr	r0, __arm_cp.4_1
	ldrb	r0, [r0]
.Ltmp126:
	.loc	2 585 6 is_stmt 0               @ source/app.c:585:6
	lsls	r0, r0, #31
	cbz	r0, .LBB4_4
	b	.LBB4_3
.LBB4_3:
.Ltmp127:
	.loc	2 586 25 is_stmt 1              @ source/app.c:586:25
	ldr	r0, __arm_cp.4_2
	ldrb	r0, [r0]
	.loc	2 586 4 is_stmt 0               @ source/app.c:586:4
	bl	chk_spi_com_response
	.loc	2 587 3 is_stmt 1               @ source/app.c:587:3
	b	.LBB4_5
.Ltmp128:
.LBB4_4:
	.loc	2 0 3 is_stmt 0                 @ source/app.c:0:3
	b	.LBB4_5
.LBB4_5:
.Ltmp129:
	.loc	2 592 9 is_stmt 1               @ source/app.c:592:9
	ldr	r0, __arm_cp.4_3
	ldrb	r0, [r0, #1]
.Ltmp130:
	.loc	2 592 6 is_stmt 0               @ source/app.c:592:6
	lsls	r0, r0, #31
	cbz	r0, .LBB4_7
	b	.LBB4_6
.LBB4_6:
.Ltmp131:
	.loc	2 594 3 is_stmt 1               @ source/app.c:594:3
	b	.LBB4_38
.Ltmp132:
.LBB4_7:
	.loc	2 596 7                         @ source/app.c:596:7
	ldr	r0, __arm_cp.4_4
	ldrb	r0, [r0]
.Ltmp133:
	.loc	2 596 7 is_stmt 0               @ source/app.c:596:7
	cbnz	r0, .LBB4_12
	b	.LBB4_8
.LBB4_8:
.Ltmp134:
	.loc	2 597 21 is_stmt 1              @ source/app.c:597:21
	ldr	r1, __arm_cp.4_1
	movs	r0, #1
	strb	r0, [r1]
	.loc	2 598 13                        @ source/app.c:598:13
	ldr	r0, __arm_cp.4_2
	str	r0, [sp, #4]                    @ 4-byte Spill
	ldrb	r0, [r0]
	.loc	2 598 5 is_stmt 0               @ source/app.c:598:5
	bl	read_vi
                                        @ kill: def $r1 killed $r0
.Ltmp135:
	.loc	2 600 8 is_stmt 1               @ source/app.c:600:8
	ldr	r0, [sp, #4]                    @ 4-byte Reload
	ldrb	r0, [r0]
.Ltmp136:
	.loc	2 600 8 is_stmt 0               @ source/app.c:600:8
	cmp	r0, #2
	bne	.LBB4_10
	b	.LBB4_9
.LBB4_9:
.Ltmp137:
	.loc	2 601 9 is_stmt 1               @ source/app.c:601:9
	ldr	r1, __arm_cp.4_2
	movs	r0, #0
	strb	r0, [r1]
	.loc	2 602 5                         @ source/app.c:602:5
	b	.LBB4_11
.Ltmp138:
.LBB4_10:
	.loc	2 604 8                         @ source/app.c:604:8
	ldr	r1, __arm_cp.4_2
	ldrb	r0, [r1]
	adds	r0, r0, #1
	strb	r0, [r1]
	b	.LBB4_11
.Ltmp139:
.LBB4_11:
	.loc	2 606 4                         @ source/app.c:606:4
	b	.LBB4_34
.Ltmp140:
.LBB4_12:
	.loc	2 607 12                        @ source/app.c:607:12
	ldr	r0, __arm_cp.4_4
	ldrb	r0, [r0]
.Ltmp141:
	.loc	2 607 12 is_stmt 0              @ source/app.c:607:12
	cmp	r0, #1
	bne	.LBB4_14
	b	.LBB4_13
.LBB4_13:
.Ltmp142:
	.loc	2 608 21 is_stmt 1              @ source/app.c:608:21
	ldr	r1, __arm_cp.4_1
	movs	r0, #1
	strb	r0, [r1]
	.loc	2 609 13                        @ source/app.c:609:13
	ldr	r0, __arm_cp.4_2
	ldrb	r0, [r0]
	.loc	2 609 5 is_stmt 0               @ source/app.c:609:5
	bl	read_vo
	.loc	2 610 4 is_stmt 1               @ source/app.c:610:4
	b	.LBB4_33
.Ltmp143:
.LBB4_14:
	.loc	2 611 12                        @ source/app.c:611:12
	ldr	r0, __arm_cp.4_4
	ldrb	r0, [r0]
.Ltmp144:
	.loc	2 611 12 is_stmt 0              @ source/app.c:611:12
	cmp	r0, #2
	bne	.LBB4_16
	b	.LBB4_15
.LBB4_15:
.Ltmp145:
	.loc	2 612 21 is_stmt 1              @ source/app.c:612:21
	ldr	r1, __arm_cp.4_1
	movs	r0, #1
	strb	r0, [r1]
	.loc	2 613 13                        @ source/app.c:613:13
	ldr	r0, __arm_cp.4_2
	ldrb	r0, [r0]
	.loc	2 613 5 is_stmt 0               @ source/app.c:613:5
	bl	read_lo
	.loc	2 614 4 is_stmt 1               @ source/app.c:614:4
	b	.LBB4_32
.Ltmp146:
.LBB4_16:
	.loc	2 615 12                        @ source/app.c:615:12
	ldr	r0, __arm_cp.4_4
	ldrb	r0, [r0]
.Ltmp147:
	.loc	2 615 12 is_stmt 0              @ source/app.c:615:12
	cmp	r0, #3
	bne	.LBB4_18
	b	.LBB4_17
.LBB4_17:
.Ltmp148:
	.loc	2 616 21 is_stmt 1              @ source/app.c:616:21
	ldr	r1, __arm_cp.4_1
	movs	r0, #1
	strb	r0, [r1]
	.loc	2 617 16                        @ source/app.c:617:16
	ldr	r0, __arm_cp.4_2
	ldrb	r0, [r0]
	.loc	2 617 5 is_stmt 0               @ source/app.c:617:5
	bl	read_oe_vi
	.loc	2 618 4 is_stmt 1               @ source/app.c:618:4
	b	.LBB4_31
.Ltmp149:
.LBB4_18:
	.loc	2 619 12                        @ source/app.c:619:12
	ldr	r0, __arm_cp.4_4
	ldrb	r0, [r0]
.Ltmp150:
	.loc	2 619 12 is_stmt 0              @ source/app.c:619:12
	cmp	r0, #4
	bne	.LBB4_20
	b	.LBB4_19
.LBB4_19:
.Ltmp151:
	.loc	2 620 21 is_stmt 1              @ source/app.c:620:21
	ldr	r1, __arm_cp.4_1
	movs	r0, #1
	strb	r0, [r1]
	.loc	2 621 16                        @ source/app.c:621:16
	ldr	r0, __arm_cp.4_2
	ldrb	r0, [r0]
	.loc	2 621 5 is_stmt 0               @ source/app.c:621:5
	bl	read_oe_lo
	.loc	2 622 4 is_stmt 1               @ source/app.c:622:4
	b	.LBB4_30
.Ltmp152:
.LBB4_20:
	.loc	2 623 12                        @ source/app.c:623:12
	ldr	r0, __arm_cp.4_4
	ldrb	r0, [r0]
.Ltmp153:
	.loc	2 623 12 is_stmt 0              @ source/app.c:623:12
	cmp	r0, #5
	bne	.LBB4_22
	b	.LBB4_21
.LBB4_21:
.Ltmp154:
	.loc	2 624 21 is_stmt 1              @ source/app.c:624:21
	ldr	r1, __arm_cp.4_1
	movs	r0, #1
	strb	r0, [r1]
	.loc	2 625 16                        @ source/app.c:625:16
	ldr	r0, __arm_cp.4_2
	ldrb	r0, [r0]
	.loc	2 625 5 is_stmt 0               @ source/app.c:625:5
	bl	read_oe_vo
	.loc	2 626 4 is_stmt 1               @ source/app.c:626:4
	b	.LBB4_29
.Ltmp155:
.LBB4_22:
	.loc	2 627 12                        @ source/app.c:627:12
	ldr	r0, __arm_cp.4_4
	ldrb	r0, [r0]
.Ltmp156:
	.loc	2 627 12 is_stmt 0              @ source/app.c:627:12
	cmp	r0, #6
	bne	.LBB4_24
	b	.LBB4_23
.LBB4_23:
.Ltmp157:
	.loc	2 628 21 is_stmt 1              @ source/app.c:628:21
	ldr	r1, __arm_cp.4_1
	movs	r0, #1
	strb	r0, [r1]
	.loc	2 629 26                        @ source/app.c:629:26
	ldr	r0, __arm_cp.4_2
	ldrb	r0, [r0]
	.loc	2 629 5 is_stmt 0               @ source/app.c:629:5
	bl	read_vi_unstable_err
	.loc	2 630 4 is_stmt 1               @ source/app.c:630:4
	b	.LBB4_28
.Ltmp158:
.LBB4_24:
	.loc	2 631 12                        @ source/app.c:631:12
	ldr	r0, __arm_cp.4_4
	ldrb	r0, [r0]
.Ltmp159:
	.loc	2 631 12 is_stmt 0              @ source/app.c:631:12
	cmp	r0, #7
	bne	.LBB4_26
	b	.LBB4_25
.LBB4_25:
.Ltmp160:
	.loc	2 632 21 is_stmt 1              @ source/app.c:632:21
	ldr	r0, __arm_cp.4_1
	movs	r1, #0
	strb	r1, [r0]
	.loc	2 633 21                        @ source/app.c:633:21
	ldr	r0, __arm_cp.4_2
	ldrb	r0, [r0]
	.loc	2 633 5 is_stmt 0               @ source/app.c:633:5
	bl	write_cpu_ctrls
	.loc	2 634 4 is_stmt 1               @ source/app.c:634:4
	b	.LBB4_27
.Ltmp161:
.LBB4_26:
	.loc	2 636 11                        @ source/app.c:636:11
	ldr	r1, __arm_cp.4_4
	movs	r0, #0
	strb	r0, [r1]
	b	.LBB4_27
.Ltmp162:
.LBB4_27:
	.loc	2 0 11 is_stmt 0                @ source/app.c:0:11
	b	.LBB4_28
.LBB4_28:
	b	.LBB4_29
.LBB4_29:
	b	.LBB4_30
.LBB4_30:
	b	.LBB4_31
.LBB4_31:
	b	.LBB4_32
.LBB4_32:
	b	.LBB4_33
.LBB4_33:
	b	.LBB4_34
.LBB4_34:
.Ltmp163:
	.loc	2 639 7 is_stmt 1               @ source/app.c:639:7
	ldr	r0, __arm_cp.4_4
	ldrb	r0, [r0]
.Ltmp164:
	.loc	2 639 7 is_stmt 0               @ source/app.c:639:7
	cmp	r0, #7
	bne	.LBB4_36
	b	.LBB4_35
.LBB4_35:
.Ltmp165:
	.loc	2 640 11 is_stmt 1              @ source/app.c:640:11
	ldr	r1, __arm_cp.4_4
	movs	r0, #0
	strb	r0, [r1]
	.loc	2 641 4                         @ source/app.c:641:4
	b	.LBB4_37
.Ltmp166:
.LBB4_36:
	.loc	2 643 10                        @ source/app.c:643:10
	ldr	r1, __arm_cp.4_4
	ldrb	r0, [r1]
	adds	r0, r0, #1
	strb	r0, [r1]
	b	.LBB4_37
.Ltmp167:
.LBB4_37:
	.loc	2 0 10 is_stmt 0                @ source/app.c:0:10
	b	.LBB4_38
.LBB4_38:
	b	.LBB4_39
.LBB4_39:
	.loc	2 648 2 is_stmt 1               @ source/app.c:648:2
	bl	spi_com_cpu_sm
	.loc	2 649 1 epilogue_begin          @ source/app.c:649:1
	add	sp, #8
	pop	{r7, pc}
.Ltmp168:
	.loc	2 0 1 is_stmt 0                 @ :0:1
.Ltmp169:
	.p2align	2
@ %bb.40:
__arm_cp.4_0:
	.long	spi_com_cpu
.Lcpi_end27:
	.size	__arm_cp.4_0, .Lcpi_end27-__arm_cp.4_0
__arm_cp.4_1:
	.long	cpu_read_write.en_cpu_resp_chk
.Lcpi_end28:
	.size	__arm_cp.4_1, .Lcpi_end28-__arm_cp.4_1
__arm_cp.4_2:
	.long	cpu_read_write.ch
.Lcpi_end29:
	.size	__arm_cp.4_2, .Lcpi_end29-__arm_cp.4_2
__arm_cp.4_3:
	.long	ev
.Lcpi_end30:
	.size	__arm_cp.4_3, .Lcpi_end30-__arm_cp.4_3
__arm_cp.4_4:
	.long	cpu_read_write.state
.Lcpi_end31:
	.size	__arm_cp.4_4, .Lcpi_end31-__arm_cp.4_4
.Lfunc_end4:
	.size	cpu_read_write, .Lfunc_end4-cpu_read_write
	.cfi_endproc
	.cantunwind
	.fnend
                                        @ -- End function
	.section	.text.fpga_read_write,"ax",%progbits
	.p2align	2                               @ -- Begin function fpga_read_write
	.type	fpga_read_write,%function
	.code	16                              @ @fpga_read_write
	.thumb_func
fpga_read_write:
.Lfunc_begin5:
	.loc	2 688 0 is_stmt 1               @ source/app.c:688:0
	.fnstart
	.cfi_startproc
@ %bb.0:
	.save	{r7, lr}
	push	{r7, lr}
	.cfi_def_cfa_offset 8
	.cfi_offset lr, -4
	.cfi_offset r7, -8
.Ltmp170:
	.loc	2 693 18 prologue_end           @ source/app.c:693:18
	ldr	r0, __arm_cp.5_0
	ldrb	r0, [r0, #29]
.Ltmp171:
	.loc	2 693 5 is_stmt 0               @ source/app.c:693:5
	cbz	r0, .LBB5_2
	b	.LBB5_1
.LBB5_1:
.Ltmp172:
	.loc	2 695 2 is_stmt 1               @ source/app.c:695:2
	b	.LBB5_37
.Ltmp173:
.LBB5_2:
	.loc	2 697 6                         @ source/app.c:697:6
	ldr	r0, __arm_cp.5_1
	ldrb	r0, [r0]
.Ltmp174:
	.loc	2 697 6 is_stmt 0               @ source/app.c:697:6
	cbz	r0, .LBB5_4
	b	.LBB5_3
.LBB5_3:
	.loc	2 0 6                           @ source/app.c:0:6
	movs	r0, #3
.Ltmp175:
	.loc	2 698 4 is_stmt 1               @ source/app.c:698:4
	bl	chk_spi_com_response
	.loc	2 699 3                         @ source/app.c:699:3
	b	.LBB5_5
.Ltmp176:
.LBB5_4:
	.loc	2 0 3 is_stmt 0                 @ source/app.c:0:3
	b	.LBB5_5
.LBB5_5:
.Ltmp177:
	.loc	2 704 6 is_stmt 1               @ source/app.c:704:6
	ldr	r0, __arm_cp.5_2
	ldrb	r0, [r0]
.Ltmp178:
	.loc	2 704 6 is_stmt 0               @ source/app.c:704:6
	cbnz	r0, .LBB5_7
	b	.LBB5_6
.LBB5_6:
.Ltmp179:
	.loc	2 705 21 is_stmt 1              @ source/app.c:705:21
	ldr	r1, __arm_cp.5_1
	movs	r0, #1
	strb	r0, [r1]
	movs	r0, #0
	.loc	2 706 4                         @ source/app.c:706:4
	bl	read_switch_settings
	.loc	2 707 3                         @ source/app.c:707:3
	b	.LBB5_33
.Ltmp180:
.LBB5_7:
	.loc	2 708 11                        @ source/app.c:708:11
	ldr	r0, __arm_cp.5_2
	ldrb	r0, [r0]
.Ltmp181:
	.loc	2 708 11 is_stmt 0              @ source/app.c:708:11
	cmp	r0, #1
	bne	.LBB5_9
	b	.LBB5_8
.LBB5_8:
.Ltmp182:
	.loc	2 709 21 is_stmt 1              @ source/app.c:709:21
	ldr	r1, __arm_cp.5_1
	movs	r0, #1
	strb	r0, [r1]
	.loc	2 710 4                         @ source/app.c:710:4
	bl	read_relay_fdbk
	.loc	2 711 3                         @ source/app.c:711:3
	b	.LBB5_32
.Ltmp183:
.LBB5_9:
	.loc	2 712 11                        @ source/app.c:712:11
	ldr	r0, __arm_cp.5_2
	ldrb	r0, [r0]
.Ltmp184:
	.loc	2 712 11 is_stmt 0              @ source/app.c:712:11
	cmp	r0, #2
	bne	.LBB5_11
	b	.LBB5_10
.LBB5_10:
.Ltmp185:
	.loc	2 713 21 is_stmt 1              @ source/app.c:713:21
	ldr	r1, __arm_cp.5_1
	movs	r0, #1
	strb	r0, [r1]
	movs	r0, #3
	.loc	2 714 4                         @ source/app.c:714:4
	bl	read_vo
	.loc	2 715 3                         @ source/app.c:715:3
	b	.LBB5_31
.Ltmp186:
.LBB5_11:
	.loc	2 716 11                        @ source/app.c:716:11
	ldr	r0, __arm_cp.5_2
	ldrb	r0, [r0]
.Ltmp187:
	.loc	2 716 11 is_stmt 0              @ source/app.c:716:11
	cmp	r0, #3
	bne	.LBB5_13
	b	.LBB5_12
.LBB5_12:
.Ltmp188:
	.loc	2 717 21 is_stmt 1              @ source/app.c:717:21
	ldr	r1, __arm_cp.5_1
	movs	r0, #1
	strb	r0, [r1]
	movs	r0, #3
	.loc	2 718 4                         @ source/app.c:718:4
	bl	read_lo
	.loc	2 719 3                         @ source/app.c:719:3
	b	.LBB5_30
.Ltmp189:
.LBB5_13:
	.loc	2 720 11                        @ source/app.c:720:11
	ldr	r0, __arm_cp.5_2
	ldrb	r0, [r0]
.Ltmp190:
	.loc	2 720 11 is_stmt 0              @ source/app.c:720:11
	cmp	r0, #4
	bne	.LBB5_15
	b	.LBB5_14
.LBB5_14:
.Ltmp191:
	.loc	2 721 21 is_stmt 1              @ source/app.c:721:21
	ldr	r1, __arm_cp.5_1
	movs	r0, #1
	strb	r0, [r1]
	.loc	2 722 4                         @ source/app.c:722:4
	bl	read_nvo
	.loc	2 723 3                         @ source/app.c:723:3
	b	.LBB5_29
.Ltmp192:
.LBB5_15:
	.loc	2 724 11                        @ source/app.c:724:11
	ldr	r0, __arm_cp.5_2
	ldrb	r0, [r0]
.Ltmp193:
	.loc	2 724 11 is_stmt 0              @ source/app.c:724:11
	cmp	r0, #5
	bne	.LBB5_17
	b	.LBB5_16
.LBB5_16:
.Ltmp194:
	.loc	2 725 21 is_stmt 1              @ source/app.c:725:21
	ldr	r1, __arm_cp.5_1
	movs	r0, #1
	strb	r0, [r1]
	movs	r0, #3
	.loc	2 726 4                         @ source/app.c:726:4
	bl	read_vi
	.loc	2 727 3                         @ source/app.c:727:3
	b	.LBB5_28
.Ltmp195:
.LBB5_17:
	.loc	2 728 11                        @ source/app.c:728:11
	ldr	r0, __arm_cp.5_2
	ldrb	r0, [r0]
.Ltmp196:
	.loc	2 728 11 is_stmt 0              @ source/app.c:728:11
	cmp	r0, #6
	bne	.LBB5_23
	b	.LBB5_18
.LBB5_18:
.Ltmp197:
	.loc	2 729 21 is_stmt 1              @ source/app.c:729:21
	ldr	r1, __arm_cp.5_1
	movs	r0, #0
	strb	r0, [r1]
.Ltmp198:
	.loc	2 730 22                        @ source/app.c:730:22
	ldr	r0, __arm_cp.5_3
	ldrb	r0, [r0]
	.loc	2 730 39 is_stmt 0              @ source/app.c:730:39
	lsls	r0, r0, #29
	lsrs	r0, r0, #31
	cbnz	r0, .LBB5_20
	b	.LBB5_19
.LBB5_19:
	.loc	2 730 57                        @ source/app.c:730:57
	ldr	r0, __arm_cp.5_3
	ldrb	r0, [r0]
.Ltmp199:
	.loc	2 730 7                         @ source/app.c:730:7
	lsls	r0, r0, #28
	lsrs	r0, r0, #31
	cbz	r0, .LBB5_21
	b	.LBB5_20
.LBB5_20:
.Ltmp200:
	.loc	2 731 5 is_stmt 1               @ source/app.c:731:5
	bl	write_oe_relay_state
	.loc	2 732 4                         @ source/app.c:732:4
	b	.LBB5_22
.Ltmp201:
.LBB5_21:
	.loc	2 734 11                        @ source/app.c:734:11
	ldr	r1, __arm_cp.5_2
	movs	r0, #0
	strb	r0, [r1]
	b	.LBB5_22
.Ltmp202:
.LBB5_22:
	.loc	2 736 3                         @ source/app.c:736:3
	b	.LBB5_27
.Ltmp203:
.LBB5_23:
	.loc	2 737 11                        @ source/app.c:737:11
	ldr	r0, __arm_cp.5_2
	ldrb	r0, [r0]
.Ltmp204:
	.loc	2 737 11 is_stmt 0              @ source/app.c:737:11
	cmp	r0, #7
	bne	.LBB5_25
	b	.LBB5_24
.LBB5_24:
.Ltmp205:
	.loc	2 738 31 is_stmt 1              @ source/app.c:738:31
	ldr	r1, __arm_cp.5_3
	ldrb	r0, [r1, #1]
	movs	r2, #1
	orrs	r0, r2
	strb	r0, [r1, #1]
	.loc	2 739 3                         @ source/app.c:739:3
	b	.LBB5_26
.Ltmp206:
.LBB5_25:
	.loc	2 741 10                        @ source/app.c:741:10
	ldr	r1, __arm_cp.5_2
	movs	r0, #0
	strb	r0, [r1]
	b	.LBB5_26
.Ltmp207:
.LBB5_26:
	.loc	2 0 10 is_stmt 0                @ source/app.c:0:10
	b	.LBB5_27
.LBB5_27:
	b	.LBB5_28
.LBB5_28:
	b	.LBB5_29
.LBB5_29:
	b	.LBB5_30
.LBB5_30:
	b	.LBB5_31
.LBB5_31:
	b	.LBB5_32
.LBB5_32:
	b	.LBB5_33
.LBB5_33:
.Ltmp208:
	.loc	2 744 6 is_stmt 1               @ source/app.c:744:6
	ldr	r0, __arm_cp.5_2
	ldrb	r0, [r0]
.Ltmp209:
	.loc	2 744 6 is_stmt 0               @ source/app.c:744:6
	cmp	r0, #7
	bne	.LBB5_35
	b	.LBB5_34
.LBB5_34:
.Ltmp210:
	.loc	2 745 10 is_stmt 1              @ source/app.c:745:10
	ldr	r1, __arm_cp.5_2
	movs	r0, #0
	strb	r0, [r1]
	.loc	2 746 3                         @ source/app.c:746:3
	b	.LBB5_36
.Ltmp211:
.LBB5_35:
	.loc	2 748 9                         @ source/app.c:748:9
	ldr	r1, __arm_cp.5_2
	ldrb	r0, [r1]
	adds	r0, r0, #1
	strb	r0, [r1]
	b	.LBB5_36
.Ltmp212:
.LBB5_36:
	.loc	2 0 9 is_stmt 0                 @ source/app.c:0:9
	b	.LBB5_37
.LBB5_37:
	.loc	2 752 2 is_stmt 1               @ source/app.c:752:2
	bl	spi_com_fpga_sm
	.loc	2 753 1 epilogue_begin          @ source/app.c:753:1
	pop	{r7, pc}
.Ltmp213:
	.loc	2 0 1 is_stmt 0                 @ :0:1
.Ltmp214:
	.p2align	2
@ %bb.38:
__arm_cp.5_0:
	.long	spi_com_fpga
.Lcpi_end32:
	.size	__arm_cp.5_0, .Lcpi_end32-__arm_cp.5_0
__arm_cp.5_1:
	.long	fpga_read_write.en_fpga_resp_chk
.Lcpi_end33:
	.size	__arm_cp.5_1, .Lcpi_end33-__arm_cp.5_1
__arm_cp.5_2:
	.long	fpga_read_write.state
.Lcpi_end34:
	.size	__arm_cp.5_2, .Lcpi_end34-__arm_cp.5_2
__arm_cp.5_3:
	.long	cpu_ctrls_u
.Lcpi_end35:
	.size	__arm_cp.5_3, .Lcpi_end35-__arm_cp.5_3
.Lfunc_end5:
	.size	fpga_read_write, .Lfunc_end5-fpga_read_write
	.cfi_endproc
	.cantunwind
	.fnend
                                        @ -- End function
	.section	.text.update_cpu_ctrls,"ax",%progbits
	.hidden	update_cpu_ctrls                @ -- Begin function update_cpu_ctrls
	.globl	update_cpu_ctrls
	.p2align	2
	.type	update_cpu_ctrls,%function
	.code	16                              @ @update_cpu_ctrls
	.thumb_func
update_cpu_ctrls:
.Lfunc_begin6:
	.loc	2 1104 0 is_stmt 1              @ source/app.c:1104:0
	.fnstart
	.cfi_startproc
@ %bb.0:
	.save	{r4, r5, r7, lr}
	push	{r4, r5, r7, lr}
	.cfi_def_cfa_offset 16
	.cfi_offset lr, -4
	.cfi_offset r7, -8
	.cfi_offset r5, -12
	.cfi_offset r4, -16
	.pad	#16
	sub	sp, #16
	.cfi_def_cfa_offset 32
	add	r1, sp, #12
	movs	r0, #0
.Ltmp215:
	.loc	2 1105 10 prologue_end          @ source/app.c:1105:10
	strb	r0, [r1]
	.loc	2 1109 5                        @ source/app.c:1109:5
	ldr	r0, __arm_cp.6_0
	movw	r1, #5152
	adds	r0, r0, r1
	str	r0, [sp, #8]
.Ltmp216:
	.loc	2 1111 5                        @ source/app.c:1111:5
	ldr	r0, [sp, #8]
	.loc	2 1111 9 is_stmt 0              @ source/app.c:1111:9
	ldrb	r0, [r0]
	lsls	r0, r0, #25
	lsrs	r0, r0, #30
.Ltmp217:
	.loc	2 1111 5                        @ source/app.c:1111:5
	cmp	r0, #3
	bne	.LBB6_2
	b	.LBB6_1
.LBB6_1:
.Ltmp218:
	.loc	2 1112 18 is_stmt 1             @ source/app.c:1112:18
	ldr	r1, __arm_cp.6_1
	movs	r2, #64
	movs	r0, #68
	strb	r0, [r1, r2]
	.loc	2 1113 2                        @ source/app.c:1113:2
	b	.LBB6_9
.Ltmp219:
.LBB6_2:
	.loc	2 1114 10                       @ source/app.c:1114:10
	ldr	r0, [sp, #8]
	.loc	2 1114 14 is_stmt 0             @ source/app.c:1114:14
	ldrb	r0, [r0]
	lsls	r0, r0, #25
	lsrs	r0, r0, #30
.Ltmp220:
	.loc	2 1114 10                       @ source/app.c:1114:10
	cmp	r0, #1
	bne	.LBB6_4
	b	.LBB6_3
.LBB6_3:
.Ltmp221:
	.loc	2 1115 18 is_stmt 1             @ source/app.c:1115:18
	ldr	r1, __arm_cp.6_1
	movs	r2, #64
	movs	r0, #83
	strb	r0, [r1, r2]
	.loc	2 1116 2                        @ source/app.c:1116:2
	b	.LBB6_8
.Ltmp222:
.LBB6_4:
	.loc	2 1117 10                       @ source/app.c:1117:10
	ldr	r0, [sp, #8]
	.loc	2 1117 14 is_stmt 0             @ source/app.c:1117:14
	ldrb	r0, [r0]
	lsls	r0, r0, #25
	lsrs	r0, r0, #30
.Ltmp223:
	.loc	2 1117 10                       @ source/app.c:1117:10
	cmp	r0, #2
	bne	.LBB6_6
	b	.LBB6_5
.LBB6_5:
.Ltmp224:
	.loc	2 1118 18 is_stmt 1             @ source/app.c:1118:18
	ldr	r1, __arm_cp.6_1
	movs	r2, #64
	movs	r0, #77
	strb	r0, [r1, r2]
	.loc	2 1119 2                        @ source/app.c:1119:2
	b	.LBB6_7
.Ltmp225:
.LBB6_6:
	.loc	2 1121 18                       @ source/app.c:1121:18
	ldr	r1, __arm_cp.6_1
	movs	r2, #64
	movs	r0, #69
	strb	r0, [r1, r2]
	b	.LBB6_7
.Ltmp226:
.LBB6_7:
	.loc	2 0 18 is_stmt 0                @ source/app.c:0:18
	b	.LBB6_8
.LBB6_8:
	b	.LBB6_9
.LBB6_9:
	.loc	2 1124 33 is_stmt 1             @ source/app.c:1124:33
	ldr	r0, [sp, #8]
	.loc	2 1124 37 is_stmt 0             @ source/app.c:1124:37
	ldrb	r1, [r0]
	.loc	2 1124 31                       @ source/app.c:1124:31
	ldr	r2, __arm_cp.6_2
	ldrb	r0, [r2]
	lsrs	r1, r1, #1
	movs	r3, #48
	ands	r1, r3
	movs	r3, #207
	ands	r0, r3
	adds	r0, r0, r1
	strb	r0, [r2]
	.loc	2 1125 34 is_stmt 1             @ source/app.c:1125:34
	ldr	r0, __arm_cp.6_3
	movs	r1, #32
	.loc	2 1125 30 is_stmt 0             @ source/app.c:1125:30
	ldrb	r4, [r0, r1]
	.loc	2 1125 27                       @ source/app.c:1125:27
	ldrb	r3, [r2]
	lsls	r4, r4, #31
	lsrs	r4, r4, #29
	movs	r5, #251
	ands	r3, r5
	adds	r3, r3, r4
	strb	r3, [r2]
	.loc	2 1126 30 is_stmt 1             @ source/app.c:1126:30
	ldrb	r1, [r0, r1]
	movs	r3, #2
	.loc	2 1126 44 is_stmt 0             @ source/app.c:1126:44
	ands	r1, r3
	.loc	2 1126 52                       @ source/app.c:1126:52
	lsrs	r3, r1, #1
	.loc	2 1126 27                       @ source/app.c:1126:27
	ldrb	r1, [r2]
	lsls	r3, r3, #3
	movs	r4, #247
	ands	r1, r4
	adds	r1, r1, r3
	strb	r1, [r2]
	movs	r1, #121
.Ltmp227:
	.loc	2 1127 9 is_stmt 1              @ source/app.c:1127:9
	ldrb	r0, [r0, r1]
.Ltmp228:
	.loc	2 1127 5 is_stmt 0              @ source/app.c:1127:5
	lsls	r0, r0, #31
	cbz	r0, .LBB6_11
	b	.LBB6_10
.LBB6_10:
.Ltmp229:
	.loc	2 1128 29 is_stmt 1             @ source/app.c:1128:29
	ldr	r1, __arm_cp.6_2
	str	r1, [sp]                        @ 4-byte Spill
	ldrb	r0, [r1, #1]
	movs	r2, #6
	orrs	r0, r2
	strb	r0, [r1, #1]
	.loc	2 1129 30                       @ source/app.c:1129:30
	ldrb	r0, [r1, #1]
	movs	r2, #254
	ands	r0, r2
	strb	r0, [r1, #1]
	.loc	2 1130 27                       @ source/app.c:1130:27
	ldrb	r0, [r1]
	movs	r2, #64
	orrs	r0, r2
	strb	r0, [r1]
	.loc	2 1131 29                       @ source/app.c:1131:29
	ldrb	r0, [r1]
	movs	r2, #128
	orrs	r0, r2
	strb	r0, [r1]
	.loc	2 1132 2                        @ source/app.c:1132:2
	b	.LBB6_12
.Ltmp230:
.LBB6_11:
	.loc	2 1134 29                       @ source/app.c:1134:29
	ldr	r1, __arm_cp.6_2
	ldrb	r0, [r1, #1]
	movs	r2, #249
	ands	r0, r2
	strb	r0, [r1, #1]
	b	.LBB6_12
.Ltmp231:
.LBB6_12:
	.loc	2 1136 1 epilogue_begin         @ source/app.c:1136:1
	add	sp, #16
	pop	{r4, r5, r7, pc}
.Ltmp232:
	.loc	2 0 1 is_stmt 0                 @ :0:1
.Ltmp233:
	.p2align	2
@ %bb.13:
__arm_cp.6_0:
	.long	pe
.Lcpi_end36:
	.size	__arm_cp.6_0, .Lcpi_end36-__arm_cp.6_0
__arm_cp.6_1:
	.long	cfg
.Lcpi_end37:
	.size	__arm_cp.6_1, .Lcpi_end37-__arm_cp.6_1
__arm_cp.6_2:
	.long	cpu_ctrls_u
.Lcpi_end38:
	.size	__arm_cp.6_2, .Lcpi_end38-__arm_cp.6_2
__arm_cp.6_3:
	.long	sys
.Lcpi_end39:
	.size	__arm_cp.6_3, .Lcpi_end39-__arm_cp.6_3
.Lfunc_end6:
	.size	update_cpu_ctrls, .Lfunc_end6-update_cpu_ctrls
	.cfi_endproc
	.cantunwind
	.fnend
                                        @ -- End function
	.section	.text.update_oled_screen,"ax",%progbits
	.p2align	2                               @ -- Begin function update_oled_screen
	.type	update_oled_screen,%function
	.code	16                              @ @update_oled_screen
	.thumb_func
update_oled_screen:
.Lfunc_begin7:
	.loc	2 261 0 is_stmt 1               @ source/app.c:261:0
	.fnstart
	.cfi_startproc
@ %bb.0:
	.save	{r4, lr}
	push	{r4, lr}
	.cfi_def_cfa_offset 8
	.cfi_offset lr, -4
	.cfi_offset r4, -8
	.pad	#200
	sub	sp, #200
	.cfi_def_cfa_offset 208
.Ltmp234:
	.loc	2 262 9 prologue_end            @ source/app.c:262:9
	ldr	r0, .LCPI7_23
	ldrb	r0, [r0, #2]
.Ltmp235:
	.loc	2 262 5 is_stmt 0               @ source/app.c:262:5
	lsls	r0, r0, #31
	cbnz	r0, .LBB7_2
	b	.LBB7_1
.LBB7_1:
.Ltmp236:
	.loc	2 264 2 is_stmt 1               @ source/app.c:264:2
	b	.LBB7_29
.Ltmp237:
.LBB7_2:
	.loc	2 0 2 is_stmt 0                 @ source/app.c:0:2
	add	r1, sp, #196
	movs	r0, #4
.Ltmp238:
	.loc	2 266 11 is_stmt 1              @ source/app.c:266:11
	strb	r0, [r1]
	.loc	2 268 6                         @ source/app.c:268:6
	ldr	r0, .LCPI7_24
	movw	r1, #5152
	adds	r0, r0, r1
	str	r0, [sp, #192]
.Ltmp239:
	.loc	2 270 6                         @ source/app.c:270:6
	ldr	r0, .LCPI7_25
	ldrb	r0, [r0]
.Ltmp240:
	.loc	2 270 6 is_stmt 0               @ source/app.c:270:6
	lsls	r0, r0, #31
	cbnz	r0, .LBB7_3
	b	.LBB7_4
.LBB7_3:
	.loc	2 0 6                           @ source/app.c:0:6
	add	r0, sp, #196
.Ltmp241:
	.loc	2 274 20 is_stmt 1              @ source/app.c:274:20
	str	r0, [sp, #168]                  @ 4-byte Spill
	ldrb	r1, [r0]
	movs	r0, #0
	.loc	2 274 4 is_stmt 0               @ source/app.c:274:4
	str	r0, [sp, #188]                  @ 4-byte Spill
	bl	SH1106_GotoXY
	.loc	2 275 4 is_stmt 1               @ source/app.c:275:4
	ldr	r0, .LCPI7_26
	ldr	r1, .LCPI7_27
	str	r1, [sp, #176]                  @ 4-byte Spill
	movs	r2, #1
	str	r2, [sp, #180]                  @ 4-byte Spill
	bl	SH1106_Puts
	ldr	r1, [sp, #168]                  @ 4-byte Reload
                                        @ kill: def $r2 killed $r0
	.loc	2 277 20                        @ source/app.c:277:20
	ldr	r0, [sp, #188]                  @ 4-byte Reload
	ldrb	r1, [r1]
	.loc	2 277 4 is_stmt 0               @ source/app.c:277:4
	bl	SH1106_GotoXY
	.loc	2 278 4 is_stmt 1               @ source/app.c:278:4
	ldr	r0, .LCPI7_28
	str	r0, [sp, #184]                  @ 4-byte Spill
	ldr	r1, __arm_cp.7_29
	bl	sprintf
	ldr	r1, [sp, #176]                  @ 4-byte Reload
	ldr	r2, [sp, #180]                  @ 4-byte Reload
                                        @ kill: def $r3 killed $r0
	.loc	2 279 4                         @ source/app.c:279:4
	ldr	r0, [sp, #184]                  @ 4-byte Reload
	bl	SH1106_Puts
	ldr	r1, [sp, #168]                  @ 4-byte Reload
                                        @ kill: def $r2 killed $r0
	.loc	2 283 25                        @ source/app.c:283:25
	ldr	r0, [sp, #188]                  @ 4-byte Reload
	ldrb	r1, [r1]
	.loc	2 283 24 is_stmt 0              @ source/app.c:283:24
	adds	r1, #14
	.loc	2 283 4                         @ source/app.c:283:4
	bl	SH1106_GotoXY
	ldr	r1, [sp, #176]                  @ 4-byte Reload
	ldr	r2, [sp, #180]                  @ 4-byte Reload
	.loc	2 284 4 is_stmt 1               @ source/app.c:284:4
	ldr	r0, __arm_cp.7_5
	str	r0, [sp, #164]                  @ 4-byte Spill
	bl	SH1106_Puts
	ldr	r1, [sp, #168]                  @ 4-byte Reload
                                        @ kill: def $r2 killed $r0
	.loc	2 286 25                        @ source/app.c:286:25
	ldr	r0, [sp, #188]                  @ 4-byte Reload
	ldrb	r1, [r1]
	.loc	2 286 24 is_stmt 0              @ source/app.c:286:24
	adds	r1, #14
	.loc	2 286 4                         @ source/app.c:286:4
	bl	SH1106_GotoXY
	ldr	r0, [sp, #184]                  @ 4-byte Reload
	.loc	2 287 55 is_stmt 1              @ source/app.c:287:55
	ldr	r1, __arm_cp.7_7
	ldr	r2, [r1, #12]
	.loc	2 287 4 is_stmt 0               @ source/app.c:287:4
	ldr	r1, __arm_cp.7_17
	bl	sprintf
	ldr	r1, [sp, #176]                  @ 4-byte Reload
	ldr	r2, [sp, #180]                  @ 4-byte Reload
                                        @ kill: def $r3 killed $r0
	.loc	2 288 4 is_stmt 1               @ source/app.c:288:4
	ldr	r0, [sp, #184]                  @ 4-byte Reload
	bl	SH1106_Puts
	ldr	r1, [sp, #168]                  @ 4-byte Reload
                                        @ kill: def $r2 killed $r0
	.loc	2 292 25                        @ source/app.c:292:25
	ldr	r0, [sp, #188]                  @ 4-byte Reload
	ldrb	r1, [r1]
	.loc	2 292 24 is_stmt 0              @ source/app.c:292:24
	adds	r1, #28
	.loc	2 292 4                         @ source/app.c:292:4
	bl	SH1106_GotoXY
	ldr	r0, [sp, #164]                  @ 4-byte Reload
	ldr	r1, [sp, #176]                  @ 4-byte Reload
	ldr	r2, [sp, #180]                  @ 4-byte Reload
	.loc	2 293 4 is_stmt 1               @ source/app.c:293:4
	bl	SH1106_Puts
	ldr	r1, [sp, #168]                  @ 4-byte Reload
                                        @ kill: def $r2 killed $r0
	.loc	2 295 25                        @ source/app.c:295:25
	ldr	r0, [sp, #188]                  @ 4-byte Reload
	ldrb	r1, [r1]
	.loc	2 295 24 is_stmt 0              @ source/app.c:295:24
	adds	r1, #28
	.loc	2 295 4                         @ source/app.c:295:4
	bl	SH1106_GotoXY
	ldr	r0, [sp, #184]                  @ 4-byte Reload
	.loc	2 297 8 is_stmt 1               @ source/app.c:297:8
	ldr	r4, __arm_cp.7_1
	str	r4, [sp, #172]                  @ 4-byte Spill
	ldrb	r2, [r4, #17]
	.loc	2 298 8                         @ source/app.c:298:8
	ldrb	r3, [r4, #16]
	.loc	2 299 8                         @ source/app.c:299:8
	ldrb	r1, [r4, #15]
	.loc	2 300 8                         @ source/app.c:300:8
	ldrb	r4, [r4, #14]
	.loc	2 296 4                         @ source/app.c:296:4
	str	r4, [sp, #4]
	str	r1, [sp]
	ldr	r1, __arm_cp.7_18
	bl	sprintf
	ldr	r1, [sp, #176]                  @ 4-byte Reload
	ldr	r2, [sp, #180]                  @ 4-byte Reload
                                        @ kill: def $r3 killed $r0
	.loc	2 301 4                         @ source/app.c:301:4
	ldr	r0, [sp, #184]                  @ 4-byte Reload
	bl	SH1106_Puts
	ldr	r1, [sp, #168]                  @ 4-byte Reload
                                        @ kill: def $r2 killed $r0
	.loc	2 305 25                        @ source/app.c:305:25
	ldr	r0, [sp, #188]                  @ 4-byte Reload
	ldrb	r1, [r1]
	.loc	2 305 24 is_stmt 0              @ source/app.c:305:24
	adds	r1, #42
	.loc	2 305 4                         @ source/app.c:305:4
	bl	SH1106_GotoXY
	ldr	r0, [sp, #164]                  @ 4-byte Reload
	ldr	r1, [sp, #176]                  @ 4-byte Reload
	ldr	r2, [sp, #180]                  @ 4-byte Reload
	.loc	2 306 4 is_stmt 1               @ source/app.c:306:4
	bl	SH1106_Puts
	ldr	r1, [sp, #168]                  @ 4-byte Reload
                                        @ kill: def $r2 killed $r0
	.loc	2 308 25                        @ source/app.c:308:25
	ldr	r0, [sp, #188]                  @ 4-byte Reload
	ldrb	r1, [r1]
	.loc	2 308 24 is_stmt 0              @ source/app.c:308:24
	adds	r1, #42
	.loc	2 308 4                         @ source/app.c:308:4
	bl	SH1106_GotoXY
	ldr	r1, [sp, #172]                  @ 4-byte Reload
	ldr	r0, [sp, #184]                  @ 4-byte Reload
	ldr	r2, __arm_cp.7_19
	.loc	2 310 8 is_stmt 1               @ source/app.c:310:8
	adds	r4, r1, r2
	ldrb	r2, [r4, #17]
	.loc	2 311 8                         @ source/app.c:311:8
	ldrb	r3, [r4, #16]
	.loc	2 312 8                         @ source/app.c:312:8
	ldrb	r1, [r4, #15]
	.loc	2 313 8                         @ source/app.c:313:8
	ldrb	r4, [r4, #14]
	.loc	2 309 4                         @ source/app.c:309:4
	str	r4, [sp, #4]
	str	r1, [sp]
	ldr	r1, __arm_cp.7_20
	bl	sprintf
	ldr	r1, [sp, #176]                  @ 4-byte Reload
	ldr	r2, [sp, #180]                  @ 4-byte Reload
                                        @ kill: def $r3 killed $r0
	.loc	2 314 4                         @ source/app.c:314:4
	ldr	r0, [sp, #184]                  @ 4-byte Reload
	bl	SH1106_Puts
	ldr	r1, [sp, #168]                  @ 4-byte Reload
                                        @ kill: def $r2 killed $r0
	.loc	2 318 25                        @ source/app.c:318:25
	ldr	r0, [sp, #188]                  @ 4-byte Reload
	ldrb	r1, [r1]
	.loc	2 318 24 is_stmt 0              @ source/app.c:318:24
	adds	r1, #56
	.loc	2 318 4                         @ source/app.c:318:4
	bl	SH1106_GotoXY
	ldr	r0, [sp, #164]                  @ 4-byte Reload
	ldr	r1, [sp, #176]                  @ 4-byte Reload
	ldr	r2, [sp, #180]                  @ 4-byte Reload
	.loc	2 319 4 is_stmt 1               @ source/app.c:319:4
	bl	SH1106_Puts
	ldr	r1, [sp, #168]                  @ 4-byte Reload
                                        @ kill: def $r2 killed $r0
	.loc	2 321 25                        @ source/app.c:321:25
	ldr	r0, [sp, #188]                  @ 4-byte Reload
	ldrb	r1, [r1]
	.loc	2 321 24 is_stmt 0              @ source/app.c:321:24
	adds	r1, #56
	.loc	2 321 4                         @ source/app.c:321:4
	bl	SH1106_GotoXY
	ldr	r1, [sp, #172]                  @ 4-byte Reload
	ldr	r0, [sp, #184]                  @ 4-byte Reload
	ldr	r2, __arm_cp.7_21
	.loc	2 323 8 is_stmt 1               @ source/app.c:323:8
	adds	r4, r1, r2
	ldrb	r2, [r4, #17]
	.loc	2 324 8                         @ source/app.c:324:8
	ldrb	r3, [r4, #16]
	.loc	2 325 8                         @ source/app.c:325:8
	ldrb	r1, [r4, #15]
	.loc	2 326 8                         @ source/app.c:326:8
	ldrb	r4, [r4, #14]
	.loc	2 322 4                         @ source/app.c:322:4
	str	r4, [sp, #4]
	str	r1, [sp]
	ldr	r1, __arm_cp.7_22
	bl	sprintf
	ldr	r1, [sp, #176]                  @ 4-byte Reload
	ldr	r2, [sp, #180]                  @ 4-byte Reload
                                        @ kill: def $r3 killed $r0
	.loc	2 327 4                         @ source/app.c:327:4
	ldr	r0, [sp, #184]                  @ 4-byte Reload
	bl	SH1106_Puts
	movw	r0, #300
	.loc	2 328 4                         @ source/app.c:328:4
	bl	wait_ms
	ldr	r0, [sp, #188]                  @ 4-byte Reload
	.loc	2 329 24                        @ source/app.c:329:24
	ldr	r1, __arm_cp.7_2
	strb	r0, [r1]
	.loc	2 330 3                         @ source/app.c:330:3
	b	.LBB7_28
.Ltmp242:
.LBB7_4:
	.loc	2 331 11                        @ source/app.c:331:11
	ldr	r0, __arm_cp.7_3
	ldrb	r0, [r0]
.Ltmp243:
	.loc	2 331 11 is_stmt 0              @ source/app.c:331:11
	lsls	r0, r0, #31
	cmp	r0, #0
	beq	.LBB7_6
	b	.LBB7_5
.LBB7_5:
	.loc	2 0 11                          @ source/app.c:0:11
	add	r0, sp, #196
.Ltmp244:
	.loc	2 334 26 is_stmt 1              @ source/app.c:334:26
	str	r0, [sp, #144]                  @ 4-byte Spill
	ldrb	r1, [r0]
	movs	r0, #0
	.loc	2 334 4 is_stmt 0               @ source/app.c:334:4
	str	r0, [sp, #148]                  @ 4-byte Spill
	bl	SH1106_GotoXY
	.loc	2 335 4 is_stmt 1               @ source/app.c:335:4
	ldr	r0, __arm_cp.7_8
	ldr	r1, __arm_cp.7_6
	str	r1, [sp, #156]                  @ 4-byte Spill
	movs	r2, #1
	str	r2, [sp, #160]                  @ 4-byte Spill
	bl	SH1106_Puts
	ldr	r1, [sp, #144]                  @ 4-byte Reload
                                        @ kill: def $r2 killed $r0
	.loc	2 336 27                        @ source/app.c:336:27
	ldr	r0, [sp, #148]                  @ 4-byte Reload
	ldrb	r1, [r1]
	.loc	2 336 25 is_stmt 0              @ source/app.c:336:25
	adds	r1, #14
	.loc	2 336 4                         @ source/app.c:336:4
	bl	SH1106_GotoXY
	ldr	r1, [sp, #156]                  @ 4-byte Reload
	ldr	r2, [sp, #160]                  @ 4-byte Reload
	.loc	2 337 4 is_stmt 1               @ source/app.c:337:4
	ldr	r0, __arm_cp.7_5
	str	r0, [sp, #152]                  @ 4-byte Spill
	bl	SH1106_Puts
	ldr	r1, [sp, #144]                  @ 4-byte Reload
                                        @ kill: def $r2 killed $r0
	.loc	2 339 27                        @ source/app.c:339:27
	ldr	r0, [sp, #148]                  @ 4-byte Reload
	ldrb	r1, [r1]
	.loc	2 339 25 is_stmt 0              @ source/app.c:339:25
	adds	r1, #14
	.loc	2 339 4                         @ source/app.c:339:4
	bl	SH1106_GotoXY
	.loc	2 340 4 is_stmt 1               @ source/app.c:340:4
	ldr	r0, __arm_cp.7_9
	str	r0, [sp, #140]                  @ 4-byte Spill
	ldr	r1, __arm_cp.7_14
	bl	sprintf
	ldr	r1, [sp, #156]                  @ 4-byte Reload
	ldr	r2, [sp, #160]                  @ 4-byte Reload
                                        @ kill: def $r3 killed $r0
	.loc	2 341 4                         @ source/app.c:341:4
	ldr	r0, [sp, #140]                  @ 4-byte Reload
	bl	SH1106_Puts
	ldr	r1, [sp, #144]                  @ 4-byte Reload
                                        @ kill: def $r2 killed $r0
	.loc	2 342 27                        @ source/app.c:342:27
	ldr	r0, [sp, #148]                  @ 4-byte Reload
	ldrb	r1, [r1]
	.loc	2 342 25 is_stmt 0              @ source/app.c:342:25
	adds	r1, #28
	.loc	2 342 4                         @ source/app.c:342:4
	bl	SH1106_GotoXY
	ldr	r0, [sp, #152]                  @ 4-byte Reload
	ldr	r1, [sp, #156]                  @ 4-byte Reload
	ldr	r2, [sp, #160]                  @ 4-byte Reload
	.loc	2 343 4 is_stmt 1               @ source/app.c:343:4
	bl	SH1106_Puts
	ldr	r1, [sp, #144]                  @ 4-byte Reload
                                        @ kill: def $r2 killed $r0
	.loc	2 345 27                        @ source/app.c:345:27
	ldr	r0, [sp, #148]                  @ 4-byte Reload
	ldrb	r1, [r1]
	.loc	2 345 25 is_stmt 0              @ source/app.c:345:25
	adds	r1, #28
	.loc	2 345 4                         @ source/app.c:345:4
	bl	SH1106_GotoXY
	ldr	r0, [sp, #140]                  @ 4-byte Reload
	.loc	2 346 4 is_stmt 1               @ source/app.c:346:4
	ldr	r1, __arm_cp.7_15
	bl	sprintf
	ldr	r1, [sp, #156]                  @ 4-byte Reload
	ldr	r2, [sp, #160]                  @ 4-byte Reload
                                        @ kill: def $r3 killed $r0
	.loc	2 347 4                         @ source/app.c:347:4
	ldr	r0, [sp, #140]                  @ 4-byte Reload
	bl	SH1106_Puts
	ldr	r1, [sp, #144]                  @ 4-byte Reload
                                        @ kill: def $r2 killed $r0
	.loc	2 348 27                        @ source/app.c:348:27
	ldr	r0, [sp, #148]                  @ 4-byte Reload
	ldrb	r1, [r1]
	.loc	2 348 25 is_stmt 0              @ source/app.c:348:25
	adds	r1, #42
	.loc	2 348 4                         @ source/app.c:348:4
	bl	SH1106_GotoXY
	ldr	r0, [sp, #152]                  @ 4-byte Reload
	ldr	r1, [sp, #156]                  @ 4-byte Reload
	ldr	r2, [sp, #160]                  @ 4-byte Reload
	.loc	2 349 4 is_stmt 1               @ source/app.c:349:4
	bl	SH1106_Puts
	.loc	2 350 3                         @ source/app.c:350:3
	b	.LBB7_27
.Ltmp245:
.LBB7_6:
	.loc	2 352 21                        @ source/app.c:352:21
	ldr	r0, __arm_cp.7_4
	ldrb	r0, [r0]
	lsls	r0, r0, #26
	lsrs	r0, r0, #30
.Ltmp246:
	.loc	2 352 7 is_stmt 0               @ source/app.c:352:7
	cmp	r0, #1
	bne	.LBB7_8
	b	.LBB7_7
.LBB7_7:
	.loc	2 0 7                           @ source/app.c:0:7
	add	r0, sp, #196
.Ltmp247:
	.loc	2 355 20 is_stmt 1              @ source/app.c:355:20
	str	r0, [sp, #124]                  @ 4-byte Spill
	ldrb	r1, [r0]
	movs	r0, #0
	.loc	2 355 4 is_stmt 0               @ source/app.c:355:4
	str	r0, [sp, #128]                  @ 4-byte Spill
	bl	SH1106_GotoXY
	.loc	2 356 4 is_stmt 1               @ source/app.c:356:4
	ldr	r0, __arm_cp.7_8
	ldr	r1, __arm_cp.7_6
	str	r1, [sp, #132]                  @ 4-byte Spill
	movs	r2, #1
	str	r2, [sp, #136]                  @ 4-byte Spill
	bl	SH1106_Puts
	ldr	r1, [sp, #124]                  @ 4-byte Reload
                                        @ kill: def $r2 killed $r0
	.loc	2 358 20                        @ source/app.c:358:20
	ldr	r0, [sp, #128]                  @ 4-byte Reload
	ldrb	r1, [r1]
	.loc	2 358 4 is_stmt 0               @ source/app.c:358:4
	bl	SH1106_GotoXY
	ldr	r1, [sp, #132]                  @ 4-byte Reload
	ldr	r2, [sp, #136]                  @ 4-byte Reload
	.loc	2 359 4 is_stmt 1               @ source/app.c:359:4
	ldr	r0, __arm_cp.7_7
	adds	r0, #68
	bl	SH1106_Puts
	ldr	r1, [sp, #124]                  @ 4-byte Reload
                                        @ kill: def $r2 killed $r0
	.loc	2 362 25                        @ source/app.c:362:25
	ldr	r0, [sp, #128]                  @ 4-byte Reload
	ldrb	r1, [r1]
	.loc	2 362 24 is_stmt 0              @ source/app.c:362:24
	adds	r1, #14
	.loc	2 362 4                         @ source/app.c:362:4
	bl	SH1106_GotoXY
	ldr	r1, [sp, #132]                  @ 4-byte Reload
	ldr	r2, [sp, #136]                  @ 4-byte Reload
	.loc	2 363 4 is_stmt 1               @ source/app.c:363:4
	ldr	r0, __arm_cp.7_5
	bl	SH1106_Puts
	.loc	2 365 3                         @ source/app.c:365:3
	b	.LBB7_14
.Ltmp248:
.LBB7_8:
	.loc	2 366 25                        @ source/app.c:366:25
	ldr	r0, __arm_cp.7_4
	ldrb	r0, [r0]
	lsls	r0, r0, #26
	lsrs	r0, r0, #30
.Ltmp249:
	.loc	2 366 11 is_stmt 0              @ source/app.c:366:11
	cmp	r0, #3
	bne	.LBB7_13
	b	.LBB7_12
	.loc	2 0 11                          @ :0:11
.Ltmp250:
	.p2align	2
@ %bb.9:
.LCPI7_23:
	.long	ev
	.p2align	2
@ %bb.10:
.LCPI7_24:
	.long	pe
	.p2align	2
@ %bb.11:
.LCPI7_25:
	.long	checksum_print_flag
	.p2align	1
.LBB7_12:
	add	r0, sp, #196
.Ltmp251:
	.loc	2 368 24 is_stmt 1              @ source/app.c:368:24
	str	r0, [sp, #104]                  @ 4-byte Spill
	ldrb	r1, [r0]
	movs	r0, #0
	.loc	2 368 4 is_stmt 0               @ source/app.c:368:4
	str	r0, [sp, #108]                  @ 4-byte Spill
	bl	SH1106_GotoXY
	.loc	2 369 4 is_stmt 1               @ source/app.c:369:4
	ldr	r0, __arm_cp.7_5
	str	r0, [sp, #100]                  @ 4-byte Spill
	ldr	r1, __arm_cp.7_6
	str	r1, [sp, #116]                  @ 4-byte Spill
	movs	r2, #1
	str	r2, [sp, #120]                  @ 4-byte Spill
	bl	SH1106_Puts
	ldr	r1, [sp, #104]                  @ 4-byte Reload
                                        @ kill: def $r2 killed $r0
	.loc	2 371 24                        @ source/app.c:371:24
	ldr	r0, [sp, #108]                  @ 4-byte Reload
	ldrb	r1, [r1]
	.loc	2 371 4 is_stmt 0               @ source/app.c:371:4
	bl	SH1106_GotoXY
	ldr	r1, [sp, #116]                  @ 4-byte Reload
	ldr	r2, [sp, #120]                  @ 4-byte Reload
	.loc	2 372 4 is_stmt 1               @ source/app.c:372:4
	ldr	r0, __arm_cp.7_7
	str	r0, [sp, #112]                  @ 4-byte Spill
	adds	r0, #52
	bl	SH1106_Puts
	ldr	r1, [sp, #104]                  @ 4-byte Reload
                                        @ kill: def $r2 killed $r0
	.loc	2 374 25                        @ source/app.c:374:25
	ldr	r0, [sp, #108]                  @ 4-byte Reload
	ldrb	r1, [r1]
	.loc	2 374 24 is_stmt 0              @ source/app.c:374:24
	adds	r1, #14
	.loc	2 374 4                         @ source/app.c:374:4
	bl	SH1106_GotoXY
	ldr	r0, [sp, #100]                  @ 4-byte Reload
	ldr	r1, [sp, #116]                  @ 4-byte Reload
	ldr	r2, [sp, #120]                  @ 4-byte Reload
	.loc	2 375 4 is_stmt 1               @ source/app.c:375:4
	bl	SH1106_Puts
	ldr	r1, [sp, #104]                  @ 4-byte Reload
                                        @ kill: def $r2 killed $r0
	.loc	2 377 25                        @ source/app.c:377:25
	ldr	r0, [sp, #108]                  @ 4-byte Reload
	ldrb	r1, [r1]
	.loc	2 377 24 is_stmt 0              @ source/app.c:377:24
	adds	r1, #14
	.loc	2 377 4                         @ source/app.c:377:4
	bl	SH1106_GotoXY
	ldr	r0, [sp, #112]                  @ 4-byte Reload
	ldr	r1, [sp, #116]                  @ 4-byte Reload
	ldr	r2, [sp, #120]                  @ 4-byte Reload
	.loc	2 378 4 is_stmt 1               @ source/app.c:378:4
	adds	r0, #36
	bl	SH1106_Puts
	.loc	2 379 3                         @ source/app.c:379:3
	b	.LBB7_13
.Ltmp252:
.LBB7_13:
	.loc	2 0 3 is_stmt 0                 @ source/app.c:0:3
	b	.LBB7_14
.LBB7_14:
	add	r0, sp, #196
	.loc	2 382 24 is_stmt 1              @ source/app.c:382:24
	str	r0, [sp, #76]                   @ 4-byte Spill
	ldrb	r1, [r0]
	.loc	2 382 23 is_stmt 0              @ source/app.c:382:23
	adds	r1, #28
	movs	r0, #0
	.loc	2 382 3                         @ source/app.c:382:3
	str	r0, [sp, #80]                   @ 4-byte Spill
	bl	SH1106_GotoXY
	.loc	2 383 3 is_stmt 1               @ source/app.c:383:3
	ldr	r0, __arm_cp.7_5
	str	r0, [sp, #64]                   @ 4-byte Spill
	ldr	r1, __arm_cp.7_6
	str	r1, [sp, #68]                   @ 4-byte Spill
	movs	r2, #1
	str	r2, [sp, #72]                   @ 4-byte Spill
	bl	SH1106_Puts
	ldr	r1, [sp, #76]                   @ 4-byte Reload
                                        @ kill: def $r2 killed $r0
	.loc	2 385 26                        @ source/app.c:385:26
	ldr	r0, [sp, #80]                   @ 4-byte Reload
	ldrb	r1, [r1]
	.loc	2 385 24 is_stmt 0              @ source/app.c:385:24
	adds	r1, #28
	.loc	2 385 3                         @ source/app.c:385:3
	bl	SH1106_GotoXY
	.loc	2 387 6 is_stmt 1               @ source/app.c:387:6
	ldr	r0, [sp, #192]
	.loc	2 387 10 is_stmt 0              @ source/app.c:387:10
	ldrb	r0, [r0]
	str	r0, [sp, #84]                   @ 4-byte Spill
	lsls	r0, r0, #29
	lsrs	r1, r0, #31
	movs	r0, #80
	str	r0, [sp, #88]                   @ 4-byte Spill
	movs	r2, #65
	.loc	2 387 5                         @ source/app.c:387:5
	str	r2, [sp, #92]                   @ 4-byte Spill
	str	r0, [sp, #96]                   @ 4-byte Spill
	cbz	r1, .LBB7_16
@ %bb.15:
	.loc	2 0 5                           @ source/app.c:0:5
	ldr	r0, [sp, #92]                   @ 4-byte Reload
	str	r0, [sp, #96]                   @ 4-byte Spill
.LBB7_16:
	.loc	2 387 5                         @ source/app.c:387:5
	ldr	r0, [sp, #88]                   @ 4-byte Reload
	ldr	r1, [sp, #84]                   @ 4-byte Reload
	ldr	r2, [sp, #96]                   @ 4-byte Reload
	.loc	2 388 10 is_stmt 1              @ source/app.c:388:10
	str	r2, [sp, #56]                   @ 4-byte Spill
	lsls	r1, r1, #28
	lsrs	r1, r1, #31
	.loc	2 388 5 is_stmt 0               @ source/app.c:388:5
	str	r0, [sp, #60]                   @ 4-byte Spill
	cbz	r1, .LBB7_18
@ %bb.17:
	.loc	2 0 5                           @ source/app.c:0:5
	ldr	r0, [sp, #92]                   @ 4-byte Reload
	str	r0, [sp, #60]                   @ 4-byte Spill
.LBB7_18:
	.loc	2 388 5                         @ source/app.c:388:5
	ldr	r0, [sp, #88]                   @ 4-byte Reload
	ldr	r1, [sp, #84]                   @ 4-byte Reload
	ldr	r2, [sp, #60]                   @ 4-byte Reload
	.loc	2 389 10 is_stmt 1              @ source/app.c:389:10
	str	r2, [sp, #48]                   @ 4-byte Spill
	lsls	r1, r1, #27
	lsrs	r1, r1, #31
	.loc	2 389 5 is_stmt 0               @ source/app.c:389:5
	str	r0, [sp, #52]                   @ 4-byte Spill
	cbz	r1, .LBB7_20
@ %bb.19:
	.loc	2 0 5                           @ source/app.c:0:5
	ldr	r0, [sp, #92]                   @ 4-byte Reload
	str	r0, [sp, #52]                   @ 4-byte Spill
.LBB7_20:
	.loc	2 389 5                         @ source/app.c:389:5
	ldr	r0, [sp, #88]                   @ 4-byte Reload
	ldr	r1, [sp, #84]                   @ 4-byte Reload
	ldr	r2, [sp, #52]                   @ 4-byte Reload
	.loc	2 390 10 is_stmt 1              @ source/app.c:390:10
	str	r2, [sp, #40]                   @ 4-byte Spill
	lsls	r1, r1, #30
	lsrs	r1, r1, #31
	.loc	2 390 5 is_stmt 0               @ source/app.c:390:5
	str	r0, [sp, #44]                   @ 4-byte Spill
	cbz	r1, .LBB7_22
@ %bb.21:
	.loc	2 0 5                           @ source/app.c:0:5
	ldr	r0, [sp, #92]                   @ 4-byte Reload
	str	r0, [sp, #44]                   @ 4-byte Spill
.LBB7_22:
	.loc	2 390 5                         @ source/app.c:390:5
	ldr	r0, [sp, #88]                   @ 4-byte Reload
	ldr	r1, [sp, #84]                   @ 4-byte Reload
	ldr	r2, [sp, #44]                   @ 4-byte Reload
	.loc	2 391 5 is_stmt 1               @ source/app.c:391:5
	str	r2, [sp, #32]                   @ 4-byte Spill
	lsls	r1, r1, #31
	str	r0, [sp, #36]                   @ 4-byte Spill
	cbz	r1, .LBB7_24
@ %bb.23:
	.loc	2 0 5 is_stmt 0                 @ source/app.c:0:5
	ldr	r0, [sp, #92]                   @ 4-byte Reload
	str	r0, [sp, #36]                   @ 4-byte Spill
.LBB7_24:
	.loc	2 391 5                         @ source/app.c:391:5
	ldr	r3, [sp, #48]                   @ 4-byte Reload
	ldr	r2, [sp, #56]                   @ 4-byte Reload
	ldr	r0, [sp, #40]                   @ 4-byte Reload
	ldr	r1, [sp, #32]                   @ 4-byte Reload
	ldr	r4, [sp, #36]                   @ 4-byte Reload
	.loc	2 386 3 is_stmt 1               @ source/app.c:386:3
	str	r4, [sp, #8]
	str	r1, [sp, #4]
	str	r0, [sp]
	ldr	r0, __arm_cp.7_9
	str	r0, [sp, #16]                   @ 4-byte Spill
	ldr	r1, __arm_cp.7_10
	bl	sprintf
	ldr	r1, [sp, #68]                   @ 4-byte Reload
	ldr	r2, [sp, #72]                   @ 4-byte Reload
                                        @ kill: def $r3 killed $r0
	.loc	2 393 3                         @ source/app.c:393:3
	ldr	r0, [sp, #16]                   @ 4-byte Reload
	bl	SH1106_Puts
	ldr	r1, [sp, #76]                   @ 4-byte Reload
                                        @ kill: def $r2 killed $r0
	.loc	2 395 26                        @ source/app.c:395:26
	ldr	r0, [sp, #80]                   @ 4-byte Reload
	ldrb	r1, [r1]
	.loc	2 395 24 is_stmt 0              @ source/app.c:395:24
	adds	r1, #42
	.loc	2 395 3                         @ source/app.c:395:3
	bl	SH1106_GotoXY
	ldr	r0, [sp, #64]                   @ 4-byte Reload
	ldr	r1, [sp, #68]                   @ 4-byte Reload
	ldr	r2, [sp, #72]                   @ 4-byte Reload
	.loc	2 396 3 is_stmt 1               @ source/app.c:396:3
	bl	SH1106_Puts
	ldr	r1, [sp, #76]                   @ 4-byte Reload
                                        @ kill: def $r2 killed $r0
	.loc	2 398 26                        @ source/app.c:398:26
	ldr	r0, [sp, #80]                   @ 4-byte Reload
	ldrb	r1, [r1]
	.loc	2 398 24 is_stmt 0              @ source/app.c:398:24
	adds	r1, #42
	.loc	2 398 3                         @ source/app.c:398:3
	bl	SH1106_GotoXY
	.loc	2 399 39 is_stmt 1              @ source/app.c:399:39
	ldr	r0, __arm_cp.7_7
	ldrh	r1, [r0, #34]
	.loc	2 399 34 is_stmt 0              @ source/app.c:399:34
	str	r1, [sp, #20]                   @ 4-byte Spill
	ldr	r0, __arm_cp.7_11
	ldr	r2, __arm_cp.7_12
	str	r2, [sp, #24]                   @ 4-byte Spill
	str	r0, [sp, #28]                   @ 4-byte Spill
	cbz	r1, .LBB7_26
@ %bb.25:
	.loc	2 0 34                          @ source/app.c:0:34
	ldr	r0, [sp, #24]                   @ 4-byte Reload
	str	r0, [sp, #28]                   @ 4-byte Spill
.LBB7_26:
	.loc	2 399 34                        @ source/app.c:399:34
	ldr	r0, [sp, #16]                   @ 4-byte Reload
	ldr	r3, [sp, #20]                   @ 4-byte Reload
	ldr	r2, [sp, #28]                   @ 4-byte Reload
	.loc	2 399 3                         @ source/app.c:399:3
	ldr	r1, __arm_cp.7_13
	bl	sprintf
	ldr	r1, [sp, #68]                   @ 4-byte Reload
	ldr	r2, [sp, #72]                   @ 4-byte Reload
                                        @ kill: def $r3 killed $r0
	.loc	2 400 3 is_stmt 1               @ source/app.c:400:3
	ldr	r0, [sp, #16]                   @ 4-byte Reload
	bl	SH1106_Puts
	b	.LBB7_27
.Ltmp253:
.LBB7_27:
	.loc	2 0 3 is_stmt 0                 @ source/app.c:0:3
	b	.LBB7_28
.LBB7_28:
	.loc	2 402 18 is_stmt 1              @ source/app.c:402:18
	ldr	r1, __arm_cp.7_0
	movs	r0, #0
	strb	r0, [r1, #2]
	.loc	2 403 3                         @ source/app.c:403:3
	bl	SH1106_UpdateScreen
	b	.LBB7_29
.Ltmp254:
.LBB7_29:
	.loc	2 405 1 epilogue_begin          @ source/app.c:405:1
	add	sp, #200
	pop	{r4, pc}
.Ltmp255:
	.loc	2 0 1 is_stmt 0                 @ :0:1
.Ltmp256:
	.p2align	2
@ %bb.30:
.LCPI7_26:
	.long	.L.str.1
	.p2align	2
@ %bb.31:
.LCPI7_27:
	.long	Font_7x10
	.p2align	2
@ %bb.32:
.LCPI7_28:
	.long	oled_buf
	.p2align	2
@ %bb.33:
__arm_cp.7_29:
	.long	.L.str.2
.Lcpi_end40:
	.size	__arm_cp.7_29, .Lcpi_end40-__arm_cp.7_29
	.p2align	2
@ %bb.34:
__arm_cp.7_0:
	.long	ev
.Lcpi_end41:
	.size	__arm_cp.7_0, .Lcpi_end41-__arm_cp.7_0
__arm_cp.7_1:
	.long	pe
.Lcpi_end42:
	.size	__arm_cp.7_1, .Lcpi_end42-__arm_cp.7_1
__arm_cp.7_2:
	.long	checksum_print_flag
.Lcpi_end43:
	.size	__arm_cp.7_2, .Lcpi_end43-__arm_cp.7_2
__arm_cp.7_3:
	.long	b_inReset
.Lcpi_end44:
	.size	__arm_cp.7_3, .Lcpi_end44-__arm_cp.7_3
__arm_cp.7_4:
	.long	cpu_ctrls_u
.Lcpi_end45:
	.size	__arm_cp.7_4, .Lcpi_end45-__arm_cp.7_4
__arm_cp.7_5:
	.long	.L.str.3
.Lcpi_end46:
	.size	__arm_cp.7_5, .Lcpi_end46-__arm_cp.7_5
__arm_cp.7_6:
	.long	Font_7x10
.Lcpi_end47:
	.size	__arm_cp.7_6, .Lcpi_end47-__arm_cp.7_6
__arm_cp.7_7:
	.long	sys
.Lcpi_end48:
	.size	__arm_cp.7_7, .Lcpi_end48-__arm_cp.7_7
__arm_cp.7_8:
	.long	.L.str.1
.Lcpi_end49:
	.size	__arm_cp.7_8, .Lcpi_end49-__arm_cp.7_8
__arm_cp.7_9:
	.long	oled_buf
.Lcpi_end50:
	.size	__arm_cp.7_9, .Lcpi_end50-__arm_cp.7_9
__arm_cp.7_10:
	.long	.L.str.10
.Lcpi_end51:
	.size	__arm_cp.7_10, .Lcpi_end51-__arm_cp.7_10
__arm_cp.7_11:
	.long	.L.str.12
.Lcpi_end52:
	.size	__arm_cp.7_11, .Lcpi_end52-__arm_cp.7_11
__arm_cp.7_12:
	.long	.L.str.13
.Lcpi_end53:
	.size	__arm_cp.7_12, .Lcpi_end53-__arm_cp.7_12
__arm_cp.7_13:
	.long	.L.str.11
.Lcpi_end54:
	.size	__arm_cp.7_13, .Lcpi_end54-__arm_cp.7_13
__arm_cp.7_14:
	.long	.L.str.8
.Lcpi_end55:
	.size	__arm_cp.7_14, .Lcpi_end55-__arm_cp.7_14
__arm_cp.7_15:
	.long	.L.str.9
.Lcpi_end56:
	.size	__arm_cp.7_15, .Lcpi_end56-__arm_cp.7_15
__arm_cp.7_17:
	.long	.L.str.4
.Lcpi_end57:
	.size	__arm_cp.7_17, .Lcpi_end57-__arm_cp.7_17
__arm_cp.7_18:
	.long	.L.str.5
.Lcpi_end58:
	.size	__arm_cp.7_18, .Lcpi_end58-__arm_cp.7_18
__arm_cp.7_19:
	.long	1702                            @ 0x6a6
.Lcpi_end59:
	.size	__arm_cp.7_19, .Lcpi_end59-__arm_cp.7_19
__arm_cp.7_20:
	.long	.L.str.6
.Lcpi_end60:
	.size	__arm_cp.7_20, .Lcpi_end60-__arm_cp.7_20
__arm_cp.7_21:
	.long	3404                            @ 0xd4c
.Lcpi_end61:
	.size	__arm_cp.7_21, .Lcpi_end61-__arm_cp.7_21
__arm_cp.7_22:
	.long	.L.str.7
.Lcpi_end62:
	.size	__arm_cp.7_22, .Lcpi_end62-__arm_cp.7_22
.Lfunc_end7:
	.size	update_oled_screen, .Lfunc_end7-update_oled_screen
	.cfi_endproc
	.cantunwind
	.fnend
                                        @ -- End function
	.section	.text.get_flash_checksum,"ax",%progbits
	.p2align	1                               @ -- Begin function get_flash_checksum
	.type	get_flash_checksum,%function
	.code	16                              @ @get_flash_checksum
	.thumb_func
get_flash_checksum:
.Lfunc_begin8:
	.loc	2 1028 0 is_stmt 1              @ source/app.c:1028:0
	.fnstart
	.cfi_startproc
@ %bb.0:
	.save	{r7, lr}
	push	{r7, lr}
	.cfi_def_cfa_offset 8
	.cfi_offset lr, -4
	.cfi_offset r7, -8
	.pad	#8
	sub	sp, #8
	.cfi_def_cfa_offset 16
	str	r0, [sp, #4]
.Ltmp257:
	.loc	2 1029 2 prologue_end           @ source/app.c:1029:2
	bl	FMC_Open
	movs	r0, #0
	str	r0, [sp]                        @ 4-byte Spill
	movw	r1, #22528
	.loc	2 1031 8                        @ source/app.c:1031:8
	bl	FMC_GetChkSum
	.loc	2 1031 3 is_stmt 0              @ source/app.c:1031:3
	ldr	r1, [sp, #4]
	.loc	2 1031 6                        @ source/app.c:1031:6
	str	r0, [r1]
	.loc	2 1032 2 is_stmt 1              @ source/app.c:1032:2
	bl	FMC_Close
	ldr	r0, [sp]                        @ 4-byte Reload
	.loc	2 1034 2 epilogue_begin         @ source/app.c:1034:2
	add	sp, #8
	pop	{r7, pc}
.Ltmp258:
.Lfunc_end8:
	.size	get_flash_checksum, .Lfunc_end8-get_flash_checksum
	.cfi_endproc
	.cantunwind
	.fnend
                                        @ -- End function
	.section	.text.schedule_events,"ax",%progbits
	.p2align	2                               @ -- Begin function schedule_events
	.type	schedule_events,%function
	.code	16                              @ @schedule_events
	.thumb_func
schedule_events:
.Lfunc_begin9:
	.loc	2 522 0                         @ source/app.c:522:0
	.fnstart
	.cfi_startproc
@ %bb.0:
	.pad	#12
	sub	sp, #12
	.cfi_def_cfa_offset 12
.Ltmp259:
	.loc	2 530 9 prologue_end            @ source/app.c:530:9
	ldr	r0, __arm_cp.9_0
	ldrh	r0, [r0, #4]
.Ltmp260:
	.loc	2 530 5 is_stmt 0               @ source/app.c:530:5
	cbnz	r0, .LBB9_2
	b	.LBB9_1
.LBB9_1:
.Ltmp261:
	.loc	2 531 20 is_stmt 1              @ source/app.c:531:20
	ldr	r1, __arm_cp.9_0
	movs	r0, #100
	strh	r0, [r1, #4]
	.loc	2 532 19                        @ source/app.c:532:19
	ldr	r1, __arm_cp.9_1
	movs	r0, #1
	strb	r0, [r1]
	.loc	2 533 2                         @ source/app.c:533:2
	b	.LBB9_2
.Ltmp262:
.LBB9_2:
	.loc	2 538 9                         @ source/app.c:538:9
	ldr	r0, __arm_cp.9_0
	ldr	r0, [r0, #20]
.Ltmp263:
	.loc	2 538 5 is_stmt 0               @ source/app.c:538:5
	cbnz	r0, .LBB9_4
	b	.LBB9_3
.LBB9_3:
.Ltmp264:
	.loc	2 539 19 is_stmt 1              @ source/app.c:539:19
	ldr	r1, __arm_cp.9_0
	ldr	r0, __arm_cp.9_2
	str	r0, [r1, #20]
	.loc	2 540 18                        @ source/app.c:540:18
	ldr	r1, __arm_cp.9_1
	movs	r0, #1
	strb	r0, [r1, #1]
	.loc	2 541 2                         @ source/app.c:541:2
	b	.LBB9_4
.Ltmp265:
.LBB9_4:
	.loc	2 543 9                         @ source/app.c:543:9
	ldr	r0, __arm_cp.9_0
	ldrh	r0, [r0, #6]
.Ltmp266:
	.loc	2 543 5 is_stmt 0               @ source/app.c:543:5
	cbnz	r0, .LBB9_6
	b	.LBB9_5
.LBB9_5:
.Ltmp267:
	.loc	2 544 19 is_stmt 1              @ source/app.c:544:19
	ldr	r1, __arm_cp.9_0
	movw	r0, #2000
	strh	r0, [r1, #6]
	.loc	2 545 18                        @ source/app.c:545:18
	ldr	r1, __arm_cp.9_1
	movs	r0, #1
	strb	r0, [r1, #2]
	.loc	2 546 2                         @ source/app.c:546:2
	b	.LBB9_6
.Ltmp268:
.LBB9_6:
	.loc	2 548 27                        @ source/app.c:548:27
	ldr	r0, __arm_cp.9_3
	ldrb	r1, [r0]
	movs	r0, #1
	.loc	2 548 45 is_stmt 0              @ source/app.c:548:45
	lsls	r1, r1, #29
	lsrs	r1, r1, #31
	str	r0, [sp]                        @ 4-byte Spill
	cbnz	r1, .LBB9_8
	b	.LBB9_7
.LBB9_7:
	.loc	2 548 63                        @ source/app.c:548:63
	ldr	r0, __arm_cp.9_3
	ldrb	r0, [r0]
	.loc	2 548 74                        @ source/app.c:548:74
	lsls	r0, r0, #28
	lsrs	r0, r0, #31
	.loc	2 548 45                        @ source/app.c:548:45
	str	r0, [sp]                        @ 4-byte Spill
	b	.LBB9_8
.LBB9_8:
	.loc	2 0 45                          @ source/app.c:0:45
	ldr	r1, [sp]                        @ 4-byte Reload
	movs	r0, #1
	.loc	2 548 7                         @ source/app.c:548:7
	ands	r1, r0
	add	r0, sp, #4
	strb	r1, [r0]
.Ltmp269:
	.loc	2 550 5 is_stmt 1               @ source/app.c:550:5
	ldrb	r0, [r0]
.Ltmp270:
	.loc	2 550 5 is_stmt 0               @ source/app.c:550:5
	lsls	r0, r0, #31
	cbz	r0, .LBB9_10
	b	.LBB9_9
.LBB9_9:
.Ltmp271:
	.loc	2 551 27 is_stmt 1              @ source/app.c:551:27
	ldr	r1, __arm_cp.9_4
	movs	r0, #1
	strb	r0, [r1]
	.loc	2 552 2                         @ source/app.c:552:2
	b	.LBB9_11
.Ltmp272:
.LBB9_10:
	.loc	2 0 2 is_stmt 0                 @ source/app.c:0:2
	b	.LBB9_11
.LBB9_11:
.Ltmp273:
	.loc	2 557 5 is_stmt 1               @ source/app.c:557:5
	ldr	r0, __arm_cp.9_4
	ldrb	r0, [r0]
.Ltmp274:
	.loc	2 557 5 is_stmt 0               @ source/app.c:557:5
	lsls	r0, r0, #31
	cbnz	r0, .LBB9_13
	b	.LBB9_12
.LBB9_12:
.Ltmp275:
	.loc	2 558 20 is_stmt 1              @ source/app.c:558:20
	ldr	r1, __arm_cp.9_0
	movs	r0, #200
	strh	r0, [r1, #8]
	.loc	2 559 19                        @ source/app.c:559:19
	ldr	r1, __arm_cp.9_1
	movs	r0, #0
	strb	r0, [r1, #3]
	.loc	2 560 2                         @ source/app.c:560:2
	b	.LBB9_17
.Ltmp276:
.LBB9_13:
	.loc	2 561 14                        @ source/app.c:561:14
	ldr	r0, __arm_cp.9_0
	ldrh	r0, [r0, #8]
.Ltmp277:
	.loc	2 561 10 is_stmt 0              @ source/app.c:561:10
	cbnz	r0, .LBB9_15
	b	.LBB9_14
.LBB9_14:
.Ltmp278:
	.loc	2 562 20 is_stmt 1              @ source/app.c:562:20
	ldr	r1, __arm_cp.9_0
	movs	r0, #200
	strh	r0, [r1, #8]
	.loc	2 563 19                        @ source/app.c:563:19
	ldr	r1, __arm_cp.9_1
	movs	r0, #1
	strb	r0, [r1, #3]
	.loc	2 564 2                         @ source/app.c:564:2
	b	.LBB9_16
.Ltmp279:
.LBB9_15:
	.loc	2 0 2 is_stmt 0                 @ source/app.c:0:2
	b	.LBB9_16
.LBB9_16:
	b	.LBB9_17
.LBB9_17:
	.loc	2 569 1 epilogue_begin is_stmt 1 @ source/app.c:569:1
	add	sp, #12
	bx	lr
.Ltmp280:
	.loc	2 0 1 is_stmt 0                 @ :0:1
.Ltmp281:
	.p2align	2
@ %bb.18:
__arm_cp.9_0:
	.long	tmr
.Lcpi_end63:
	.size	__arm_cp.9_0, .Lcpi_end63-__arm_cp.9_0
__arm_cp.9_1:
	.long	ev
.Lcpi_end64:
	.size	__arm_cp.9_1, .Lcpi_end64-__arm_cp.9_1
__arm_cp.9_2:
	.long	30000                           @ 0x7530
.Lcpi_end65:
	.size	__arm_cp.9_2, .Lcpi_end65-__arm_cp.9_2
__arm_cp.9_3:
	.long	cpu_ctrls_u
.Lcpi_end66:
	.size	__arm_cp.9_3, .Lcpi_end66-__arm_cp.9_3
__arm_cp.9_4:
	.long	is_enabled_check_faults
.Lcpi_end67:
	.size	__arm_cp.9_4, .Lcpi_end67-__arm_cp.9_4
.Lfunc_end9:
	.size	schedule_events, .Lfunc_end9-schedule_events
	.cfi_endproc
	.cantunwind
	.fnend
                                        @ -- End function
	.section	.text.send_com_pkt,"ax",%progbits
	.p2align	2                               @ -- Begin function send_com_pkt
	.type	send_com_pkt,%function
	.code	16                              @ @send_com_pkt
	.thumb_func
send_com_pkt:
.Lfunc_begin10:
	.loc	2 769 0 is_stmt 1               @ source/app.c:769:0
	.fnstart
	.cfi_startproc
@ %bb.0:
	.save	{r7, lr}
	push	{r7, lr}
	.cfi_def_cfa_offset 8
	.cfi_offset lr, -4
	.cfi_offset r7, -8
	.pad	#16
	sub	sp, #16
	.cfi_def_cfa_offset 24
.Ltmp282:
	.loc	2 773 40 prologue_end           @ source/app.c:773:40
	ldr	r0, __arm_cp.10_0
	ldr	r1, [r0, #28]
	.loc	2 773 10 is_stmt 0              @ source/app.c:773:10
	str	r1, [sp, #12]
	.loc	2 774 39 is_stmt 1              @ source/app.c:774:39
	ldr	r0, [r0, #8]
	.loc	2 774 10 is_stmt 0              @ source/app.c:774:10
	str	r0, [sp, #8]
.Ltmp283:
	.loc	2 777 5 is_stmt 1               @ source/app.c:777:5
	ldr	r0, [sp, #12]
	.loc	2 777 11 is_stmt 0              @ source/app.c:777:11
	ldrb	r0, [r0, #12]
	.loc	2 777 20                        @ source/app.c:777:20
	cbz	r0, .LBB10_4
	b	.LBB10_1
.LBB10_1:
	.loc	2 777 23                        @ source/app.c:777:23
	ldr	r0, [sp, #8]
	.loc	2 777 29                        @ source/app.c:777:29
	ldrb	r0, [r0, #12]
	.loc	2 777 38                        @ source/app.c:777:38
	cbz	r0, .LBB10_4
	b	.LBB10_2
.LBB10_2:
	.loc	2 777 44                        @ source/app.c:777:44
	ldr	r0, __arm_cp.10_1
	ldrb	r0, [r0]
.Ltmp284:
	.loc	2 777 5                         @ source/app.c:777:5
	lsls	r0, r0, #31
	cbz	r0, .LBB10_4
	b	.LBB10_3
.LBB10_3:
.Ltmp285:
	.loc	2 778 25 is_stmt 1              @ source/app.c:778:25
	ldr	r0, [sp, #12]
	movs	r1, #1
	.loc	2 778 3 is_stmt 0               @ source/app.c:778:3
	bl	LINE_COM_write_packet
	.loc	2 779 25 is_stmt 1              @ source/app.c:779:25
	ldr	r0, [sp, #8]
	movs	r1, #0
	.loc	2 779 3 is_stmt 0               @ source/app.c:779:3
	str	r1, [sp, #4]                    @ 4-byte Spill
	bl	LINE_COM_write_packet
                                        @ kill: def $r1 killed $r0
	.loc	2 780 19 is_stmt 1              @ source/app.c:780:19
	ldr	r0, [sp, #4]                    @ 4-byte Reload
	ldr	r1, __arm_cp.10_1
	strb	r0, [r1]
	.loc	2 781 2                         @ source/app.c:781:2
	b	.LBB10_4
.Ltmp286:
.LBB10_4:
	.loc	2 782 1 epilogue_begin          @ source/app.c:782:1
	add	sp, #16
	pop	{r7, pc}
.Ltmp287:
	.loc	2 0 1 is_stmt 0                 @ :0:1
.Ltmp288:
	.p2align	2
@ %bb.5:
__arm_cp.10_0:
	.long	uart_com
.Lcpi_end68:
	.size	__arm_cp.10_0, .Lcpi_end68-__arm_cp.10_0
__arm_cp.10_1:
	.long	ev
.Lcpi_end69:
	.size	__arm_cp.10_1, .Lcpi_end69-__arm_cp.10_1
.Lfunc_end10:
	.size	send_com_pkt, .Lfunc_end10-send_com_pkt
	.cfi_endproc
	.cantunwind
	.fnend
                                        @ -- End function
	.section	.text.rcv_com_pkt,"ax",%progbits
	.p2align	2                               @ -- Begin function rcv_com_pkt
	.type	rcv_com_pkt,%function
	.code	16                              @ @rcv_com_pkt
	.thumb_func
rcv_com_pkt:
.Lfunc_begin11:
	.loc	2 813 0 is_stmt 1               @ source/app.c:813:0
	.fnstart
	.cfi_startproc
@ %bb.0:
	.save	{r7, lr}
	push	{r7, lr}
	.cfi_def_cfa_offset 8
	.cfi_offset lr, -4
	.cfi_offset r7, -8
	.pad	#32
	sub	sp, #32
	.cfi_def_cfa_offset 40
.Ltmp289:
	.loc	2 821 40 prologue_end           @ source/app.c:821:40
	ldr	r0, __arm_cp.11_0
	ldr	r1, [r0, #24]
	.loc	2 821 10 is_stmt 0              @ source/app.c:821:10
	str	r1, [sp, #8]
	.loc	2 822 39 is_stmt 1              @ source/app.c:822:39
	ldr	r0, [r0, #4]
	.loc	2 822 10 is_stmt 0              @ source/app.c:822:10
	str	r0, [sp, #4]
	.loc	2 824 28 is_stmt 1              @ source/app.c:824:28
	ldr	r0, [sp, #8]
	movs	r1, #1
	.loc	2 824 7 is_stmt 0               @ source/app.c:824:7
	bl	LINE_COM_read_packet
	add	r1, sp, #20
	.loc	2 824 5                         @ source/app.c:824:5
	str	r1, [sp]                        @ 4-byte Spill
	strb	r0, [r1]
	.loc	2 825 28 is_stmt 1              @ source/app.c:825:28
	ldr	r0, [sp, #4]
	movs	r1, #0
	.loc	2 825 7 is_stmt 0               @ source/app.c:825:7
	bl	LINE_COM_read_packet
	mov	r1, r0
	ldr	r0, [sp]                        @ 4-byte Reload
	add	r2, sp, #16
	.loc	2 825 5                         @ source/app.c:825:5
	strb	r1, [r2]
.Ltmp290:
	.loc	2 827 5 is_stmt 1               @ source/app.c:827:5
	ldrb	r0, [r0]
.Ltmp291:
	.loc	2 827 5 is_stmt 0               @ source/app.c:827:5
	cbnz	r0, .LBB11_2
	b	.LBB11_1
.LBB11_1:
.Ltmp292:
	.loc	2 829 3 is_stmt 1               @ source/app.c:829:3
	@APP
	mrs	r0, primask
	cpsid i

	@NO_APP
	str	r0, [sp, #28]
	.loc	2 830 22                        @ source/app.c:830:22
	ldr	r1, __arm_cp.11_1
	movw	r0, #1000
	strh	r0, [r1]
	.loc	2 831 3                         @ source/app.c:831:3
	@APP
	cpsie i
	@NO_APP
	.loc	2 832 9                         @ source/app.c:832:9
	ldr	r1, __arm_cp.11_2
	movs	r0, #16
	strb	r0, [r1]
	.loc	2 833 2                         @ source/app.c:833:2
	b	.LBB11_8
.Ltmp293:
.LBB11_2:
	.loc	2 0 2 is_stmt 0                 @ source/app.c:0:2
	add	r0, sp, #20
.Ltmp294:
	.loc	2 834 10 is_stmt 1              @ source/app.c:834:10
	ldrb	r0, [r0]
.Ltmp295:
	.loc	2 834 10 is_stmt 0              @ source/app.c:834:10
	cmp	r0, #1
	bne	.LBB11_6
	b	.LBB11_3
.LBB11_3:
.Ltmp296:
	.loc	2 835 10 is_stmt 1              @ source/app.c:835:10
	ldr	r0, __arm_cp.11_1
	ldrh	r0, [r0]
.Ltmp297:
	.loc	2 835 6 is_stmt 0               @ source/app.c:835:6
	cbnz	r0, .LBB11_5
	b	.LBB11_4
.LBB11_4:
.Ltmp298:
	.loc	2 836 10 is_stmt 1              @ source/app.c:836:10
	ldr	r1, __arm_cp.11_2
	movs	r0, #1
	strb	r0, [r1]
	.loc	2 837 3                         @ source/app.c:837:3
	b	.LBB11_5
.Ltmp299:
.LBB11_5:
	.loc	2 838 2                         @ source/app.c:838:2
	b	.LBB11_7
.Ltmp300:
.LBB11_6:
	.loc	2 0 2 is_stmt 0                 @ source/app.c:0:2
	b	.LBB11_7
.LBB11_7:
	b	.LBB11_8
.LBB11_8:
	add	r0, sp, #16
.Ltmp301:
	.loc	2 844 5 is_stmt 1               @ source/app.c:844:5
	ldrb	r0, [r0]
.Ltmp302:
	.loc	2 844 5 is_stmt 0               @ source/app.c:844:5
	cbnz	r0, .LBB11_10
	b	.LBB11_9
.LBB11_9:
.Ltmp303:
	.loc	2 846 3 is_stmt 1               @ source/app.c:846:3
	@APP
	mrs	r0, primask
	cpsid i

	@NO_APP
	str	r0, [sp, #24]
	.loc	2 847 24                        @ source/app.c:847:24
	ldr	r1, __arm_cp.11_1
	movw	r0, #1000
	strh	r0, [r1, #2]
	.loc	2 848 3                         @ source/app.c:848:3
	@APP
	cpsie i
	@NO_APP
	.loc	2 849 9                         @ source/app.c:849:9
	ldr	r1, __arm_cp.11_3
	movs	r0, #16
	strb	r0, [r1]
	.loc	2 850 2                         @ source/app.c:850:2
	b	.LBB11_16
.Ltmp304:
.LBB11_10:
	.loc	2 0 2 is_stmt 0                 @ source/app.c:0:2
	add	r0, sp, #16
.Ltmp305:
	.loc	2 851 10 is_stmt 1              @ source/app.c:851:10
	ldrb	r0, [r0]
.Ltmp306:
	.loc	2 851 10 is_stmt 0              @ source/app.c:851:10
	cmp	r0, #1
	bne	.LBB11_14
	b	.LBB11_11
.LBB11_11:
.Ltmp307:
	.loc	2 852 10 is_stmt 1              @ source/app.c:852:10
	ldr	r0, __arm_cp.11_1
	ldrh	r0, [r0, #2]
.Ltmp308:
	.loc	2 852 6 is_stmt 0               @ source/app.c:852:6
	cbnz	r0, .LBB11_13
	b	.LBB11_12
.LBB11_12:
.Ltmp309:
	.loc	2 853 10 is_stmt 1              @ source/app.c:853:10
	ldr	r1, __arm_cp.11_3
	movs	r0, #1
	strb	r0, [r1]
	.loc	2 854 3                         @ source/app.c:854:3
	b	.LBB11_13
.Ltmp310:
.LBB11_13:
	.loc	2 855 2                         @ source/app.c:855:2
	b	.LBB11_15
.Ltmp311:
.LBB11_14:
	.loc	2 0 2 is_stmt 0                 @ source/app.c:0:2
	b	.LBB11_15
.LBB11_15:
	b	.LBB11_16
.LBB11_16:
.Ltmp312:
	.loc	2 862 5 is_stmt 1               @ source/app.c:862:5
	ldr	r0, __arm_cp.11_2
	ldrb	r0, [r0]
	.loc	2 862 17 is_stmt 0              @ source/app.c:862:17
	cmp	r0, #16
	bne	.LBB11_19
	b	.LBB11_17
.LBB11_17:
	.loc	2 862 20                        @ source/app.c:862:20
	ldr	r0, __arm_cp.11_3
	ldrb	r0, [r0]
.Ltmp313:
	.loc	2 862 5                         @ source/app.c:862:5
	cmp	r0, #16
	bne	.LBB11_19
	b	.LBB11_18
.LBB11_18:
.Ltmp314:
	.loc	2 863 17 is_stmt 1              @ source/app.c:863:17
	ldr	r1, __arm_cp.11_4
	movs	r2, #32
	movs	r0, #3
	strb	r0, [r1, r2]
	.loc	2 864 10                        @ source/app.c:864:10
	ldr	r2, __arm_cp.11_5
	movs	r0, #0
	strb	r0, [r2]
	movs	r0, #79
	.loc	2 865 30                        @ source/app.c:865:30
	strh	r0, [r1, #20]
	.loc	2 866 30                        @ source/app.c:866:30
	strh	r0, [r1, #22]
	.loc	2 867 2                         @ source/app.c:867:2
	b	.LBB11_31
.Ltmp315:
.LBB11_19:
	.loc	2 868 10                        @ source/app.c:868:10
	ldr	r0, __arm_cp.11_2
	ldrb	r0, [r0]
	.loc	2 868 26 is_stmt 0              @ source/app.c:868:26
	cmp	r0, #1
	bne	.LBB11_22
	b	.LBB11_20
.LBB11_20:
	.loc	2 868 29                        @ source/app.c:868:29
	ldr	r0, __arm_cp.11_3
	ldrb	r0, [r0]
.Ltmp316:
	.loc	2 868 10                        @ source/app.c:868:10
	cmp	r0, #16
	bne	.LBB11_22
	b	.LBB11_21
.LBB11_21:
.Ltmp317:
	.loc	2 869 17 is_stmt 1              @ source/app.c:869:17
	ldr	r1, __arm_cp.11_4
	movs	r2, #32
	movs	r0, #2
	strb	r0, [r1, r2]
	.loc	2 870 10                        @ source/app.c:870:10
	ldr	r2, __arm_cp.11_5
	movs	r0, #0
	strb	r0, [r2]
	movs	r0, #69
	.loc	2 872 30                        @ source/app.c:872:30
	strh	r0, [r1, #20]
	movs	r0, #79
	.loc	2 873 33                        @ source/app.c:873:33
	strh	r0, [r1, #22]
	.loc	2 874 2                         @ source/app.c:874:2
	b	.LBB11_30
.Ltmp318:
.LBB11_22:
	.loc	2 875 10                        @ source/app.c:875:10
	ldr	r0, __arm_cp.11_2
	ldrb	r0, [r0]
	.loc	2 875 22 is_stmt 0              @ source/app.c:875:22
	cmp	r0, #16
	bne	.LBB11_25
	b	.LBB11_23
.LBB11_23:
	.loc	2 875 25                        @ source/app.c:875:25
	ldr	r0, __arm_cp.11_3
	ldrb	r0, [r0]
.Ltmp319:
	.loc	2 875 10                        @ source/app.c:875:10
	cmp	r0, #1
	bne	.LBB11_25
	b	.LBB11_24
.LBB11_24:
.Ltmp320:
	.loc	2 876 17 is_stmt 1              @ source/app.c:876:17
	ldr	r1, __arm_cp.11_4
	movs	r2, #32
	movs	r0, #1
	strb	r0, [r1, r2]
	.loc	2 877 10                        @ source/app.c:877:10
	ldr	r2, __arm_cp.11_5
	strb	r0, [r2]
	movs	r0, #69
	.loc	2 879 30                        @ source/app.c:879:30
	strh	r0, [r1, #22]
	.loc	2 880 2                         @ source/app.c:880:2
	b	.LBB11_29
.Ltmp321:
.LBB11_25:
	.loc	2 881 10                        @ source/app.c:881:10
	ldr	r0, __arm_cp.11_2
	ldrb	r0, [r0]
	.loc	2 881 26 is_stmt 0              @ source/app.c:881:26
	cmp	r0, #1
	bne	.LBB11_28
	b	.LBB11_26
.LBB11_26:
	.loc	2 881 29                        @ source/app.c:881:29
	ldr	r0, __arm_cp.11_3
	ldrb	r0, [r0]
.Ltmp322:
	.loc	2 881 10                        @ source/app.c:881:10
	cmp	r0, #1
	bne	.LBB11_28
	b	.LBB11_27
.LBB11_27:
.Ltmp323:
	.loc	2 882 17 is_stmt 1              @ source/app.c:882:17
	ldr	r1, __arm_cp.11_4
	movs	r2, #32
	movs	r0, #0
	strb	r0, [r1, r2]
	.loc	2 883 10                        @ source/app.c:883:10
	ldr	r2, __arm_cp.11_5
	strb	r0, [r2]
	movs	r0, #69
	.loc	2 884 30                        @ source/app.c:884:30
	strh	r0, [r1, #20]
	.loc	2 885 30                        @ source/app.c:885:30
	strh	r0, [r1, #22]
	.loc	2 886 2                         @ source/app.c:886:2
	b	.LBB11_28
.Ltmp324:
.LBB11_28:
	.loc	2 0 2 is_stmt 0                 @ source/app.c:0:2
	b	.LBB11_29
.LBB11_29:
	b	.LBB11_30
.LBB11_30:
	b	.LBB11_31
.LBB11_31:
	.loc	2 887 1 epilogue_begin is_stmt 1 @ source/app.c:887:1
	add	sp, #32
	pop	{r7, pc}
.Ltmp325:
	.loc	2 0 1 is_stmt 0                 @ :0:1
.Ltmp326:
	.p2align	2
@ %bb.32:
__arm_cp.11_0:
	.long	uart_com
.Lcpi_end70:
	.size	__arm_cp.11_0, .Lcpi_end70-__arm_cp.11_0
__arm_cp.11_1:
	.long	tmr
.Lcpi_end71:
	.size	__arm_cp.11_1, .Lcpi_end71-__arm_cp.11_1
__arm_cp.11_2:
	.long	rcv_com_pkt.p_com
.Lcpi_end72:
	.size	__arm_cp.11_2, .Lcpi_end72-__arm_cp.11_2
__arm_cp.11_3:
	.long	rcv_com_pkt.s_com
.Lcpi_end73:
	.size	__arm_cp.11_3, .Lcpi_end73-__arm_cp.11_3
__arm_cp.11_4:
	.long	sys
.Lcpi_end74:
	.size	__arm_cp.11_4, .Lcpi_end74-__arm_cp.11_4
__arm_cp.11_5:
	.long	com_id
.Lcpi_end75:
	.size	__arm_cp.11_5, .Lcpi_end75-__arm_cp.11_5
.Lfunc_end11:
	.size	rcv_com_pkt, .Lfunc_end11-rcv_com_pkt
	.cfi_endproc
	.cantunwind
	.fnend
                                        @ -- End function
	.section	.text.poll_gps,"ax",%progbits
	.p2align	2                               @ -- Begin function poll_gps
	.type	poll_gps,%function
	.code	16                              @ @poll_gps
	.thumb_func
poll_gps:
.Lfunc_begin12:
	.loc	2 984 0 is_stmt 1               @ source/app.c:984:0
	.fnstart
	.cfi_startproc
@ %bb.0:
	.save	{r7, lr}
	push	{r7, lr}
	.cfi_def_cfa_offset 8
	.cfi_offset lr, -4
	.cfi_offset r7, -8
	.pad	#16
	sub	sp, #16
	.cfi_def_cfa_offset 24
.Ltmp327:
	.loc	2 985 23 prologue_end           @ source/app.c:985:23
	ldr	r0, __arm_cp.12_0
	ldr	r0, [r0, #4]
	.loc	2 985 10 is_stmt 0              @ source/app.c:985:10
	str	r0, [sp, #12]
.Ltmp328:
	.loc	2 989 6 is_stmt 1               @ source/app.c:989:6
	ldr	r0, [sp, #12]
	.loc	2 989 9 is_stmt 0               @ source/app.c:989:9
	ldrb	r0, [r0, #12]
.Ltmp329:
	.loc	2 989 5                         @ source/app.c:989:5
	cbnz	r0, .LBB12_7
	b	.LBB12_1
.LBB12_1:
.Ltmp330:
	.loc	2 990 13 is_stmt 1              @ source/app.c:990:13
	ldr	r0, [sp, #12]
	add	r1, sp, #8
	.loc	2 990 3 is_stmt 0               @ source/app.c:990:3
	bl	fifo_read
	.loc	2 991 15 is_stmt 1              @ source/app.c:991:15
	ldr	r1, [sp, #8]
	.loc	2 991 10 is_stmt 0              @ source/app.c:991:10
	ldr	r0, __arm_cp.12_1
	ldrb	r3, [r0]
	.loc	2 991 3                         @ source/app.c:991:3
	ldr	r2, __arm_cp.12_2
	.loc	2 991 13                        @ source/app.c:991:13
	strb	r1, [r2, r3]
	.loc	2 992 4 is_stmt 1               @ source/app.c:992:4
	ldrb	r1, [r0]
	adds	r1, r1, #1
	strb	r1, [r0]
.Ltmp331:
	.loc	2 993 7                         @ source/app.c:993:7
	ldrb	r0, [r0]
.Ltmp332:
	.loc	2 993 7 is_stmt 0               @ source/app.c:993:7
	cmp	r0, #101
	blo	.LBB12_3
	b	.LBB12_2
.LBB12_2:
.Ltmp333:
	.loc	2 995 6 is_stmt 1               @ source/app.c:995:6
	ldr	r1, __arm_cp.12_1
	movs	r0, #0
	strb	r0, [r1]
	.loc	2 996 3                         @ source/app.c:996:3
	b	.LBB12_3
.Ltmp334:
.LBB12_3:
	.loc	2 0 3 is_stmt 0                 @ source/app.c:0:3
	add	r0, sp, #8
.Ltmp335:
	.loc	2 997 7 is_stmt 1               @ source/app.c:997:7
	ldrb	r0, [r0]
	.loc	2 997 17 is_stmt 0              @ source/app.c:997:17
	cmp	r0, #10
	beq	.LBB12_5
	b	.LBB12_4
.LBB12_4:
	.loc	2 0 17                          @ source/app.c:0:17
	add	r0, sp, #8
	.loc	2 997 20                        @ source/app.c:997:20
	ldrb	r0, [r0]
.Ltmp336:
	.loc	2 997 7                         @ source/app.c:997:7
	cmp	r0, #13
	bne	.LBB12_6
	b	.LBB12_5
.LBB12_5:
.Ltmp337:
	.loc	2 998 11 is_stmt 1              @ source/app.c:998:11
	ldr	r0, __arm_cp.12_1
	str	r0, [sp]                        @ 4-byte Spill
	ldrb	r2, [r0]
	.loc	2 998 4 is_stmt 0               @ source/app.c:998:4
	ldr	r0, __arm_cp.12_2
	movs	r1, #0
	.loc	2 998 14                        @ source/app.c:998:14
	str	r1, [sp, #4]                    @ 4-byte Spill
	strb	r1, [r0, r2]
	.loc	2 999 4 is_stmt 1               @ source/app.c:999:4
	bl	app_extract_ts
	ldr	r1, [sp]                        @ 4-byte Reload
	ldr	r0, [sp, #4]                    @ 4-byte Reload
	.loc	2 1000 6                        @ source/app.c:1000:6
	strb	r0, [r1]
	.loc	2 1001 3                        @ source/app.c:1001:3
	b	.LBB12_6
.Ltmp338:
.LBB12_6:
	.loc	2 1002 2                        @ source/app.c:1002:2
	b	.LBB12_7
.Ltmp339:
.LBB12_7:
	.loc	2 1003 1 epilogue_begin         @ source/app.c:1003:1
	add	sp, #16
	pop	{r7, pc}
.Ltmp340:
	.loc	2 0 1 is_stmt 0                 @ :0:1
.Ltmp341:
	.p2align	2
@ %bb.8:
__arm_cp.12_0:
	.long	uart_gps
.Lcpi_end76:
	.size	__arm_cp.12_0, .Lcpi_end76-__arm_cp.12_0
__arm_cp.12_1:
	.long	poll_gps.k
.Lcpi_end77:
	.size	__arm_cp.12_1, .Lcpi_end77-__arm_cp.12_1
__arm_cp.12_2:
	.long	buf_ts
.Lcpi_end78:
	.size	__arm_cp.12_2, .Lcpi_end78-__arm_cp.12_2
.Lfunc_end12:
	.size	poll_gps, .Lfunc_end12-poll_gps
	.cfi_endproc
	.cantunwind
	.fnend
                                        @ -- End function
	.section	.text.app_extract_ts,"ax",%progbits
	.p2align	2                               @ -- Begin function app_extract_ts
	.type	app_extract_ts,%function
	.code	16                              @ @app_extract_ts
	.thumb_func
app_extract_ts:
.Lfunc_begin13:
	.loc	2 913 0 is_stmt 1               @ source/app.c:913:0
	.fnstart
	.cfi_startproc
@ %bb.0:
	.save	{r4, r5, r6, lr}
	push	{r4, r5, r6, lr}
	.cfi_def_cfa_offset 16
	.cfi_offset lr, -4
	.cfi_offset r6, -8
	.cfi_offset r5, -12
	.cfi_offset r4, -16
	.pad	#40
	sub	sp, #40
	.cfi_def_cfa_offset 56
	str	r0, [sp, #36]
	movs	r0, #0
.Ltmp342:
	.loc	2 917 11 prologue_end           @ source/app.c:917:11
	str	r0, [sp, #20]
	.loc	2 919 27                        @ source/app.c:919:27
	ldr	r0, [sp, #36]
	movs	r1, #44
	.loc	2 919 10 is_stmt 0              @ source/app.c:919:10
	bl	my_strtok
	.loc	2 919 8                         @ source/app.c:919:8
	str	r0, [sp, #24]
.Ltmp343:
	.loc	2 920 13 is_stmt 1              @ source/app.c:920:13
	ldr	r0, [sp, #24]
	.loc	2 920 6 is_stmt 0               @ source/app.c:920:6
	ldr	r1, __arm_cp.13_0
	bl	strcmp
.Ltmp344:
	.loc	2 920 5                         @ source/app.c:920:5
	cbnz	r0, .LBB13_2
	b	.LBB13_1
.LBB13_1:
	.loc	2 0 5                           @ source/app.c:0:5
	movs	r0, #1
.Ltmp345:
	.loc	2 922 5 is_stmt 1               @ source/app.c:922:5
	str	r0, [sp, #20]
	.loc	2 923 2                         @ source/app.c:923:2
	b	.LBB13_2
.Ltmp346:
.LBB13_2:
	.loc	2 924 13                        @ source/app.c:924:13
	ldr	r0, [sp, #24]
	.loc	2 924 6 is_stmt 0               @ source/app.c:924:6
	ldr	r1, __arm_cp.13_1
	bl	strcmp
.Ltmp347:
	.loc	2 924 5                         @ source/app.c:924:5
	cbnz	r0, .LBB13_4
	b	.LBB13_3
.LBB13_3:
	.loc	2 0 5                           @ source/app.c:0:5
	movs	r0, #1
.Ltmp348:
	.loc	2 926 5 is_stmt 1               @ source/app.c:926:5
	str	r0, [sp, #20]
	.loc	2 927 2                         @ source/app.c:927:2
	b	.LBB13_4
.Ltmp349:
.LBB13_4:
	.loc	2 929 5                         @ source/app.c:929:5
	ldr	r0, [sp, #20]
.Ltmp350:
	.loc	2 929 5 is_stmt 0               @ source/app.c:929:5
	cbnz	r0, .LBB13_6
	b	.LBB13_5
.LBB13_5:
.Ltmp351:
	.loc	2 931 3 is_stmt 1               @ source/app.c:931:3
	b	.LBB13_7
.Ltmp352:
.LBB13_6:
	.loc	2 0 3 is_stmt 0                 @ source/app.c:0:3
	movs	r0, #0
	str	r0, [sp, #8]                    @ 4-byte Spill
	movs	r1, #44
	.loc	2 934 10 is_stmt 1              @ source/app.c:934:10
	str	r1, [sp, #4]                    @ 4-byte Spill
	bl	my_strtok
	.loc	2 934 8 is_stmt 0               @ source/app.c:934:8
	str	r0, [sp, #24]
	.loc	2 935 11 is_stmt 1              @ source/app.c:935:11
	ldr	r0, [sp, #24]
	.loc	2 935 6 is_stmt 0               @ source/app.c:935:6
	bl	atoi
	ldr	r1, [sp, #4]                    @ 4-byte Reload
	mov	r2, r0
	.loc	2 935 4                         @ source/app.c:935:4
	ldr	r0, [sp, #8]                    @ 4-byte Reload
	str	r2, [sp, #20]
	.loc	2 936 11 is_stmt 1              @ source/app.c:936:11
	ldr	r2, [sp, #20]
	movs	r4, #100
	.loc	2 936 12 is_stmt 0              @ source/app.c:936:12
	str	r4, [sp, #12]                   @ 4-byte Spill
	udiv	r5, r2, r4
	mov	r3, r4
	muls	r3, r5, r3
	subs	r2, r2, r3
	add	r3, sp, #28
	.loc	2 936 9                         @ source/app.c:936:9
	str	r3, [sp, #16]                   @ 4-byte Spill
	strb	r2, [r3, #5]
	.loc	2 937 4 is_stmt 1               @ source/app.c:937:4
	ldr	r2, [sp, #20]
	udiv	r2, r2, r4
	str	r2, [sp, #20]
	.loc	2 938 11                        @ source/app.c:938:11
	ldr	r2, [sp, #20]
	.loc	2 938 12 is_stmt 0              @ source/app.c:938:12
	udiv	r6, r2, r4
	mov	r5, r4
	muls	r5, r6, r5
	subs	r2, r2, r5
	.loc	2 938 9                         @ source/app.c:938:9
	strb	r2, [r3, #4]
	.loc	2 939 4 is_stmt 1               @ source/app.c:939:4
	ldr	r2, [sp, #20]
	udiv	r2, r2, r4
	str	r2, [sp, #20]
	.loc	2 940 11                        @ source/app.c:940:11
	ldr	r2, [sp, #20]
	.loc	2 940 9 is_stmt 0               @ source/app.c:940:9
	strb	r2, [r3, #3]
	.loc	2 942 10 is_stmt 1              @ source/app.c:942:10
	bl	my_strtok
	ldr	r1, [sp, #4]                    @ 4-byte Reload
	mov	r2, r0
	.loc	2 942 8 is_stmt 0               @ source/app.c:942:8
	ldr	r0, [sp, #8]                    @ 4-byte Reload
	str	r2, [sp, #24]
	.loc	2 943 10 is_stmt 1              @ source/app.c:943:10
	bl	my_strtok
	ldr	r1, [sp, #4]                    @ 4-byte Reload
	mov	r2, r0
	.loc	2 943 8 is_stmt 0               @ source/app.c:943:8
	ldr	r0, [sp, #8]                    @ 4-byte Reload
	str	r2, [sp, #24]
	.loc	2 944 10 is_stmt 1              @ source/app.c:944:10
	bl	my_strtok
	ldr	r1, [sp, #4]                    @ 4-byte Reload
	mov	r2, r0
	.loc	2 944 8 is_stmt 0               @ source/app.c:944:8
	ldr	r0, [sp, #8]                    @ 4-byte Reload
	str	r2, [sp, #24]
	.loc	2 945 10 is_stmt 1              @ source/app.c:945:10
	bl	my_strtok
	ldr	r1, [sp, #4]                    @ 4-byte Reload
	mov	r2, r0
	.loc	2 945 8 is_stmt 0               @ source/app.c:945:8
	ldr	r0, [sp, #8]                    @ 4-byte Reload
	str	r2, [sp, #24]
	.loc	2 946 10 is_stmt 1              @ source/app.c:946:10
	bl	my_strtok
	ldr	r1, [sp, #4]                    @ 4-byte Reload
	mov	r2, r0
	.loc	2 946 8 is_stmt 0               @ source/app.c:946:8
	ldr	r0, [sp, #8]                    @ 4-byte Reload
	str	r2, [sp, #24]
	.loc	2 947 10 is_stmt 1              @ source/app.c:947:10
	bl	my_strtok
	ldr	r1, [sp, #4]                    @ 4-byte Reload
	mov	r2, r0
	.loc	2 947 8 is_stmt 0               @ source/app.c:947:8
	ldr	r0, [sp, #8]                    @ 4-byte Reload
	str	r2, [sp, #24]
	.loc	2 948 10 is_stmt 1              @ source/app.c:948:10
	bl	my_strtok
	ldr	r1, [sp, #4]                    @ 4-byte Reload
	mov	r2, r0
	.loc	2 948 8 is_stmt 0               @ source/app.c:948:8
	ldr	r0, [sp, #8]                    @ 4-byte Reload
	str	r2, [sp, #24]
	.loc	2 949 10 is_stmt 1              @ source/app.c:949:10
	bl	my_strtok
	.loc	2 949 8 is_stmt 0               @ source/app.c:949:8
	str	r0, [sp, #24]
	.loc	2 951 11 is_stmt 1              @ source/app.c:951:11
	ldr	r0, [sp, #24]
	.loc	2 951 6 is_stmt 0               @ source/app.c:951:6
	bl	atoi
	ldr	r2, [sp, #12]                   @ 4-byte Reload
	mov	r1, r0
	.loc	2 951 4                         @ source/app.c:951:4
	ldr	r0, [sp, #16]                   @ 4-byte Reload
	str	r1, [sp, #20]
	.loc	2 952 11 is_stmt 1              @ source/app.c:952:11
	ldr	r1, [sp, #20]
	.loc	2 952 12 is_stmt 0              @ source/app.c:952:12
	udiv	r4, r1, r2
	mov	r3, r2
	muls	r3, r4, r3
	subs	r1, r1, r3
	.loc	2 952 9                         @ source/app.c:952:9
	strb	r1, [r0, #2]
	.loc	2 953 4 is_stmt 1               @ source/app.c:953:4
	ldr	r1, [sp, #20]
	udiv	r1, r1, r2
	str	r1, [sp, #20]
	.loc	2 954 11                        @ source/app.c:954:11
	ldr	r1, [sp, #20]
	.loc	2 954 12 is_stmt 0              @ source/app.c:954:12
	udiv	r4, r1, r2
	mov	r3, r2
	muls	r3, r4, r3
	subs	r1, r1, r3
	.loc	2 954 9                         @ source/app.c:954:9
	strb	r1, [r0, #1]
	.loc	2 955 4 is_stmt 1               @ source/app.c:955:4
	ldr	r1, [sp, #20]
	udiv	r1, r1, r2
	str	r1, [sp, #20]
	.loc	2 956 11                        @ source/app.c:956:11
	ldr	r1, [sp, #20]
	.loc	2 956 9 is_stmt 0               @ source/app.c:956:9
	strb	r1, [r0]
	.loc	2 958 18 is_stmt 1              @ source/app.c:958:18
	bl	conv2seconds
	.loc	2 958 16 is_stmt 0              @ source/app.c:958:16
	ldr	r1, __arm_cp.13_2
	str	r0, [r1]
	.loc	2 959 1 is_stmt 1               @ source/app.c:959:1
	b	.LBB13_7
.LBB13_7:
	.loc	2 959 1 epilogue_begin is_stmt 0 @ source/app.c:959:1
	add	sp, #40
	pop	{r4, r5, r6, pc}
.Ltmp353:
	.loc	2 0 1                           @ :0:1
.Ltmp354:
	.p2align	2
@ %bb.8:
__arm_cp.13_0:
	.long	.L.str.14
.Lcpi_end79:
	.size	__arm_cp.13_0, .Lcpi_end79-__arm_cp.13_0
__arm_cp.13_1:
	.long	.L.str.15
.Lcpi_end80:
	.size	__arm_cp.13_1, .Lcpi_end80-__arm_cp.13_1
__arm_cp.13_2:
	.long	sys
.Lcpi_end81:
	.size	__arm_cp.13_2, .Lcpi_end81-__arm_cp.13_2
.Lfunc_end13:
	.size	app_extract_ts, .Lfunc_end13-app_extract_ts
	.cfi_endproc
	.cantunwind
	.fnend
                                        @ -- End function
	.section	.text.check_faults,"ax",%progbits
	.p2align	2                               @ -- Begin function check_faults
	.type	check_faults,%function
	.code	16                              @ @check_faults
	.thumb_func
check_faults:
.Lfunc_begin14:
	.loc	2 1208 0 is_stmt 1              @ source/app.c:1208:0
	.fnstart
	.cfi_startproc
@ %bb.0:
	.save	{r7, lr}
	push	{r7, lr}
	.cfi_def_cfa_offset 8
	.cfi_offset lr, -4
	.cfi_offset r7, -8
	.pad	#40
	sub	sp, #40
	.cfi_def_cfa_offset 48
.Ltmp355:
	.loc	2 1238 9 prologue_end           @ source/app.c:1238:9
	ldr	r0, __arm_cp.14_0
	ldrb	r0, [r0, #3]
.Ltmp356:
	.loc	2 1238 5 is_stmt 0              @ source/app.c:1238:5
	lsls	r0, r0, #31
	cbnz	r0, .LBB14_2
	b	.LBB14_1
.LBB14_1:
.Ltmp357:
	.loc	2 1240 2 is_stmt 1              @ source/app.c:1240:2
	b	.LBB14_53
.Ltmp358:
.LBB14_2:
	.loc	2 1242 19                       @ source/app.c:1242:19
	ldr	r1, __arm_cp.14_0
	movs	r0, #0
	strb	r0, [r1, #3]
	.loc	2 1243 6                        @ source/app.c:1243:6
	ldr	r0, __arm_cp.14_1
	movw	r1, #5152
	adds	r1, r0, r1
	str	r1, [sp, #36]
	ldr	r1, __arm_cp.14_2
	.loc	2 1244 9                        @ source/app.c:1244:9
	adds	r0, r0, r1
	str	r0, [sp, #32]
.Ltmp359:
	.loc	2 1246 7                        @ source/app.c:1246:7
	ldr	r0, __arm_cp.14_3
	ldrb	r0, [r0]
.Ltmp360:
	.loc	2 1246 6 is_stmt 0              @ source/app.c:1246:6
	lsls	r0, r0, #31
	cbnz	r0, .LBB14_4
	b	.LBB14_3
.LBB14_3:
.Ltmp361:
	.loc	2 1247 23 is_stmt 1             @ source/app.c:1247:23
	ldr	r0, [sp, #36]
	.loc	2 1247 27 is_stmt 0             @ source/app.c:1247:27
	ldrb	r0, [r0, #2]
	.loc	2 1247 21                       @ source/app.c:1247:21
	ldr	r1, __arm_cp.14_4
	strb	r0, [r1]
	.loc	2 1248 24 is_stmt 1             @ source/app.c:1248:24
	ldr	r0, [sp, #36]
	.loc	2 1248 28 is_stmt 0             @ source/app.c:1248:28
	ldrb	r0, [r0, #3]
	.loc	2 1248 22                       @ source/app.c:1248:22
	ldr	r1, __arm_cp.14_5
	strb	r0, [r1]
	.loc	2 1249 27 is_stmt 1             @ source/app.c:1249:27
	ldr	r0, [sp, #36]
	.loc	2 1249 31 is_stmt 0             @ source/app.c:1249:31
	ldrb	r0, [r0]
	lsls	r0, r0, #25
	lsrs	r0, r0, #30
	.loc	2 1249 25                       @ source/app.c:1249:25
	ldr	r1, __arm_cp.14_6
	strb	r0, [r1]
	.loc	2 1250 15 is_stmt 1             @ source/app.c:1250:15
	ldr	r1, __arm_cp.14_3
	movs	r0, #1
	strb	r0, [r1]
	.loc	2 1251 3                        @ source/app.c:1251:3
	b	.LBB14_52
.Ltmp362:
.LBB14_4:
	.loc	2 1254 21                       @ source/app.c:1254:21
	ldr	r0, [sp, #36]
	.loc	2 1254 25 is_stmt 0             @ source/app.c:1254:25
	ldrb	r0, [r0]
	lsls	r0, r0, #29
	lsrs	r0, r0, #31
	.loc	2 1254 37                       @ source/app.c:1254:37
	rsbs	r1, r0, #0
	adcs	r0, r1
	add	r1, sp, #16
	.loc	2 1254 12                       @ source/app.c:1254:12
	strb	r0, [r1]
	.loc	2 1255 21 is_stmt 1             @ source/app.c:1255:21
	ldr	r0, [sp, #36]
	.loc	2 1255 25 is_stmt 0             @ source/app.c:1255:25
	ldrb	r0, [r0]
	lsls	r0, r0, #28
	lsrs	r0, r0, #31
	.loc	2 1255 37                       @ source/app.c:1255:37
	rsbs	r1, r0, #0
	adcs	r0, r1
	add	r1, sp, #12
	.loc	2 1255 12                       @ source/app.c:1255:12
	strb	r0, [r1]
	.loc	2 1256 21 is_stmt 1             @ source/app.c:1256:21
	ldr	r0, [sp, #36]
	.loc	2 1256 25 is_stmt 0             @ source/app.c:1256:25
	ldrb	r0, [r0]
	lsls	r0, r0, #27
	lsrs	r0, r0, #31
	.loc	2 1256 37                       @ source/app.c:1256:37
	rsbs	r1, r0, #0
	adcs	r0, r1
	add	r1, sp, #8
	.loc	2 1256 12                       @ source/app.c:1256:12
	strb	r0, [r1]
	.loc	2 1258 21 is_stmt 1             @ source/app.c:1258:21
	ldr	r0, [sp, #16]
	.loc	2 1258 29 is_stmt 0             @ source/app.c:1258:29
	ldr	r1, [sp, #12]
	.loc	2 1258 27                       @ source/app.c:1258:27
	adds	r0, r0, r1
	.loc	2 1258 37                       @ source/app.c:1258:37
	ldr	r1, [sp, #8]
	.loc	2 1258 35                       @ source/app.c:1258:35
	adds	r0, r0, r1
	add	r1, sp, #28
	.loc	2 1258 19                       @ source/app.c:1258:19
	strb	r0, [r1]
	.loc	2 1259 32 is_stmt 1             @ source/app.c:1259:32
	ldr	r0, __arm_cp.14_1
	.loc	2 1259 26 is_stmt 0             @ source/app.c:1259:26
	ldrb	r2, [r0, #4]
	movs	r1, #1
	ands	r2, r1
	ldr	r3, __arm_cp.14_7
	.loc	2 1259 50                       @ source/app.c:1259:50
	ldrb	r3, [r0, r3]
	ands	r3, r1
	.loc	2 1259 48                       @ source/app.c:1259:48
	adds	r2, r2, r3
	movw	r3, #3408
	.loc	2 1259 74                       @ source/app.c:1259:74
	ldrb	r3, [r0, r3]
	ands	r3, r1
	.loc	2 1259 72                       @ source/app.c:1259:72
	adds	r2, r2, r3
	add	r3, sp, #24
	.loc	2 1259 24                       @ source/app.c:1259:24
	strb	r2, [r3]
	ldr	r2, __arm_cp.14_8
	.loc	2 1260 29 is_stmt 1             @ source/app.c:1260:29
	ldrb	r0, [r0, r2]
	.loc	2 1260 23 is_stmt 0             @ source/app.c:1260:23
	ands	r0, r1
	add	r1, sp, #20
	.loc	2 1260 21                       @ source/app.c:1260:21
	strb	r0, [r1]
	.loc	2 1263 12 is_stmt 1             @ source/app.c:1263:12
	ldr	r0, __arm_cp.14_9
	ldrb	r0, [r0]
	.loc	2 1263 4 is_stmt 0              @ source/app.c:1263:4
	str	r0, [sp, #4]                    @ 4-byte Spill
	cmp	r0, #3
	bls	.LBB14_5
	b	.LBB14_50
.LBB14_5:
	ldr	r1, [sp, #4]                    @ 4-byte Reload
	lsls	r2, r1, #2
	adr	r0, .LJTI14_0
	adds	r0, r0, r2
	mov	pc, r0
@ %bb.6:
	.loc	2 0 4                           @ source/app.c:0:4
	.p2align	2
.LJTI14_0:
	b.w	.LBB14_45
	b.w	.LBB14_46
	b.w	.LBB14_47
	b.w	.LBB14_7
.LBB14_7:
	add	r0, sp, #28
.Ltmp363:
	.loc	2 1266 9 is_stmt 1              @ source/app.c:1266:9
	ldrb	r0, [r0]
.Ltmp364:
	.loc	2 1266 9 is_stmt 0              @ source/app.c:1266:9
	cmp	r0, #1
	bhi	.LBB14_9
	b	.LBB14_8
.LBB14_8:
.Ltmp365:
	.loc	2 1267 19 is_stmt 1             @ source/app.c:1267:19
	ldr	r1, __arm_cp.14_9
	movs	r0, #2
	strb	r0, [r1]
	.loc	2 1268 19                       @ source/app.c:1268:19
	ldr	r1, __arm_cp.14_14
	movs	r0, #1
	strb	r0, [r1]
	add	r0, sp, #28
	.loc	2 1269 37                       @ source/app.c:1269:37
	ldrb	r1, [r0]
	.loc	2 1269 7 is_stmt 0              @ source/app.c:1269:7
	ldr	r0, __arm_cp.14_21
	bl	printf
	.loc	2 1270 6 is_stmt 1              @ source/app.c:1270:6
	b	.LBB14_44
.Ltmp366:
.LBB14_9:
	.loc	2 1271 14                       @ source/app.c:1271:14
	ldr	r0, [sp, #36]
	.loc	2 1271 18 is_stmt 0             @ source/app.c:1271:18
	ldrb	r0, [r0]
	lsls	r0, r0, #30
	lsrs	r0, r0, #31
.Ltmp367:
	.loc	2 1271 14                       @ source/app.c:1271:14
	cbz	r0, .LBB14_11
	b	.LBB14_10
.LBB14_10:
.Ltmp368:
	.loc	2 1272 19 is_stmt 1             @ source/app.c:1272:19
	ldr	r1, __arm_cp.14_9
	movs	r0, #2
	strb	r0, [r1]
	.loc	2 1273 19                       @ source/app.c:1273:19
	ldr	r1, __arm_cp.14_14
	strb	r0, [r1]
	.loc	2 1274 33                       @ source/app.c:1274:33
	ldr	r0, [sp, #36]
	.loc	2 1274 37 is_stmt 0             @ source/app.c:1274:37
	ldrb	r0, [r0]
	lsls	r0, r0, #30
	lsrs	r1, r0, #31
	.loc	2 1274 7                        @ source/app.c:1274:7
	ldr	r0, __arm_cp.14_20
	bl	printf
	.loc	2 1275 6 is_stmt 1              @ source/app.c:1275:6
	b	.LBB14_43
.Ltmp369:
.LBB14_11:
	.loc	2 1276 14                       @ source/app.c:1276:14
	ldr	r0, [sp, #36]
	.loc	2 1276 18 is_stmt 0             @ source/app.c:1276:18
	ldrb	r0, [r0]
.Ltmp370:
	.loc	2 1276 14                       @ source/app.c:1276:14
	lsls	r0, r0, #31
	cbz	r0, .LBB14_13
	b	.LBB14_12
.LBB14_12:
.Ltmp371:
	.loc	2 1277 19 is_stmt 1             @ source/app.c:1277:19
	ldr	r1, __arm_cp.14_9
	movs	r0, #2
	strb	r0, [r1]
	.loc	2 1278 19                       @ source/app.c:1278:19
	ldr	r1, __arm_cp.14_14
	movs	r0, #3
	strb	r0, [r1]
	.loc	2 1279 34                       @ source/app.c:1279:34
	ldr	r0, [sp, #36]
	.loc	2 1279 38 is_stmt 0             @ source/app.c:1279:38
	ldrb	r1, [r0]
	movs	r0, #1
	.loc	2 1279 34                       @ source/app.c:1279:34
	ands	r1, r0
	.loc	2 1279 7                        @ source/app.c:1279:7
	ldr	r0, __arm_cp.14_19
	bl	printf
	.loc	2 1280 6 is_stmt 1              @ source/app.c:1280:6
	b	.LBB14_42
.Ltmp372:
.LBB14_13:
	.loc	2 1281 18                       @ source/app.c:1281:18
	ldr	r0, __arm_cp.14_12
	movs	r1, #32
	ldrb	r0, [r0, r1]
.Ltmp373:
	.loc	2 1281 14 is_stmt 0             @ source/app.c:1281:14
	cbnz	r0, .LBB14_15
	b	.LBB14_14
.LBB14_14:
.Ltmp374:
	.loc	2 1282 19 is_stmt 1             @ source/app.c:1282:19
	ldr	r1, __arm_cp.14_9
	movs	r0, #2
	strb	r0, [r1]
	.loc	2 1283 19                       @ source/app.c:1283:19
	ldr	r1, __arm_cp.14_14
	movs	r0, #4
	strb	r0, [r1]
	.loc	2 1284 38                       @ source/app.c:1284:38
	ldr	r0, __arm_cp.14_12
	movs	r1, #32
	ldrb	r1, [r0, r1]
	.loc	2 1284 7 is_stmt 0              @ source/app.c:1284:7
	ldr	r0, __arm_cp.14_18
	bl	printf
	.loc	2 1285 6 is_stmt 1              @ source/app.c:1285:6
	b	.LBB14_41
.Ltmp375:
.LBB14_15:
	.loc	2 1286 14                       @ source/app.c:1286:14
	ldr	r0, __arm_cp.14_4
	ldrb	r0, [r0]
	.loc	2 1286 34 is_stmt 0             @ source/app.c:1286:34
	ldr	r1, [sp, #36]
	.loc	2 1286 38                       @ source/app.c:1286:38
	ldrb	r1, [r1, #2]
.Ltmp376:
	.loc	2 1286 14                       @ source/app.c:1286:14
	cmp	r0, r1
	beq	.LBB14_17
	b	.LBB14_16
.LBB14_16:
.Ltmp377:
	.loc	2 1287 19 is_stmt 1             @ source/app.c:1287:19
	ldr	r1, __arm_cp.14_9
	movs	r0, #2
	strb	r0, [r1]
	.loc	2 1288 19                       @ source/app.c:1288:19
	ldr	r1, __arm_cp.14_14
	movs	r0, #5
	strb	r0, [r1]
	.loc	2 1289 60                       @ source/app.c:1289:60
	ldr	r0, __arm_cp.14_4
	ldrb	r1, [r0]
	.loc	2 1289 77 is_stmt 0             @ source/app.c:1289:77
	ldr	r0, [sp, #36]
	.loc	2 1289 81                       @ source/app.c:1289:81
	ldrb	r2, [r0, #2]
	.loc	2 1289 7                        @ source/app.c:1289:7
	ldr	r0, __arm_cp.14_17
	bl	printf
	.loc	2 1290 6 is_stmt 1              @ source/app.c:1290:6
	b	.LBB14_40
.Ltmp378:
.LBB14_17:
	.loc	2 1291 14                       @ source/app.c:1291:14
	ldr	r0, __arm_cp.14_5
	ldrb	r0, [r0]
	.loc	2 1291 35 is_stmt 0             @ source/app.c:1291:35
	ldr	r1, [sp, #36]
	.loc	2 1291 39                       @ source/app.c:1291:39
	ldrb	r1, [r1, #3]
.Ltmp379:
	.loc	2 1291 14                       @ source/app.c:1291:14
	cmp	r0, r1
	beq	.LBB14_19
	b	.LBB14_18
.LBB14_18:
.Ltmp380:
	.loc	2 1292 19 is_stmt 1             @ source/app.c:1292:19
	ldr	r1, __arm_cp.14_9
	movs	r0, #2
	strb	r0, [r1]
	.loc	2 1293 19                       @ source/app.c:1293:19
	ldr	r1, __arm_cp.14_14
	movs	r0, #6
	strb	r0, [r1]
	.loc	2 1294 61                       @ source/app.c:1294:61
	ldr	r0, __arm_cp.14_5
	ldrb	r1, [r0]
	.loc	2 1294 79 is_stmt 0             @ source/app.c:1294:79
	ldr	r0, [sp, #36]
	.loc	2 1294 83                       @ source/app.c:1294:83
	ldrb	r2, [r0, #3]
	.loc	2 1294 7                        @ source/app.c:1294:7
	ldr	r0, __arm_cp.14_16
	bl	printf
	.loc	2 1295 6 is_stmt 1              @ source/app.c:1295:6
	b	.LBB14_39
.Ltmp381:
.LBB14_19:
	.loc	2 1296 14                       @ source/app.c:1296:14
	ldr	r0, __arm_cp.14_6
	ldrb	r0, [r0]
	.loc	2 1296 38 is_stmt 0             @ source/app.c:1296:38
	ldr	r1, [sp, #36]
	.loc	2 1296 42                       @ source/app.c:1296:42
	ldrb	r1, [r1]
	lsls	r1, r1, #25
	lsrs	r1, r1, #30
.Ltmp382:
	.loc	2 1296 14                       @ source/app.c:1296:14
	cmp	r0, r1
	beq	.LBB14_21
	b	.LBB14_20
.LBB14_20:
.Ltmp383:
	.loc	2 1297 19 is_stmt 1             @ source/app.c:1297:19
	ldr	r1, __arm_cp.14_9
	movs	r0, #2
	strb	r0, [r1]
	.loc	2 1298 19                       @ source/app.c:1298:19
	ldr	r1, __arm_cp.14_14
	movs	r0, #7
	strb	r0, [r1]
	.loc	2 1299 59                       @ source/app.c:1299:59
	ldr	r0, __arm_cp.14_6
	ldrb	r1, [r0]
	.loc	2 1299 80 is_stmt 0             @ source/app.c:1299:80
	ldr	r0, [sp, #36]
	.loc	2 1299 84                       @ source/app.c:1299:84
	ldrb	r0, [r0]
	lsls	r0, r0, #25
	lsrs	r2, r0, #30
	.loc	2 1299 7                        @ source/app.c:1299:7
	ldr	r0, __arm_cp.14_15
	bl	printf
	.loc	2 1300 6 is_stmt 1              @ source/app.c:1300:6
	b	.LBB14_38
.Ltmp384:
.LBB14_21:
	.loc	2 0 6 is_stmt 0                 @ source/app.c:0:6
	add	r0, sp, #24
.Ltmp385:
	.loc	2 1328 14 is_stmt 1             @ source/app.c:1328:14
	ldrb	r0, [r0]
.Ltmp386:
	.loc	2 1328 14 is_stmt 0             @ source/app.c:1328:14
	cmp	r0, #2
	blo	.LBB14_23
	b	.LBB14_22
.LBB14_22:
.Ltmp387:
	.loc	2 1329 19 is_stmt 1             @ source/app.c:1329:19
	ldr	r1, __arm_cp.14_9
	movs	r0, #2
	strb	r0, [r1]
	add	r0, sp, #24
	.loc	2 1330 50                       @ source/app.c:1330:50
	ldrb	r1, [r0]
	.loc	2 1330 7 is_stmt 0              @ source/app.c:1330:7
	ldr	r0, __arm_cp.14_13
	bl	printf
	.loc	2 1331 6 is_stmt 1              @ source/app.c:1331:6
	b	.LBB14_37
.Ltmp388:
.LBB14_23:
	.loc	2 0 6 is_stmt 0                 @ source/app.c:0:6
	add	r0, sp, #28
.Ltmp389:
	.loc	2 1333 14 is_stmt 1             @ source/app.c:1333:14
	ldrb	r0, [r0]
.Ltmp390:
	.loc	2 1333 14 is_stmt 0             @ source/app.c:1333:14
	cmp	r0, #2
	bne	.LBB14_25
	b	.LBB14_24
.LBB14_24:
.Ltmp391:
	.loc	2 1334 19 is_stmt 1             @ source/app.c:1334:19
	ldr	r1, __arm_cp.14_9
	movs	r0, #1
	strb	r0, [r1]
	.loc	2 1335 6                        @ source/app.c:1335:6
	b	.LBB14_36
.Ltmp392:
.LBB14_25:
	.loc	2 1336 19                       @ source/app.c:1336:19
	ldr	r0, __arm_cp.14_12
	movs	r1, #32
	ldrb	r0, [r0, r1]
	.loc	2 1336 36 is_stmt 0             @ source/app.c:1336:36
	cmp	r0, #1
	beq	.LBB14_27
	b	.LBB14_26
.LBB14_26:
	.loc	2 1336 44                       @ source/app.c:1336:44
	ldr	r0, __arm_cp.14_12
	movs	r1, #32
	ldrb	r0, [r0, r1]
.Ltmp393:
	.loc	2 1336 14                       @ source/app.c:1336:14
	cmp	r0, #2
	bne	.LBB14_28
	b	.LBB14_27
.LBB14_27:
.Ltmp394:
	.loc	2 1337 19 is_stmt 1             @ source/app.c:1337:19
	ldr	r1, __arm_cp.14_9
	movs	r0, #1
	strb	r0, [r1]
	.loc	2 1338 6                        @ source/app.c:1338:6
	b	.LBB14_35
.Ltmp395:
.LBB14_28:
	.loc	2 0 6 is_stmt 0                 @ source/app.c:0:6
	add	r0, sp, #24
.Ltmp396:
	.loc	2 1339 14 is_stmt 1             @ source/app.c:1339:14
	ldrb	r0, [r0]
.Ltmp397:
	.loc	2 1339 14 is_stmt 0             @ source/app.c:1339:14
	cmp	r0, #1
	bhi	.LBB14_30
	b	.LBB14_29
.LBB14_29:
.Ltmp398:
	.loc	2 1340 19 is_stmt 1             @ source/app.c:1340:19
	ldr	r1, __arm_cp.14_9
	movs	r0, #1
	strb	r0, [r1]
	.loc	2 1341 6                        @ source/app.c:1341:6
	b	.LBB14_34
.Ltmp399:
.LBB14_30:
	.loc	2 0 6 is_stmt 0                 @ source/app.c:0:6
	add	r0, sp, #20
.Ltmp400:
	.loc	2 1342 14 is_stmt 1             @ source/app.c:1342:14
	ldrb	r0, [r0]
.Ltmp401:
	.loc	2 1342 14 is_stmt 0             @ source/app.c:1342:14
	cmp	r0, #1
	bne	.LBB14_32
	b	.LBB14_31
.LBB14_31:
.Ltmp402:
	.loc	2 1343 19 is_stmt 1             @ source/app.c:1343:19
	ldr	r1, __arm_cp.14_9
	movs	r0, #1
	strb	r0, [r1]
	.loc	2 1344 6                        @ source/app.c:1344:6
	b	.LBB14_33
.Ltmp403:
.LBB14_32:
	.loc	2 1346 19                       @ source/app.c:1346:19
	ldr	r1, __arm_cp.14_9
	movs	r0, #0
	strb	r0, [r1]
	b	.LBB14_33
.Ltmp404:
.LBB14_33:
	.loc	2 0 19 is_stmt 0                @ source/app.c:0:19
	b	.LBB14_34
.LBB14_34:
	b	.LBB14_35
.LBB14_35:
	b	.LBB14_36
.LBB14_36:
	b	.LBB14_37
.LBB14_37:
	b	.LBB14_38
.LBB14_38:
	b	.LBB14_39
.LBB14_39:
	b	.LBB14_40
.LBB14_40:
	b	.LBB14_41
.LBB14_41:
	b	.LBB14_42
.LBB14_42:
	b	.LBB14_43
.LBB14_43:
	b	.LBB14_44
.LBB14_44:
	.loc	2 1348 6 is_stmt 1              @ source/app.c:1348:6
	b	.LBB14_51
.LBB14_45:
	.loc	2 1351 30                       @ source/app.c:1351:30
	ldr	r1, __arm_cp.14_10
	ldrb	r0, [r1]
	movs	r2, #64
	orrs	r0, r2
	strb	r0, [r1]
	.loc	2 1352 32                       @ source/app.c:1352:32
	ldrb	r0, [r1]
	movs	r2, #127
	ands	r0, r2
	strb	r0, [r1]
	.loc	2 1353 18                       @ source/app.c:1353:18
	ldr	r1, __arm_cp.14_9
	movs	r0, #3
	strb	r0, [r1]
	.loc	2 1354 6                        @ source/app.c:1354:6
	b	.LBB14_51
.LBB14_46:
	.loc	2 1357 30                       @ source/app.c:1357:30
	ldr	r1, __arm_cp.14_10
	ldrb	r0, [r1]
	movs	r2, #64
	orrs	r0, r2
	strb	r0, [r1]
	.loc	2 1358 32                       @ source/app.c:1358:32
	ldrb	r0, [r1]
	movs	r2, #128
	orrs	r0, r2
	strb	r0, [r1]
	.loc	2 1359 18                       @ source/app.c:1359:18
	ldr	r1, __arm_cp.14_9
	movs	r0, #3
	strb	r0, [r1]
	.loc	2 1360 6                        @ source/app.c:1360:6
	b	.LBB14_51
.LBB14_47:
	.loc	2 1364 30                       @ source/app.c:1364:30
	ldr	r1, __arm_cp.14_10
	ldrb	r0, [r1]
	movs	r2, #191
	ands	r0, r2
	strb	r0, [r1]
	.loc	2 1365 32                       @ source/app.c:1365:32
	ldrb	r0, [r1]
	movs	r2, #128
	orrs	r0, r2
	strb	r0, [r1]
.Ltmp405:
	.loc	2 1367 12                       @ source/app.c:1367:12
	ldr	r0, __arm_cp.14_11
	ldrb	r0, [r0]
.Ltmp406:
	.loc	2 1367 12 is_stmt 0             @ source/app.c:1367:12
	cbz	r0, .LBB14_49
	b	.LBB14_48
.LBB14_48:
.Ltmp407:
	.loc	2 1369 29 is_stmt 1             @ source/app.c:1369:29
	ldr	r1, __arm_cp.14_11
	movs	r0, #0
	str	r0, [sp]                        @ 4-byte Spill
	strb	r0, [r1]
	.loc	2 1372 13                       @ source/app.c:1372:13
	bl	set_ctrl_defaults
	ldr	r0, [sp]                        @ 4-byte Reload
	.loc	2 1375 31                       @ source/app.c:1375:31
	ldr	r1, __arm_cp.14_12
	movs	r2, #128
	strb	r0, [r1, r2]
	movs	r2, #129
	.loc	2 1376 35                       @ source/app.c:1376:35
	strb	r0, [r1, r2]
	movs	r2, #130
	.loc	2 1377 27                       @ source/app.c:1377:27
	strb	r0, [r1, r2]
	.loc	2 1380 25                       @ source/app.c:1380:25
	ldr	r1, __arm_cp.14_9
	movs	r0, #3
	strb	r0, [r1]
	.loc	2 1381 9                        @ source/app.c:1381:9
	b	.LBB14_49
.Ltmp408:
.LBB14_49:
	.loc	2 1382 6                        @ source/app.c:1382:6
	b	.LBB14_51
.LBB14_50:
	.loc	2 1386 6                        @ source/app.c:1386:6
	b	.LBB14_51
.Ltmp409:
.LBB14_51:
	.loc	2 0 6 is_stmt 0                 @ source/app.c:0:6
	b	.LBB14_52
.LBB14_52:
	b	.LBB14_53
.LBB14_53:
	.loc	2 1393 1 epilogue_begin is_stmt 1 @ source/app.c:1393:1
	add	sp, #40
	pop	{r7, pc}
.Ltmp410:
	.loc	2 0 1 is_stmt 0                 @ :0:1
.Ltmp411:
	.p2align	2
@ %bb.54:
__arm_cp.14_0:
	.long	ev
.Lcpi_end82:
	.size	__arm_cp.14_0, .Lcpi_end82-__arm_cp.14_0
__arm_cp.14_1:
	.long	pe
.Lcpi_end83:
	.size	__arm_cp.14_1, .Lcpi_end83-__arm_cp.14_1
__arm_cp.14_2:
	.long	5143                            @ 0x1417
.Lcpi_end84:
	.size	__arm_cp.14_2, .Lcpi_end84-__arm_cp.14_2
__arm_cp.14_3:
	.long	check_faults.am_i_ready
.Lcpi_end85:
	.size	__arm_cp.14_3, .Lcpi_end85-__arm_cp.14_3
__arm_cp.14_4:
	.long	check_faults.local_addr_pwrup
.Lcpi_end86:
	.size	__arm_cp.14_4, .Lcpi_end86-__arm_cp.14_4
__arm_cp.14_5:
	.long	check_faults.remote_addr_pwrup
.Lcpi_end87:
	.size	__arm_cp.14_5, .Lcpi_end87-__arm_cp.14_5
__arm_cp.14_6:
	.long	check_faults.interlock_mode_pwrup
.Lcpi_end88:
	.size	__arm_cp.14_6, .Lcpi_end88-__arm_cp.14_6
__arm_cp.14_7:
	.long	1706                            @ 0x6aa
.Lcpi_end89:
	.size	__arm_cp.14_7, .Lcpi_end89-__arm_cp.14_7
__arm_cp.14_8:
	.long	5110                            @ 0x13f6
.Lcpi_end90:
	.size	__arm_cp.14_8, .Lcpi_end90-__arm_cp.14_8
__arm_cp.14_9:
	.long	check_faults.state_fault
.Lcpi_end91:
	.size	__arm_cp.14_9, .Lcpi_end91-__arm_cp.14_9
__arm_cp.14_10:
	.long	cpu_ctrls_u
.Lcpi_end92:
	.size	__arm_cp.14_10, .Lcpi_end92-__arm_cp.14_10
__arm_cp.14_11:
	.long	reset_completed
.Lcpi_end93:
	.size	__arm_cp.14_11, .Lcpi_end93-__arm_cp.14_11
__arm_cp.14_12:
	.long	sys
.Lcpi_end94:
	.size	__arm_cp.14_12, .Lcpi_end94-__arm_cp.14_12
__arm_cp.14_13:
	.long	.L.str.23
.Lcpi_end95:
	.size	__arm_cp.14_13, .Lcpi_end95-__arm_cp.14_13
__arm_cp.14_14:
	.long	fault_debug
.Lcpi_end96:
	.size	__arm_cp.14_14, .Lcpi_end96-__arm_cp.14_14
__arm_cp.14_15:
	.long	.L.str.22
.Lcpi_end97:
	.size	__arm_cp.14_15, .Lcpi_end97-__arm_cp.14_15
__arm_cp.14_16:
	.long	.L.str.21
.Lcpi_end98:
	.size	__arm_cp.14_16, .Lcpi_end98-__arm_cp.14_16
__arm_cp.14_17:
	.long	.L.str.20
.Lcpi_end99:
	.size	__arm_cp.14_17, .Lcpi_end99-__arm_cp.14_17
__arm_cp.14_18:
	.long	.L.str.19
.Lcpi_end100:
	.size	__arm_cp.14_18, .Lcpi_end100-__arm_cp.14_18
__arm_cp.14_19:
	.long	.L.str.18
.Lcpi_end101:
	.size	__arm_cp.14_19, .Lcpi_end101-__arm_cp.14_19
__arm_cp.14_20:
	.long	.L.str.17
.Lcpi_end102:
	.size	__arm_cp.14_20, .Lcpi_end102-__arm_cp.14_20
__arm_cp.14_21:
	.long	.L.str.16
.Lcpi_end103:
	.size	__arm_cp.14_21, .Lcpi_end103-__arm_cp.14_21
.Lfunc_end14:
	.size	check_faults, .Lfunc_end14-check_faults
	.cfi_endproc
	.cantunwind
	.fnend
                                        @ -- End function
	.section	.text.set_ctrl_defaults,"ax",%progbits
	.p2align	2                               @ -- Begin function set_ctrl_defaults
	.type	set_ctrl_defaults,%function
	.code	16                              @ @set_ctrl_defaults
	.thumb_func
set_ctrl_defaults:
.Lfunc_begin15:
	.fnstart
	.cfi_startproc
@ %bb.0:
	.loc	2 1421 32 prologue_end is_stmt 1 @ source/app.c:1421:32
	ldr	r1, __arm_cp.15_0
	ldrb	r0, [r1]
	movs	r2, #254
	ands	r0, r2
	strb	r0, [r1]
	.loc	2 1422 28                       @ source/app.c:1422:28
	ldrb	r0, [r1]
	movs	r3, #253
	ands	r0, r3
	strb	r0, [r1]
	.loc	2 1423 27                       @ source/app.c:1423:27
	ldrb	r0, [r1]
	movs	r3, #251
	ands	r0, r3
	strb	r0, [r1]
	.loc	2 1424 27                       @ source/app.c:1424:27
	ldrb	r0, [r1]
	movs	r3, #247
	ands	r0, r3
	strb	r0, [r1]
	.loc	2 1425 31                       @ source/app.c:1425:31
	ldrb	r0, [r1]
	movs	r3, #207
	ands	r0, r3
	strb	r0, [r1]
	.loc	2 1426 26                       @ source/app.c:1426:26
	ldrb	r0, [r1]
	movs	r3, #191
	ands	r0, r3
	strb	r0, [r1]
	.loc	2 1427 28                       @ source/app.c:1427:28
	ldrb	r0, [r1]
	movs	r3, #127
	ands	r0, r3
	strb	r0, [r1]
	.loc	2 1428 29                       @ source/app.c:1428:29
	ldrb	r0, [r1, #1]
	ands	r0, r2
	strb	r0, [r1, #1]
	.loc	2 1429 22                       @ source/app.c:1429:22
	ldrb	r0, [r1, #1]
	movs	r2, #7
	ands	r0, r2
	strb	r0, [r1, #1]
	.loc	2 1430 1                        @ source/app.c:1430:1
	bx	lr
.Ltmp412:
	.loc	2 0 1 is_stmt 0                 @ :0:1
.Ltmp413:
	.p2align	2
@ %bb.1:
__arm_cp.15_0:
	.long	cpu_ctrls_u
.Lcpi_end104:
	.size	__arm_cp.15_0, .Lcpi_end104-__arm_cp.15_0
.Lfunc_end15:
	.size	set_ctrl_defaults, .Lfunc_end15-set_ctrl_defaults
	.cfi_endproc
	.cantunwind
	.fnend
                                        @ -- End function
	.hidden	cpu_state                       @ @cpu_state
	.type	cpu_state,%object
	.section	.bss.cpu_state,"aw",%nobits
	.globl	cpu_state
cpu_state:
	.byte	0                               @ 0x0
	.size	cpu_state, 1

	.hidden	enable_watchdog                 @ @enable_watchdog
	.type	enable_watchdog,%object
	.section	.bss.enable_watchdog,"aw",%nobits
	.globl	enable_watchdog
enable_watchdog:
	.byte	0                               @ 0x0
	.size	enable_watchdog, 1

	.hidden	g_test_hang                     @ @g_test_hang
	.type	g_test_hang,%object
	.section	.bss.g_test_hang,"aw",%nobits
	.globl	g_test_hang
g_test_hang:
	.byte	0                               @ 0x0
	.size	g_test_hang, 1

	.hidden	reset_completed                 @ @reset_completed
	.type	reset_completed,%object
	.section	.bss.reset_completed,"aw",%nobits
	.globl	reset_completed
reset_completed:
	.byte	0                               @ 0x0
	.size	reset_completed, 1

	.type	is_enabled_check_faults,%object @ @is_enabled_check_faults
	.section	.bss.is_enabled_check_faults,"aw",%nobits
is_enabled_check_faults:
	.byte	0                               @ 0x0
	.size	is_enabled_check_faults, 1

	.type	b_inReset,%object               @ @b_inReset
	.section	.data.b_inReset,"aw",%progbits
b_inReset:
	.byte	1                               @ 0x1
	.size	b_inReset, 1

	.hidden	tmr                             @ @tmr
	.type	tmr,%object
	.section	.bss.tmr,"aw",%nobits
	.globl	tmr
	.p2align	2, 0x0
tmr:
	.zero	24
	.size	tmr, 24

	.hidden	ev                              @ @ev
	.type	ev,%object
	.section	.bss.ev,"aw",%nobits
	.globl	ev
ev:
	.zero	4
	.size	ev, 4

	.hidden	cfg                             @ @cfg
	.type	cfg,%object
	.section	.bss.cfg,"aw",%nobits
	.globl	cfg
	.p2align	2, 0x0
cfg:
	.zero	68
	.size	cfg, 68

	.hidden	cpu_ctrls_u                     @ @cpu_ctrls_u
	.type	cpu_ctrls_u,%object
	.section	.bss.cpu_ctrls_u,"aw",%nobits
	.globl	cpu_ctrls_u
cpu_ctrls_u:
	.zero	2
	.size	cpu_ctrls_u, 2

	.hidden	com_id                          @ @com_id
	.type	com_id,%object
	.section	.bss.com_id,"aw",%nobits
	.globl	com_id
com_id:
	.byte	0                               @ 0x0
	.size	com_id, 1

	.hidden	buf_ts                          @ @buf_ts
	.type	buf_ts,%object
	.section	.bss.buf_ts,"aw",%nobits
	.globl	buf_ts
buf_ts:
	.zero	100
	.size	buf_ts, 100

	.hidden	oled_buf                        @ @oled_buf
	.type	oled_buf,%object
	.section	.bss.oled_buf,"aw",%nobits
	.globl	oled_buf
oled_buf:
	.zero	16
	.size	oled_buf, 16

	.type	.L.str,%object                  @ @.str
	.section	.rodata.str1.1,"aMS",%progbits,1
.L.str:
	.asciz	"Central Electronics"
	.size	.L.str, 20

	.type	checksum_print_flag,%object     @ @checksum_print_flag
	.section	.data.checksum_print_flag,"aw",%progbits
checksum_print_flag:
	.byte	1                               @ 0x1
	.size	checksum_print_flag, 1

	.type	.L.str.1,%object                @ @.str.1
	.section	.rodata.str1.1,"aMS",%progbits,1
.L.str.1:
	.asciz	"                 "
	.size	.L.str.1, 18

	.type	.L.str.2,%object                @ @.str.2
.L.str.2:
	.asciz	"  CHECKSUM"
	.size	.L.str.2, 11

	.type	.L.str.3,%object                @ @.str.3
.L.str.3:
	.asciz	"                "
	.size	.L.str.3, 17

	.type	.L.str.4,%object                @ @.str.4
.L.str.4:
	.asciz	"CPU0 %08lX"
	.size	.L.str.4, 11

	.type	.L.str.5,%object                @ @.str.5
.L.str.5:
	.asciz	"CPU1 %02X%02X%02X%02X"
	.size	.L.str.5, 22

	.type	.L.str.6,%object                @ @.str.6
.L.str.6:
	.asciz	"CPU2 %02X%02X%02X%02X"
	.size	.L.str.6, 22

	.type	.L.str.7,%object                @ @.str.7
.L.str.7:
	.asciz	"CPU3 %02X%02X%02X%02X"
	.size	.L.str.7, 22

	.type	.L.str.8,%object                @ @.str.8
.L.str.8:
	.asciz	"  SYS IS READY"
	.size	.L.str.8, 15

	.type	.L.str.9,%object                @ @.str.9
.L.str.9:
	.asciz	"    FOR RESET"
	.size	.L.str.9, 14

	.type	.L.str.10,%object               @ @.str.10
.L.str.10:
	.asciz	"1%c 2%c 3%c O%c N%c"
	.size	.L.str.10, 20

	.type	.L.str.11,%object               @ @.str.11
.L.str.11:
	.asciz	"SYS %s %04d"
	.size	.L.str.11, 12

	.type	.L.str.12,%object               @ @.str.12
.L.str.12:
	.asciz	"OK"
	.size	.L.str.12, 3

	.type	.L.str.13,%object               @ @.str.13
.L.str.13:
	.asciz	"ERR"
	.size	.L.str.13, 4

	.type	cpu_read_write.state,%object    @ @cpu_read_write.state
	.section	.bss.cpu_read_write.state,"aw",%nobits
cpu_read_write.state:
	.byte	0                               @ 0x0
	.size	cpu_read_write.state, 1

	.type	cpu_read_write.ch,%object       @ @cpu_read_write.ch
	.section	.bss.cpu_read_write.ch,"aw",%nobits
cpu_read_write.ch:
	.byte	0                               @ 0x0
	.size	cpu_read_write.ch, 1

	.type	cpu_read_write.en_cpu_resp_chk,%object @ @cpu_read_write.en_cpu_resp_chk
	.section	.bss.cpu_read_write.en_cpu_resp_chk,"aw",%nobits
cpu_read_write.en_cpu_resp_chk:
	.byte	0                               @ 0x0
	.size	cpu_read_write.en_cpu_resp_chk, 1

	.type	fpga_read_write.state,%object   @ @fpga_read_write.state
	.section	.bss.fpga_read_write.state,"aw",%nobits
fpga_read_write.state:
	.byte	0                               @ 0x0
	.size	fpga_read_write.state, 1

	.type	fpga_read_write.ch,%object      @ @fpga_read_write.ch
	.section	.bss.fpga_read_write.ch,"aw",%nobits
fpga_read_write.ch:
	.byte	0                               @ 0x0
	.size	fpga_read_write.ch, 1

	.type	fpga_read_write.en_fpga_resp_chk,%object @ @fpga_read_write.en_fpga_resp_chk
	.section	.bss.fpga_read_write.en_fpga_resp_chk,"aw",%nobits
fpga_read_write.en_fpga_resp_chk:
	.byte	0                               @ 0x0
	.size	fpga_read_write.en_fpga_resp_chk, 1

	.type	send_com_pkt.state,%object      @ @send_com_pkt.state
	.section	.bss.send_com_pkt.state,"aw",%nobits
send_com_pkt.state:
	.byte	0                               @ 0x0
	.size	send_com_pkt.state, 1

	.type	rcv_com_pkt.state,%object       @ @rcv_com_pkt.state
	.section	.bss.rcv_com_pkt.state,"aw",%nobits
rcv_com_pkt.state:
	.byte	0                               @ 0x0
	.size	rcv_com_pkt.state, 1

	.type	rcv_com_pkt.p_com,%object       @ @rcv_com_pkt.p_com
	.section	.bss.rcv_com_pkt.p_com,"aw",%nobits
rcv_com_pkt.p_com:
	.byte	0                               @ 0x0
	.size	rcv_com_pkt.p_com, 1

	.type	rcv_com_pkt.s_com,%object       @ @rcv_com_pkt.s_com
	.section	.bss.rcv_com_pkt.s_com,"aw",%nobits
rcv_com_pkt.s_com:
	.byte	0                               @ 0x0
	.size	rcv_com_pkt.s_com, 1

	.type	poll_gps.k,%object              @ @poll_gps.k
	.section	.bss.poll_gps.k,"aw",%nobits
poll_gps.k:
	.byte	0                               @ 0x0
	.size	poll_gps.k, 1

	.type	.L.str.14,%object               @ @.str.14
	.section	.rodata.str1.1,"aMS",%progbits,1
.L.str.14:
	.asciz	"$GPRMC"
	.size	.L.str.14, 7

	.type	.L.str.15,%object               @ @.str.15
.L.str.15:
	.asciz	"$GNRMC"
	.size	.L.str.15, 7

	.type	check_faults.local_addr_pwrup,%object @ @check_faults.local_addr_pwrup
	.section	.bss.check_faults.local_addr_pwrup,"aw",%nobits
check_faults.local_addr_pwrup:
	.byte	0                               @ 0x0
	.size	check_faults.local_addr_pwrup, 1

	.type	check_faults.remote_addr_pwrup,%object @ @check_faults.remote_addr_pwrup
	.section	.bss.check_faults.remote_addr_pwrup,"aw",%nobits
check_faults.remote_addr_pwrup:
	.byte	0                               @ 0x0
	.size	check_faults.remote_addr_pwrup, 1

	.type	check_faults.interlock_mode_pwrup,%object @ @check_faults.interlock_mode_pwrup
	.section	.bss.check_faults.interlock_mode_pwrup,"aw",%nobits
check_faults.interlock_mode_pwrup:
	.byte	0                               @ 0x0
	.size	check_faults.interlock_mode_pwrup, 1

	.type	check_faults.am_i_ready,%object @ @check_faults.am_i_ready
	.section	.bss.check_faults.am_i_ready,"aw",%nobits
check_faults.am_i_ready:
	.byte	0                               @ 0x0
	.size	check_faults.am_i_ready, 1

	.type	check_faults.state_fault,%object @ @check_faults.state_fault
	.section	.data.check_faults.state_fault,"aw",%progbits
check_faults.state_fault:
	.byte	3                               @ 0x3
	.size	check_faults.state_fault, 1

	.type	fault_debug,%object             @ @fault_debug
	.section	.bss.fault_debug,"aw",%nobits
fault_debug:
	.byte	0                               @ 0x0
	.size	fault_debug, 1

	.type	.L.str.16,%object               @ @.str.16
	.section	.rodata.str1.1,"aMS",%progbits,1
.L.str.16:
	.asciz	"IC cnt error: %d\r\n"
	.size	.L.str.16, 19

	.type	.L.str.17,%object               @ @.str.17
.L.str.17:
	.asciz	"OC error: %d\r\n"
	.size	.L.str.17, 15

	.type	.L.str.18,%object               @ @.str.18
.L.str.18:
	.asciz	"NVC error: %d\r\n"
	.size	.L.str.18, 16

	.type	.L.str.19,%object               @ @.str.19
.L.str.19:
	.asciz	"COM error: %d\r\n"
	.size	.L.str.19, 16

	.type	.L.str.20,%object               @ @.str.20
.L.str.20:
	.asciz	"local addr error: @powerup->%d @now->%d\r\n"
	.size	.L.str.20, 42

	.type	.L.str.21,%object               @ @.str.21
.L.str.21:
	.asciz	"remote addr error: @powerup->%d @now->%d\r\n"
	.size	.L.str.21, 43

	.type	.L.str.22,%object               @ @.str.22
.L.str.22:
	.asciz	"Interlock error: @powerup->%d @now->%d\r\n"
	.size	.L.str.22, 41

	.type	.L.str.23,%object               @ @.str.23
.L.str.23:
	.asciz	"CPU no response cnt error: %d\r\n"
	.size	.L.str.23, 32

	.type	check_if_reset_initiated.state_reset_seq,%object @ @check_if_reset_initiated.state_reset_seq
	.section	.data.check_if_reset_initiated.state_reset_seq,"aw",%progbits
check_if_reset_initiated.state_reset_seq:
	.byte	255                             @ 0xff
	.size	check_if_reset_initiated.state_reset_seq, 1

	.file	7 "D:\\work\\dheeraj\\local\\CEL\\CCC\\CCC_CPU0\\Code" "source/Include\\fifo.h"
	.section	".note.GNU-stack","",%progbits
	.eabi_attribute	30, 6	@ Tag_ABI_optimization_goals
	.ARM_attribute	16, 1	@ Tag_AV_eba