	.text
	.syntax unified
	.eabi_attribute	67, "2.09"	@ Tag_conformance
	.cpu	cortex-m23
	.eabi_attribute	6, 16	@ Tag_CPU_arch
	.eabi_attribute	7, 77	@ Tag_CPU_arch_profile
	.eabi_attribute	8, 0	@ Tag_ARM_ISA_use
	.eabi_attribute	9, 3	@ Tag_THUMB_ISA_use
	.eabi_attribute	34, 0	@ Tag_CPU_unaligned_access
	.eabi_attribute	17, 1	@ Tag_ABI_PCS_GOT_use
	.eabi_attribute	20, 2	@ Tag_ABI_FP_denormal
	.eabi_attribute	21, 0	@ Tag_ABI_FP_exceptions
	.eabi_attribute	23, 1	@ Tag_ABI_FP_number_model
	.eabi_attribute	24, 1	@ Tag_ABI_align_needed
	.eabi_attribute	25, 1	@ Tag_ABI_align_preserved
	.eabi_attribute	38, 1	@ Tag_ABI_FP_16bit_format
	.eabi_attribute	18, 4	@ Tag_ABI_PCS_wchar_t
	.eabi_attribute	26, 2	@ Tag_ABI_enum_size
	.eabi_attribute	14, 0	@ Tag_ABI_PCS_R9_use
	.file	"bsp.c"
	.file	1 "C:\\Users\\Anaya\\AppData\\Local\\Keil_v5\\ARM\\ARMCLANG\\bin\\..\\include" "stdint.h"
	.file	2 "D:\\work\\dheeraj\\local\\CEL\\CCC\\CCC_CPU0\\Code" "source/bsp.c"
	.file	3 "D:\\work\\dheeraj\\local\\CEL\\CCC\\CCC_CPU0\\Code" "source/driver/include\\drvr_iic.h"
	.file	4 "D:\\work\\dheeraj\\local\\CEL\\CCC\\CCC_CPU0\\Code" "../../CCC_common/Library/Device/Nuvoton/M261/Include\\i2c_reg.h"
	.file	5 "D:\\work\\dheeraj\\local\\CEL\\CCC\\CCC_CPU0\\Code" "source/Include\\fifo.h"
	.file	6 "D:\\work\\dheeraj\\local\\CEL\\CCC\\CCC_CPU0\\Code" "source/driver/include\\drvr_uart.h"
	.file	7 "D:\\work\\dheeraj\\local\\CEL\\CCC\\CCC_CPU0\\Code" "../../CCC_common/Library/Device/Nuvoton/M261/Include\\uart_reg.h"
	.file	8 "D:\\work\\dheeraj\\local\\CEL\\CCC\\CCC_CPU0\\Code" "source/driver/include\\drvr_spi.h"
	.file	9 "D:\\work\\dheeraj\\local\\CEL\\CCC\\CCC_CPU0\\Code" "../../CCC_common/Library/Device/Nuvoton/M261/Include\\spi_reg.h"
	.file	10 "D:\\work\\dheeraj\\local\\CEL\\CCC\\CCC_CPU0\\Code" "../../CCC_common/Library/Device/Nuvoton/M261/Include\\M261.h"
	.file	11 "D:\\work\\dheeraj\\local\\CEL\\CCC\\CCC_CPU0\\Code" "../../CCC_common/Library/Device/Nuvoton/M261/Include\\gpio_reg.h"
	.file	12 "D:\\work\\dheeraj\\local\\CEL\\CCC\\CCC_CPU0\\Code" "../../CCC_common/Library/Device/Nuvoton/M261/Include\\clk_reg.h"
	.file	13 "D:\\work\\dheeraj\\local\\CEL\\CCC\\CCC_CPU0\\Code" "../../CCC_common/Library/Device/Nuvoton/M261/Include\\fmc_reg.h"
	.file	14 "D:\\work\\dheeraj\\local\\CEL\\CCC\\CCC_CPU0\\Code" "../../CCC_common/Library/Device/Nuvoton/M261/Include\\scu_reg.h"
	.file	15 "D:\\work\\dheeraj\\local\\CEL\\CCC\\CCC_CPU0\\Code" "../../CCC_common/Library/CMSIS/Include\\core_armv8mbl.h"
	.file	16 "D:\\work\\dheeraj\\local\\CEL\\CCC\\CCC_CPU0\\Code" "../../CCC_common/Library/Device/Nuvoton/M261/Include\\timer_reg.h"
	.section	.text.wait_ms,"ax",%progbits
	.hidden	wait_ms                         @ -- Begin function wait_ms
	.globl	wait_ms
	.p2align	2
	.type	wait_ms,%function
	.code	16                              @ @wait_ms
	.thumb_func
wait_ms:
.Lfunc_begin0:
	.loc	2 89 0                          @ source/bsp.c:89:0
	.fnstart
	.cfi_sections .debug_frame
	.cfi_startproc
@ %bb.0:
	.pad	#4
	sub	sp, #4
	.cfi_def_cfa_offset 4
	str	r0, [sp]
.Ltmp0:
	.loc	2 90 15 prologue_end            @ source/bsp.c:90:15
	ldr	r0, [sp]
	.loc	2 90 28 is_stmt 0               @ source/bsp.c:90:28
	adds	r0, #9
	movs	r1, #10
	.loc	2 90 32                         @ source/bsp.c:90:32
	udiv	r0, r0, r1
	.loc	2 90 12                         @ source/bsp.c:90:12
	ldr	r1, __arm_cp.0_0
	str	r0, [r1]
	.loc	2 91 2 is_stmt 1                @ source/bsp.c:91:2
	b	.LBB0_1
.LBB0_1:                                @ =>This Inner Loop Header: Depth=1
	.loc	2 91 8 is_stmt 0                @ source/bsp.c:91:8
	ldr	r0, __arm_cp.0_0
	ldr	r0, [r0]
	.loc	2 91 2                          @ source/bsp.c:91:2
	cbz	r0, .LBB0_3
	b	.LBB0_2
.LBB0_2:                                @   in Loop: Header=BB0_1 Depth=1
	b	.LBB0_1
.LBB0_3:
	.loc	2 92 1 epilogue_begin is_stmt 1 @ source/bsp.c:92:1
	add	sp, #4
	bx	lr
.Ltmp1:
	.loc	2 0 1 is_stmt 0                 @ :0:1
.Ltmp2:
	.p2align	2
@ %bb.4:
__arm_cp.0_0:
	.long	wait_time
.Lcpi_end0:
	.size	__arm_cp.0_0, .Lcpi_end0-__arm_cp.0_0
.Lfunc_end0:
	.size	wait_ms, .Lfunc_end0-wait_ms
	.cfi_endproc
	.cantunwind
	.fnend
                                        @ -- End function
	.section	.text.bsp_ctor,"ax",%progbits
	.hidden	bsp_ctor                        @ -- Begin function bsp_ctor
	.globl	bsp_ctor
	.p2align	2
	.type	bsp_ctor,%function
	.code	16                              @ @bsp_ctor
	.thumb_func
bsp_ctor:
.Lfunc_begin1:
	.loc	2 136 0 is_stmt 1               @ source/bsp.c:136:0
	.fnstart
	.cfi_startproc
@ %bb.0:
	.save	{r4, r5, r6, lr}
	push	{r4, r5, r6, lr}
	.cfi_def_cfa_offset 16
	.cfi_offset lr, -4
	.cfi_offset r6, -8
	.cfi_offset r5, -12
	.cfi_offset r4, -16
	.pad	#72
	sub	sp, #72
	.cfi_def_cfa_offset 88
.Ltmp3:
	.loc	2 137 2 prologue_end            @ source/bsp.c:137:2
	bl	sysClock_Init
	.loc	2 139 2                         @ source/bsp.c:139:2
	ldr	r0, __arm_cp.1_0
	str	r0, [sp]                        @ 4-byte Spill
	ldr	r1, __arm_cp.1_1
	movs	r2, #100
	str	r2, [sp, #40]                   @ 4-byte Spill
	bl	fifo_init
	ldr	r2, [sp, #40]                   @ 4-byte Reload
	.loc	2 140 2                         @ source/bsp.c:140:2
	ldr	r0, __arm_cp.1_2
	str	r0, [sp, #4]                    @ 4-byte Spill
	ldr	r1, __arm_cp.1_3
	bl	fifo_init
	ldr	r2, [sp, #40]                   @ 4-byte Reload
	.loc	2 141 2                         @ source/bsp.c:141:2
	ldr	r0, __arm_cp.1_4
	str	r0, [sp, #12]                   @ 4-byte Spill
	ldr	r1, __arm_cp.1_5
	bl	fifo_init
	ldr	r2, [sp, #40]                   @ 4-byte Reload
	.loc	2 142 2                         @ source/bsp.c:142:2
	ldr	r4, __arm_cp.1_6
	ldr	r1, __arm_cp.1_7
	mov	r0, r4
	bl	fifo_init
	ldr	r2, [sp, #40]                   @ 4-byte Reload
	.loc	2 143 2                         @ source/bsp.c:143:2
	ldr	r0, __arm_cp.1_8
	str	r0, [sp, #32]                   @ 4-byte Spill
	ldr	r1, __arm_cp.1_9
	bl	fifo_init
	ldr	r2, [sp, #40]                   @ 4-byte Reload
	.loc	2 145 2                         @ source/bsp.c:145:2
	ldr	r0, __arm_cp.1_10
	ldr	r1, __arm_cp.1_11
	bl	fifo_init
	ldr	r2, [sp, #40]                   @ 4-byte Reload
	.loc	2 146 2                         @ source/bsp.c:146:2
	ldr	r0, __arm_cp.1_12
	str	r0, [sp, #8]                    @ 4-byte Spill
	ldr	r1, __arm_cp.1_13
	bl	fifo_init
	ldr	r2, [sp, #40]                   @ 4-byte Reload
	.loc	2 147 2                         @ source/bsp.c:147:2
	ldr	r0, __arm_cp.1_14
	str	r0, [sp, #16]                   @ 4-byte Spill
	ldr	r1, __arm_cp.1_15
	bl	fifo_init
	ldr	r2, [sp, #40]                   @ 4-byte Reload
	.loc	2 148 2                         @ source/bsp.c:148:2
	ldr	r0, __arm_cp.1_16
	str	r0, [sp, #28]                   @ 4-byte Spill
	ldr	r1, __arm_cp.1_17
	bl	fifo_init
	ldr	r2, [sp, #40]                   @ 4-byte Reload
	.loc	2 149 2                         @ source/bsp.c:149:2
	ldr	r0, __arm_cp.1_18
	str	r0, [sp, #36]                   @ 4-byte Spill
	ldr	r1, __arm_cp.1_19
	bl	fifo_init
	ldr	r1, [sp]                        @ 4-byte Reload
	.loc	2 151 20                        @ source/bsp.c:151:20
	ldr	r0, __arm_cp.1_20
	movs	r2, #225
	lsls	r5, r2, #9
	str	r5, [r0]
	.loc	2 152 15                        @ source/bsp.c:152:15
	str	r1, [r0, #4]
	movs	r1, #0
	.loc	2 153 15                        @ source/bsp.c:153:15
	str	r1, [sp, #52]                   @ 4-byte Spill
	str	r1, [r0, #8]
	.loc	2 154 17                        @ source/bsp.c:154:17
	strb	r1, [r0, #12]
	.loc	2 155 16                        @ source/bsp.c:155:16
	strb	r1, [r0, #13]
	.loc	2 156 2                         @ source/bsp.c:156:2
	bl	uart_ctor
	ldr	r3, [sp, #4]                    @ 4-byte Reload
	ldr	r2, [sp, #8]                    @ 4-byte Reload
	ldr	r1, [sp, #52]                   @ 4-byte Reload
	.loc	2 158 19                        @ source/bsp.c:158:19
	ldr	r0, __arm_cp.1_21
	str	r5, [r0]
	.loc	2 159 14                        @ source/bsp.c:159:14
	str	r3, [r0, #4]
	.loc	2 160 14                        @ source/bsp.c:160:14
	str	r2, [r0, #8]
	.loc	2 161 16                        @ source/bsp.c:161:16
	strb	r1, [r0, #12]
	movs	r1, #3
	.loc	2 162 15                        @ source/bsp.c:162:15
	strb	r1, [r0, #13]
	.loc	2 163 2                         @ source/bsp.c:163:2
	bl	uart_ctor
	ldr	r3, [sp, #12]                   @ 4-byte Reload
	ldr	r2, [sp, #16]                   @ 4-byte Reload
	ldr	r1, [sp, #52]                   @ 4-byte Reload
	.loc	2 165 23                        @ source/bsp.c:165:23
	ldr	r0, __arm_cp.1_22
	str	r0, [sp, #24]                   @ 4-byte Spill
	movw	r5, #1200
	str	r5, [sp, #20]                   @ 4-byte Spill
	str	r5, [r0]
	.loc	2 166 18                        @ source/bsp.c:166:18
	str	r3, [r0, #4]
	.loc	2 167 18                        @ source/bsp.c:167:18
	str	r2, [r0, #8]
	.loc	2 168 20                        @ source/bsp.c:168:20
	strb	r1, [r0, #12]
	movs	r1, #2
	.loc	2 169 19                        @ source/bsp.c:169:19
	str	r1, [sp, #48]                   @ 4-byte Spill
	strb	r1, [r0, #13]
	.loc	2 170 2                         @ source/bsp.c:170:2
	bl	uart_ctor
	ldr	r0, [sp, #20]                   @ 4-byte Reload
	ldr	r3, [sp, #24]                   @ 4-byte Reload
	ldr	r2, [sp, #28]                   @ 4-byte Reload
	ldr	r1, [sp, #52]                   @ 4-byte Reload
	.loc	2 172 23                        @ source/bsp.c:172:23
	str	r0, [r3, #20]
	mov	r0, r3
	adds	r0, #20
	.loc	2 173 18                        @ source/bsp.c:173:18
	str	r4, [r3, #24]
	.loc	2 174 18                        @ source/bsp.c:174:18
	str	r2, [r3, #28]
	.loc	2 175 20                        @ source/bsp.c:175:20
	strb	r1, [r0, #12]
	movs	r1, #1
	.loc	2 176 19                        @ source/bsp.c:176:19
	str	r1, [sp, #64]                   @ 4-byte Spill
	strb	r1, [r0, #13]
	.loc	2 177 2                         @ source/bsp.c:177:2
	bl	uart_ctor
	ldr	r3, [sp, #32]                   @ 4-byte Reload
	ldr	r2, [sp, #36]                   @ 4-byte Reload
	ldr	r1, [sp, #52]                   @ 4-byte Reload
	.loc	2 179 20                        @ source/bsp.c:179:20
	ldr	r0, __arm_cp.1_23
	movw	r4, #9600
	str	r4, [r0]
	.loc	2 180 15                        @ source/bsp.c:180:15
	str	r3, [r0, #4]
	.loc	2 181 15                        @ source/bsp.c:181:15
	str	r2, [r0, #8]
	.loc	2 182 17                        @ source/bsp.c:182:17
	strb	r1, [r0, #12]
	movs	r1, #4
	.loc	2 183 16                        @ source/bsp.c:183:16
	str	r1, [sp, #68]                   @ 4-byte Spill
	strb	r1, [r0, #13]
	.loc	2 184 2                         @ source/bsp.c:184:2
	bl	uart_ctor
	ldr	r2, [sp, #40]                   @ 4-byte Reload
	.loc	2 186 2                         @ source/bsp.c:186:2
	ldr	r6, __arm_cp.1_24
	ldr	r1, __arm_cp.1_25
	mov	r0, r6
	bl	fifo_init
	ldr	r2, [sp, #40]                   @ 4-byte Reload
	.loc	2 187 2                         @ source/bsp.c:187:2
	ldr	r5, __arm_cp.1_26
	ldr	r1, __arm_cp.1_27
	mov	r0, r5
	bl	fifo_init
	ldr	r2, [sp, #40]                   @ 4-byte Reload
	.loc	2 188 2                         @ source/bsp.c:188:2
	ldr	r4, __arm_cp.1_28
	ldr	r1, __arm_cp.1_29
	mov	r0, r4
	bl	fifo_init
	ldr	r2, [sp, #40]                   @ 4-byte Reload
	.loc	2 189 2                         @ source/bsp.c:189:2
	ldr	r0, __arm_cp.1_30
	str	r0, [sp, #44]                   @ 4-byte Spill
	ldr	r1, __arm_cp.1_31
	bl	fifo_init
	ldr	r1, [sp, #48]                   @ 4-byte Reload
	ldr	r3, [sp, #52]                   @ 4-byte Reload
	ldr	r2, [sp, #64]                   @ 4-byte Reload
	.loc	2 191 15                        @ source/bsp.c:191:15
	ldr	r0, __arm_cp.1_32
	str	r6, [r0]
	.loc	2 192 15                        @ source/bsp.c:192:15
	str	r5, [r0, #4]
	.loc	2 193 17                        @ source/bsp.c:193:17
	strb	r3, [r0, #8]
	.loc	2 194 14                        @ source/bsp.c:194:14
	str	r3, [r0, #12]
	.loc	2 195 21                        @ source/bsp.c:195:21
	strb	r2, [r0, #10]
	.loc	2 196 16                        @ source/bsp.c:196:16
	strb	r1, [r0, #9]
	.loc	2 197 3                         @ source/bsp.c:197:3
	bl	spi_ctor
	ldr	r3, [sp, #44]                   @ 4-byte Reload
	ldr	r2, [sp, #52]                   @ 4-byte Reload
	ldr	r1, [sp, #64]                   @ 4-byte Reload
	.loc	2 199 15                        @ source/bsp.c:199:15
	ldr	r0, __arm_cp.1_33
	str	r4, [r0]
	.loc	2 200 15                        @ source/bsp.c:200:15
	str	r3, [r0, #4]
	.loc	2 201 17                        @ source/bsp.c:201:17
	strb	r2, [r0, #8]
	.loc	2 202 14                        @ source/bsp.c:202:14
	str	r2, [r0, #12]
	.loc	2 203 21                        @ source/bsp.c:203:21
	strb	r1, [r0, #10]
	.loc	2 204 16                        @ source/bsp.c:204:16
	strb	r1, [r0, #9]
	.loc	2 205 2                         @ source/bsp.c:205:2
	bl	spi_ctor
	.loc	2 207 18                        @ source/bsp.c:207:18
	ldr	r0, __arm_cp.1_34
	movs	r1, #61
	strb	r1, [r0, #8]
	ldr	r1, __arm_cp.1_35
	.loc	2 208 12                        @ source/bsp.c:208:12
	str	r1, [r0, #4]
	.loc	2 209 2                         @ source/bsp.c:209:2
	bl	i2c_ctor
	ldr	r1, [sp, #48]                   @ 4-byte Reload
	ldr	r2, [sp, #64]                   @ 4-byte Reload
	ldr	r0, __arm_cp.1_36
	.loc	2 212 2                         @ source/bsp.c:212:2
	bl	GPIO_SetMode
	ldr	r2, [sp, #52]                   @ 4-byte Reload
	ldr	r0, __arm_cp.1_37
	movw	r1, #512
	.loc	2 214 2                         @ source/bsp.c:214:2
	bl	GPIO_SetMode
	ldr	r2, [sp, #64]                   @ 4-byte Reload
	ldr	r0, __arm_cp.1_38
	.loc	2 216 2                         @ source/bsp.c:216:2
	str	r0, [sp, #56]                   @ 4-byte Spill
	mov	r1, r2
	bl	GPIO_SetMode
	ldr	r0, [sp, #56]                   @ 4-byte Reload
	ldr	r2, [sp, #64]                   @ 4-byte Reload
	movw	r1, #256
	.loc	2 219 2                         @ source/bsp.c:219:2
	bl	GPIO_SetMode
	ldr	r2, [sp, #64]                   @ 4-byte Reload
	ldr	r0, __arm_cp.1_39
	str	r0, [sp, #60]                   @ 4-byte Spill
	movs	r1, #64
	.loc	2 221 2                         @ source/bsp.c:221:2
	bl	GPIO_SetMode
	ldr	r0, [sp, #60]                   @ 4-byte Reload
	ldr	r2, [sp, #64]                   @ 4-byte Reload
	movs	r1, #32
	.loc	2 223 2                         @ source/bsp.c:223:2
	bl	GPIO_SetMode
	ldr	r0, [sp, #60]                   @ 4-byte Reload
	ldr	r2, [sp, #64]                   @ 4-byte Reload
	movs	r1, #16
	.loc	2 225 2                         @ source/bsp.c:225:2
	bl	GPIO_SetMode
	.loc	2 228 2                         @ source/bsp.c:228:2
	bl	sysTimer_Init
	ldr	r2, [sp, #68]                   @ 4-byte Reload
	ldr	r1, __arm_cp.1_40
	.loc	2 232 14                        @ source/bsp.c:232:14
	ldr	r0, [r1]
	orrs	r0, r2
	str	r0, [r1]
	ldr	r1, __arm_cp.1_41
	.loc	2 233 14                        @ source/bsp.c:233:14
	ldr	r0, [r1]
	movs	r2, #9
	orrs	r0, r2
	str	r0, [r1]
	.loc	2 236 16                        @ source/bsp.c:236:16
	bl	BL_EnableFMC
	.loc	2 236 14 is_stmt 0              @ source/bsp.c:236:14
	ldr	r1, __arm_cp.1_42
	str	r0, [r1]
	ldr	r0, __arm_cp.1_43
	.loc	2 237 25 is_stmt 1              @ source/bsp.c:237:25
	ldr	r2, [r0]
	.loc	2 237 18 is_stmt 0              @ source/bsp.c:237:18
	ldr	r0, __arm_cp.1_44
	str	r2, [r0]
.Ltmp4:
	.loc	2 239 5 is_stmt 1               @ source/bsp.c:239:5
	ldr	r0, [r0]
	.loc	2 239 23 is_stmt 0              @ source/bsp.c:239:23
	ldr	r1, [r1]
.Ltmp5:
	.loc	2 239 5                         @ source/bsp.c:239:5
	cmp	r0, r1
	bhs	.LBB1_2
	b	.LBB1_1
.LBB1_1:
.Ltmp6:
	.loc	2 241 22 is_stmt 1              @ source/bsp.c:241:22
	ldr	r0, __arm_cp.1_42
	ldr	r0, [r0]
	.loc	2 241 36 is_stmt 0              @ source/bsp.c:241:36
	ldr	r1, __arm_cp.1_44
	ldr	r1, [r1]
	.loc	2 241 34                        @ source/bsp.c:241:34
	subs	r0, r0, r1
	.loc	2 241 19                        @ source/bsp.c:241:19
	ldr	r1, __arm_cp.1_45
	str	r0, [r1]
	.loc	2 242 2 is_stmt 1               @ source/bsp.c:242:2
	b	.LBB1_3
.Ltmp7:
.LBB1_2:
	.loc	2 245 19                        @ source/bsp.c:245:19
	ldr	r1, __arm_cp.1_45
	movs	r0, #0
	str	r0, [r1]
	b	.LBB1_3
.Ltmp8:
.LBB1_3:
	.loc	2 249 27                        @ source/bsp.c:249:27
	ldr	r0, __arm_cp.1_46
	ldr	r1, [r0]
	ldr	r0, __arm_cp.1_47
	.loc	2 249 25 is_stmt 0              @ source/bsp.c:249:25
	muls	r0, r1, r0
	ldr	r1, __arm_cp.1_48
	.loc	2 249 16                        @ source/bsp.c:249:16
	str	r0, [r1]
	ldr	r1, __arm_cp.1_49
	movs	r0, #0
	.loc	2 250 16 is_stmt 1              @ source/bsp.c:250:16
	str	r0, [r1]
	ldr	r1, __arm_cp.1_50
	.loc	2 251 27                        @ source/bsp.c:251:27
	ldr	r0, [r1]
	movs	r2, #5
	.loc	2 251 61 is_stmt 0              @ source/bsp.c:251:61
	orrs	r0, r2
	.loc	2 251 16                        @ source/bsp.c:251:16
	str	r0, [r1]
	.loc	2 252 1 epilogue_begin is_stmt 1 @ source/bsp.c:252:1
	add	sp, #72
	pop	{r4, r5, r6, pc}
.Ltmp9:
	.loc	2 0 1 is_stmt 0                 @ :0:1
.Ltmp10:
	.p2align	2
@ %bb.4:
__arm_cp.1_0:
	.long	fifo_rx_cli
.Lcpi_end1:
	.size	__arm_cp.1_0, .Lcpi_end1-__arm_cp.1_0
__arm_cp.1_1:
	.long	buf_rx_cli
.Lcpi_end2:
	.size	__arm_cp.1_1, .Lcpi_end2-__arm_cp.1_1
__arm_cp.1_2:
	.long	fifo_rx_el
.Lcpi_end3:
	.size	__arm_cp.1_2, .Lcpi_end3-__arm_cp.1_2
__arm_cp.1_3:
	.long	buf_rx_el
.Lcpi_end4:
	.size	__arm_cp.1_3, .Lcpi_end4-__arm_cp.1_3
__arm_cp.1_4:
	.long	fifo_rx_com0
.Lcpi_end5:
	.size	__arm_cp.1_4, .Lcpi_end5-__arm_cp.1_4
__arm_cp.1_5:
	.long	buf_rx_com0
.Lcpi_end6:
	.size	__arm_cp.1_5, .Lcpi_end6-__arm_cp.1_5
__arm_cp.1_6:
	.long	fifo_rx_com1
.Lcpi_end7:
	.size	__arm_cp.1_6, .Lcpi_end7-__arm_cp.1_6
__arm_cp.1_7:
	.long	buf_rx_com1
.Lcpi_end8:
	.size	__arm_cp.1_7, .Lcpi_end8-__arm_cp.1_7
__arm_cp.1_8:
	.long	fifo_rx_gps
.Lcpi_end9:
	.size	__arm_cp.1_8, .Lcpi_end9-__arm_cp.1_8
__arm_cp.1_9:
	.long	buf_rx_gps
.Lcpi_end10:
	.size	__arm_cp.1_9, .Lcpi_end10-__arm_cp.1_9
__arm_cp.1_10:
	.long	fifo_tx_cli
.Lcpi_end11:
	.size	__arm_cp.1_10, .Lcpi_end11-__arm_cp.1_10
__arm_cp.1_11:
	.long	buf_tx_cli
.Lcpi_end12:
	.size	__arm_cp.1_11, .Lcpi_end12-__arm_cp.1_11
__arm_cp.1_12:
	.long	fifo_tx_el
.Lcpi_end13:
	.size	__arm_cp.1_12, .Lcpi_end13-__arm_cp.1_12
__arm_cp.1_13:
	.long	buf_tx_el
.Lcpi_end14:
	.size	__arm_cp.1_13, .Lcpi_end14-__arm_cp.1_13
__arm_cp.1_14:
	.long	fifo_tx_com0
.Lcpi_end15:
	.size	__arm_cp.1_14, .Lcpi_end15-__arm_cp.1_14
__arm_cp.1_15:
	.long	buf_tx_com0
.Lcpi_end16:
	.size	__arm_cp.1_15, .Lcpi_end16-__arm_cp.1_15
__arm_cp.1_16:
	.long	fifo_tx_com1
.Lcpi_end17:
	.size	__arm_cp.1_16, .Lcpi_end17-__arm_cp.1_16
__arm_cp.1_17:
	.long	buf_tx_com1
.Lcpi_end18:
	.size	__arm_cp.1_17, .Lcpi_end18-__arm_cp.1_17
__arm_cp.1_18:
	.long	fifo_tx_gps
.Lcpi_end19:
	.size	__arm_cp.1_18, .Lcpi_end19-__arm_cp.1_18
__arm_cp.1_19:
	.long	buf_tx_gps
.Lcpi_end20:
	.size	__arm_cp.1_19, .Lcpi_end20-__arm_cp.1_19
__arm_cp.1_20:
	.long	uart_cli
.Lcpi_end21:
	.size	__arm_cp.1_20, .Lcpi_end21-__arm_cp.1_20
__arm_cp.1_21:
	.long	uart_el
.Lcpi_end22:
	.size	__arm_cp.1_21, .Lcpi_end22-__arm_cp.1_21
__arm_cp.1_22:
	.long	uart_com
.Lcpi_end23:
	.size	__arm_cp.1_22, .Lcpi_end23-__arm_cp.1_22
__arm_cp.1_23:
	.long	uart_gps
.Lcpi_end24:
	.size	__arm_cp.1_23, .Lcpi_end24-__arm_cp.1_23
__arm_cp.1_24:
	.long	fifo_tx_cpux
.Lcpi_end25:
	.size	__arm_cp.1_24, .Lcpi_end25-__arm_cp.1_24
__arm_cp.1_25:
	.long	buf_tx_cpux
.Lcpi_end26:
	.size	__arm_cp.1_25, .Lcpi_end26-__arm_cp.1_25
__arm_cp.1_26:
	.long	fifo_rx_cpux
.Lcpi_end27:
	.size	__arm_cp.1_26, .Lcpi_end27-__arm_cp.1_26
__arm_cp.1_27:
	.long	buf_rx_cpux
.Lcpi_end28:
	.size	__arm_cp.1_27, .Lcpi_end28-__arm_cp.1_27
__arm_cp.1_28:
	.long	fifo_tx_fpga
.Lcpi_end29:
	.size	__arm_cp.1_28, .Lcpi_end29-__arm_cp.1_28
__arm_cp.1_29:
	.long	buf_tx_fpga
.Lcpi_end30:
	.size	__arm_cp.1_29, .Lcpi_end30-__arm_cp.1_29
__arm_cp.1_30:
	.long	fifo_rx_fpga
.Lcpi_end31:
	.size	__arm_cp.1_30, .Lcpi_end31-__arm_cp.1_30
__arm_cp.1_31:
	.long	buf_rx_fpga
.Lcpi_end32:
	.size	__arm_cp.1_31, .Lcpi_end32-__arm_cp.1_31
__arm_cp.1_32:
	.long	spi_cpux
.Lcpi_end33:
	.size	__arm_cp.1_32, .Lcpi_end33-__arm_cp.1_32
__arm_cp.1_33:
	.long	spi_fpga
.Lcpi_end34:
	.size	__arm_cp.1_33, .Lcpi_end34-__arm_cp.1_33
__arm_cp.1_34:
	.long	i2c0
.Lcpi_end35:
	.size	__arm_cp.1_34, .Lcpi_end35-__arm_cp.1_34
__arm_cp.1_35:
	.long	1074266112                      @ 0x40080000
.Lcpi_end36:
	.size	__arm_cp.1_35, .Lcpi_end36-__arm_cp.1_35
__arm_cp.1_36:
	.long	1073758400                      @ 0x400040c0
.Lcpi_end37:
	.size	__arm_cp.1_36, .Lcpi_end37-__arm_cp.1_36
__arm_cp.1_37:
	.long	1073758272                      @ 0x40004040
.Lcpi_end38:
	.size	__arm_cp.1_37, .Lcpi_end38-__arm_cp.1_37
__arm_cp.1_38:
	.long	1073758208                      @ 0x40004000
.Lcpi_end39:
	.size	__arm_cp.1_38, .Lcpi_end39-__arm_cp.1_38
__arm_cp.1_39:
	.long	1073758528                      @ 0x40004140
.Lcpi_end40:
	.size	__arm_cp.1_39, .Lcpi_end40-__arm_cp.1_39
__arm_cp.1_40:
	.long	1073742340                      @ 0x40000204
.Lcpi_end41:
	.size	__arm_cp.1_40, .Lcpi_end41-__arm_cp.1_40
__arm_cp.1_41:
	.long	1073790976                      @ 0x4000c000
.Lcpi_end42:
	.size	__arm_cp.1_41, .Lcpi_end42-__arm_cp.1_41
__arm_cp.1_42:
	.long	g_apromSize
.Lcpi_end43:
	.size	__arm_cp.1_42, .Lcpi_end43-__arm_cp.1_42
__arm_cp.1_43:
	.long	1073934376                      @ 0x4002f028
.Lcpi_end44:
	.size	__arm_cp.1_43, .Lcpi_end44-__arm_cp.1_43
__arm_cp.1_44:
	.long	g_dataFlashAddr
.Lcpi_end45:
	.size	__arm_cp.1_44, .Lcpi_end45-__arm_cp.1_44
__arm_cp.1_45:
	.long	g_dataFlashSize
.Lcpi_end46:
	.size	__arm_cp.1_45, .Lcpi_end46-__arm_cp.1_45
__arm_cp.1_46:
	.long	CyclesPerUs
.Lcpi_end47:
	.size	__arm_cp.1_46, .Lcpi_end47-__arm_cp.1_46
__arm_cp.1_47:
	.long	300000                          @ 0x493e0
.Lcpi_end48:
	.size	__arm_cp.1_47, .Lcpi_end48-__arm_cp.1_47
__arm_cp.1_48:
	.long	3758153748                      @ 0xe000e014
.Lcpi_end49:
	.size	__arm_cp.1_48, .Lcpi_end49-__arm_cp.1_48
__arm_cp.1_49:
	.long	3758153752                      @ 0xe000e018
.Lcpi_end50:
	.size	__arm_cp.1_49, .Lcpi_end50-__arm_cp.1_49
__arm_cp.1_50:
	.long	3758153744                      @ 0xe000e010
.Lcpi_end51:
	.size	__arm_cp.1_50, .Lcpi_end51-__arm_cp.1_50
.Lfunc_end1:
	.size	bsp_ctor, .Lfunc_end1-bsp_ctor
	.cfi_endproc
	.cantunwind
	.fnend
                                        @ -- End function
	.section	.text.sysClock_Init,"ax",%progbits
	.hidden	sysClock_Init                   @ -- Begin function sysClock_Init
	.globl	sysClock_Init
	.p2align	1
	.type	sysClock_Init,%function
	.code	16                              @ @sysClock_Init
	.thumb_func
sysClock_Init:
.Lfunc_begin2:
	.loc	2 320 0 is_stmt 1               @ source/bsp.c:320:0
	.fnstart
	.cfi_startproc
@ %bb.0:
	.save	{r7, lr}
	push	{r7, lr}
	.cfi_def_cfa_offset 8
	.cfi_offset lr, -4
	.cfi_offset r7, -8
	movs	r0, #4
.Ltmp11:
	.loc	2 322 4 prologue_end            @ source/bsp.c:322:4
	bl	CLK_EnableXtalRC
	movs	r0, #16
	.loc	2 324 4                         @ source/bsp.c:324:4
	bl	CLK_WaitClockReady
	movs	r0, #7
	movs	r1, #0
	.loc	2 326 4                         @ source/bsp.c:326:4
	bl	CLK_SetHCLK
	.loc	2 328 2                         @ source/bsp.c:328:2
	bl	SystemCoreClockUpdate
	.loc	2 329 1 epilogue_begin          @ source/bsp.c:329:1
	pop	{r7, pc}
.Ltmp12:
.Lfunc_end2:
	.size	sysClock_Init, .Lfunc_end2-sysClock_Init
	.cfi_endproc
	.cantunwind
	.fnend
                                        @ -- End function
	.section	.text.sysTimer_Init,"ax",%progbits
	.hidden	sysTimer_Init                   @ -- Begin function sysTimer_Init
	.globl	sysTimer_Init
	.p2align	2
	.type	sysTimer_Init,%function
	.code	16                              @ @sysTimer_Init
	.thumb_func
sysTimer_Init:
.Lfunc_begin3:
	.loc	2 280 0                         @ source/bsp.c:280:0
	.fnstart
	.cfi_startproc
@ %bb.0:
	.save	{r7, lr}
	push	{r7, lr}
	.cfi_def_cfa_offset 8
	.cfi_offset lr, -4
	.cfi_offset r7, -8
	.pad	#8
	sub	sp, #8
	.cfi_def_cfa_offset 16
	ldr	r1, __arm_cp.3_0
.Ltmp13:
	.loc	2 282 15 prologue_end           @ source/bsp.c:282:15
	ldr	r0, [r1]
	movs	r2, #32
	orrs	r0, r2
	str	r0, [r1]
	ldr	r1, __arm_cp.3_1
	.loc	2 284 23                        @ source/bsp.c:284:23
	ldr	r0, [r1]
	movs	r2, #7
	lsls	r2, r2, #20
	.loc	2 284 61 is_stmt 0              @ source/bsp.c:284:61
	orrs	r0, r2
	.loc	2 284 15                        @ source/bsp.c:284:15
	str	r0, [r1]
	movs	r0, #1
	lsls	r1, r0, #27
	ldr	r0, __arm_cp.3_2
	str	r0, [sp, #4]                    @ 4-byte Spill
	movs	r2, #100
	.loc	2 286 2 is_stmt 1               @ source/bsp.c:286:2
	bl	TIMER_Open
                                        @ kill: def $r1 killed $r0
	.loc	2 290 2                         @ source/bsp.c:290:2
	ldr	r0, [sp, #4]                    @ 4-byte Reload
	bl	TIMER_EnableInt
	ldr	r0, [sp, #4]                    @ 4-byte Reload
	.loc	2 292 2                         @ source/bsp.c:292:2
	bl	TIMER_Start
	movs	r0, #35
	.loc	2 294 2                         @ source/bsp.c:294:2
	bl	__NVIC_EnableIRQ
	.loc	2 298 1 epilogue_begin          @ source/bsp.c:298:1
	add	sp, #8
	pop	{r7, pc}
.Ltmp14:
	.loc	2 0 1 is_stmt 0                 @ :0:1
.Ltmp15:
	.p2align	2
@ %bb.1:
__arm_cp.3_0:
	.long	1073742344                      @ 0x40000208
.Lcpi_end52:
	.size	__arm_cp.3_0, .Lcpi_end52-__arm_cp.3_0
__arm_cp.3_1:
	.long	1073742356                      @ 0x40000214
.Lcpi_end53:
	.size	__arm_cp.3_1, .Lcpi_end53-__arm_cp.3_1
__arm_cp.3_2:
	.long	1074073856                      @ 0x40051100
.Lcpi_end54:
	.size	__arm_cp.3_2, .Lcpi_end54-__arm_cp.3_2
.Lfunc_end3:
	.size	sysTimer_Init, .Lfunc_end3-sysTimer_Init
	.cfi_endproc
	.cantunwind
	.fnend
                                        @ -- End function
	.section	.text.TIMER_EnableInt,"ax",%progbits
	.p2align	1                               @ -- Begin function TIMER_EnableInt
	.type	TIMER_EnableInt,%function
	.code	16                              @ @TIMER_EnableInt
	.thumb_func
TIMER_EnableInt:
.Lfunc_begin4:
	.file	17 "D:\\work\\dheeraj\\local\\CEL\\CCC\\CCC_CPU0\\Code" "../../CCC_common/Library/StdDriver/inc\\timer.h"
	.loc	17 309 0 is_stmt 1              @ ../../CCC_common/Library/StdDriver/inc\timer.h:309:0
	.fnstart
	.cfi_startproc
@ %bb.0:
	.pad	#4
	sub	sp, #4
	.cfi_def_cfa_offset 4
	str	r0, [sp]
.Ltmp16:
	.loc	17 310 5 prologue_end           @ ../../CCC_common/Library/StdDriver/inc\timer.h:310:5
	ldr	r1, [sp]
	.loc	17 310 16 is_stmt 0             @ ../../CCC_common/Library/StdDriver/inc\timer.h:310:16
	ldr	r0, [r1]
	movs	r2, #1
	lsls	r2, r2, #29
	orrs	r0, r2
	str	r0, [r1]
	.loc	17 311 1 epilogue_begin is_stmt 1 @ ../../CCC_common/Library/StdDriver/inc\timer.h:311:1
	add	sp, #4
	bx	lr
.Ltmp17:
.Lfunc_end4:
	.size	TIMER_EnableInt, .Lfunc_end4-TIMER_EnableInt
	.cfi_endproc
	.cantunwind
	.fnend
                                        @ -- End function
	.section	.text.TIMER_Start,"ax",%progbits
	.p2align	1                               @ -- Begin function TIMER_Start
	.type	TIMER_Start,%function
	.code	16                              @ @TIMER_Start
	.thumb_func
TIMER_Start:
.Lfunc_begin5:
	.loc	17 167 0                        @ ../../CCC_common/Library/StdDriver/inc\timer.h:167:0
	.fnstart
	.cfi_startproc
@ %bb.0:
	.pad	#4
	sub	sp, #4
	.cfi_def_cfa_offset 4
	str	r0, [sp]
.Ltmp18:
	.loc	17 168 5 prologue_end           @ ../../CCC_common/Library/StdDriver/inc\timer.h:168:5
	ldr	r1, [sp]
	.loc	17 168 16 is_stmt 0             @ ../../CCC_common/Library/StdDriver/inc\timer.h:168:16
	ldr	r0, [r1]
	movs	r2, #1
	lsls	r2, r2, #30
	orrs	r0, r2
	str	r0, [r1]
	.loc	17 169 1 epilogue_begin is_stmt 1 @ ../../CCC_common/Library/StdDriver/inc\timer.h:169:1
	add	sp, #4
	bx	lr
.Ltmp19:
.Lfunc_end5:
	.size	TIMER_Start, .Lfunc_end5-TIMER_Start
	.cfi_endproc
	.cantunwind
	.fnend
                                        @ -- End function
	.section	.text.__NVIC_EnableIRQ,"ax",%progbits
	.p2align	2                               @ -- Begin function __NVIC_EnableIRQ
	.type	__NVIC_EnableIRQ,%function
	.code	16                              @ @__NVIC_EnableIRQ
	.thumb_func
__NVIC_EnableIRQ:
.Lfunc_begin6:
	.loc	15 1276 0                       @ ../../CCC_common/Library/CMSIS/Include\core_armv8mbl.h:1276:0
	.fnstart
	.cfi_startproc
@ %bb.0:
	.pad	#4
	sub	sp, #4
	.cfi_def_cfa_offset 4
	str	r0, [sp]
.Ltmp20:
	.loc	15 1277 17 prologue_end         @ ../../CCC_common/Library/CMSIS/Include\core_armv8mbl.h:1277:17
	ldr	r0, [sp]
.Ltmp21:
	.loc	15 1277 7 is_stmt 0             @ ../../CCC_common/Library/CMSIS/Include\core_armv8mbl.h:1277:7
	cmp	r0, #0
	bmi	.LBB6_2
	b	.LBB6_1
.LBB6_1:
.Ltmp22:
	.loc	15 1279 93 is_stmt 1            @ ../../CCC_common/Library/CMSIS/Include\core_armv8mbl.h:1279:93
	ldr	r1, [sp]
	movs	r0, #31
	.loc	15 1279 99 is_stmt 0            @ ../../CCC_common/Library/CMSIS/Include\core_armv8mbl.h:1279:99
	mov	r2, r1
	ands	r2, r0
	movs	r0, #1
	.loc	15 1279 69                      @ ../../CCC_common/Library/CMSIS/Include\core_armv8mbl.h:1279:69
	lsls	r0, r2
	.loc	15 1279 5                       @ ../../CCC_common/Library/CMSIS/Include\core_armv8mbl.h:1279:5
	lsrs	r1, r1, #5
	lsls	r1, r1, #2
	ldr	r2, __arm_cp.6_0
	.loc	15 1279 52                      @ ../../CCC_common/Library/CMSIS/Include\core_armv8mbl.h:1279:52
	str	r0, [r1, r2]
	.loc	15 1280 3 is_stmt 1             @ ../../CCC_common/Library/CMSIS/Include\core_armv8mbl.h:1280:3
	b	.LBB6_2
.Ltmp23:
.LBB6_2:
	.loc	15 1281 1 epilogue_begin        @ ../../CCC_common/Library/CMSIS/Include\core_armv8mbl.h:1281:1
	add	sp, #4
	bx	lr
.Ltmp24:
	.loc	15 0 1 is_stmt 0                @ :0:1
.Ltmp25:
	.p2align	2
@ %bb.3:
__arm_cp.6_0:
	.long	3758153984                      @ 0xe000e100
.Lcpi_end55:
	.size	__arm_cp.6_0, .Lcpi_end55-__arm_cp.6_0
.Lfunc_end6:
	.size	__NVIC_EnableIRQ, .Lfunc_end6-__NVIC_EnableIRQ
	.cfi_endproc
	.cantunwind
	.fnend
                                        @ -- End function
	.section	.text.TMR3_IRQHandler,"ax",%progbits
	.hidden	TMR3_IRQHandler                 @ -- Begin function TMR3_IRQHandler
	.globl	TMR3_IRQHandler
	.p2align	2
	.type	TMR3_IRQHandler,%function
	.code	16                              @ @TMR3_IRQHandler
	.thumb_func
TMR3_IRQHandler:
.Lfunc_begin7:
	.loc	2 382 0 is_stmt 1               @ source/bsp.c:382:0
	.fnstart
	.cfi_startproc
@ %bb.0:
	.save	{r7, lr}
	push	{r7, lr}
	.cfi_def_cfa_offset 8
	.cfi_offset lr, -4
	.cfi_offset r7, -8
	.pad	#16
	sub	sp, #16
	.cfi_def_cfa_offset 24
.Ltmp26:
	.loc	2 383 2 prologue_end            @ source/bsp.c:383:2
	@APP
	mrs	r0, primask
	cpsid i

	@NO_APP
	str	r0, [sp, #12]
	ldr	r0, __arm_cp.7_0
	.loc	2 385 2                         @ source/bsp.c:385:2
	bl	TIMER_ClearIntFlag
	.loc	2 387 2                         @ source/bsp.c:387:2
	ldr	r0, __arm_cp.7_1
	bl	uart_read_isr
	.loc	2 389 2                         @ source/bsp.c:389:2
	ldr	r0, __arm_cp.7_2
	str	r0, [sp, #4]                    @ 4-byte Spill
	bl	uart_read_isr
                                        @ kill: def $r1 killed $r0
	.loc	2 390 2                         @ source/bsp.c:390:2
	ldr	r0, [sp, #4]                    @ 4-byte Reload
	adds	r0, #20
	str	r0, [sp, #8]                    @ 4-byte Spill
	bl	uart_read_isr
	.loc	2 391 2                         @ source/bsp.c:391:2
	ldr	r0, __arm_cp.7_3
	bl	uart_read_isr
	.loc	2 394 2                         @ source/bsp.c:394:2
	ldr	r0, __arm_cp.7_4
	bl	uart_write_isr
                                        @ kill: def $r1 killed $r0
	.loc	2 395 2                         @ source/bsp.c:395:2
	ldr	r0, [sp, #4]                    @ 4-byte Reload
	bl	uart_write_isr
                                        @ kill: def $r1 killed $r0
	.loc	2 396 2                         @ source/bsp.c:396:2
	ldr	r0, [sp, #8]                    @ 4-byte Reload
	bl	uart_write_isr
.Ltmp27:
	.loc	2 398 2                         @ source/bsp.c:398:2
	ldr	r0, __arm_cp.7_5
	ldr	r0, [r0]
.Ltmp28:
	.loc	2 398 2 is_stmt 0               @ source/bsp.c:398:2
	cbz	r0, .LBB7_2
	b	.LBB7_1
.LBB7_1:
.Ltmp29:
	.loc	2 398 2                         @ source/bsp.c:398:2
	ldr	r1, __arm_cp.7_5
	ldr	r0, [r1]
	subs	r0, r0, #1
	str	r0, [r1]
	b	.LBB7_2
.Ltmp30:
.LBB7_2:
	.loc	2 399 2 is_stmt 1               @ source/bsp.c:399:2
	ldr	r0, __arm_cp.7_6
	ldr	r0, [r0]
.Ltmp31:
	.loc	2 399 2 is_stmt 0               @ source/bsp.c:399:2
	lsls	r0, r0, #1
	movs	r1, #2
	rors	r0, r1
	ldr	r1, __arm_cp.7_7
	cmp	r0, r1
	bhi	.LBB7_4
	b	.LBB7_3
.LBB7_3:
	.loc	2 0 2                           @ source/bsp.c:0:2
	ldr	r1, __arm_cp.7_8
	movs	r0, #1
.Ltmp32:
	.loc	2 400 10 is_stmt 1              @ source/bsp.c:400:10
	str	r0, [r1]
	.loc	2 401 2                         @ source/bsp.c:401:2
	b	.LBB7_4
.Ltmp33:
.LBB7_4:
	.loc	2 402 2                         @ source/bsp.c:402:2
	ldr	r0, __arm_cp.7_6
	ldr	r1, [r0]
	ldr	r0, __arm_cp.7_9
.Ltmp34:
	.loc	2 402 2 is_stmt 0               @ source/bsp.c:402:2
	muls	r0, r1, r0
	movs	r1, #4
	rors	r0, r1
	ldr	r1, __arm_cp.7_10
	cmp	r0, r1
	bhi	.LBB7_6
	b	.LBB7_5
.LBB7_5:
	.loc	2 0 2                           @ source/bsp.c:0:2
	ldr	r1, __arm_cp.7_8
	movs	r0, #0
.Ltmp35:
	.loc	2 403 10 is_stmt 1              @ source/bsp.c:403:10
	str	r0, [r1]
	.loc	2 404 2                         @ source/bsp.c:404:2
	b	.LBB7_6
.Ltmp36:
.LBB7_6:
	.loc	2 405 2                         @ source/bsp.c:405:2
	ldr	r0, __arm_cp.7_6
	ldr	r1, [r0]
	ldr	r0, __arm_cp.7_9
.Ltmp37:
	.loc	2 405 2 is_stmt 0               @ source/bsp.c:405:2
	muls	r0, r1, r0
	movs	r1, #3
	rors	r0, r1
	ldr	r1, __arm_cp.7_11
	cmp	r0, r1
	bhi	.LBB7_10
	b	.LBB7_7
.LBB7_7:
.Ltmp38:
	.loc	2 406 10 is_stmt 1              @ source/bsp.c:406:10
	ldr	r0, __arm_cp.7_12
	ldr	r0, [r0]
.Ltmp39:
	.loc	2 406 6 is_stmt 0               @ source/bsp.c:406:6
	cbz	r0, .LBB7_9
	b	.LBB7_8
.LBB7_8:
.Ltmp40:
	.loc	2 407 17 is_stmt 1              @ source/bsp.c:407:17
	ldr	r1, __arm_cp.7_12
	ldr	r0, [r1]
	adds	r0, r0, #1
	str	r0, [r1]
	.loc	2 408 3                         @ source/bsp.c:408:3
	b	.LBB7_9
.Ltmp41:
.LBB7_9:
	.loc	2 409 2                         @ source/bsp.c:409:2
	b	.LBB7_10
.Ltmp42:
.LBB7_10:
	.loc	2 0 2 is_stmt 0                 @ source/bsp.c:0:2
	movs	r0, #0
	.loc	2 411 2 is_stmt 1               @ source/bsp.c:411:2
	cbnz	r0, .LBB7_12
	b	.LBB7_11
.LBB7_11:
.Ltmp43:
	.loc	2 412 2                         @ source/bsp.c:412:2
	ldr	r0, __arm_cp.7_13
	bl	spi_master_sm
	.loc	2 413 2                         @ source/bsp.c:413:2
	ldr	r0, __arm_cp.7_14
	bl	spi_master_sm
	.loc	2 414 2                         @ source/bsp.c:414:2
	b	.LBB7_12
.Ltmp44:
.LBB7_12:
	.loc	2 417 2                         @ source/bsp.c:417:2
	ldr	r0, __arm_cp.7_15
	ldr	r0, [r0]
.Ltmp45:
	.loc	2 417 2 is_stmt 0               @ source/bsp.c:417:2
	cbz	r0, .LBB7_14
	b	.LBB7_13
.LBB7_13:
.Ltmp46:
	.loc	2 417 2                         @ source/bsp.c:417:2
	ldr	r1, __arm_cp.7_15
	ldr	r0, [r1]
	subs	r0, r0, #1
	str	r0, [r1]
	b	.LBB7_14
.Ltmp47:
.LBB7_14:
	.loc	2 418 2 is_stmt 1               @ source/bsp.c:418:2
	ldr	r0, __arm_cp.7_16
	ldrh	r0, [r0, #4]
.Ltmp48:
	.loc	2 418 2 is_stmt 0               @ source/bsp.c:418:2
	cbz	r0, .LBB7_16
	b	.LBB7_15
.LBB7_15:
.Ltmp49:
	.loc	2 418 2                         @ source/bsp.c:418:2
	ldr	r1, __arm_cp.7_16
	ldrh	r0, [r1, #4]
	subs	r0, r0, #1
	strh	r0, [r1, #4]
	b	.LBB7_16
.Ltmp50:
.LBB7_16:
	.loc	2 419 2 is_stmt 1               @ source/bsp.c:419:2
	ldr	r0, __arm_cp.7_16
	ldrh	r0, [r0]
.Ltmp51:
	.loc	2 419 2 is_stmt 0               @ source/bsp.c:419:2
	cbz	r0, .LBB7_18
	b	.LBB7_17
.LBB7_17:
.Ltmp52:
	.loc	2 419 2                         @ source/bsp.c:419:2
	ldr	r1, __arm_cp.7_16
	ldrh	r0, [r1]
	subs	r0, r0, #1
	strh	r0, [r1]
	b	.LBB7_18
.Ltmp53:
.LBB7_18:
	.loc	2 420 2 is_stmt 1               @ source/bsp.c:420:2
	ldr	r0, __arm_cp.7_16
	ldrh	r0, [r0, #2]
.Ltmp54:
	.loc	2 420 2 is_stmt 0               @ source/bsp.c:420:2
	cbz	r0, .LBB7_20
	b	.LBB7_19
.LBB7_19:
.Ltmp55:
	.loc	2 420 2                         @ source/bsp.c:420:2
	ldr	r1, __arm_cp.7_16
	ldrh	r0, [r1, #2]
	subs	r0, r0, #1
	strh	r0, [r1, #2]
	b	.LBB7_20
.Ltmp56:
.LBB7_20:
	.loc	2 421 2 is_stmt 1               @ source/bsp.c:421:2
	ldr	r0, __arm_cp.7_16
	ldr	r0, [r0, #20]
.Ltmp57:
	.loc	2 421 2 is_stmt 0               @ source/bsp.c:421:2
	cbz	r0, .LBB7_22
	b	.LBB7_21
.LBB7_21:
.Ltmp58:
	.loc	2 421 2                         @ source/bsp.c:421:2
	ldr	r1, __arm_cp.7_16
	ldr	r0, [r1, #20]
	subs	r0, r0, #1
	str	r0, [r1, #20]
	b	.LBB7_22
.Ltmp59:
.LBB7_22:
	.loc	2 422 2 is_stmt 1               @ source/bsp.c:422:2
	ldr	r0, __arm_cp.7_16
	ldrh	r0, [r0, #6]
.Ltmp60:
	.loc	2 422 2 is_stmt 0               @ source/bsp.c:422:2
	cbz	r0, .LBB7_24
	b	.LBB7_23
.LBB7_23:
.Ltmp61:
	.loc	2 422 2                         @ source/bsp.c:422:2
	ldr	r1, __arm_cp.7_16
	ldrh	r0, [r1, #6]
	subs	r0, r0, #1
	strh	r0, [r1, #6]
	b	.LBB7_24
.Ltmp62:
.LBB7_24:
	.loc	2 423 2 is_stmt 1               @ source/bsp.c:423:2
	ldr	r0, __arm_cp.7_16
	ldrh	r0, [r0, #8]
.Ltmp63:
	.loc	2 423 2 is_stmt 0               @ source/bsp.c:423:2
	cbz	r0, .LBB7_26
	b	.LBB7_25
.LBB7_25:
.Ltmp64:
	.loc	2 423 2                         @ source/bsp.c:423:2
	ldr	r1, __arm_cp.7_16
	ldrh	r0, [r1, #8]
	subs	r0, r0, #1
	strh	r0, [r1, #8]
	b	.LBB7_26
.Ltmp65:
.LBB7_26:
	.loc	2 424 2 is_stmt 1               @ source/bsp.c:424:2
	ldr	r0, __arm_cp.7_16
	ldrh	r0, [r0, #10]
.Ltmp66:
	.loc	2 424 2 is_stmt 0               @ source/bsp.c:424:2
	cbz	r0, .LBB7_28
	b	.LBB7_27
.LBB7_27:
.Ltmp67:
	.loc	2 424 2                         @ source/bsp.c:424:2
	ldr	r1, __arm_cp.7_16
	ldrh	r0, [r1, #10]
	subs	r0, r0, #1
	strh	r0, [r1, #10]
	b	.LBB7_28
.Ltmp68:
.LBB7_28:
	.loc	2 425 2 is_stmt 1               @ source/bsp.c:425:2
	ldr	r0, __arm_cp.7_16
	ldrh	r0, [r0, #12]
.Ltmp69:
	.loc	2 425 2 is_stmt 0               @ source/bsp.c:425:2
	cbz	r0, .LBB7_30
	b	.LBB7_29
.LBB7_29:
.Ltmp70:
	.loc	2 425 2                         @ source/bsp.c:425:2
	ldr	r1, __arm_cp.7_16
	ldrh	r0, [r1, #12]
	subs	r0, r0, #1
	strh	r0, [r1, #12]
	b	.LBB7_30
.Ltmp71:
.LBB7_30:
	.loc	2 426 2 is_stmt 1               @ source/bsp.c:426:2
	ldr	r0, __arm_cp.7_16
	ldrh	r0, [r0, #14]
.Ltmp72:
	.loc	2 426 2 is_stmt 0               @ source/bsp.c:426:2
	cbz	r0, .LBB7_32
	b	.LBB7_31
.LBB7_31:
.Ltmp73:
	.loc	2 426 2                         @ source/bsp.c:426:2
	ldr	r1, __arm_cp.7_16
	ldrh	r0, [r1, #14]
	subs	r0, r0, #1
	strh	r0, [r1, #14]
	b	.LBB7_32
.Ltmp74:
.LBB7_32:
	.loc	2 427 2 is_stmt 1               @ source/bsp.c:427:2
	ldr	r0, __arm_cp.7_16
	ldrh	r0, [r0, #16]
.Ltmp75:
	.loc	2 427 2 is_stmt 0               @ source/bsp.c:427:2
	cbz	r0, .LBB7_34
	b	.LBB7_33
.LBB7_33:
.Ltmp76:
	.loc	2 427 2                         @ source/bsp.c:427:2
	ldr	r1, __arm_cp.7_16
	ldrh	r0, [r1, #16]
	subs	r0, r0, #1
	strh	r0, [r1, #16]
	b	.LBB7_34
.Ltmp77:
.LBB7_34:
	.loc	2 429 10 is_stmt 1              @ source/bsp.c:429:10
	ldr	r0, __arm_cp.7_17
	ldrb	r0, [r0]
	.loc	2 429 18 is_stmt 0              @ source/bsp.c:429:18
	cbz	r0, .LBB7_37
	b	.LBB7_35
.LBB7_35:
	.loc	2 429 21                        @ source/bsp.c:429:21
	ldr	r0, __arm_cp.7_15
	ldr	r0, [r0]
.Ltmp78:
	.loc	2 429 5                         @ source/bsp.c:429:5
	cbnz	r0, .LBB7_37
	b	.LBB7_36
.LBB7_36:
.Ltmp79:
	.loc	2 430 17 is_stmt 1              @ source/bsp.c:430:17
	ldr	r1, __arm_cp.7_15
	movs	r0, #100
	str	r0, [r1]
	.loc	2 431 2                         @ source/bsp.c:431:2
	b	.LBB7_44
.Ltmp80:
.LBB7_37:
	.loc	2 432 15                        @ source/bsp.c:432:15
	ldr	r0, __arm_cp.7_17
	ldrb	r0, [r0]
	.loc	2 432 23 is_stmt 0              @ source/bsp.c:432:23
	cbz	r0, .LBB7_40
	b	.LBB7_38
.LBB7_38:
	.loc	2 432 26                        @ source/bsp.c:432:26
	ldr	r0, __arm_cp.7_15
	ldr	r0, [r0]
.Ltmp81:
	.loc	2 432 10                        @ source/bsp.c:432:10
	cmp	r0, #10
	bne	.LBB7_40
	b	.LBB7_39
.LBB7_39:
.Ltmp82:
	.loc	2 433 16 is_stmt 1              @ source/bsp.c:433:16
	ldr	r1, __arm_cp.7_17
	movs	r0, #0
	strb	r0, [r1]
	.loc	2 434 17                        @ source/bsp.c:434:17
	ldr	r1, __arm_cp.7_15
	str	r0, [r1]
	.loc	2 435 2                         @ source/bsp.c:435:2
	b	.LBB7_43
.Ltmp83:
.LBB7_40:
	.loc	2 436 16                        @ source/bsp.c:436:16
	ldr	r0, __arm_cp.7_17
	ldrb	r0, [r0]
.Ltmp84:
	.loc	2 436 11 is_stmt 0              @ source/bsp.c:436:11
	cbnz	r0, .LBB7_42
	b	.LBB7_41
.LBB7_41:
.Ltmp85:
	.loc	2 437 17 is_stmt 1              @ source/bsp.c:437:17
	ldr	r1, __arm_cp.7_15
	movs	r0, #0
	str	r0, [r1]
	.loc	2 438 2                         @ source/bsp.c:438:2
	b	.LBB7_42
.Ltmp86:
.LBB7_42:
	.loc	2 0 2 is_stmt 0                 @ source/bsp.c:0:2
	b	.LBB7_43
.LBB7_43:
	b	.LBB7_44
.LBB7_44:
	.loc	2 441 7 is_stmt 1               @ source/bsp.c:441:7
	ldr	r1, __arm_cp.7_6
	ldr	r0, [r1]
	adds	r0, r0, #1
	str	r0, [r1]
	.loc	2 442 11                        @ source/bsp.c:442:11
	ldr	r1, __arm_cp.7_18
	ldr	r0, [r1]
	adds	r0, r0, #1
	str	r0, [r1]
	.loc	2 443 2                         @ source/bsp.c:443:2
	@APP
	cpsie i
	@NO_APP
	.loc	2 444 1 epilogue_begin          @ source/bsp.c:444:1
	add	sp, #16
	pop	{r7, pc}
.Ltmp87:
	.loc	2 0 1 is_stmt 0                 @ :0:1
.Ltmp88:
	.p2align	2
@ %bb.45:
__arm_cp.7_0:
	.long	1074073856                      @ 0x40051100
.Lcpi_end56:
	.size	__arm_cp.7_0, .Lcpi_end56-__arm_cp.7_0
__arm_cp.7_1:
	.long	uart_cli
.Lcpi_end57:
	.size	__arm_cp.7_1, .Lcpi_end57-__arm_cp.7_1
__arm_cp.7_2:
	.long	uart_com
.Lcpi_end58:
	.size	__arm_cp.7_2, .Lcpi_end58-__arm_cp.7_2
__arm_cp.7_3:
	.long	uart_gps
.Lcpi_end59:
	.size	__arm_cp.7_3, .Lcpi_end59-__arm_cp.7_3
__arm_cp.7_4:
	.long	uart_el
.Lcpi_end60:
	.size	__arm_cp.7_4, .Lcpi_end60-__arm_cp.7_4
__arm_cp.7_5:
	.long	wait_time
.Lcpi_end61:
	.size	__arm_cp.7_5, .Lcpi_end61-__arm_cp.7_5
__arm_cp.7_6:
	.long	ticks
.Lcpi_end62:
	.size	__arm_cp.7_6, .Lcpi_end62-__arm_cp.7_6
__arm_cp.7_7:
	.long	214748364                       @ 0xccccccc
.Lcpi_end63:
	.size	__arm_cp.7_7, .Lcpi_end63-__arm_cp.7_7
__arm_cp.7_8:
	.long	1073760452                      @ 0x400048c4
.Lcpi_end64:
	.size	__arm_cp.7_8, .Lcpi_end64-__arm_cp.7_8
__arm_cp.7_9:
	.long	2233382994                      @ 0x851eb852
.Lcpi_end65:
	.size	__arm_cp.7_9, .Lcpi_end65-__arm_cp.7_9
__arm_cp.7_10:
	.long	2147483                         @ 0x20c49b
.Lcpi_end66:
	.size	__arm_cp.7_10, .Lcpi_end66-__arm_cp.7_10
__arm_cp.7_11:
	.long	4294967                         @ 0x418937
.Lcpi_end67:
	.size	__arm_cp.7_11, .Lcpi_end67-__arm_cp.7_11
__arm_cp.7_12:
	.long	sys
.Lcpi_end68:
	.size	__arm_cp.7_12, .Lcpi_end68-__arm_cp.7_12
__arm_cp.7_13:
	.long	spi_cpux
.Lcpi_end69:
	.size	__arm_cp.7_13, .Lcpi_end69-__arm_cp.7_13
__arm_cp.7_14:
	.long	spi_fpga
.Lcpi_end70:
	.size	__arm_cp.7_14, .Lcpi_end70-__arm_cp.7_14
__arm_cp.7_15:
	.long	g_i2c_timeout
.Lcpi_end71:
	.size	__arm_cp.7_15, .Lcpi_end71-__arm_cp.7_15
__arm_cp.7_16:
	.long	tmr
.Lcpi_end72:
	.size	__arm_cp.7_16, .Lcpi_end72-__arm_cp.7_16
__arm_cp.7_17:
	.long	i2c0
.Lcpi_end73:
	.size	__arm_cp.7_17, .Lcpi_end73-__arm_cp.7_17
__arm_cp.7_18:
	.long	elapsed
.Lcpi_end74:
	.size	__arm_cp.7_18, .Lcpi_end74-__arm_cp.7_18
.Lfunc_end7:
	.size	TMR3_IRQHandler, .Lfunc_end7-TMR3_IRQHandler
	.cfi_endproc
	.cantunwind
	.fnend
                                        @ -- End function
	.section	.text.TIMER_ClearIntFlag,"ax",%progbits
	.p2align	1                               @ -- Begin function TIMER_ClearIntFlag
	.type	TIMER_ClearIntFlag,%function
	.code	16                              @ @TIMER_ClearIntFlag
	.thumb_func
TIMER_ClearIntFlag:
.Lfunc_begin8:
	.loc	17 380 0 is_stmt 1              @ ../../CCC_common/Library/StdDriver/inc\timer.h:380:0
	.fnstart
	.cfi_startproc
@ %bb.0:
	.pad	#4
	sub	sp, #4
	.cfi_def_cfa_offset 4
	str	r0, [sp]
.Ltmp89:
	.loc	17 381 5 prologue_end           @ ../../CCC_common/Library/StdDriver/inc\timer.h:381:5
	ldr	r1, [sp]
	movs	r0, #1
	.loc	17 381 19 is_stmt 0             @ ../../CCC_common/Library/StdDriver/inc\timer.h:381:19
	str	r0, [r1, #8]
	.loc	17 382 1 epilogue_begin is_stmt 1 @ ../../CCC_common/Library/StdDriver/inc\timer.h:382:1
	add	sp, #4
	bx	lr
.Ltmp90:
.Lfunc_end8:
	.size	TIMER_ClearIntFlag, .Lfunc_end8-TIMER_ClearIntFlag
	.cfi_endproc
	.cantunwind
	.fnend
                                        @ -- End function
	.section	.text.I2C0_IRQHandler,"ax",%progbits
	.hidden	I2C0_IRQHandler                 @ -- Begin function I2C0_IRQHandler
	.globl	I2C0_IRQHandler
	.p2align	2
	.type	I2C0_IRQHandler,%function
	.code	16                              @ @I2C0_IRQHandler
	.thumb_func
I2C0_IRQHandler:
.Lfunc_begin9:
	.loc	2 472 0                         @ source/bsp.c:472:0
	.fnstart
	.cfi_startproc
@ %bb.0:
	.save	{r7, lr}
	push	{r7, lr}
	.cfi_def_cfa_offset 8
	.cfi_offset lr, -4
	.cfi_offset r7, -8
	.pad	#8
	sub	sp, #8
	.cfi_def_cfa_offset 16
	ldr	r0, __arm_cp.9_0
.Ltmp91:
	.loc	2 475 17 prologue_end           @ source/bsp.c:475:17
	ldr	r0, [r0]
	.loc	2 475 15 is_stmt 0              @ source/bsp.c:475:15
	str	r0, [sp, #4]
	ldr	r0, __arm_cp.9_1
.Ltmp92:
	.loc	2 477 8 is_stmt 1               @ source/bsp.c:477:8
	ldr	r0, [r0]
.Ltmp93:
	.loc	2 477 8 is_stmt 0               @ source/bsp.c:477:8
	lsls	r0, r0, #31
	cbz	r0, .LBB9_2
	b	.LBB9_1
.LBB9_1:
	.loc	2 0 8                           @ source/bsp.c:0:8
	movs	r0, #1
.Ltmp94:
	.loc	2 477 8                         @ source/bsp.c:477:8
	cbnz	r0, .LBB9_3
	b	.LBB9_4
.Ltmp95:
.LBB9_2:
	.loc	2 0 8                           @ source/bsp.c:0:8
	movs	r0, #1
	.loc	2 477 8                         @ source/bsp.c:477:8
	cbnz	r0, .LBB9_4
	b	.LBB9_3
.LBB9_3:
	.loc	2 0 8                           @ source/bsp.c:0:8
	ldr	r0, __arm_cp.9_4
.Ltmp96:
	.loc	2 479 9 is_stmt 1               @ source/bsp.c:479:9
	bl	I2C_ClearTimeoutFlag
	.loc	2 481 5                         @ source/bsp.c:481:5
	b	.LBB9_7
.Ltmp97:
.LBB9_4:
	.loc	2 483 12                        @ source/bsp.c:483:12
	ldr	r0, __arm_cp.9_2
	ldr	r0, [r0]
.Ltmp98:
	.loc	2 483 12 is_stmt 0              @ source/bsp.c:483:12
	cbz	r0, .LBB9_6
	b	.LBB9_5
.LBB9_5:
.Ltmp99:
	.loc	2 485 13 is_stmt 1              @ source/bsp.c:485:13
	ldr	r0, __arm_cp.9_2
	ldr	r2, [r0]
	.loc	2 485 36 is_stmt 0              @ source/bsp.c:485:36
	ldr	r1, [sp, #4]
	.loc	2 485 13                        @ source/bsp.c:485:13
	ldr	r0, __arm_cp.9_3
	blx	r2
	.loc	2 486 5 is_stmt 1               @ source/bsp.c:486:5
	b	.LBB9_6
.Ltmp100:
.LBB9_6:
	.loc	2 0 5 is_stmt 0                 @ source/bsp.c:0:5
	b	.LBB9_7
.LBB9_7:
	.loc	2 488 1 epilogue_begin is_stmt 1 @ source/bsp.c:488:1
	add	sp, #8
	pop	{r7, pc}
.Ltmp101:
	.loc	2 0 1 is_stmt 0                 @ :0:1
.Ltmp102:
	.p2align	2
@ %bb.8:
__arm_cp.9_0:
	.long	1074266124                      @ 0x4008000c
.Lcpi_end75:
	.size	__arm_cp.9_0, .Lcpi_end75-__arm_cp.9_0
__arm_cp.9_1:
	.long	1074266132                      @ 0x40080014
.Lcpi_end76:
	.size	__arm_cp.9_1, .Lcpi_end76-__arm_cp.9_1
__arm_cp.9_2:
	.long	s_I2C0HandlerFn
.Lcpi_end77:
	.size	__arm_cp.9_2, .Lcpi_end77-__arm_cp.9_2
__arm_cp.9_3:
	.long	i2c0
.Lcpi_end78:
	.size	__arm_cp.9_3, .Lcpi_end78-__arm_cp.9_3
__arm_cp.9_4:
	.long	1074266112                      @ 0x40080000
.Lcpi_end79:
	.size	__arm_cp.9_4, .Lcpi_end79-__arm_cp.9_4
.Lfunc_end9:
	.size	I2C0_IRQHandler, .Lfunc_end9-I2C0_IRQHandler
	.cfi_endproc
	.cantunwind
	.fnend
                                        @ -- End function
	.hidden	wait_time                       @ @wait_time
	.type	wait_time,%object
	.section	.bss.wait_time,"aw",%nobits
	.globl	wait_time
	.p2align	2, 0x0
wait_time:
	.long	0                               @ 0x0
	.size	wait_time, 4

	.type	fifo_rx_cli,%object             @ @fifo_rx_cli
	.section	.bss.fifo_rx_cli,"aw",%nobits
	.p2align	2, 0x0
fifo_rx_cli:
	.zero	20
	.size	fifo_rx_cli, 20

	.type	buf_rx_cli,%object              @ @buf_rx_cli
	.section	.bss.buf_rx_cli,"aw",%nobits
buf_rx_cli:
	.zero	100
	.size	buf_rx_cli, 100

	.type	fifo_rx_el,%object              @ @fifo_rx_el
	.section	.bss.fifo_rx_el,"aw",%nobits
	.p2align	2, 0x0
fifo_rx_el:
	.zero	20
	.size	fifo_rx_el, 20

	.type	buf_rx_el,%object               @ @buf_rx_el
	.section	.bss.buf_rx_el,"aw",%nobits
buf_rx_el:
	.zero	100
	.size	buf_rx_el, 100

	.type	fifo_rx_com0,%object            @ @fifo_rx_com0
	.section	.bss.fifo_rx_com0,"aw",%nobits
	.p2align	2, 0x0
fifo_rx_com0:
	.zero	20
	.size	fifo_rx_com0, 20

	.type	buf_rx_com0,%object             @ @buf_rx_com0
	.section	.bss.buf_rx_com0,"aw",%nobits
buf_rx_com0:
	.zero	100
	.size	buf_rx_com0, 100

	.type	fifo_rx_com1,%object            @ @fifo_rx_com1
	.section	.bss.fifo_rx_com1,"aw",%nobits
	.p2align	2, 0x0
fifo_rx_com1:
	.zero	20
	.size	fifo_rx_com1, 20

	.type	buf_rx_com1,%object             @ @buf_rx_com1
	.section	.bss.buf_rx_com1,"aw",%nobits
buf_rx_com1:
	.zero	100
	.size	buf_rx_com1, 100

	.type	fifo_rx_gps,%object             @ @fifo_rx_gps
	.section	.bss.fifo_rx_gps,"aw",%nobits
	.p2align	2, 0x0
fifo_rx_gps:
	.zero	20
	.size	fifo_rx_gps, 20

	.type	buf_rx_gps,%object              @ @buf_rx_gps
	.section	.bss.buf_rx_gps,"aw",%nobits
buf_rx_gps:
	.zero	100
	.size	buf_rx_gps, 100

	.type	fifo_tx_cli,%object             @ @fifo_tx_cli
	.section	.bss.fifo_tx_cli,"aw",%nobits
	.p2align	2, 0x0
fifo_tx_cli:
	.zero	20
	.size	fifo_tx_cli, 20

	.type	buf_tx_cli,%object              @ @buf_tx_cli
	.section	.bss.buf_tx_cli,"aw",%nobits
buf_tx_cli:
	.zero	100
	.size	buf_tx_cli, 100

	.type	fifo_tx_el,%object              @ @fifo_tx_el
	.section	.bss.fifo_tx_el,"aw",%nobits
	.p2align	2, 0x0
fifo_tx_el:
	.zero	20
	.size	fifo_tx_el, 20

	.type	buf_tx_el,%object               @ @buf_tx_el
	.section	.bss.buf_tx_el,"aw",%nobits
buf_tx_el:
	.zero	100
	.size	buf_tx_el, 100

	.type	fifo_tx_com0,%object            @ @fifo_tx_com0
	.section	.bss.fifo_tx_com0,"aw",%nobits
	.p2align	2, 0x0
fifo_tx_com0:
	.zero	20
	.size	fifo_tx_com0, 20

	.type	buf_tx_com0,%object             @ @buf_tx_com0
	.section	.bss.buf_tx_com0,"aw",%nobits
buf_tx_com0:
	.zero	100
	.size	buf_tx_com0, 100

	.type	fifo_tx_com1,%object            @ @fifo_tx_com1
	.section	.bss.fifo_tx_com1,"aw",%nobits
	.p2align	2, 0x0
fifo_tx_com1:
	.zero	20
	.size	fifo_tx_com1, 20

	.type	buf_tx_com1,%object             @ @buf_tx_com1
	.section	.bss.buf_tx_com1,"aw",%nobits
buf_tx_com1:
	.zero	100
	.size	buf_tx_com1, 100

	.type	fifo_tx_gps,%object             @ @fifo_tx_gps
	.section	.bss.fifo_tx_gps,"aw",%nobits
	.p2align	2, 0x0
fifo_tx_gps:
	.zero	20
	.size	fifo_tx_gps, 20

	.type	buf_tx_gps,%object              @ @buf_tx_gps
	.section	.bss.buf_tx_gps,"aw",%nobits
buf_tx_gps:
	.zero	100
	.size	buf_tx_gps, 100

	.hidden	uart_cli                        @ @uart_cli
	.type	uart_cli,%object
	.section	.bss.uart_cli,"aw",%nobits
	.globl	uart_cli
	.p2align	2, 0x0
uart_cli:
	.zero	20
	.size	uart_cli, 20

	.hidden	uart_el                         @ @uart_el
	.type	uart_el,%object
	.section	.bss.uart_el,"aw",%nobits
	.globl	uart_el
	.p2align	2, 0x0
uart_el:
	.zero	20
	.size	uart_el, 20

	.hidden	uart_com                        @ @uart_com
	.type	uart_com,%object
	.section	.bss.uart_com,"aw",%nobits
	.globl	uart_com
	.p2align	2, 0x0
uart_com:
	.zero	40
	.size	uart_com, 40

	.hidden	uart_gps                        @ @uart_gps
	.type	uart_gps,%object
	.section	.bss.uart_gps,"aw",%nobits
	.globl	uart_gps
	.p2align	2, 0x0
uart_gps:
	.zero	20
	.size	uart_gps, 20

	.hidden	fifo_tx_cpux                    @ @fifo_tx_cpux
	.type	fifo_tx_cpux,%object
	.section	.bss.fifo_tx_cpux,"aw",%nobits
	.globl	fifo_tx_cpux
	.p2align	2, 0x0
fifo_tx_cpux:
	.zero	20
	.size	fifo_tx_cpux, 20

	.type	buf_tx_cpux,%object             @ @buf_tx_cpux
	.section	.bss.buf_tx_cpux,"aw",%nobits
buf_tx_cpux:
	.zero	100
	.size	buf_tx_cpux, 100

	.hidden	fifo_rx_cpux                    @ @fifo_rx_cpux
	.type	fifo_rx_cpux,%object
	.section	.bss.fifo_rx_cpux,"aw",%nobits
	.globl	fifo_rx_cpux
	.p2align	2, 0x0
fifo_rx_cpux:
	.zero	20
	.size	fifo_rx_cpux, 20

	.type	buf_rx_cpux,%object             @ @buf_rx_cpux
	.section	.bss.buf_rx_cpux,"aw",%nobits
buf_rx_cpux:
	.zero	100
	.size	buf_rx_cpux, 100

	.hidden	fifo_tx_fpga                    @ @fifo_tx_fpga
	.type	fifo_tx_fpga,%object
	.section	.bss.fifo_tx_fpga,"aw",%nobits
	.globl	fifo_tx_fpga
	.p2align	2, 0x0
fifo_tx_fpga:
	.zero	20
	.size	fifo_tx_fpga, 20

	.type	buf_tx_fpga,%object             @ @buf_tx_fpga
	.section	.bss.buf_tx_fpga,"aw",%nobits
buf_tx_fpga:
	.zero	100
	.size	buf_tx_fpga, 100

	.hidden	fifo_rx_fpga                    @ @fifo_rx_fpga
	.type	fifo_rx_fpga,%object
	.section	.bss.fifo_rx_fpga,"aw",%nobits
	.globl	fifo_rx_fpga
	.p2align	2, 0x0
fifo_rx_fpga:
	.zero	20
	.size	fifo_rx_fpga, 20

	.type	buf_rx_fpga,%object             @ @buf_rx_fpga
	.section	.bss.buf_rx_fpga,"aw",%nobits
buf_rx_fpga:
	.zero	100
	.size	buf_rx_fpga, 100

	.hidden	spi_cpux                        @ @spi_cpux
	.type	spi_cpux,%object
	.section	.bss.spi_cpux,"aw",%nobits
	.globl	spi_cpux
	.p2align	2, 0x0
spi_cpux:
	.zero	32
	.size	spi_cpux, 32

	.hidden	spi_fpga                        @ @spi_fpga
	.type	spi_fpga,%object
	.section	.bss.spi_fpga,"aw",%nobits
	.globl	spi_fpga
	.p2align	2, 0x0
spi_fpga:
	.zero	32
	.size	spi_fpga, 32

	.hidden	i2c0                            @ @i2c0
	.type	i2c0,%object
	.section	.bss.i2c0,"aw",%nobits
	.globl	i2c0
	.p2align	2, 0x0
i2c0:
	.zero	36
	.size	i2c0, 36

	.hidden	ticks                           @ @ticks
	.type	ticks,%object
	.section	.bss.ticks,"aw",%nobits
	.globl	ticks
	.p2align	2, 0x0
ticks:
	.long	0                               @ 0x0
	.size	ticks, 4

	.hidden	elapsed                         @ @elapsed
	.type	elapsed,%object
	.section	.bss.elapsed,"aw",%nobits
	.globl	elapsed
	.p2align	2, 0x0
elapsed:
	.long	0                               @ 0x0
	.size	elapsed, 4

	.hidden	g_i2c_timeout                   @ @g_i2c_timeout
	.type	g_i2c_timeout,%object
	.section	.bss.g_i2c_timeout,"aw",%nobits
	.globl	g_i2c_timeout
	.p2align	2, 0x0
g_i2c_timeout:
	.long	0                               @ 0x0
	.size	g_i2c_timeout, 4

	.hidden	s_I2C0HandlerFn                 @ @s_I2C0HandlerFn
	.type	s_I2C0HandlerFn,%object
	.section	.bss.s_I2C0HandlerFn,"aw",%nobits
	.globl	s_I2C0HandlerFn
	.p2align	2, 0x0
s_I2C0HandlerFn:
	.long	0
	.size	s_I2C0HandlerFn, 4

	.section	".note.GNU-stack","",%progbits
	.eabi_attribute	30, 6	@ Tag_ABI_optimization_goals
	.ARM_attribute	16, 1	@ Tag_AV_eba