	.text
	.syntax unified
	.eabi_attribute	67, "2.09"	@ Tag_conformance
	.cpu	cortex-m23
	.eabi_attribute	6, 16	@ Tag_CPU_arch
	.eabi_attribute	7, 77	@ Tag_CPU_arch_profile
	.eabi_attribute	8, 0	@ Tag_ARM_ISA_use
	.eabi_attribute	9, 3	@ Tag_THUMB_ISA_use
	.eabi_attribute	34, 0	@ Tag_CPU_unaligned_access
	.eabi_attribute	17, 1	@ Tag_ABI_PCS_GOT_use
	.eabi_attribute	20, 2	@ Tag_ABI_FP_denormal
	.eabi_attribute	21, 0	@ Tag_ABI_FP_exceptions
	.eabi_attribute	23, 1	@ Tag_ABI_FP_number_model
	.eabi_attribute	24, 1	@ Tag_ABI_align_needed
	.eabi_attribute	25, 1	@ Tag_ABI_align_preserved
	.eabi_attribute	38, 1	@ Tag_ABI_FP_16bit_format
	.eabi_attribute	18, 4	@ Tag_ABI_PCS_wchar_t
	.eabi_attribute	26, 2	@ Tag_ABI_enum_size
	.eabi_attribute	14, 0	@ Tag_ABI_PCS_R9_use
	.file	"can.c"
	.file	1 "C:\\Users\\Anaya\\AppData\\Local\\Keil_v5\\ARM\\ARMCLANG\\bin\\..\\include" "stdint.h"
	.file	2 "D:\\work\\dheeraj\\local\\CEL\\CCC\\CCC_CPU0\\Code" "../../CCC_common/Library/StdDriver/src/can.c"
	.section	.text.CAN_EnterInitMode,"ax",%progbits
	.hidden	CAN_EnterInitMode               @ -- Begin function CAN_EnterInitMode
	.globl	CAN_EnterInitMode
	.p2align	1
	.type	CAN_EnterInitMode,%function
	.code	16                              @ @CAN_EnterInitMode
	.thumb_func
CAN_EnterInitMode:
.Lfunc_begin0:
	.loc	2 185 0                         @ ../../CCC_common/Library/StdDriver/src/can.c:185:0
	.fnstart
	.cfi_sections .debug_frame
	.cfi_startproc
@ %bb.0:
	.pad	#8
	sub	sp, #8
	.cfi_def_cfa_offset 8
                                        @ kill: def $r2 killed $r1
	str	r0, [sp, #4]
	mov	r0, sp
	strb	r1, [r0]
.Ltmp0:
	.loc	2 186 17 prologue_end           @ ../../CCC_common/Library/StdDriver/src/can.c:186:17
	ldrb	r0, [r0]
	movs	r1, #65
	.loc	2 186 24 is_stmt 0              @ ../../CCC_common/Library/StdDriver/src/can.c:186:24
	orrs	r0, r1
	.loc	2 186 5                         @ ../../CCC_common/Library/StdDriver/src/can.c:186:5
	ldr	r1, [sp, #4]
	.loc	2 186 15                        @ ../../CCC_common/Library/StdDriver/src/can.c:186:15
	str	r0, [r1]
	.loc	2 187 1 epilogue_begin is_stmt 1 @ ../../CCC_common/Library/StdDriver/src/can.c:187:1
	add	sp, #8
	bx	lr
.Ltmp1:
.Lfunc_end0:
	.size	CAN_EnterInitMode, .Lfunc_end0-CAN_EnterInitMode
	.cfi_endproc
	.cantunwind
	.fnend
                                        @ -- End function
	.section	.text.CAN_LeaveInitMode,"ax",%progbits
	.hidden	CAN_LeaveInitMode               @ -- Begin function CAN_LeaveInitMode
	.globl	CAN_LeaveInitMode
	.p2align	2
	.type	CAN_LeaveInitMode,%function
	.code	16                              @ @CAN_LeaveInitMode
	.thumb_func
CAN_LeaveInitMode:
.Lfunc_begin1:
	.loc	2 198 0                         @ ../../CCC_common/Library/StdDriver/src/can.c:198:0
	.fnstart
	.cfi_startproc
@ %bb.0:
	.pad	#8
	sub	sp, #8
	.cfi_def_cfa_offset 8
	str	r0, [sp, #4]
.Ltmp2:
	.loc	2 199 32 prologue_end           @ ../../CCC_common/Library/StdDriver/src/can.c:199:32
	ldr	r0, __arm_cp.1_0
	ldr	r0, [r0]
	.loc	2 199 14 is_stmt 0              @ ../../CCC_common/Library/StdDriver/src/can.c:199:14
	str	r0, [sp]
	.loc	2 200 5 is_stmt 1               @ ../../CCC_common/Library/StdDriver/src/can.c:200:5
	ldr	r1, [sp, #4]
	.loc	2 200 15 is_stmt 0              @ ../../CCC_common/Library/StdDriver/src/can.c:200:15
	ldr	r0, [r1]
	movs	r2, #65
	bics	r0, r2
	str	r0, [r1]
	.loc	2 201 5 is_stmt 1               @ ../../CCC_common/Library/StdDriver/src/can.c:201:5
	b	.LBB1_1
.LBB1_1:                                @ =>This Inner Loop Header: Depth=1
	.loc	2 201 11 is_stmt 0              @ ../../CCC_common/Library/StdDriver/src/can.c:201:11
	ldr	r0, [sp, #4]
	.loc	2 201 17                        @ ../../CCC_common/Library/StdDriver/src/can.c:201:17
	ldr	r0, [r0]
	.loc	2 201 5                         @ ../../CCC_common/Library/StdDriver/src/can.c:201:5
	lsls	r0, r0, #31
	cbz	r0, .LBB1_5
	b	.LBB1_2
.LBB1_2:                                @   in Loop: Header=BB1_1 Depth=1
.Ltmp3:
	.loc	2 202 12 is_stmt 1              @ ../../CCC_common/Library/StdDriver/src/can.c:202:12
	ldr	r0, [sp]
	subs	r0, r0, #1
	str	r0, [sp]
.Ltmp4:
	.loc	2 202 12 is_stmt 0              @ ../../CCC_common/Library/StdDriver/src/can.c:202:12
	cbnz	r0, .LBB1_4
	b	.LBB1_3
.LBB1_3:
.Ltmp5:
	.loc	2 202 36                        @ ../../CCC_common/Library/StdDriver/src/can.c:202:36
	b	.LBB1_5
.Ltmp6:
.LBB1_4:                                @   in Loop: Header=BB1_1 Depth=1
	.loc	2 201 5 is_stmt 1               @ ../../CCC_common/Library/StdDriver/src/can.c:201:5
	b	.LBB1_1
.LBB1_5:
	.loc	2 203 1 epilogue_begin          @ ../../CCC_common/Library/StdDriver/src/can.c:203:1
	add	sp, #8
	bx	lr
.Ltmp7:
	.loc	2 0 1 is_stmt 0                 @ :0:1
.Ltmp8:
	.p2align	2
@ %bb.6:
__arm_cp.1_0:
	.long	SystemCoreClock
.Lcpi_end0:
	.size	__arm_cp.1_0, .Lcpi_end0-__arm_cp.1_0
.Lfunc_end1:
	.size	CAN_LeaveInitMode, .Lfunc_end1-CAN_LeaveInitMode
	.cfi_endproc
	.cantunwind
	.fnend
                                        @ -- End function
	.section	.text.CAN_WaitMsg,"ax",%progbits
	.hidden	CAN_WaitMsg                     @ -- Begin function CAN_WaitMsg
	.globl	CAN_WaitMsg
	.p2align	1
	.type	CAN_WaitMsg,%function
	.code	16                              @ @CAN_WaitMsg
	.thumb_func
CAN_WaitMsg:
.Lfunc_begin2:
	.loc	2 213 0 is_stmt 1               @ ../../CCC_common/Library/StdDriver/src/can.c:213:0
	.fnstart
	.cfi_startproc
@ %bb.0:
	.pad	#4
	sub	sp, #4
	.cfi_def_cfa_offset 4
	str	r0, [sp]
.Ltmp9:
	.loc	2 214 5 prologue_end            @ ../../CCC_common/Library/StdDriver/src/can.c:214:5
	ldr	r1, [sp]
	movs	r0, #0
	.loc	2 214 18 is_stmt 0              @ ../../CCC_common/Library/StdDriver/src/can.c:214:18
	str	r0, [r1, #4]
	.loc	2 216 5 is_stmt 1               @ ../../CCC_common/Library/StdDriver/src/can.c:216:5
	b	.LBB2_1
.LBB2_1:                                @ =>This Inner Loop Header: Depth=1
.Ltmp10:
	.loc	2 218 12                        @ ../../CCC_common/Library/StdDriver/src/can.c:218:12
	ldr	r0, [sp]
	movs	r1, #152
	.loc	2 218 24 is_stmt 0              @ ../../CCC_common/Library/StdDriver/src/can.c:218:24
	ldr	r0, [r0, r1]
.Ltmp11:
	.loc	2 218 12                        @ ../../CCC_common/Library/StdDriver/src/can.c:218:12
	lsls	r0, r0, #16
	cmp	r0, #0
	bpl	.LBB2_3
	b	.LBB2_2
.LBB2_2:
.Ltmp12:
	.loc	2 221 13 is_stmt 1              @ ../../CCC_common/Library/StdDriver/src/can.c:221:13
	b	.LBB2_8
.Ltmp13:
.LBB2_3:                                @   in Loop: Header=BB2_1 Depth=1
	.loc	2 224 12                        @ ../../CCC_common/Library/StdDriver/src/can.c:224:12
	ldr	r0, [sp]
	.loc	2 224 18 is_stmt 0              @ ../../CCC_common/Library/StdDriver/src/can.c:224:18
	ldr	r0, [r0, #4]
.Ltmp14:
	.loc	2 224 12                        @ ../../CCC_common/Library/StdDriver/src/can.c:224:12
	lsls	r0, r0, #27
	cmp	r0, #0
	bpl	.LBB2_5
	b	.LBB2_4
.LBB2_4:                                @   in Loop: Header=BB2_1 Depth=1
.Ltmp15:
	.loc	2 227 9 is_stmt 1               @ ../../CCC_common/Library/StdDriver/src/can.c:227:9
	b	.LBB2_5
.Ltmp16:
.LBB2_5:                                @   in Loop: Header=BB2_1 Depth=1
	.loc	2 229 12                        @ ../../CCC_common/Library/StdDriver/src/can.c:229:12
	ldr	r0, [sp]
	.loc	2 229 18 is_stmt 0              @ ../../CCC_common/Library/StdDriver/src/can.c:229:18
	ldr	r0, [r0, #4]
.Ltmp17:
	.loc	2 229 12                        @ ../../CCC_common/Library/StdDriver/src/can.c:229:12
	lsls	r0, r0, #29
	cbz	r0, .LBB2_7
	b	.LBB2_6
.LBB2_6:                                @   in Loop: Header=BB2_1 Depth=1
.Ltmp18:
	.loc	2 232 9 is_stmt 1               @ ../../CCC_common/Library/StdDriver/src/can.c:232:9
	b	.LBB2_7
.Ltmp19:
.LBB2_7:                                @   in Loop: Header=BB2_1 Depth=1
	.loc	2 216 5                         @ ../../CCC_common/Library/StdDriver/src/can.c:216:5
	b	.LBB2_1
.LBB2_8:
	.loc	2 234 1 epilogue_begin          @ ../../CCC_common/Library/StdDriver/src/can.c:234:1
	add	sp, #4
	bx	lr
.Ltmp20:
.Lfunc_end2:
	.size	CAN_WaitMsg, .Lfunc_end2-CAN_WaitMsg
	.cfi_endproc
	.cantunwind
	.fnend
                                        @ -- End function
	.section	.text.CAN_GetCANBitRate,"ax",%progbits
	.hidden	CAN_GetCANBitRate               @ -- Begin function CAN_GetCANBitRate
	.globl	CAN_GetCANBitRate
	.p2align	2
	.type	CAN_GetCANBitRate,%function
	.code	16                              @ @CAN_GetCANBitRate
	.thumb_func
CAN_GetCANBitRate:
.Lfunc_begin3:
	.loc	2 243 0                         @ ../../CCC_common/Library/StdDriver/src/can.c:243:0
	.fnstart
	.cfi_startproc
@ %bb.0:
	.pad	#16
	sub	sp, #16
	.cfi_def_cfa_offset 16
	str	r0, [sp, #12]
.Ltmp21:
	.loc	2 247 26 prologue_end           @ ../../CCC_common/Library/StdDriver/src/can.c:247:26
	ldr	r0, [sp, #12]
	.loc	2 247 32 is_stmt 0              @ ../../CCC_common/Library/StdDriver/src/can.c:247:32
	ldr	r0, [r0, #12]
	movw	r1, #3840
	.loc	2 247 38                        @ ../../CCC_common/Library/StdDriver/src/can.c:247:38
	ands	r0, r1
	.loc	2 247 61                        @ ../../CCC_common/Library/StdDriver/src/can.c:247:61
	lsrs	r0, r0, #8
	add	r1, sp, #8
	.loc	2 247 13                        @ ../../CCC_common/Library/StdDriver/src/can.c:247:13
	strb	r0, [r1]
	.loc	2 248 26 is_stmt 1              @ ../../CCC_common/Library/StdDriver/src/can.c:248:26
	ldr	r0, [sp, #12]
	.loc	2 248 32 is_stmt 0              @ ../../CCC_common/Library/StdDriver/src/can.c:248:32
	ldr	r0, [r0, #12]
	movw	r2, #28672
	.loc	2 248 38                        @ ../../CCC_common/Library/StdDriver/src/can.c:248:38
	ands	r0, r2
	.loc	2 248 61                        @ ../../CCC_common/Library/StdDriver/src/can.c:248:61
	lsrs	r0, r0, #12
	add	r2, sp, #4
	.loc	2 248 13                        @ ../../CCC_common/Library/StdDriver/src/can.c:248:13
	strb	r0, [r2]
	.loc	2 249 15 is_stmt 1              @ ../../CCC_common/Library/StdDriver/src/can.c:249:15
	ldr	r0, [sp, #12]
	.loc	2 249 21 is_stmt 0              @ ../../CCC_common/Library/StdDriver/src/can.c:249:21
	ldr	r0, [r0, #12]
	movs	r3, #63
	.loc	2 249 27                        @ ../../CCC_common/Library/StdDriver/src/can.c:249:27
	ands	r0, r3
	.loc	2 249 12                        @ ../../CCC_common/Library/StdDriver/src/can.c:249:12
	str	r0, [sp]
	.loc	2 250 16 is_stmt 1              @ ../../CCC_common/Library/StdDriver/src/can.c:250:16
	ldr	r0, [sp, #12]
	.loc	2 250 22 is_stmt 0              @ ../../CCC_common/Library/StdDriver/src/can.c:250:22
	ldr	r0, [r0, #24]
	.loc	2 250 27                        @ ../../CCC_common/Library/StdDriver/src/can.c:250:27
	lsls	r3, r0, #6
	.loc	2 250 12                        @ ../../CCC_common/Library/StdDriver/src/can.c:250:12
	ldr	r0, [sp]
	orrs	r0, r3
	str	r0, [sp]
	.loc	2 253 13 is_stmt 1              @ ../../CCC_common/Library/StdDriver/src/can.c:253:13
	ldr	r0, __arm_cp.3_0
	ldr	r0, [r0]
	.loc	2 253 32 is_stmt 0              @ ../../CCC_common/Library/StdDriver/src/can.c:253:32
	ldr	r3, [sp]
	.loc	2 253 39                        @ ../../CCC_common/Library/StdDriver/src/can.c:253:39
	adds	r3, r3, #1
	.loc	2 253 29                        @ ../../CCC_common/Library/StdDriver/src/can.c:253:29
	udiv	r0, r0, r3
	.loc	2 253 58                        @ ../../CCC_common/Library/StdDriver/src/can.c:253:58
	ldrb	r1, [r1]
	.loc	2 253 78                        @ ../../CCC_common/Library/StdDriver/src/can.c:253:78
	ldrb	r2, [r2]
	.loc	2 253 66                        @ ../../CCC_common/Library/StdDriver/src/can.c:253:66
	adds	r1, r1, r2
	.loc	2 253 86                        @ ../../CCC_common/Library/StdDriver/src/can.c:253:86
	adds	r1, r1, #3
	.loc	2 253 45                        @ ../../CCC_common/Library/StdDriver/src/can.c:253:45
	udiv	r0, r0, r1
	.loc	2 253 5 epilogue_begin          @ ../../CCC_common/Library/StdDriver/src/can.c:253:5
	add	sp, #16
	bx	lr
.Ltmp22:
	.loc	2 0 5                           @ :0:5
.Ltmp23:
	.p2align	2
@ %bb.1:
__arm_cp.3_0:
	.long	SystemCoreClock
.Lcpi_end1:
	.size	__arm_cp.3_0, .Lcpi_end1-__arm_cp.3_0
.Lfunc_end3:
	.size	CAN_GetCANBitRate, .Lfunc_end3-CAN_GetCANBitRate
	.cfi_endproc
	.cantunwind
	.fnend
                                        @ -- End function
	.section	.text.CAN_EnterTestMode,"ax",%progbits
	.hidden	CAN_EnterTestMode               @ -- Begin function CAN_EnterTestMode
	.globl	CAN_EnterTestMode
	.p2align	1
	.type	CAN_EnterTestMode,%function
	.code	16                              @ @CAN_EnterTestMode
	.thumb_func
CAN_EnterTestMode:
.Lfunc_begin4:
	.loc	2 270 0 is_stmt 1               @ ../../CCC_common/Library/StdDriver/src/can.c:270:0
	.fnstart
	.cfi_startproc
@ %bb.0:
	.pad	#8
	sub	sp, #8
	.cfi_def_cfa_offset 8
                                        @ kill: def $r2 killed $r1
	str	r0, [sp, #4]
	mov	r0, sp
	strb	r1, [r0]
.Ltmp24:
	.loc	2 271 5 prologue_end            @ ../../CCC_common/Library/StdDriver/src/can.c:271:5
	ldr	r2, [sp, #4]
	.loc	2 271 15 is_stmt 0              @ ../../CCC_common/Library/StdDriver/src/can.c:271:15
	ldr	r1, [r2]
	movs	r3, #128
	orrs	r1, r3
	str	r1, [r2]
	.loc	2 272 18 is_stmt 1              @ ../../CCC_common/Library/StdDriver/src/can.c:272:18
	ldrb	r0, [r0]
	.loc	2 272 5 is_stmt 0               @ ../../CCC_common/Library/StdDriver/src/can.c:272:5
	ldr	r1, [sp, #4]
	.loc	2 272 16                        @ ../../CCC_common/Library/StdDriver/src/can.c:272:16
	str	r0, [r1, #20]
	.loc	2 273 1 epilogue_begin is_stmt 1 @ ../../CCC_common/Library/StdDriver/src/can.c:273:1
	add	sp, #8
	bx	lr
.Ltmp25:
.Lfunc_end4:
	.size	CAN_EnterTestMode, .Lfunc_end4-CAN_EnterTestMode
	.cfi_endproc
	.cantunwind
	.fnend
                                        @ -- End function
	.section	.text.CAN_LeaveTestMode,"ax",%progbits
	.hidden	CAN_LeaveTestMode               @ -- Begin function CAN_LeaveTestMode
	.globl	CAN_LeaveTestMode
	.p2align	1
	.type	CAN_LeaveTestMode,%function
	.code	16                              @ @CAN_LeaveTestMode
	.thumb_func
CAN_LeaveTestMode:
.Lfunc_begin5:
	.loc	2 283 0                         @ ../../CCC_common/Library/StdDriver/src/can.c:283:0
	.fnstart
	.cfi_startproc
@ %bb.0:
	.pad	#4
	sub	sp, #4
	.cfi_def_cfa_offset 4
	str	r0, [sp]
.Ltmp26:
	.loc	2 284 5 prologue_end            @ ../../CCC_common/Library/StdDriver/src/can.c:284:5
	ldr	r1, [sp]
	.loc	2 284 15 is_stmt 0              @ ../../CCC_common/Library/StdDriver/src/can.c:284:15
	ldr	r0, [r1]
	movs	r2, #128
	orrs	r0, r2
	str	r0, [r1]
	.loc	2 285 5 is_stmt 1               @ ../../CCC_common/Library/StdDriver/src/can.c:285:5
	ldr	r1, [sp]
	.loc	2 285 16 is_stmt 0              @ ../../CCC_common/Library/StdDriver/src/can.c:285:16
	ldr	r0, [r1, #20]
	movs	r3, #28
	bics	r0, r3
	str	r0, [r1, #20]
	.loc	2 286 5 is_stmt 1               @ ../../CCC_common/Library/StdDriver/src/can.c:286:5
	ldr	r1, [sp]
	.loc	2 286 15 is_stmt 0              @ ../../CCC_common/Library/StdDriver/src/can.c:286:15
	ldr	r0, [r1]
	bics	r0, r2
	str	r0, [r1]
	.loc	2 287 1 epilogue_begin is_stmt 1 @ ../../CCC_common/Library/StdDriver/src/can.c:287:1
	add	sp, #4
	bx	lr
.Ltmp27:
.Lfunc_end5:
	.size	CAN_LeaveTestMode, .Lfunc_end5-CAN_LeaveTestMode
	.cfi_endproc
	.cantunwind
	.fnend
                                        @ -- End function
	.section	.text.CAN_IsNewDataReceived,"ax",%progbits
	.hidden	CAN_IsNewDataReceived           @ -- Begin function CAN_IsNewDataReceived
	.globl	CAN_IsNewDataReceived
	.p2align	1
	.type	CAN_IsNewDataReceived,%function
	.code	16                              @ @CAN_IsNewDataReceived
	.thumb_func
CAN_IsNewDataReceived:
.Lfunc_begin6:
	.loc	2 298 0                         @ ../../CCC_common/Library/StdDriver/src/can.c:298:0
	.fnstart
	.cfi_startproc
@ %bb.0:
	.pad	#12
	sub	sp, #12
	.cfi_def_cfa_offset 12
                                        @ kill: def $r2 killed $r1
	str	r0, [sp, #8]
	add	r0, sp, #4
	strb	r1, [r0]
.Ltmp28:
	.loc	2 301 18 prologue_end           @ ../../CCC_common/Library/StdDriver/src/can.c:301:18
	ldrb	r0, [r0]
.Ltmp29:
	.loc	2 301 8 is_stmt 0               @ ../../CCC_common/Library/StdDriver/src/can.c:301:8
	cmp	r0, #15
	bhi	.LBB6_2
	b	.LBB6_1
.LBB6_1:
.Ltmp30:
	.loc	2 303 15 is_stmt 1              @ ../../CCC_common/Library/StdDriver/src/can.c:303:15
	ldr	r0, [sp, #8]
	movw	r1, #288
	.loc	2 303 21 is_stmt 0              @ ../../CCC_common/Library/StdDriver/src/can.c:303:21
	ldr	r0, [r0, r1]
	add	r1, sp, #4
	.loc	2 303 37                        @ ../../CCC_common/Library/StdDriver/src/can.c:303:37
	ldrb	r2, [r1]
	movs	r1, #1
	.loc	2 303 34                        @ ../../CCC_common/Library/StdDriver/src/can.c:303:34
	lsls	r1, r2
	.loc	2 303 27                        @ ../../CCC_common/Library/StdDriver/src/can.c:303:27
	ands	r0, r1
	.loc	2 303 13                        @ ../../CCC_common/Library/StdDriver/src/can.c:303:13
	str	r0, [sp]
	.loc	2 304 5 is_stmt 1               @ ../../CCC_common/Library/StdDriver/src/can.c:304:5
	b	.LBB6_3
.Ltmp31:
.LBB6_2:
	.loc	2 307 15                        @ ../../CCC_common/Library/StdDriver/src/can.c:307:15
	ldr	r0, [sp, #8]
	movw	r1, #292
	.loc	2 307 21 is_stmt 0              @ ../../CCC_common/Library/StdDriver/src/can.c:307:21
	ldr	r0, [r0, r1]
	add	r1, sp, #4
	.loc	2 307 38                        @ ../../CCC_common/Library/StdDriver/src/can.c:307:38
	ldrb	r2, [r1]
	.loc	2 307 47                        @ ../../CCC_common/Library/StdDriver/src/can.c:307:47
	subs	r2, #16
	movs	r1, #1
	.loc	2 307 34                        @ ../../CCC_common/Library/StdDriver/src/can.c:307:34
	lsls	r1, r2
	.loc	2 307 27                        @ ../../CCC_common/Library/StdDriver/src/can.c:307:27
	ands	r0, r1
	.loc	2 307 13                        @ ../../CCC_common/Library/StdDriver/src/can.c:307:13
	str	r0, [sp]
	b	.LBB6_3
.Ltmp32:
.LBB6_3:
	.loc	2 310 12 is_stmt 1              @ ../../CCC_common/Library/StdDriver/src/can.c:310:12
	ldr	r0, [sp]
	.loc	2 310 5 epilogue_begin is_stmt 0 @ ../../CCC_common/Library/StdDriver/src/can.c:310:5
	add	sp, #12
	bx	lr
.Ltmp33:
.Lfunc_end6:
	.size	CAN_IsNewDataReceived, .Lfunc_end6-CAN_IsNewDataReceived
	.cfi_endproc
	.cantunwind
	.fnend
                                        @ -- End function
	.section	.text.CAN_BasicSendMsg,"ax",%progbits
	.hidden	CAN_BasicSendMsg                @ -- Begin function CAN_BasicSendMsg
	.globl	CAN_BasicSendMsg
	.p2align	2
	.type	CAN_BasicSendMsg,%function
	.code	16                              @ @CAN_BasicSendMsg
	.thumb_func
CAN_BasicSendMsg:
.Lfunc_begin7:
	.loc	2 326 0 is_stmt 1               @ ../../CCC_common/Library/StdDriver/src/can.c:326:0
	.fnstart
	.cfi_startproc
@ %bb.0:
	.pad	#16
	sub	sp, #16
	.cfi_def_cfa_offset 16
	str	r0, [sp, #8]
	str	r1, [sp, #4]
	movs	r0, #0
.Ltmp34:
	.loc	2 327 14 prologue_end           @ ../../CCC_common/Library/StdDriver/src/can.c:327:14
	str	r0, [sp]
	.loc	2 328 5                         @ ../../CCC_common/Library/StdDriver/src/can.c:328:5
	b	.LBB7_1
.LBB7_1:                                @ =>This Inner Loop Header: Depth=1
	.loc	2 328 11 is_stmt 0              @ ../../CCC_common/Library/StdDriver/src/can.c:328:11
	ldr	r0, [sp, #8]
	.loc	2 328 23                        @ ../../CCC_common/Library/StdDriver/src/can.c:328:23
	ldr	r0, [r0, #32]
	.loc	2 328 5                         @ ../../CCC_common/Library/StdDriver/src/can.c:328:5
	lsls	r0, r0, #16
	cmp	r0, #0
	bpl	.LBB7_5
	b	.LBB7_2
.LBB7_2:                                @   in Loop: Header=BB7_1 Depth=1
.Ltmp35:
	.loc	2 330 12 is_stmt 1              @ ../../CCC_common/Library/StdDriver/src/can.c:330:12
	ldr	r0, [sp]
	adds	r0, r0, #1
	str	r0, [sp]
	.loc	2 330 18 is_stmt 0              @ ../../CCC_common/Library/StdDriver/src/can.c:330:18
	ldr	r1, __arm_cp.7_3
	ldr	r1, [r1]
.Ltmp36:
	.loc	2 330 12                        @ ../../CCC_common/Library/StdDriver/src/can.c:330:12
	cmp	r0, r1
	bls	.LBB7_4
	b	.LBB7_3
.LBB7_3:
	.loc	2 0 12                          @ ../../CCC_common/Library/StdDriver/src/can.c:0:12
	movs	r0, #0
	mvns	r0, r0
.Ltmp37:
	.loc	2 330 31                        @ ../../CCC_common/Library/StdDriver/src/can.c:330:31
	str	r0, [sp, #12]
	b	.LBB7_22
.Ltmp38:
.LBB7_4:                                @   in Loop: Header=BB7_1 Depth=1
	.loc	2 328 5 is_stmt 1               @ ../../CCC_common/Library/StdDriver/src/can.c:328:5
	b	.LBB7_1
.LBB7_5:
	.loc	2 333 5                         @ ../../CCC_common/Library/StdDriver/src/can.c:333:5
	ldr	r1, [sp, #8]
	.loc	2 333 18 is_stmt 0              @ ../../CCC_common/Library/StdDriver/src/can.c:333:18
	ldr	r0, [r1, #4]
	movs	r2, #8
	bics	r0, r2
	str	r0, [r1, #4]
.Ltmp39:
	.loc	2 335 8 is_stmt 1               @ ../../CCC_common/Library/StdDriver/src/can.c:335:8
	ldr	r0, [sp, #4]
	.loc	2 335 17 is_stmt 0              @ ../../CCC_common/Library/StdDriver/src/can.c:335:17
	ldr	r0, [r0]
.Ltmp40:
	.loc	2 335 8                         @ ../../CCC_common/Library/StdDriver/src/can.c:335:8
	cbnz	r0, .LBB7_7
	b	.LBB7_6
.LBB7_6:
.Ltmp41:
	.loc	2 338 9 is_stmt 1               @ ../../CCC_common/Library/StdDriver/src/can.c:338:9
	ldr	r1, [sp, #8]
	movs	r0, #0
	.loc	2 338 26 is_stmt 0              @ ../../CCC_common/Library/StdDriver/src/can.c:338:26
	str	r0, [r1, #48]
	.loc	2 339 31 is_stmt 1              @ ../../CCC_common/Library/StdDriver/src/can.c:339:31
	ldr	r0, [sp, #4]
	.loc	2 339 40 is_stmt 0              @ ../../CCC_common/Library/StdDriver/src/can.c:339:40
	ldr	r0, [r0, #8]
	.loc	2 339 55                        @ ../../CCC_common/Library/StdDriver/src/can.c:339:55
	lsls	r0, r0, #21
	lsrs	r0, r0, #19
	.loc	2 339 9                         @ ../../CCC_common/Library/StdDriver/src/can.c:339:9
	ldr	r1, [sp, #8]
	.loc	2 339 26                        @ ../../CCC_common/Library/StdDriver/src/can.c:339:26
	str	r0, [r1, #52]
	.loc	2 340 5 is_stmt 1               @ ../../CCC_common/Library/StdDriver/src/can.c:340:5
	b	.LBB7_8
.Ltmp42:
.LBB7_7:
	.loc	2 344 29                        @ ../../CCC_common/Library/StdDriver/src/can.c:344:29
	ldr	r0, [sp, #4]
	.loc	2 344 38 is_stmt 0              @ ../../CCC_common/Library/StdDriver/src/can.c:344:38
	ldrh	r0, [r0, #8]
	.loc	2 344 9                         @ ../../CCC_common/Library/StdDriver/src/can.c:344:9
	ldr	r1, [sp, #8]
	.loc	2 344 26                        @ ../../CCC_common/Library/StdDriver/src/can.c:344:26
	str	r0, [r1, #48]
	.loc	2 345 31 is_stmt 1              @ ../../CCC_common/Library/StdDriver/src/can.c:345:31
	ldr	r0, [sp, #4]
	.loc	2 345 40 is_stmt 0              @ ../../CCC_common/Library/StdDriver/src/can.c:345:40
	ldr	r0, [r0, #8]
	ldr	r1, __arm_cp.7_0
	.loc	2 345 44                        @ ../../CCC_common/Library/StdDriver/src/can.c:345:44
	ands	r0, r1
	.loc	2 345 60                        @ ../../CCC_common/Library/StdDriver/src/can.c:345:60
	lsrs	r0, r0, #16
	movw	r1, #16384
	.loc	2 345 68                        @ ../../CCC_common/Library/StdDriver/src/can.c:345:68
	adds	r0, r0, r1
	.loc	2 345 9                         @ ../../CCC_common/Library/StdDriver/src/can.c:345:9
	ldr	r1, [sp, #8]
	.loc	2 345 26                        @ ../../CCC_common/Library/StdDriver/src/can.c:345:26
	str	r0, [r1, #52]
	b	.LBB7_8
.Ltmp43:
.LBB7_8:
	.loc	2 349 8 is_stmt 1               @ ../../CCC_common/Library/StdDriver/src/can.c:349:8
	ldr	r0, [sp, #4]
	.loc	2 349 17 is_stmt 0              @ ../../CCC_common/Library/StdDriver/src/can.c:349:17
	ldr	r0, [r0, #4]
.Ltmp44:
	.loc	2 349 8                         @ ../../CCC_common/Library/StdDriver/src/can.c:349:8
	cbz	r0, .LBB7_10
	b	.LBB7_9
.LBB7_9:
.Ltmp45:
	.loc	2 351 9 is_stmt 1               @ ../../CCC_common/Library/StdDriver/src/can.c:351:9
	ldr	r1, [sp, #8]
	.loc	2 351 26 is_stmt 0              @ ../../CCC_common/Library/StdDriver/src/can.c:351:26
	ldr	r0, [r1, #52]
	movw	r2, #8192
	orrs	r0, r2
	str	r0, [r1, #52]
	.loc	2 352 5 is_stmt 1               @ ../../CCC_common/Library/StdDriver/src/can.c:352:5
	b	.LBB7_11
.Ltmp46:
.LBB7_10:
	.loc	2 355 9                         @ ../../CCC_common/Library/StdDriver/src/can.c:355:9
	ldr	r1, [sp, #8]
	.loc	2 355 26 is_stmt 0              @ ../../CCC_common/Library/StdDriver/src/can.c:355:26
	ldr	r0, [r1, #52]
	movw	r2, #8192
	bics	r0, r2
	str	r0, [r1, #52]
	b	.LBB7_11
.Ltmp47:
.LBB7_11:
	.loc	2 358 25 is_stmt 1              @ ../../CCC_common/Library/StdDriver/src/can.c:358:25
	ldr	r0, [sp, #8]
	.loc	2 358 37 is_stmt 0              @ ../../CCC_common/Library/StdDriver/src/can.c:358:37
	ldr	r0, [r0, #56]
	movs	r1, #15
	.loc	2 358 42                        @ ../../CCC_common/Library/StdDriver/src/can.c:358:42
	bics	r0, r1
	.loc	2 358 70                        @ ../../CCC_common/Library/StdDriver/src/can.c:358:70
	ldr	r1, [sp, #4]
	.loc	2 358 79                        @ ../../CCC_common/Library/StdDriver/src/can.c:358:79
	ldrb	r1, [r1, #12]
	.loc	2 358 68                        @ ../../CCC_common/Library/StdDriver/src/can.c:358:68
	orrs	r0, r1
	.loc	2 358 5                         @ ../../CCC_common/Library/StdDriver/src/can.c:358:5
	ldr	r1, [sp, #8]
	.loc	2 358 22                        @ ../../CCC_common/Library/StdDriver/src/can.c:358:22
	str	r0, [r1, #56]
	.loc	2 359 37 is_stmt 1              @ ../../CCC_common/Library/StdDriver/src/can.c:359:37
	ldr	r1, [sp, #4]
	ldrb	r0, [r1, #14]
	.loc	2 359 54 is_stmt 0              @ ../../CCC_common/Library/StdDriver/src/can.c:359:54
	lsls	r0, r0, #8
	.loc	2 359 62                        @ ../../CCC_common/Library/StdDriver/src/can.c:359:62
	ldrb	r1, [r1, #13]
	.loc	2 359 60                        @ ../../CCC_common/Library/StdDriver/src/can.c:359:60
	adds	r0, r0, r1
	.loc	2 359 5                         @ ../../CCC_common/Library/StdDriver/src/can.c:359:5
	ldr	r1, [sp, #8]
	.loc	2 359 24                        @ ../../CCC_common/Library/StdDriver/src/can.c:359:24
	str	r0, [r1, #60]
	.loc	2 360 37 is_stmt 1              @ ../../CCC_common/Library/StdDriver/src/can.c:360:37
	ldr	r1, [sp, #4]
	ldrb	r0, [r1, #16]
	.loc	2 360 54 is_stmt 0              @ ../../CCC_common/Library/StdDriver/src/can.c:360:54
	lsls	r0, r0, #8
	.loc	2 360 62                        @ ../../CCC_common/Library/StdDriver/src/can.c:360:62
	ldrb	r1, [r1, #15]
	.loc	2 360 60                        @ ../../CCC_common/Library/StdDriver/src/can.c:360:60
	adds	r0, r0, r1
	.loc	2 360 5                         @ ../../CCC_common/Library/StdDriver/src/can.c:360:5
	ldr	r1, [sp, #8]
	.loc	2 360 24                        @ ../../CCC_common/Library/StdDriver/src/can.c:360:24
	str	r0, [r1, #64]
	.loc	2 361 37 is_stmt 1              @ ../../CCC_common/Library/StdDriver/src/can.c:361:37
	ldr	r1, [sp, #4]
	ldrb	r0, [r1, #18]
	.loc	2 361 54 is_stmt 0              @ ../../CCC_common/Library/StdDriver/src/can.c:361:54
	lsls	r0, r0, #8
	.loc	2 361 62                        @ ../../CCC_common/Library/StdDriver/src/can.c:361:62
	ldrb	r1, [r1, #17]
	.loc	2 361 60                        @ ../../CCC_common/Library/StdDriver/src/can.c:361:60
	adds	r0, r0, r1
	.loc	2 361 5                         @ ../../CCC_common/Library/StdDriver/src/can.c:361:5
	ldr	r1, [sp, #8]
	.loc	2 361 24                        @ ../../CCC_common/Library/StdDriver/src/can.c:361:24
	str	r0, [r1, #68]
	.loc	2 362 37 is_stmt 1              @ ../../CCC_common/Library/StdDriver/src/can.c:362:37
	ldr	r1, [sp, #4]
	ldrb	r0, [r1, #20]
	.loc	2 362 54 is_stmt 0              @ ../../CCC_common/Library/StdDriver/src/can.c:362:54
	lsls	r0, r0, #8
	.loc	2 362 62                        @ ../../CCC_common/Library/StdDriver/src/can.c:362:62
	ldrb	r1, [r1, #19]
	.loc	2 362 60                        @ ../../CCC_common/Library/StdDriver/src/can.c:362:60
	adds	r0, r0, r1
	.loc	2 362 5                         @ ../../CCC_common/Library/StdDriver/src/can.c:362:5
	ldr	r1, [sp, #8]
	.loc	2 362 24                        @ ../../CCC_common/Library/StdDriver/src/can.c:362:24
	str	r0, [r1, #72]
	.loc	2 365 5 is_stmt 1               @ ../../CCC_common/Library/StdDriver/src/can.c:365:5
	ldr	r1, [sp, #8]
	.loc	2 365 22 is_stmt 0              @ ../../CCC_common/Library/StdDriver/src/can.c:365:22
	ldr	r0, [r1, #32]
	movw	r2, #32768
	bics	r0, r2
	str	r0, [r1, #32]
.Ltmp48:
	.loc	2 366 8 is_stmt 1               @ ../../CCC_common/Library/StdDriver/src/can.c:366:8
	ldr	r0, [sp, #8]
	.loc	2 366 20 is_stmt 0              @ ../../CCC_common/Library/StdDriver/src/can.c:366:20
	ldr	r0, [r0, #32]
.Ltmp49:
	.loc	2 366 8                         @ ../../CCC_common/Library/StdDriver/src/can.c:366:8
	lsls	r0, r0, #16
	cmp	r0, #0
	bpl	.LBB7_13
	b	.LBB7_12
.LBB7_12:
	.loc	2 0 8                           @ ../../CCC_common/Library/StdDriver/src/can.c:0:8
	movs	r0, #0
.Ltmp50:
	.loc	2 369 9 is_stmt 1               @ ../../CCC_common/Library/StdDriver/src/can.c:369:9
	str	r0, [sp, #12]
	b	.LBB7_22
.Ltmp51:
.LBB7_13:
	.loc	2 372 5                         @ ../../CCC_common/Library/StdDriver/src/can.c:372:5
	ldr	r1, [sp, #8]
	.loc	2 372 22 is_stmt 0              @ ../../CCC_common/Library/StdDriver/src/can.c:372:22
	ldr	r0, [r1, #32]
	movw	r2, #32768
	orrs	r0, r2
	str	r0, [r1, #32]
	movs	r0, #0
.Ltmp52:
	.loc	2 374 11 is_stmt 1              @ ../../CCC_common/Library/StdDriver/src/can.c:374:11
	str	r0, [sp]
	.loc	2 374 9 is_stmt 0               @ ../../CCC_common/Library/StdDriver/src/can.c:374:9
	b	.LBB7_14
.LBB7_14:                               @ =>This Inner Loop Header: Depth=1
.Ltmp53:
	.loc	2 374 18                        @ ../../CCC_common/Library/StdDriver/src/can.c:374:18
	ldr	r0, [sp]
	ldr	r1, __arm_cp.7_1
.Ltmp54:
	.loc	2 374 5                         @ ../../CCC_common/Library/StdDriver/src/can.c:374:5
	cmp	r0, r1
	bhi	.LBB7_19
	b	.LBB7_15
.LBB7_15:                               @   in Loop: Header=BB7_14 Depth=1
.Ltmp55:
	.loc	2 376 13 is_stmt 1              @ ../../CCC_common/Library/StdDriver/src/can.c:376:13
	ldr	r0, [sp, #8]
	.loc	2 376 25 is_stmt 0              @ ../../CCC_common/Library/StdDriver/src/can.c:376:25
	ldr	r0, [r0, #32]
.Ltmp56:
	.loc	2 376 12                        @ ../../CCC_common/Library/StdDriver/src/can.c:376:12
	lsls	r0, r0, #16
	cmp	r0, #0
	bmi	.LBB7_17
	b	.LBB7_16
.LBB7_16:
.Ltmp57:
	.loc	2 378 13 is_stmt 1              @ ../../CCC_common/Library/StdDriver/src/can.c:378:13
	b	.LBB7_19
.Ltmp58:
.LBB7_17:                               @   in Loop: Header=BB7_14 Depth=1
	.loc	2 380 5                         @ ../../CCC_common/Library/StdDriver/src/can.c:380:5
	b	.LBB7_18
.Ltmp59:
.LBB7_18:                               @   in Loop: Header=BB7_14 Depth=1
	.loc	2 374 34                        @ ../../CCC_common/Library/StdDriver/src/can.c:374:34
	ldr	r0, [sp]
	adds	r0, r0, #1
	str	r0, [sp]
	.loc	2 374 5 is_stmt 0               @ ../../CCC_common/Library/StdDriver/src/can.c:374:5
	b	.LBB7_14
.Ltmp60:
.LBB7_19:
	.loc	2 382 8 is_stmt 1               @ ../../CCC_common/Library/StdDriver/src/can.c:382:8
	ldr	r0, [sp]
	ldr	r1, __arm_cp.7_2
.Ltmp61:
	.loc	2 382 8 is_stmt 0               @ ../../CCC_common/Library/StdDriver/src/can.c:382:8
	cmp	r0, r1
	blo	.LBB7_21
	b	.LBB7_20
.LBB7_20:
	.loc	2 0 8                           @ ../../CCC_common/Library/StdDriver/src/can.c:0:8
	movs	r0, #0
.Ltmp62:
	.loc	2 385 9 is_stmt 1               @ ../../CCC_common/Library/StdDriver/src/can.c:385:9
	str	r0, [sp, #12]
	b	.LBB7_22
.Ltmp63:
.LBB7_21:
	.loc	2 0 9 is_stmt 0                 @ ../../CCC_common/Library/StdDriver/src/can.c:0:9
	movs	r0, #1
	.loc	2 389 5 is_stmt 1               @ ../../CCC_common/Library/StdDriver/src/can.c:389:5
	str	r0, [sp, #12]
	b	.LBB7_22
.LBB7_22:
	.loc	2 390 1                         @ ../../CCC_common/Library/StdDriver/src/can.c:390:1
	ldr	r0, [sp, #12]
	.loc	2 390 1 epilogue_begin is_stmt 0 @ ../../CCC_common/Library/StdDriver/src/can.c:390:1
	add	sp, #16
	bx	lr
.Ltmp64:
	.loc	2 0 1                           @ :0:1
.Ltmp65:
	.p2align	2
@ %bb.23:
__arm_cp.7_0:
	.long	536805376                       @ 0x1fff0000
.Lcpi_end2:
	.size	__arm_cp.7_0, .Lcpi_end2-__arm_cp.7_0
__arm_cp.7_1:
	.long	1048574                         @ 0xffffe
.Lcpi_end3:
	.size	__arm_cp.7_1, .Lcpi_end3-__arm_cp.7_1
__arm_cp.7_2:
	.long	1048575                         @ 0xfffff
.Lcpi_end4:
	.size	__arm_cp.7_2, .Lcpi_end4-__arm_cp.7_2
__arm_cp.7_3:
	.long	SystemCoreClock
.Lcpi_end5:
	.size	__arm_cp.7_3, .Lcpi_end5-__arm_cp.7_3
.Lfunc_end7:
	.size	CAN_BasicSendMsg, .Lfunc_end7-CAN_BasicSendMsg
	.cfi_endproc
	.cantunwind
	.fnend
                                        @ -- End function
	.section	.text.CAN_BasicReceiveMsg,"ax",%progbits
	.hidden	CAN_BasicReceiveMsg             @ -- Begin function CAN_BasicReceiveMsg
	.globl	CAN_BasicReceiveMsg
	.p2align	1
	.type	CAN_BasicReceiveMsg,%function
	.code	16                              @ @CAN_BasicReceiveMsg
	.thumb_func
CAN_BasicReceiveMsg:
.Lfunc_begin8:
	.loc	2 403 0 is_stmt 1               @ ../../CCC_common/Library/StdDriver/src/can.c:403:0
	.fnstart
	.cfi_startproc
@ %bb.0:
	.pad	#12
	sub	sp, #12
	.cfi_def_cfa_offset 12
	str	r0, [sp, #4]
	str	r1, [sp]
.Ltmp66:
	.loc	2 405 9 prologue_end            @ ../../CCC_common/Library/StdDriver/src/can.c:405:9
	ldr	r0, [sp, #4]
	movs	r1, #152
	.loc	2 405 21 is_stmt 0              @ ../../CCC_common/Library/StdDriver/src/can.c:405:21
	ldr	r0, [r0, r1]
.Ltmp67:
	.loc	2 405 8                         @ ../../CCC_common/Library/StdDriver/src/can.c:405:8
	lsls	r0, r0, #16
	cmp	r0, #0
	bmi	.LBB8_2
	b	.LBB8_1
.LBB8_1:
	.loc	2 0 8                           @ ../../CCC_common/Library/StdDriver/src/can.c:0:8
	movs	r0, #0
.Ltmp68:
	.loc	2 407 9 is_stmt 1               @ ../../CCC_common/Library/StdDriver/src/can.c:407:9
	str	r0, [sp, #8]
	b	.LBB8_6
.Ltmp69:
.LBB8_2:
	.loc	2 410 5                         @ ../../CCC_common/Library/StdDriver/src/can.c:410:5
	ldr	r1, [sp, #4]
	.loc	2 410 18 is_stmt 0              @ ../../CCC_common/Library/StdDriver/src/can.c:410:18
	ldr	r0, [r1, #4]
	movs	r2, #16
	bics	r0, r2
	str	r0, [r1, #4]
	.loc	2 412 5 is_stmt 1               @ ../../CCC_common/Library/StdDriver/src/can.c:412:5
	ldr	r1, [sp, #4]
	movs	r2, #132
	movs	r0, #51
	.loc	2 412 23 is_stmt 0              @ ../../CCC_common/Library/StdDriver/src/can.c:412:23
	str	r0, [r1, r2]
.Ltmp70:
	.loc	2 417 9 is_stmt 1               @ ../../CCC_common/Library/StdDriver/src/can.c:417:9
	ldr	r0, [sp, #4]
	movs	r1, #148
	.loc	2 417 21 is_stmt 0              @ ../../CCC_common/Library/StdDriver/src/can.c:417:21
	ldr	r0, [r0, r1]
.Ltmp71:
	.loc	2 417 8                         @ ../../CCC_common/Library/StdDriver/src/can.c:417:8
	lsls	r0, r0, #17
	cmp	r0, #0
	bmi	.LBB8_4
	b	.LBB8_3
.LBB8_3:
.Ltmp72:
	.loc	2 420 9 is_stmt 1               @ ../../CCC_common/Library/StdDriver/src/can.c:420:9
	ldr	r1, [sp]
	movs	r0, #0
	.loc	2 420 25 is_stmt 0              @ ../../CCC_common/Library/StdDriver/src/can.c:420:25
	str	r0, [r1]
	.loc	2 421 24 is_stmt 1              @ ../../CCC_common/Library/StdDriver/src/can.c:421:24
	ldr	r0, [sp, #4]
	movs	r1, #148
	.loc	2 421 36 is_stmt 0              @ ../../CCC_common/Library/StdDriver/src/can.c:421:36
	ldr	r0, [r0, r1]
	.loc	2 421 47                        @ ../../CCC_common/Library/StdDriver/src/can.c:421:47
	lsls	r0, r0, #19
	lsrs	r0, r0, #21
	.loc	2 421 9                         @ ../../CCC_common/Library/StdDriver/src/can.c:421:9
	ldr	r1, [sp]
	.loc	2 421 21                        @ ../../CCC_common/Library/StdDriver/src/can.c:421:21
	str	r0, [r1, #8]
	.loc	2 423 5 is_stmt 1               @ ../../CCC_common/Library/StdDriver/src/can.c:423:5
	b	.LBB8_5
.Ltmp73:
.LBB8_4:
	.loc	2 427 9                         @ ../../CCC_common/Library/StdDriver/src/can.c:427:9
	ldr	r1, [sp]
	movs	r0, #1
	.loc	2 427 25 is_stmt 0              @ ../../CCC_common/Library/StdDriver/src/can.c:427:25
	str	r0, [r1]
	.loc	2 428 25 is_stmt 1              @ ../../CCC_common/Library/StdDriver/src/can.c:428:25
	ldr	r0, [sp, #4]
	movs	r1, #148
	.loc	2 428 37 is_stmt 0              @ ../../CCC_common/Library/StdDriver/src/can.c:428:37
	ldr	r0, [r0, r1]
	.loc	2 428 54                        @ ../../CCC_common/Library/StdDriver/src/can.c:428:54
	lsls	r0, r0, #19
	lsrs	r0, r0, #3
	.loc	2 428 9                         @ ../../CCC_common/Library/StdDriver/src/can.c:428:9
	ldr	r1, [sp]
	.loc	2 428 22                        @ ../../CCC_common/Library/StdDriver/src/can.c:428:22
	str	r0, [r1, #8]
	.loc	2 429 34 is_stmt 1              @ ../../CCC_common/Library/StdDriver/src/can.c:429:34
	ldr	r0, [sp, #4]
	movs	r1, #144
	.loc	2 429 46 is_stmt 0              @ ../../CCC_common/Library/StdDriver/src/can.c:429:46
	ldr	r2, [r0, r1]
	.loc	2 429 9                         @ ../../CCC_common/Library/StdDriver/src/can.c:429:9
	ldr	r1, [sp]
	.loc	2 429 21                        @ ../../CCC_common/Library/StdDriver/src/can.c:429:21
	ldr	r0, [r1, #8]
	orrs	r0, r2
	str	r0, [r1, #8]
	b	.LBB8_5
.Ltmp74:
.LBB8_5:
	.loc	2 436 27 is_stmt 1              @ ../../CCC_common/Library/StdDriver/src/can.c:436:27
	ldr	r0, [sp, #4]
	movs	r1, #148
	.loc	2 436 39 is_stmt 0              @ ../../CCC_common/Library/StdDriver/src/can.c:436:39
	ldr	r0, [r0, r1]
	movw	r1, #8192
	.loc	2 436 44                        @ ../../CCC_common/Library/StdDriver/src/can.c:436:44
	ands	r0, r1
	.loc	2 436 26                        @ ../../CCC_common/Library/StdDriver/src/can.c:436:26
	rsbs	r1, r0, #0
	adcs	r0, r1
	.loc	2 436 5                         @ ../../CCC_common/Library/StdDriver/src/can.c:436:5
	ldr	r1, [sp]
	.loc	2 436 24                        @ ../../CCC_common/Library/StdDriver/src/can.c:436:24
	str	r0, [r1, #4]
	.loc	2 438 34 is_stmt 1              @ ../../CCC_common/Library/StdDriver/src/can.c:438:34
	ldr	r0, [sp, #4]
	movs	r1, #152
	.loc	2 438 46 is_stmt 0              @ ../../CCC_common/Library/StdDriver/src/can.c:438:46
	ldr	r0, [r0, r1]
	movs	r1, #15
	.loc	2 438 51                        @ ../../CCC_common/Library/StdDriver/src/can.c:438:51
	ands	r0, r1
	.loc	2 438 5                         @ ../../CCC_common/Library/StdDriver/src/can.c:438:5
	ldr	r1, [sp]
	.loc	2 438 22                        @ ../../CCC_common/Library/StdDriver/src/can.c:438:22
	strb	r0, [r1, #12]
	.loc	2 439 34 is_stmt 1              @ ../../CCC_common/Library/StdDriver/src/can.c:439:34
	ldr	r0, [sp, #4]
	movs	r1, #156
	.loc	2 439 46 is_stmt 0              @ ../../CCC_common/Library/StdDriver/src/can.c:439:46
	ldr	r0, [r0, r1]
	.loc	2 439 5                         @ ../../CCC_common/Library/StdDriver/src/can.c:439:5
	ldr	r2, [sp]
	.loc	2 439 22                        @ ../../CCC_common/Library/StdDriver/src/can.c:439:22
	strb	r0, [r2, #13]
	.loc	2 440 35 is_stmt 1              @ ../../CCC_common/Library/StdDriver/src/can.c:440:35
	ldr	r0, [sp, #4]
	.loc	2 440 47 is_stmt 0              @ ../../CCC_common/Library/StdDriver/src/can.c:440:47
	ldr	r0, [r0, r1]
	.loc	2 440 81                        @ ../../CCC_common/Library/StdDriver/src/can.c:440:81
	lsrs	r0, r0, #8
	.loc	2 440 5                         @ ../../CCC_common/Library/StdDriver/src/can.c:440:5
	ldr	r1, [sp]
	.loc	2 440 22                        @ ../../CCC_common/Library/StdDriver/src/can.c:440:22
	strb	r0, [r1, #14]
	.loc	2 441 34 is_stmt 1              @ ../../CCC_common/Library/StdDriver/src/can.c:441:34
	ldr	r0, [sp, #4]
	movs	r1, #160
	.loc	2 441 46 is_stmt 0              @ ../../CCC_common/Library/StdDriver/src/can.c:441:46
	ldr	r0, [r0, r1]
	.loc	2 441 5                         @ ../../CCC_common/Library/StdDriver/src/can.c:441:5
	ldr	r2, [sp]
	.loc	2 441 22                        @ ../../CCC_common/Library/StdDriver/src/can.c:441:22
	strb	r0, [r2, #15]
	.loc	2 442 35 is_stmt 1              @ ../../CCC_common/Library/StdDriver/src/can.c:442:35
	ldr	r0, [sp, #4]
	.loc	2 442 47 is_stmt 0              @ ../../CCC_common/Library/StdDriver/src/can.c:442:47
	ldr	r0, [r0, r1]
	.loc	2 442 81                        @ ../../CCC_common/Library/StdDriver/src/can.c:442:81
	lsrs	r0, r0, #8
	.loc	2 442 5                         @ ../../CCC_common/Library/StdDriver/src/can.c:442:5
	ldr	r1, [sp]
	.loc	2 442 22                        @ ../../CCC_common/Library/StdDriver/src/can.c:442:22
	strb	r0, [r1, #16]
	.loc	2 443 34 is_stmt 1              @ ../../CCC_common/Library/StdDriver/src/can.c:443:34
	ldr	r0, [sp, #4]
	movs	r1, #164
	.loc	2 443 46 is_stmt 0              @ ../../CCC_common/Library/StdDriver/src/can.c:443:46
	ldr	r0, [r0, r1]
	.loc	2 443 5                         @ ../../CCC_common/Library/StdDriver/src/can.c:443:5
	ldr	r2, [sp]
	.loc	2 443 22                        @ ../../CCC_common/Library/StdDriver/src/can.c:443:22
	strb	r0, [r2, #17]
	.loc	2 444 35 is_stmt 1              @ ../../CCC_common/Library/StdDriver/src/can.c:444:35
	ldr	r0, [sp, #4]
	.loc	2 444 47 is_stmt 0              @ ../../CCC_common/Library/StdDriver/src/can.c:444:47
	ldr	r0, [r0, r1]
	.loc	2 444 81                        @ ../../CCC_common/Library/StdDriver/src/can.c:444:81
	lsrs	r0, r0, #8
	.loc	2 444 5                         @ ../../CCC_common/Library/StdDriver/src/can.c:444:5
	ldr	r1, [sp]
	.loc	2 444 22                        @ ../../CCC_common/Library/StdDriver/src/can.c:444:22
	strb	r0, [r1, #18]
	.loc	2 445 34 is_stmt 1              @ ../../CCC_common/Library/StdDriver/src/can.c:445:34
	ldr	r0, [sp, #4]
	movs	r1, #168
	.loc	2 445 46 is_stmt 0              @ ../../CCC_common/Library/StdDriver/src/can.c:445:46
	ldr	r0, [r0, r1]
	.loc	2 445 5                         @ ../../CCC_common/Library/StdDriver/src/can.c:445:5
	ldr	r2, [sp]
	.loc	2 445 22                        @ ../../CCC_common/Library/StdDriver/src/can.c:445:22
	strb	r0, [r2, #19]
	.loc	2 446 35 is_stmt 1              @ ../../CCC_common/Library/StdDriver/src/can.c:446:35
	ldr	r0, [sp, #4]
	.loc	2 446 47 is_stmt 0              @ ../../CCC_common/Library/StdDriver/src/can.c:446:47
	ldr	r0, [r0, r1]
	.loc	2 446 81                        @ ../../CCC_common/Library/StdDriver/src/can.c:446:81
	lsrs	r0, r0, #8
	.loc	2 446 5                         @ ../../CCC_common/Library/StdDriver/src/can.c:446:5
	ldr	r1, [sp]
	.loc	2 446 22                        @ ../../CCC_common/Library/StdDriver/src/can.c:446:22
	strb	r0, [r1, #20]
	movs	r0, #1
	.loc	2 448 5 is_stmt 1               @ ../../CCC_common/Library/StdDriver/src/can.c:448:5
	str	r0, [sp, #8]
	b	.LBB8_6
.LBB8_6:
	.loc	2 449 1                         @ ../../CCC_common/Library/StdDriver/src/can.c:449:1
	ldr	r0, [sp, #8]
	.loc	2 449 1 epilogue_begin is_stmt 0 @ ../../CCC_common/Library/StdDriver/src/can.c:449:1
	add	sp, #12
	bx	lr
.Ltmp75:
.Lfunc_end8:
	.size	CAN_BasicReceiveMsg, .Lfunc_end8-CAN_BasicReceiveMsg
	.cfi_endproc
	.cantunwind
	.fnend
                                        @ -- End function
	.section	.text.CAN_SetRxMsgObjAndMsk,"ax",%progbits
	.hidden	CAN_SetRxMsgObjAndMsk           @ -- Begin function CAN_SetRxMsgObjAndMsk
	.globl	CAN_SetRxMsgObjAndMsk
	.p2align	2
	.type	CAN_SetRxMsgObjAndMsk,%function
	.code	16                              @ @CAN_SetRxMsgObjAndMsk
	.thumb_func
CAN_SetRxMsgObjAndMsk:
.Lfunc_begin9:
	.loc	2 470 0 is_stmt 1               @ ../../CCC_common/Library/StdDriver/src/can.c:470:0
	.fnstart
	.cfi_startproc
@ %bb.0:
	.save	{r4, r5, r6, lr}
	push	{r4, r5, r6, lr}
	.cfi_def_cfa_offset 16
	.cfi_offset lr, -4
	.cfi_offset r6, -8
	.cfi_offset r5, -12
	.cfi_offset r4, -16
	.pad	#32
	sub	sp, #32
	.cfi_def_cfa_offset 48
	mov	r4, r0
	ldr	r0, [sp, #52]
	ldr	r5, [sp, #48]
                                        @ kill: def $r5 killed $r2
                                        @ kill: def $r5 killed $r1
	str	r4, [sp, #24]
	add	r4, sp, #20
	strb	r1, [r4]
	add	r1, sp, #16
	strb	r2, [r1]
	str	r3, [sp, #12]
	add	r1, sp, #8
	strb	r0, [r1]
.Ltmp76:
	.loc	2 474 41 prologue_end           @ ../../CCC_common/Library/StdDriver/src/can.c:474:41
	ldr	r0, [sp, #24]
	.loc	2 474 31 is_stmt 0              @ ../../CCC_common/Library/StdDriver/src/can.c:474:31
	bl	LockIF_TL
	mov	r1, r0
	.loc	2 474 22                        @ ../../CCC_common/Library/StdDriver/src/can.c:474:22
	uxtb	r0, r1
	add	r2, sp, #4
	.loc	2 474 20                        @ ../../CCC_common/Library/StdDriver/src/can.c:474:20
	strb	r1, [r2]
.Ltmp77:
	.loc	2 474 8                         @ ../../CCC_common/Library/StdDriver/src/can.c:474:8
	cmp	r0, #2
	bne	.LBB9_2
	b	.LBB9_1
.LBB9_1:
	.loc	2 0 8                           @ ../../CCC_common/Library/StdDriver/src/can.c:0:8
	movs	r0, #0
.Ltmp78:
	.loc	2 476 9 is_stmt 1               @ ../../CCC_common/Library/StdDriver/src/can.c:476:9
	str	r0, [sp, #28]
	b	.LBB9_9
.Ltmp79:
.LBB9_2:
	.loc	2 480 5                         @ ../../CCC_common/Library/StdDriver/src/can.c:480:5
	ldr	r0, [sp, #24]
	add	r1, sp, #4
	.loc	2 480 14 is_stmt 0              @ ../../CCC_common/Library/StdDriver/src/can.c:480:14
	ldrb	r2, [r1]
	movs	r1, #96
	.loc	2 480 5                         @ ../../CCC_common/Library/StdDriver/src/can.c:480:5
	muls	r1, r2, r1
	.loc	2 480 11                        @ ../../CCC_common/Library/StdDriver/src/can.c:480:11
	adds	r1, r0, r1
	movs	r0, #243
	.loc	2 480 32                        @ ../../CCC_common/Library/StdDriver/src/can.c:480:32
	str	r0, [r1, #36]
	add	r0, sp, #16
.Ltmp80:
	.loc	2 483 8 is_stmt 1               @ ../../CCC_common/Library/StdDriver/src/can.c:483:8
	ldrb	r0, [r0]
.Ltmp81:
	.loc	2 483 8 is_stmt 0               @ ../../CCC_common/Library/StdDriver/src/can.c:483:8
	cbnz	r0, .LBB9_4
	b	.LBB9_3
.LBB9_3:
.Ltmp82:
	.loc	2 485 9 is_stmt 1               @ ../../CCC_common/Library/StdDriver/src/can.c:485:9
	ldr	r0, [sp, #24]
	add	r3, sp, #4
	.loc	2 485 18 is_stmt 0              @ ../../CCC_common/Library/StdDriver/src/can.c:485:18
	ldrb	r4, [r3]
	movs	r2, #96
	.loc	2 485 9                         @ ../../CCC_common/Library/StdDriver/src/can.c:485:9
	mov	r1, r2
	muls	r1, r4, r1
	.loc	2 485 15                        @ ../../CCC_common/Library/StdDriver/src/can.c:485:15
	adds	r1, r0, r1
	movs	r0, #0
	.loc	2 485 35                        @ ../../CCC_common/Library/StdDriver/src/can.c:485:35
	str	r0, [r1, #48]
	.loc	2 486 63 is_stmt 1              @ ../../CCC_common/Library/StdDriver/src/can.c:486:63
	ldr	r0, [sp, #12]
	.loc	2 486 80 is_stmt 0              @ ../../CCC_common/Library/StdDriver/src/can.c:486:80
	lsls	r0, r0, #21
	lsrs	r0, r0, #19
	movw	r1, #32768
	.loc	2 486 60                        @ ../../CCC_common/Library/StdDriver/src/can.c:486:60
	adds	r0, r0, r1
	.loc	2 486 9                         @ ../../CCC_common/Library/StdDriver/src/can.c:486:9
	ldr	r1, [sp, #24]
	.loc	2 486 18                        @ ../../CCC_common/Library/StdDriver/src/can.c:486:18
	ldrb	r3, [r3]
	.loc	2 486 9                         @ ../../CCC_common/Library/StdDriver/src/can.c:486:9
	muls	r2, r3, r2
	.loc	2 486 15                        @ ../../CCC_common/Library/StdDriver/src/can.c:486:15
	adds	r1, r1, r2
	.loc	2 486 35                        @ ../../CCC_common/Library/StdDriver/src/can.c:486:35
	str	r0, [r1, #52]
	.loc	2 487 5 is_stmt 1               @ ../../CCC_common/Library/StdDriver/src/can.c:487:5
	b	.LBB9_5
.Ltmp83:
.LBB9_4:
	.loc	2 0 5 is_stmt 0                 @ ../../CCC_common/Library/StdDriver/src/can.c:0:5
	add	r0, sp, #12
.Ltmp84:
	.loc	2 490 37 is_stmt 1              @ ../../CCC_common/Library/StdDriver/src/can.c:490:37
	ldrh	r0, [r0]
	.loc	2 490 9 is_stmt 0               @ ../../CCC_common/Library/StdDriver/src/can.c:490:9
	ldr	r1, [sp, #24]
	add	r3, sp, #4
	.loc	2 490 18                        @ ../../CCC_common/Library/StdDriver/src/can.c:490:18
	ldrb	r5, [r3]
	movs	r2, #96
	.loc	2 490 9                         @ ../../CCC_common/Library/StdDriver/src/can.c:490:9
	mov	r4, r2
	muls	r4, r5, r4
	.loc	2 490 15                        @ ../../CCC_common/Library/StdDriver/src/can.c:490:15
	adds	r1, r1, r4
	.loc	2 490 35                        @ ../../CCC_common/Library/StdDriver/src/can.c:490:35
	str	r0, [r1, #48]
	.loc	2 491 85 is_stmt 1              @ ../../CCC_common/Library/StdDriver/src/can.c:491:85
	ldr	r0, [sp, #12]
	ldr	r1, __arm_cp.9_0
	.loc	2 491 91 is_stmt 0              @ ../../CCC_common/Library/StdDriver/src/can.c:491:91
	ands	r0, r1
	.loc	2 491 107                       @ ../../CCC_common/Library/StdDriver/src/can.c:491:107
	lsrs	r0, r0, #16
	movw	r1, #49152
	.loc	2 491 82                        @ ../../CCC_common/Library/StdDriver/src/can.c:491:82
	adds	r0, r0, r1
	.loc	2 491 9                         @ ../../CCC_common/Library/StdDriver/src/can.c:491:9
	ldr	r1, [sp, #24]
	.loc	2 491 18                        @ ../../CCC_common/Library/StdDriver/src/can.c:491:18
	ldrb	r3, [r3]
	.loc	2 491 9                         @ ../../CCC_common/Library/StdDriver/src/can.c:491:9
	muls	r2, r3, r2
	.loc	2 491 15                        @ ../../CCC_common/Library/StdDriver/src/can.c:491:15
	adds	r1, r1, r2
	.loc	2 491 35                        @ ../../CCC_common/Library/StdDriver/src/can.c:491:35
	str	r0, [r1, #52]
	b	.LBB9_5
.Ltmp85:
.LBB9_5:
	.loc	2 0 35                          @ ../../CCC_common/Library/StdDriver/src/can.c:0:35
	add	r0, sp, #48
	.loc	2 494 35 is_stmt 1              @ ../../CCC_common/Library/StdDriver/src/can.c:494:35
	ldrh	r3, [r0]
	.loc	2 494 5 is_stmt 0               @ ../../CCC_common/Library/StdDriver/src/can.c:494:5
	ldr	r4, [sp, #24]
	add	r2, sp, #4
	.loc	2 494 14                        @ ../../CCC_common/Library/StdDriver/src/can.c:494:14
	ldrb	r6, [r2]
	movs	r1, #96
	.loc	2 494 5                         @ ../../CCC_common/Library/StdDriver/src/can.c:494:5
	mov	r5, r1
	muls	r5, r6, r5
	.loc	2 494 11                        @ ../../CCC_common/Library/StdDriver/src/can.c:494:11
	adds	r4, r4, r5
	.loc	2 494 32                        @ ../../CCC_common/Library/StdDriver/src/can.c:494:32
	str	r3, [r4, #40]
	.loc	2 495 35 is_stmt 1              @ ../../CCC_common/Library/StdDriver/src/can.c:495:35
	ldrh	r0, [r0, #2]
	.loc	2 495 5 is_stmt 0               @ ../../CCC_common/Library/StdDriver/src/can.c:495:5
	ldr	r3, [sp, #24]
	.loc	2 495 14                        @ ../../CCC_common/Library/StdDriver/src/can.c:495:14
	ldrb	r5, [r2]
	.loc	2 495 5                         @ ../../CCC_common/Library/StdDriver/src/can.c:495:5
	mov	r4, r1
	muls	r4, r5, r4
	.loc	2 495 11                        @ ../../CCC_common/Library/StdDriver/src/can.c:495:11
	adds	r3, r3, r4
	.loc	2 495 32                        @ ../../CCC_common/Library/StdDriver/src/can.c:495:32
	str	r0, [r3, #44]
	.loc	2 498 5 is_stmt 1               @ ../../CCC_common/Library/StdDriver/src/can.c:498:5
	ldr	r0, [sp, #24]
	.loc	2 498 14 is_stmt 0              @ ../../CCC_common/Library/StdDriver/src/can.c:498:14
	ldrb	r2, [r2]
	.loc	2 498 5                         @ ../../CCC_common/Library/StdDriver/src/can.c:498:5
	muls	r1, r2, r1
	.loc	2 498 11                        @ ../../CCC_common/Library/StdDriver/src/can.c:498:11
	adds	r1, r0, r1
	movw	r0, #5120
	.loc	2 498 31                        @ ../../CCC_common/Library/StdDriver/src/can.c:498:31
	str	r0, [r1, #56]
	add	r0, sp, #8
.Ltmp86:
	.loc	2 499 8 is_stmt 1               @ ../../CCC_common/Library/StdDriver/src/can.c:499:8
	ldrb	r0, [r0]
.Ltmp87:
	.loc	2 499 8 is_stmt 0               @ ../../CCC_common/Library/StdDriver/src/can.c:499:8
	cbz	r0, .LBB9_7
	b	.LBB9_6
.LBB9_6:
.Ltmp88:
	.loc	2 501 9 is_stmt 1               @ ../../CCC_common/Library/StdDriver/src/can.c:501:9
	ldr	r0, [sp, #24]
	add	r1, sp, #4
	.loc	2 501 18 is_stmt 0              @ ../../CCC_common/Library/StdDriver/src/can.c:501:18
	ldrb	r2, [r1]
	movs	r1, #96
	.loc	2 501 9                         @ ../../CCC_common/Library/StdDriver/src/can.c:501:9
	muls	r1, r2, r1
	.loc	2 501 15                        @ ../../CCC_common/Library/StdDriver/src/can.c:501:15
	adds	r1, r0, r1
	.loc	2 501 35                        @ ../../CCC_common/Library/StdDriver/src/can.c:501:35
	ldr	r0, [r1, #56]
	movs	r2, #128
	orrs	r0, r2
	str	r0, [r1, #56]
	.loc	2 502 5 is_stmt 1               @ ../../CCC_common/Library/StdDriver/src/can.c:502:5
	b	.LBB9_8
.Ltmp89:
.LBB9_7:
	.loc	2 505 9                         @ ../../CCC_common/Library/StdDriver/src/can.c:505:9
	ldr	r0, [sp, #24]
	add	r1, sp, #4
	.loc	2 505 18 is_stmt 0              @ ../../CCC_common/Library/StdDriver/src/can.c:505:18
	ldrb	r2, [r1]
	movs	r1, #96
	.loc	2 505 9                         @ ../../CCC_common/Library/StdDriver/src/can.c:505:9
	muls	r1, r2, r1
	.loc	2 505 15                        @ ../../CCC_common/Library/StdDriver/src/can.c:505:15
	adds	r1, r0, r1
	.loc	2 505 35                        @ ../../CCC_common/Library/StdDriver/src/can.c:505:35
	ldr	r0, [r1, #56]
	movs	r2, #128
	bics	r0, r2
	str	r0, [r1, #56]
	b	.LBB9_8
.Ltmp90:
.LBB9_8:
	.loc	2 508 5 is_stmt 1               @ ../../CCC_common/Library/StdDriver/src/can.c:508:5
	ldr	r0, [sp, #24]
	add	r1, sp, #4
	.loc	2 508 14 is_stmt 0              @ ../../CCC_common/Library/StdDriver/src/can.c:508:14
	ldrb	r4, [r1]
	movs	r3, #96
	.loc	2 508 5                         @ ../../CCC_common/Library/StdDriver/src/can.c:508:5
	mov	r2, r3
	muls	r2, r4, r2
	.loc	2 508 11                        @ ../../CCC_common/Library/StdDriver/src/can.c:508:11
	adds	r2, r0, r2
	movs	r0, #0
	.loc	2 508 34                        @ ../../CCC_common/Library/StdDriver/src/can.c:508:34
	str	r0, [r2, #60]
	.loc	2 509 5 is_stmt 1               @ ../../CCC_common/Library/StdDriver/src/can.c:509:5
	ldr	r2, [sp, #24]
	.loc	2 509 14 is_stmt 0              @ ../../CCC_common/Library/StdDriver/src/can.c:509:14
	ldrb	r5, [r1]
	.loc	2 509 5                         @ ../../CCC_common/Library/StdDriver/src/can.c:509:5
	mov	r4, r3
	muls	r4, r5, r4
	.loc	2 509 11                        @ ../../CCC_common/Library/StdDriver/src/can.c:509:11
	adds	r2, r2, r4
	.loc	2 509 34                        @ ../../CCC_common/Library/StdDriver/src/can.c:509:34
	str	r0, [r2, #64]
	.loc	2 510 5 is_stmt 1               @ ../../CCC_common/Library/StdDriver/src/can.c:510:5
	ldr	r2, [sp, #24]
	.loc	2 510 14 is_stmt 0              @ ../../CCC_common/Library/StdDriver/src/can.c:510:14
	ldrb	r5, [r1]
	.loc	2 510 5                         @ ../../CCC_common/Library/StdDriver/src/can.c:510:5
	mov	r4, r3
	muls	r4, r5, r4
	.loc	2 510 11                        @ ../../CCC_common/Library/StdDriver/src/can.c:510:11
	adds	r2, r2, r4
	.loc	2 510 34                        @ ../../CCC_common/Library/StdDriver/src/can.c:510:34
	str	r0, [r2, #68]
	.loc	2 511 5 is_stmt 1               @ ../../CCC_common/Library/StdDriver/src/can.c:511:5
	ldr	r2, [sp, #24]
	.loc	2 511 14 is_stmt 0              @ ../../CCC_common/Library/StdDriver/src/can.c:511:14
	ldrb	r5, [r1]
	.loc	2 511 5                         @ ../../CCC_common/Library/StdDriver/src/can.c:511:5
	mov	r4, r3
	muls	r4, r5, r4
	.loc	2 511 11                        @ ../../CCC_common/Library/StdDriver/src/can.c:511:11
	adds	r2, r2, r4
	.loc	2 511 34                        @ ../../CCC_common/Library/StdDriver/src/can.c:511:34
	str	r0, [r2, #72]
	add	r0, sp, #20
	.loc	2 513 39 is_stmt 1              @ ../../CCC_common/Library/StdDriver/src/can.c:513:39
	ldrb	r0, [r0]
	.loc	2 513 37 is_stmt 0              @ ../../CCC_common/Library/StdDriver/src/can.c:513:37
	adds	r0, r0, #1
	.loc	2 513 5                         @ ../../CCC_common/Library/StdDriver/src/can.c:513:5
	ldr	r2, [sp, #24]
	.loc	2 513 14                        @ ../../CCC_common/Library/StdDriver/src/can.c:513:14
	ldrb	r4, [r1]
	.loc	2 513 5                         @ ../../CCC_common/Library/StdDriver/src/can.c:513:5
	muls	r3, r4, r3
	.loc	2 513 11                        @ ../../CCC_common/Library/StdDriver/src/can.c:513:11
	adds	r2, r2, r3
	.loc	2 513 31                        @ ../../CCC_common/Library/StdDriver/src/can.c:513:31
	str	r0, [r2, #32]
	.loc	2 514 15 is_stmt 1              @ ../../CCC_common/Library/StdDriver/src/can.c:514:15
	ldr	r0, [sp, #24]
	.loc	2 514 31 is_stmt 0              @ ../../CCC_common/Library/StdDriver/src/can.c:514:31
	ldrb	r1, [r1]
	.loc	2 514 5                         @ ../../CCC_common/Library/StdDriver/src/can.c:514:5
	bl	ReleaseIF
	movs	r0, #1
	.loc	2 516 5 is_stmt 1               @ ../../CCC_common/Library/StdDriver/src/can.c:516:5
	str	r0, [sp, #28]
	b	.LBB9_9
.LBB9_9:
	.loc	2 517 1                         @ ../../CCC_common/Library/StdDriver/src/can.c:517:1
	ldr	r0, [sp, #28]
	.loc	2 517 1 epilogue_begin is_stmt 0 @ ../../CCC_common/Library/StdDriver/src/can.c:517:1
	add	sp, #32
	pop	{r4, r5, r6, pc}
.Ltmp91:
	.loc	2 0 1                           @ :0:1
.Ltmp92:
	.p2align	2
@ %bb.10:
__arm_cp.9_0:
	.long	536805376                       @ 0x1fff0000
.Lcpi_end6:
	.size	__arm_cp.9_0, .Lcpi_end6-__arm_cp.9_0
.Lfunc_end9:
	.size	CAN_SetRxMsgObjAndMsk, .Lfunc_end9-CAN_SetRxMsgObjAndMsk
	.cfi_endproc
	.cantunwind
	.fnend
                                        @ -- End function
	.section	.text.LockIF_TL,"ax",%progbits
	.p2align	1                               @ -- Begin function LockIF_TL
	.type	LockIF_TL,%function
	.code	16                              @ @LockIF_TL
	.thumb_func
LockIF_TL:
.Lfunc_begin10:
	.loc	2 123 0 is_stmt 1               @ ../../CCC_common/Library/StdDriver/src/can.c:123:0
	.fnstart
	.cfi_startproc
@ %bb.0:
	.save	{r7, lr}
	push	{r7, lr}
	.cfi_def_cfa_offset 8
	.cfi_offset lr, -4
	.cfi_offset r7, -8
	.pad	#16
	sub	sp, #16
	.cfi_def_cfa_offset 24
	str	r0, [sp, #12]
	movs	r0, #0
.Ltmp93:
	.loc	2 127 18 prologue_end           @ ../../CCC_common/Library/StdDriver/src/can.c:127:18
	str	r0, [sp, #8]
	.loc	2 127 9 is_stmt 0               @ ../../CCC_common/Library/StdDriver/src/can.c:127:9
	b	.LBB10_1
.LBB10_1:                               @ =>This Inner Loop Header: Depth=1
.Ltmp94:
	.loc	2 127 24                        @ ../../CCC_common/Library/StdDriver/src/can.c:127:24
	ldr	r0, [sp, #8]
.Ltmp95:
	.loc	2 127 5                         @ ../../CCC_common/Library/StdDriver/src/can.c:127:5
	lsrs	r0, r0, #28
	cbnz	r0, .LBB10_6
	b	.LBB10_2
.LBB10_2:                               @   in Loop: Header=BB10_1 Depth=1
.Ltmp96:
	.loc	2 129 34 is_stmt 1              @ ../../CCC_common/Library/StdDriver/src/can.c:129:34
	ldr	r0, [sp, #12]
	.loc	2 129 27 is_stmt 0              @ ../../CCC_common/Library/StdDriver/src/can.c:129:27
	bl	LockIF
	.loc	2 129 25                        @ ../../CCC_common/Library/StdDriver/src/can.c:129:25
	str	r0, [sp, #4]
.Ltmp97:
	.loc	2 129 12                        @ ../../CCC_common/Library/StdDriver/src/can.c:129:12
	cmp	r0, #2
	beq	.LBB10_4
	b	.LBB10_3
.LBB10_3:
.Ltmp98:
	.loc	2 131 13 is_stmt 1              @ ../../CCC_common/Library/StdDriver/src/can.c:131:13
	b	.LBB10_6
.Ltmp99:
.LBB10_4:                               @   in Loop: Header=BB10_1 Depth=1
	.loc	2 133 5                         @ ../../CCC_common/Library/StdDriver/src/can.c:133:5
	b	.LBB10_5
.Ltmp100:
.LBB10_5:                               @   in Loop: Header=BB10_1 Depth=1
	.loc	2 127 67                        @ ../../CCC_common/Library/StdDriver/src/can.c:127:67
	ldr	r0, [sp, #8]
	adds	r0, r0, #1
	str	r0, [sp, #8]
	.loc	2 127 5 is_stmt 0               @ ../../CCC_common/Library/StdDriver/src/can.c:127:5
	b	.LBB10_1
.Ltmp101:
.LBB10_6:
	.loc	2 135 12 is_stmt 1              @ ../../CCC_common/Library/StdDriver/src/can.c:135:12
	ldr	r0, [sp, #4]
	.loc	2 135 5 epilogue_begin is_stmt 0 @ ../../CCC_common/Library/StdDriver/src/can.c:135:5
	add	sp, #16
	pop	{r7, pc}
.Ltmp102:
.Lfunc_end10:
	.size	LockIF_TL, .Lfunc_end10-LockIF_TL
	.cfi_endproc
	.cantunwind
	.fnend
                                        @ -- End function
	.section	.text.ReleaseIF,"ax",%progbits
	.p2align	2                               @ -- Begin function ReleaseIF
	.type	ReleaseIF,%function
	.code	16                              @ @ReleaseIF
	.thumb_func
ReleaseIF:
.Lfunc_begin11:
	.loc	2 146 0 is_stmt 1               @ ../../CCC_common/Library/StdDriver/src/can.c:146:0
	.fnstart
	.cfi_startproc
@ %bb.0:
	.pad	#16
	sub	sp, #16
	.cfi_def_cfa_offset 16
	str	r0, [sp, #12]
	str	r1, [sp, #8]
.Ltmp103:
	.loc	2 150 8 prologue_end            @ ../../CCC_common/Library/StdDriver/src/can.c:150:8
	ldr	r0, [sp, #8]
.Ltmp104:
	.loc	2 150 8 is_stmt 0               @ ../../CCC_common/Library/StdDriver/src/can.c:150:8
	cmp	r0, #1
	bhi	.LBB11_2
	b	.LBB11_1
.LBB11_1:
	.loc	2 0 8                           @ ../../CCC_common/Library/StdDriver/src/can.c:0:8
	movs	r0, #0
.Ltmp105:
	.loc	2 156 18 is_stmt 1              @ ../../CCC_common/Library/StdDriver/src/can.c:156:18
	str	r0, [sp]
	.loc	2 160 22                        @ ../../CCC_common/Library/StdDriver/src/can.c:160:22
	ldr	r1, [sp, #12]
	.loc	2 160 28 is_stmt 0              @ ../../CCC_common/Library/StdDriver/src/can.c:160:28
	ldr	r1, [r1]
	movs	r2, #14
	.loc	2 160 32                        @ ../../CCC_common/Library/StdDriver/src/can.c:160:32
	ands	r1, r2
	.loc	2 160 20                        @ ../../CCC_common/Library/StdDriver/src/can.c:160:20
	str	r1, [sp, #4]
	.loc	2 161 21 is_stmt 1              @ ../../CCC_common/Library/StdDriver/src/can.c:161:21
	ldr	r1, [sp, #12]
	.loc	2 161 27 is_stmt 0              @ ../../CCC_common/Library/StdDriver/src/can.c:161:27
	ldr	r1, [r1]
	.loc	2 161 31                        @ ../../CCC_common/Library/StdDriver/src/can.c:161:31
	bics	r1, r2
	.loc	2 161 9                         @ ../../CCC_common/Library/StdDriver/src/can.c:161:9
	ldr	r2, [sp, #12]
	.loc	2 161 19                        @ ../../CCC_common/Library/StdDriver/src/can.c:161:19
	str	r1, [r2]
	.loc	2 163 22 is_stmt 1              @ ../../CCC_common/Library/StdDriver/src/can.c:163:22
	ldr	r1, [sp]
	.loc	2 163 9 is_stmt 0               @ ../../CCC_common/Library/StdDriver/src/can.c:163:9
	lsls	r2, r1, #1
	ldr	r1, __arm_cp.11_0
	adds	r1, r1, r2
	.loc	2 163 32                        @ ../../CCC_common/Library/StdDriver/src/can.c:163:32
	ldr	r2, [sp, #8]
	.loc	2 163 41                        @ ../../CCC_common/Library/StdDriver/src/can.c:163:41
	strb	r0, [r1, r2]
	.loc	2 166 22 is_stmt 1              @ ../../CCC_common/Library/StdDriver/src/can.c:166:22
	ldr	r2, [sp, #4]
	.loc	2 166 9 is_stmt 0               @ ../../CCC_common/Library/StdDriver/src/can.c:166:9
	ldr	r1, [sp, #12]
	.loc	2 166 19                        @ ../../CCC_common/Library/StdDriver/src/can.c:166:19
	ldr	r0, [r1]
	orrs	r0, r2
	str	r0, [r1]
	.loc	2 167 5 is_stmt 1               @ ../../CCC_common/Library/StdDriver/src/can.c:167:5
	b	.LBB11_2
.Ltmp106:
.LBB11_2:
	.loc	2 168 1 epilogue_begin          @ ../../CCC_common/Library/StdDriver/src/can.c:168:1
	add	sp, #16
	bx	lr
.Ltmp107:
	.loc	2 0 1 is_stmt 0                 @ :0:1
.Ltmp108:
	.p2align	2
@ %bb.3:
__arm_cp.11_0:
	.long	gu8LockCanIf
.Lcpi_end7:
	.size	__arm_cp.11_0, .Lcpi_end7-__arm_cp.11_0
.Lfunc_end11:
	.size	ReleaseIF, .Lfunc_end11-ReleaseIF
	.cfi_endproc
	.cantunwind
	.fnend
                                        @ -- End function
	.section	.text.CAN_SetRxMsgObj,"ax",%progbits
	.hidden	CAN_SetRxMsgObj                 @ -- Begin function CAN_SetRxMsgObj
	.globl	CAN_SetRxMsgObj
	.p2align	2
	.type	CAN_SetRxMsgObj,%function
	.code	16                              @ @CAN_SetRxMsgObj
	.thumb_func
CAN_SetRxMsgObj:
.Lfunc_begin12:
	.loc	2 537 0 is_stmt 1               @ ../../CCC_common/Library/StdDriver/src/can.c:537:0
	.fnstart
	.cfi_startproc
@ %bb.0:
	.save	{r4, r5, r7, lr}
	push	{r4, r5, r7, lr}
	.cfi_def_cfa_offset 16
	.cfi_offset lr, -4
	.cfi_offset r7, -8
	.cfi_offset r5, -12
	.cfi_offset r4, -16
	.pad	#32
	sub	sp, #32
	.cfi_def_cfa_offset 48
	mov	r4, r0
	ldr	r0, [sp, #48]
                                        @ kill: def $r5 killed $r2
                                        @ kill: def $r5 killed $r1
	str	r4, [sp, #24]
	add	r4, sp, #20
	strb	r1, [r4]
	add	r1, sp, #16
	strb	r2, [r1]
	str	r3, [sp, #12]
	add	r1, sp, #8
	strb	r0, [r1]
.Ltmp109:
	.loc	2 541 41 prologue_end           @ ../../CCC_common/Library/StdDriver/src/can.c:541:41
	ldr	r0, [sp, #24]
	.loc	2 541 31 is_stmt 0              @ ../../CCC_common/Library/StdDriver/src/can.c:541:31
	bl	LockIF_TL
	mov	r1, r0
	.loc	2 541 22                        @ ../../CCC_common/Library/StdDriver/src/can.c:541:22
	uxtb	r0, r1
	add	r2, sp, #4
	.loc	2 541 20                        @ ../../CCC_common/Library/StdDriver/src/can.c:541:20
	strb	r1, [r2]
.Ltmp110:
	.loc	2 541 8                         @ ../../CCC_common/Library/StdDriver/src/can.c:541:8
	cmp	r0, #2
	bne	.LBB12_2
	b	.LBB12_1
.LBB12_1:
	.loc	2 0 8                           @ ../../CCC_common/Library/StdDriver/src/can.c:0:8
	movs	r0, #0
.Ltmp111:
	.loc	2 543 9 is_stmt 1               @ ../../CCC_common/Library/StdDriver/src/can.c:543:9
	str	r0, [sp, #28]
	b	.LBB12_9
.Ltmp112:
.LBB12_2:
	.loc	2 547 5                         @ ../../CCC_common/Library/StdDriver/src/can.c:547:5
	ldr	r0, [sp, #24]
	add	r1, sp, #4
	.loc	2 547 14 is_stmt 0              @ ../../CCC_common/Library/StdDriver/src/can.c:547:14
	ldrb	r2, [r1]
	movs	r1, #96
	.loc	2 547 5                         @ ../../CCC_common/Library/StdDriver/src/can.c:547:5
	muls	r1, r2, r1
	.loc	2 547 11                        @ ../../CCC_common/Library/StdDriver/src/can.c:547:11
	adds	r1, r0, r1
	movs	r0, #243
	.loc	2 547 32                        @ ../../CCC_common/Library/StdDriver/src/can.c:547:32
	str	r0, [r1, #36]
	add	r0, sp, #16
.Ltmp113:
	.loc	2 550 8 is_stmt 1               @ ../../CCC_common/Library/StdDriver/src/can.c:550:8
	ldrb	r0, [r0]
.Ltmp114:
	.loc	2 550 8 is_stmt 0               @ ../../CCC_common/Library/StdDriver/src/can.c:550:8
	cbnz	r0, .LBB12_4
	b	.LBB12_3
.LBB12_3:
.Ltmp115:
	.loc	2 552 9 is_stmt 1               @ ../../CCC_common/Library/StdDriver/src/can.c:552:9
	ldr	r0, [sp, #24]
	add	r3, sp, #4
	.loc	2 552 18 is_stmt 0              @ ../../CCC_common/Library/StdDriver/src/can.c:552:18
	ldrb	r4, [r3]
	movs	r2, #96
	.loc	2 552 9                         @ ../../CCC_common/Library/StdDriver/src/can.c:552:9
	mov	r1, r2
	muls	r1, r4, r1
	.loc	2 552 15                        @ ../../CCC_common/Library/StdDriver/src/can.c:552:15
	adds	r1, r0, r1
	movs	r0, #0
	.loc	2 552 35                        @ ../../CCC_common/Library/StdDriver/src/can.c:552:35
	str	r0, [r1, #48]
	.loc	2 553 63 is_stmt 1              @ ../../CCC_common/Library/StdDriver/src/can.c:553:63
	ldr	r0, [sp, #12]
	.loc	2 553 80 is_stmt 0              @ ../../CCC_common/Library/StdDriver/src/can.c:553:80
	lsls	r0, r0, #21
	lsrs	r0, r0, #19
	movw	r1, #32768
	.loc	2 553 60                        @ ../../CCC_common/Library/StdDriver/src/can.c:553:60
	adds	r0, r0, r1
	.loc	2 553 9                         @ ../../CCC_common/Library/StdDriver/src/can.c:553:9
	ldr	r1, [sp, #24]
	.loc	2 553 18                        @ ../../CCC_common/Library/StdDriver/src/can.c:553:18
	ldrb	r3, [r3]
	.loc	2 553 9                         @ ../../CCC_common/Library/StdDriver/src/can.c:553:9
	muls	r2, r3, r2
	.loc	2 553 15                        @ ../../CCC_common/Library/StdDriver/src/can.c:553:15
	adds	r1, r1, r2
	.loc	2 553 35                        @ ../../CCC_common/Library/StdDriver/src/can.c:553:35
	str	r0, [r1, #52]
	.loc	2 554 5 is_stmt 1               @ ../../CCC_common/Library/StdDriver/src/can.c:554:5
	b	.LBB12_5
.Ltmp116:
.LBB12_4:
	.loc	2 0 5 is_stmt 0                 @ ../../CCC_common/Library/StdDriver/src/can.c:0:5
	add	r0, sp, #12
.Ltmp117:
	.loc	2 557 37 is_stmt 1              @ ../../CCC_common/Library/StdDriver/src/can.c:557:37
	ldrh	r0, [r0]
	.loc	2 557 9 is_stmt 0               @ ../../CCC_common/Library/StdDriver/src/can.c:557:9
	ldr	r1, [sp, #24]
	add	r3, sp, #4
	.loc	2 557 18                        @ ../../CCC_common/Library/StdDriver/src/can.c:557:18
	ldrb	r5, [r3]
	movs	r2, #96
	.loc	2 557 9                         @ ../../CCC_common/Library/StdDriver/src/can.c:557:9
	mov	r4, r2
	muls	r4, r5, r4
	.loc	2 557 15                        @ ../../CCC_common/Library/StdDriver/src/can.c:557:15
	adds	r1, r1, r4
	.loc	2 557 35                        @ ../../CCC_common/Library/StdDriver/src/can.c:557:35
	str	r0, [r1, #48]
	.loc	2 558 85 is_stmt 1              @ ../../CCC_common/Library/StdDriver/src/can.c:558:85
	ldr	r0, [sp, #12]
	ldr	r1, __arm_cp.12_0
	.loc	2 558 91 is_stmt 0              @ ../../CCC_common/Library/StdDriver/src/can.c:558:91
	ands	r0, r1
	.loc	2 558 107                       @ ../../CCC_common/Library/StdDriver/src/can.c:558:107
	lsrs	r0, r0, #16
	movw	r1, #49152
	.loc	2 558 82                        @ ../../CCC_common/Library/StdDriver/src/can.c:558:82
	adds	r0, r0, r1
	.loc	2 558 9                         @ ../../CCC_common/Library/StdDriver/src/can.c:558:9
	ldr	r1, [sp, #24]
	.loc	2 558 18                        @ ../../CCC_common/Library/StdDriver/src/can.c:558:18
	ldrb	r3, [r3]
	.loc	2 558 9                         @ ../../CCC_common/Library/StdDriver/src/can.c:558:9
	muls	r2, r3, r2
	.loc	2 558 15                        @ ../../CCC_common/Library/StdDriver/src/can.c:558:15
	adds	r1, r1, r2
	.loc	2 558 35                        @ ../../CCC_common/Library/StdDriver/src/can.c:558:35
	str	r0, [r1, #52]
	b	.LBB12_5
.Ltmp118:
.LBB12_5:
	.loc	2 562 5 is_stmt 1               @ ../../CCC_common/Library/StdDriver/src/can.c:562:5
	ldr	r0, [sp, #24]
	add	r1, sp, #4
	.loc	2 562 14 is_stmt 0              @ ../../CCC_common/Library/StdDriver/src/can.c:562:14
	ldrb	r2, [r1]
	movs	r1, #96
	.loc	2 562 5                         @ ../../CCC_common/Library/StdDriver/src/can.c:562:5
	muls	r1, r2, r1
	.loc	2 562 11                        @ ../../CCC_common/Library/StdDriver/src/can.c:562:11
	adds	r1, r0, r1
	movw	r0, #5120
	.loc	2 562 31                        @ ../../CCC_common/Library/StdDriver/src/can.c:562:31
	str	r0, [r1, #56]
	add	r0, sp, #8
.Ltmp119:
	.loc	2 563 8 is_stmt 1               @ ../../CCC_common/Library/StdDriver/src/can.c:563:8
	ldrb	r0, [r0]
.Ltmp120:
	.loc	2 563 8 is_stmt 0               @ ../../CCC_common/Library/StdDriver/src/can.c:563:8
	cbz	r0, .LBB12_7
	b	.LBB12_6
.LBB12_6:
.Ltmp121:
	.loc	2 565 9 is_stmt 1               @ ../../CCC_common/Library/StdDriver/src/can.c:565:9
	ldr	r0, [sp, #24]
	add	r1, sp, #4
	.loc	2 565 18 is_stmt 0              @ ../../CCC_common/Library/StdDriver/src/can.c:565:18
	ldrb	r2, [r1]
	movs	r1, #96
	.loc	2 565 9                         @ ../../CCC_common/Library/StdDriver/src/can.c:565:9
	muls	r1, r2, r1
	.loc	2 565 15                        @ ../../CCC_common/Library/StdDriver/src/can.c:565:15
	adds	r1, r0, r1
	.loc	2 565 35                        @ ../../CCC_common/Library/StdDriver/src/can.c:565:35
	ldr	r0, [r1, #56]
	movs	r2, #128
	orrs	r0, r2
	str	r0, [r1, #56]
	.loc	2 566 5 is_stmt 1               @ ../../CCC_common/Library/StdDriver/src/can.c:566:5
	b	.LBB12_8
.Ltmp122:
.LBB12_7:
	.loc	2 569 9                         @ ../../CCC_common/Library/StdDriver/src/can.c:569:9
	ldr	r0, [sp, #24]
	add	r1, sp, #4
	.loc	2 569 18 is_stmt 0              @ ../../CCC_common/Library/StdDriver/src/can.c:569:18
	ldrb	r2, [r1]
	movs	r1, #96
	.loc	2 569 9                         @ ../../CCC_common/Library/StdDriver/src/can.c:569:9
	muls	r1, r2, r1
	.loc	2 569 15                        @ ../../CCC_common/Library/StdDriver/src/can.c:569:15
	adds	r1, r0, r1
	.loc	2 569 35                        @ ../../CCC_common/Library/StdDriver/src/can.c:569:35
	ldr	r0, [r1, #56]
	movs	r2, #128
	bics	r0, r2
	str	r0, [r1, #56]
	b	.LBB12_8
.Ltmp123:
.LBB12_8:
	.loc	2 572 5 is_stmt 1               @ ../../CCC_common/Library/StdDriver/src/can.c:572:5
	ldr	r0, [sp, #24]
	add	r1, sp, #4
	.loc	2 572 14 is_stmt 0              @ ../../CCC_common/Library/StdDriver/src/can.c:572:14
	ldrb	r4, [r1]
	movs	r3, #96
	.loc	2 572 5                         @ ../../CCC_common/Library/StdDriver/src/can.c:572:5
	mov	r2, r3
	muls	r2, r4, r2
	.loc	2 572 11                        @ ../../CCC_common/Library/StdDriver/src/can.c:572:11
	adds	r2, r0, r2
	movs	r0, #0
	.loc	2 572 34                        @ ../../CCC_common/Library/StdDriver/src/can.c:572:34
	str	r0, [r2, #60]
	.loc	2 573 5 is_stmt 1               @ ../../CCC_common/Library/StdDriver/src/can.c:573:5
	ldr	r2, [sp, #24]
	.loc	2 573 14 is_stmt 0              @ ../../CCC_common/Library/StdDriver/src/can.c:573:14
	ldrb	r5, [r1]
	.loc	2 573 5                         @ ../../CCC_common/Library/StdDriver/src/can.c:573:5
	mov	r4, r3
	muls	r4, r5, r4
	.loc	2 573 11                        @ ../../CCC_common/Library/StdDriver/src/can.c:573:11
	adds	r2, r2, r4
	.loc	2 573 34                        @ ../../CCC_common/Library/StdDriver/src/can.c:573:34
	str	r0, [r2, #64]
	.loc	2 574 5 is_stmt 1               @ ../../CCC_common/Library/StdDriver/src/can.c:574:5
	ldr	r2, [sp, #24]
	.loc	2 574 14 is_stmt 0              @ ../../CCC_common/Library/StdDriver/src/can.c:574:14
	ldrb	r5, [r1]
	.loc	2 574 5                         @ ../../CCC_common/Library/StdDriver/src/can.c:574:5
	mov	r4, r3
	muls	r4, r5, r4
	.loc	2 574 11                        @ ../../CCC_common/Library/StdDriver/src/can.c:574:11
	adds	r2, r2, r4
	.loc	2 574 34                        @ ../../CCC_common/Library/StdDriver/src/can.c:574:34
	str	r0, [r2, #68]
	.loc	2 575 5 is_stmt 1               @ ../../CCC_common/Library/StdDriver/src/can.c:575:5
	ldr	r2, [sp, #24]
	.loc	2 575 14 is_stmt 0              @ ../../CCC_common/Library/StdDriver/src/can.c:575:14
	ldrb	r5, [r1]
	.loc	2 575 5                         @ ../../CCC_common/Library/StdDriver/src/can.c:575:5
	mov	r4, r3
	muls	r4, r5, r4
	.loc	2 575 11                        @ ../../CCC_common/Library/StdDriver/src/can.c:575:11
	adds	r2, r2, r4
	.loc	2 575 34                        @ ../../CCC_common/Library/StdDriver/src/can.c:575:34
	str	r0, [r2, #72]
	add	r0, sp, #20
	.loc	2 577 39 is_stmt 1              @ ../../CCC_common/Library/StdDriver/src/can.c:577:39
	ldrb	r0, [r0]
	.loc	2 577 37 is_stmt 0              @ ../../CCC_common/Library/StdDriver/src/can.c:577:37
	adds	r0, r0, #1
	.loc	2 577 5                         @ ../../CCC_common/Library/StdDriver/src/can.c:577:5
	ldr	r2, [sp, #24]
	.loc	2 577 14                        @ ../../CCC_common/Library/StdDriver/src/can.c:577:14
	ldrb	r4, [r1]
	.loc	2 577 5                         @ ../../CCC_common/Library/StdDriver/src/can.c:577:5
	muls	r3, r4, r3
	.loc	2 577 11                        @ ../../CCC_common/Library/StdDriver/src/can.c:577:11
	adds	r2, r2, r3
	.loc	2 577 31                        @ ../../CCC_common/Library/StdDriver/src/can.c:577:31
	str	r0, [r2, #32]
	.loc	2 578 15 is_stmt 1              @ ../../CCC_common/Library/StdDriver/src/can.c:578:15
	ldr	r0, [sp, #24]
	.loc	2 578 31 is_stmt 0              @ ../../CCC_common/Library/StdDriver/src/can.c:578:31
	ldrb	r1, [r1]
	.loc	2 578 5                         @ ../../CCC_common/Library/StdDriver/src/can.c:578:5
	bl	ReleaseIF
	movs	r0, #1
	.loc	2 580 5 is_stmt 1               @ ../../CCC_common/Library/StdDriver/src/can.c:580:5
	str	r0, [sp, #28]
	b	.LBB12_9
.LBB12_9:
	.loc	2 581 1                         @ ../../CCC_common/Library/StdDriver/src/can.c:581:1
	ldr	r0, [sp, #28]
	.loc	2 581 1 epilogue_begin is_stmt 0 @ ../../CCC_common/Library/StdDriver/src/can.c:581:1
	add	sp, #32
	pop	{r4, r5, r7, pc}
.Ltmp124:
	.loc	2 0 1                           @ :0:1
.Ltmp125:
	.p2align	2
@ %bb.10:
__arm_cp.12_0:
	.long	536805376                       @ 0x1fff0000
.Lcpi_end8:
	.size	__arm_cp.12_0, .Lcpi_end8-__arm_cp.12_0
.Lfunc_end12:
	.size	CAN_SetRxMsgObj, .Lfunc_end12-CAN_SetRxMsgObj
	.cfi_endproc
	.cantunwind
	.fnend
                                        @ -- End function
	.section	.text.CAN_ReadMsgObj,"ax",%progbits
	.hidden	CAN_ReadMsgObj                  @ -- Begin function CAN_ReadMsgObj
	.globl	CAN_ReadMsgObj
	.p2align	2
	.type	CAN_ReadMsgObj,%function
	.code	16                              @ @CAN_ReadMsgObj
	.thumb_func
CAN_ReadMsgObj:
.Lfunc_begin13:
	.loc	2 598 0 is_stmt 1               @ ../../CCC_common/Library/StdDriver/src/can.c:598:0
	.fnstart
	.cfi_startproc
@ %bb.0:
	.save	{r4, r5, r7, lr}
	push	{r4, r5, r7, lr}
	.cfi_def_cfa_offset 16
	.cfi_offset lr, -4
	.cfi_offset r7, -8
	.cfi_offset r5, -12
	.cfi_offset r4, -16
	.pad	#56
	sub	sp, #56
	.cfi_def_cfa_offset 72
	str	r1, [sp, #20]                   @ 4-byte Spill
	mov	r1, r0
	ldr	r0, [sp, #20]                   @ 4-byte Reload
                                        @ kill: def $r4 killed $r2
                                        @ kill: def $r4 killed $r0
	str	r1, [sp, #48]
	add	r1, sp, #44
	strb	r0, [r1]
	add	r0, sp, #40
	strb	r2, [r0]
	str	r3, [sp, #36]
.Ltmp126:
	.loc	2 601 32 prologue_end           @ ../../CCC_common/Library/StdDriver/src/can.c:601:32
	ldr	r0, __arm_cp.13_0
	ldr	r0, [r0]
	.loc	2 601 43 is_stmt 0              @ ../../CCC_common/Library/StdDriver/src/can.c:601:43
	lsls	r0, r0, #1
	.loc	2 601 14                        @ ../../CCC_common/Library/StdDriver/src/can.c:601:14
	str	r0, [sp, #24]
.Ltmp127:
	.loc	2 603 31 is_stmt 1              @ ../../CCC_common/Library/StdDriver/src/can.c:603:31
	ldr	r0, [sp, #48]
	.loc	2 603 37 is_stmt 0              @ ../../CCC_common/Library/StdDriver/src/can.c:603:37
	ldrb	r1, [r1]
	.loc	2 603 9                         @ ../../CCC_common/Library/StdDriver/src/can.c:603:9
	bl	CAN_IsNewDataReceived
.Ltmp128:
	.loc	2 603 8                         @ ../../CCC_common/Library/StdDriver/src/can.c:603:8
	cbnz	r0, .LBB13_2
	b	.LBB13_1
.LBB13_1:
	.loc	2 0 8                           @ ../../CCC_common/Library/StdDriver/src/can.c:0:8
	movs	r0, #0
.Ltmp129:
	.loc	2 605 9 is_stmt 1               @ ../../CCC_common/Library/StdDriver/src/can.c:605:9
	str	r0, [sp, #52]
	b	.LBB13_15
.Ltmp130:
.LBB13_2:
	.loc	2 609 41                        @ ../../CCC_common/Library/StdDriver/src/can.c:609:41
	ldr	r0, [sp, #48]
	.loc	2 609 31 is_stmt 0              @ ../../CCC_common/Library/StdDriver/src/can.c:609:31
	bl	LockIF_TL
	mov	r1, r0
	.loc	2 609 22                        @ ../../CCC_common/Library/StdDriver/src/can.c:609:22
	uxtb	r0, r1
	add	r2, sp, #32
	.loc	2 609 20                        @ ../../CCC_common/Library/StdDriver/src/can.c:609:20
	strb	r1, [r2]
.Ltmp131:
	.loc	2 609 8                         @ ../../CCC_common/Library/StdDriver/src/can.c:609:8
	cmp	r0, #2
	bne	.LBB13_4
	b	.LBB13_3
.LBB13_3:
	.loc	2 0 8                           @ ../../CCC_common/Library/StdDriver/src/can.c:0:8
	movs	r0, #0
.Ltmp132:
	.loc	2 611 9 is_stmt 1               @ ../../CCC_common/Library/StdDriver/src/can.c:611:9
	str	r0, [sp, #52]
	b	.LBB13_15
.Ltmp133:
.LBB13_4:
	.loc	2 614 5                         @ ../../CCC_common/Library/StdDriver/src/can.c:614:5
	ldr	r1, [sp, #48]
	.loc	2 614 18 is_stmt 0              @ ../../CCC_common/Library/StdDriver/src/can.c:614:18
	ldr	r0, [r1, #4]
	movs	r2, #16
	bics	r0, r2
	str	r0, [r1, #4]
	add	r0, sp, #40
	.loc	2 621 37 is_stmt 1              @ ../../CCC_common/Library/StdDriver/src/can.c:621:37
	ldrb	r1, [r0]
	movs	r0, #127
	movs	r2, #123
	str	r2, [sp, #12]                   @ 4-byte Spill
	str	r0, [sp, #16]                   @ 4-byte Spill
	cbnz	r1, .LBB13_6
@ %bb.5:
	.loc	2 0 37 is_stmt 0                @ ../../CCC_common/Library/StdDriver/src/can.c:0:37
	ldr	r0, [sp, #12]                   @ 4-byte Reload
	str	r0, [sp, #16]                   @ 4-byte Spill
.LBB13_6:
	.loc	2 621 37                        @ ../../CCC_common/Library/StdDriver/src/can.c:621:37
	ldr	r0, [sp, #16]                   @ 4-byte Reload
	.loc	2 617 5 is_stmt 1               @ ../../CCC_common/Library/StdDriver/src/can.c:617:5
	ldr	r1, [sp, #48]
	add	r3, sp, #32
	.loc	2 617 14 is_stmt 0              @ ../../CCC_common/Library/StdDriver/src/can.c:617:14
	ldrb	r5, [r3]
	movs	r2, #96
	.loc	2 617 5                         @ ../../CCC_common/Library/StdDriver/src/can.c:617:5
	mov	r4, r2
	muls	r4, r5, r4
	.loc	2 617 11                        @ ../../CCC_common/Library/StdDriver/src/can.c:617:11
	adds	r1, r1, r4
	.loc	2 617 32                        @ ../../CCC_common/Library/StdDriver/src/can.c:617:32
	str	r0, [r1, #36]
	add	r0, sp, #44
	.loc	2 625 39 is_stmt 1              @ ../../CCC_common/Library/StdDriver/src/can.c:625:39
	ldrb	r0, [r0]
	.loc	2 625 37 is_stmt 0              @ ../../CCC_common/Library/StdDriver/src/can.c:625:37
	adds	r0, r0, #1
	.loc	2 625 5                         @ ../../CCC_common/Library/StdDriver/src/can.c:625:5
	ldr	r1, [sp, #48]
	.loc	2 625 14                        @ ../../CCC_common/Library/StdDriver/src/can.c:625:14
	ldrb	r3, [r3]
	.loc	2 625 5                         @ ../../CCC_common/Library/StdDriver/src/can.c:625:5
	muls	r2, r3, r2
	.loc	2 625 11                        @ ../../CCC_common/Library/StdDriver/src/can.c:625:11
	adds	r1, r1, r2
	.loc	2 625 31                        @ ../../CCC_common/Library/StdDriver/src/can.c:625:31
	str	r0, [r1, #32]
	.loc	2 627 5 is_stmt 1               @ ../../CCC_common/Library/StdDriver/src/can.c:627:5
	b	.LBB13_7
.LBB13_7:                               @ =>This Inner Loop Header: Depth=1
	.loc	2 627 11 is_stmt 0              @ ../../CCC_common/Library/StdDriver/src/can.c:627:11
	ldr	r0, [sp, #48]
	add	r1, sp, #32
	.loc	2 627 20                        @ ../../CCC_common/Library/StdDriver/src/can.c:627:20
	ldrb	r2, [r1]
	movs	r1, #96
	.loc	2 627 11                        @ ../../CCC_common/Library/StdDriver/src/can.c:627:11
	muls	r1, r2, r1
	.loc	2 627 17                        @ ../../CCC_common/Library/StdDriver/src/can.c:627:17
	adds	r0, r0, r1
	.loc	2 627 32                        @ ../../CCC_common/Library/StdDriver/src/can.c:627:32
	ldr	r0, [r0, #32]
	.loc	2 627 5                         @ ../../CCC_common/Library/StdDriver/src/can.c:627:5
	lsls	r0, r0, #16
	cmp	r0, #0
	bpl	.LBB13_11
	b	.LBB13_8
.LBB13_8:                               @   in Loop: Header=BB13_7 Depth=1
.Ltmp134:
	.loc	2 629 12 is_stmt 1              @ ../../CCC_common/Library/StdDriver/src/can.c:629:12
	ldr	r0, [sp, #24]
	subs	r0, r0, #1
	str	r0, [sp, #24]
.Ltmp135:
	.loc	2 629 12 is_stmt 0              @ ../../CCC_common/Library/StdDriver/src/can.c:629:12
	cbnz	r0, .LBB13_10
	b	.LBB13_9
.LBB13_9:
.Ltmp136:
	.loc	2 631 23 is_stmt 1              @ ../../CCC_common/Library/StdDriver/src/can.c:631:23
	ldr	r0, [sp, #48]
	add	r1, sp, #32
	.loc	2 631 29 is_stmt 0              @ ../../CCC_common/Library/StdDriver/src/can.c:631:29
	ldrb	r1, [r1]
	.loc	2 631 13                        @ ../../CCC_common/Library/StdDriver/src/can.c:631:13
	bl	ReleaseIF
	movs	r0, #0
	mvns	r0, r0
	.loc	2 632 13 is_stmt 1              @ ../../CCC_common/Library/StdDriver/src/can.c:632:13
	str	r0, [sp, #52]
	b	.LBB13_15
.Ltmp137:
.LBB13_10:                              @   in Loop: Header=BB13_7 Depth=1
	.loc	2 627 5                         @ ../../CCC_common/Library/StdDriver/src/can.c:627:5
	b	.LBB13_7
.LBB13_11:
.Ltmp138:
	.loc	2 636 9                         @ ../../CCC_common/Library/StdDriver/src/can.c:636:9
	ldr	r0, [sp, #48]
	add	r1, sp, #32
	.loc	2 636 18 is_stmt 0              @ ../../CCC_common/Library/StdDriver/src/can.c:636:18
	ldrb	r2, [r1]
	movs	r1, #96
	.loc	2 636 9                         @ ../../CCC_common/Library/StdDriver/src/can.c:636:9
	muls	r1, r2, r1
	.loc	2 636 15                        @ ../../CCC_common/Library/StdDriver/src/can.c:636:15
	adds	r0, r0, r1
	.loc	2 636 30                        @ ../../CCC_common/Library/StdDriver/src/can.c:636:30
	ldr	r0, [r0, #52]
.Ltmp139:
	.loc	2 636 8                         @ ../../CCC_common/Library/StdDriver/src/can.c:636:8
	lsls	r0, r0, #17
	cmp	r0, #0
	bmi	.LBB13_13
	b	.LBB13_12
.LBB13_12:
.Ltmp140:
	.loc	2 639 9 is_stmt 1               @ ../../CCC_common/Library/StdDriver/src/can.c:639:9
	ldr	r1, [sp, #36]
	movs	r0, #0
	.loc	2 639 25 is_stmt 0              @ ../../CCC_common/Library/StdDriver/src/can.c:639:25
	str	r0, [r1]
	.loc	2 640 28 is_stmt 1              @ ../../CCC_common/Library/StdDriver/src/can.c:640:28
	ldr	r0, [sp, #48]
	add	r1, sp, #32
	.loc	2 640 37 is_stmt 0              @ ../../CCC_common/Library/StdDriver/src/can.c:640:37
	ldrb	r2, [r1]
	movs	r1, #96
	.loc	2 640 28                        @ ../../CCC_common/Library/StdDriver/src/can.c:640:28
	muls	r1, r2, r1
	.loc	2 640 34                        @ ../../CCC_common/Library/StdDriver/src/can.c:640:34
	adds	r0, r0, r1
	.loc	2 640 49                        @ ../../CCC_common/Library/StdDriver/src/can.c:640:49
	ldr	r0, [r0, #52]
	ldr	r1, __arm_cp.13_1
	.loc	2 640 54                        @ ../../CCC_common/Library/StdDriver/src/can.c:640:54
	ands	r0, r1
	.loc	2 640 76                        @ ../../CCC_common/Library/StdDriver/src/can.c:640:76
	lsrs	r0, r0, #2
	.loc	2 640 9                         @ ../../CCC_common/Library/StdDriver/src/can.c:640:9
	ldr	r1, [sp, #36]
	.loc	2 640 25                        @ ../../CCC_common/Library/StdDriver/src/can.c:640:25
	str	r0, [r1, #8]
	.loc	2 641 5 is_stmt 1               @ ../../CCC_common/Library/StdDriver/src/can.c:641:5
	b	.LBB13_14
.Ltmp141:
.LBB13_13:
	.loc	2 645 9                         @ ../../CCC_common/Library/StdDriver/src/can.c:645:9
	ldr	r1, [sp, #36]
	movs	r0, #1
	.loc	2 645 25 is_stmt 0              @ ../../CCC_common/Library/StdDriver/src/can.c:645:25
	str	r0, [r1]
	.loc	2 647 21 is_stmt 1              @ ../../CCC_common/Library/StdDriver/src/can.c:647:21
	ldr	r0, [sp, #48]
	add	r2, sp, #32
	.loc	2 647 30 is_stmt 0              @ ../../CCC_common/Library/StdDriver/src/can.c:647:30
	ldrb	r4, [r2]
	movs	r1, #96
	.loc	2 647 21                        @ ../../CCC_common/Library/StdDriver/src/can.c:647:21
	mov	r3, r1
	muls	r3, r4, r3
	.loc	2 647 27                        @ ../../CCC_common/Library/StdDriver/src/can.c:647:27
	adds	r0, r0, r3
	.loc	2 647 42                        @ ../../CCC_common/Library/StdDriver/src/can.c:647:42
	ldr	r0, [r0, #52]
	.loc	2 647 60                        @ ../../CCC_common/Library/StdDriver/src/can.c:647:60
	lsls	r0, r0, #19
	lsrs	r0, r0, #3
	.loc	2 647 16                        @ ../../CCC_common/Library/StdDriver/src/can.c:647:16
	str	r0, [sp, #28]
	.loc	2 648 19 is_stmt 1              @ ../../CCC_common/Library/StdDriver/src/can.c:648:19
	ldr	r0, [sp, #48]
	.loc	2 648 28 is_stmt 0              @ ../../CCC_common/Library/StdDriver/src/can.c:648:28
	ldrb	r2, [r2]
	.loc	2 648 19                        @ ../../CCC_common/Library/StdDriver/src/can.c:648:19
	muls	r1, r2, r1
	.loc	2 648 25                        @ ../../CCC_common/Library/StdDriver/src/can.c:648:25
	adds	r0, r0, r1
	.loc	2 648 40                        @ ../../CCC_common/Library/StdDriver/src/can.c:648:40
	ldr	r1, [r0, #48]
	.loc	2 648 16                        @ ../../CCC_common/Library/StdDriver/src/can.c:648:16
	ldr	r0, [sp, #28]
	orrs	r0, r1
	str	r0, [sp, #28]
	.loc	2 650 24 is_stmt 1              @ ../../CCC_common/Library/StdDriver/src/can.c:650:24
	ldr	r0, [sp, #28]
	.loc	2 650 9 is_stmt 0               @ ../../CCC_common/Library/StdDriver/src/can.c:650:9
	ldr	r1, [sp, #36]
	.loc	2 650 22                        @ ../../CCC_common/Library/StdDriver/src/can.c:650:22
	str	r0, [r1, #8]
	b	.LBB13_14
.Ltmp142:
.LBB13_14:
	.loc	2 653 34 is_stmt 1              @ ../../CCC_common/Library/StdDriver/src/can.c:653:34
	ldr	r0, [sp, #48]
	add	r1, sp, #32
	.loc	2 653 43 is_stmt 0              @ ../../CCC_common/Library/StdDriver/src/can.c:653:43
	str	r1, [sp, #4]                    @ 4-byte Spill
	ldrb	r4, [r1]
	movs	r2, #96
	.loc	2 653 34                        @ ../../CCC_common/Library/StdDriver/src/can.c:653:34
	str	r2, [sp, #8]                    @ 4-byte Spill
	mov	r3, r2
	muls	r3, r4, r3
	.loc	2 653 40                        @ ../../CCC_common/Library/StdDriver/src/can.c:653:40
	adds	r0, r0, r3
	.loc	2 653 55                        @ ../../CCC_common/Library/StdDriver/src/can.c:653:55
	ldr	r0, [r0, #56]
	movs	r3, #15
	.loc	2 653 60                        @ ../../CCC_common/Library/StdDriver/src/can.c:653:60
	ands	r0, r3
	.loc	2 653 5                         @ ../../CCC_common/Library/StdDriver/src/can.c:653:5
	ldr	r3, [sp, #36]
	.loc	2 653 22                        @ ../../CCC_common/Library/StdDriver/src/can.c:653:22
	strb	r0, [r3, #12]
	.loc	2 654 34 is_stmt 1              @ ../../CCC_common/Library/StdDriver/src/can.c:654:34
	ldr	r0, [sp, #48]
	.loc	2 654 43 is_stmt 0              @ ../../CCC_common/Library/StdDriver/src/can.c:654:43
	ldrb	r4, [r1]
	.loc	2 654 34                        @ ../../CCC_common/Library/StdDriver/src/can.c:654:34
	mov	r3, r2
	muls	r3, r4, r3
	.loc	2 654 40                        @ ../../CCC_common/Library/StdDriver/src/can.c:654:40
	adds	r0, r0, r3
	.loc	2 654 55                        @ ../../CCC_common/Library/StdDriver/src/can.c:654:55
	ldr	r0, [r0, #60]
	.loc	2 654 5                         @ ../../CCC_common/Library/StdDriver/src/can.c:654:5
	ldr	r3, [sp, #36]
	.loc	2 654 22                        @ ../../CCC_common/Library/StdDriver/src/can.c:654:22
	strb	r0, [r3, #13]
	.loc	2 655 35 is_stmt 1              @ ../../CCC_common/Library/StdDriver/src/can.c:655:35
	ldr	r0, [sp, #48]
	.loc	2 655 44 is_stmt 0              @ ../../CCC_common/Library/StdDriver/src/can.c:655:44
	ldrb	r4, [r1]
	.loc	2 655 35                        @ ../../CCC_common/Library/StdDriver/src/can.c:655:35
	mov	r3, r2
	muls	r3, r4, r3
	.loc	2 655 41                        @ ../../CCC_common/Library/StdDriver/src/can.c:655:41
	adds	r0, r0, r3
	.loc	2 655 56                        @ ../../CCC_common/Library/StdDriver/src/can.c:655:56
	ldr	r0, [r0, #60]
	.loc	2 655 90                        @ ../../CCC_common/Library/StdDriver/src/can.c:655:90
	lsrs	r0, r0, #8
	.loc	2 655 5                         @ ../../CCC_common/Library/StdDriver/src/can.c:655:5
	ldr	r3, [sp, #36]
	.loc	2 655 22                        @ ../../CCC_common/Library/StdDriver/src/can.c:655:22
	strb	r0, [r3, #14]
	.loc	2 656 34 is_stmt 1              @ ../../CCC_common/Library/StdDriver/src/can.c:656:34
	ldr	r0, [sp, #48]
	.loc	2 656 43 is_stmt 0              @ ../../CCC_common/Library/StdDriver/src/can.c:656:43
	ldrb	r4, [r1]
	.loc	2 656 34                        @ ../../CCC_common/Library/StdDriver/src/can.c:656:34
	mov	r3, r2
	muls	r3, r4, r3
	.loc	2 656 40                        @ ../../CCC_common/Library/StdDriver/src/can.c:656:40
	adds	r0, r0, r3
	.loc	2 656 55                        @ ../../CCC_common/Library/StdDriver/src/can.c:656:55
	ldr	r0, [r0, #64]
	.loc	2 656 5                         @ ../../CCC_common/Library/StdDriver/src/can.c:656:5
	ldr	r3, [sp, #36]
	.loc	2 656 22                        @ ../../CCC_common/Library/StdDriver/src/can.c:656:22
	strb	r0, [r3, #15]
	.loc	2 657 35 is_stmt 1              @ ../../CCC_common/Library/StdDriver/src/can.c:657:35
	ldr	r0, [sp, #48]
	.loc	2 657 44 is_stmt 0              @ ../../CCC_common/Library/StdDriver/src/can.c:657:44
	ldrb	r4, [r1]
	.loc	2 657 35                        @ ../../CCC_common/Library/StdDriver/src/can.c:657:35
	mov	r3, r2
	muls	r3, r4, r3
	.loc	2 657 41                        @ ../../CCC_common/Library/StdDriver/src/can.c:657:41
	adds	r0, r0, r3
	.loc	2 657 56                        @ ../../CCC_common/Library/StdDriver/src/can.c:657:56
	ldr	r0, [r0, #64]
	.loc	2 657 90                        @ ../../CCC_common/Library/StdDriver/src/can.c:657:90
	lsrs	r0, r0, #8
	.loc	2 657 5                         @ ../../CCC_common/Library/StdDriver/src/can.c:657:5
	ldr	r3, [sp, #36]
	.loc	2 657 22                        @ ../../CCC_common/Library/StdDriver/src/can.c:657:22
	strb	r0, [r3, #16]
	.loc	2 658 34 is_stmt 1              @ ../../CCC_common/Library/StdDriver/src/can.c:658:34
	ldr	r0, [sp, #48]
	.loc	2 658 43 is_stmt 0              @ ../../CCC_common/Library/StdDriver/src/can.c:658:43
	ldrb	r4, [r1]
	.loc	2 658 34                        @ ../../CCC_common/Library/StdDriver/src/can.c:658:34
	mov	r3, r2
	muls	r3, r4, r3
	.loc	2 658 40                        @ ../../CCC_common/Library/StdDriver/src/can.c:658:40
	adds	r0, r0, r3
	.loc	2 658 55                        @ ../../CCC_common/Library/StdDriver/src/can.c:658:55
	ldr	r0, [r0, #68]
	.loc	2 658 5                         @ ../../CCC_common/Library/StdDriver/src/can.c:658:5
	ldr	r3, [sp, #36]
	.loc	2 658 22                        @ ../../CCC_common/Library/StdDriver/src/can.c:658:22
	strb	r0, [r3, #17]
	.loc	2 659 35 is_stmt 1              @ ../../CCC_common/Library/StdDriver/src/can.c:659:35
	ldr	r0, [sp, #48]
	.loc	2 659 44 is_stmt 0              @ ../../CCC_common/Library/StdDriver/src/can.c:659:44
	ldrb	r4, [r1]
	.loc	2 659 35                        @ ../../CCC_common/Library/StdDriver/src/can.c:659:35
	mov	r3, r2
	muls	r3, r4, r3
	.loc	2 659 41                        @ ../../CCC_common/Library/StdDriver/src/can.c:659:41
	adds	r0, r0, r3
	.loc	2 659 56                        @ ../../CCC_common/Library/StdDriver/src/can.c:659:56
	ldr	r0, [r0, #68]
	.loc	2 659 90                        @ ../../CCC_common/Library/StdDriver/src/can.c:659:90
	lsrs	r0, r0, #8
	.loc	2 659 5                         @ ../../CCC_common/Library/StdDriver/src/can.c:659:5
	ldr	r3, [sp, #36]
	.loc	2 659 22                        @ ../../CCC_common/Library/StdDriver/src/can.c:659:22
	strb	r0, [r3, #18]
	.loc	2 660 34 is_stmt 1              @ ../../CCC_common/Library/StdDriver/src/can.c:660:34
	ldr	r0, [sp, #48]
	.loc	2 660 43 is_stmt 0              @ ../../CCC_common/Library/StdDriver/src/can.c:660:43
	ldrb	r4, [r1]
	.loc	2 660 34                        @ ../../CCC_common/Library/StdDriver/src/can.c:660:34
	mov	r3, r2
	muls	r3, r4, r3
	.loc	2 660 40                        @ ../../CCC_common/Library/StdDriver/src/can.c:660:40
	adds	r0, r0, r3
	.loc	2 660 55                        @ ../../CCC_common/Library/StdDriver/src/can.c:660:55
	ldr	r0, [r0, #72]
	.loc	2 660 5                         @ ../../CCC_common/Library/StdDriver/src/can.c:660:5
	ldr	r3, [sp, #36]
	.loc	2 660 22                        @ ../../CCC_common/Library/StdDriver/src/can.c:660:22
	strb	r0, [r3, #19]
	.loc	2 661 35 is_stmt 1              @ ../../CCC_common/Library/StdDriver/src/can.c:661:35
	ldr	r0, [sp, #48]
	.loc	2 661 44 is_stmt 0              @ ../../CCC_common/Library/StdDriver/src/can.c:661:44
	ldrb	r3, [r1]
	.loc	2 661 35                        @ ../../CCC_common/Library/StdDriver/src/can.c:661:35
	muls	r2, r3, r2
	.loc	2 661 41                        @ ../../CCC_common/Library/StdDriver/src/can.c:661:41
	adds	r0, r0, r2
	.loc	2 661 56                        @ ../../CCC_common/Library/StdDriver/src/can.c:661:56
	ldr	r0, [r0, #72]
	.loc	2 661 90                        @ ../../CCC_common/Library/StdDriver/src/can.c:661:90
	lsrs	r0, r0, #8
	.loc	2 661 5                         @ ../../CCC_common/Library/StdDriver/src/can.c:661:5
	ldr	r2, [sp, #36]
	.loc	2 661 22                        @ ../../CCC_common/Library/StdDriver/src/can.c:661:22
	strb	r0, [r2, #20]
	.loc	2 663 15 is_stmt 1              @ ../../CCC_common/Library/StdDriver/src/can.c:663:15
	ldr	r0, [sp, #48]
	.loc	2 663 31 is_stmt 0              @ ../../CCC_common/Library/StdDriver/src/can.c:663:31
	ldrb	r1, [r1]
	.loc	2 663 5                         @ ../../CCC_common/Library/StdDriver/src/can.c:663:5
	bl	ReleaseIF
	movs	r0, #1
	.loc	2 664 5 is_stmt 1               @ ../../CCC_common/Library/StdDriver/src/can.c:664:5
	str	r0, [sp, #52]
	b	.LBB13_15
.LBB13_15:
	.loc	2 665 1                         @ ../../CCC_common/Library/StdDriver/src/can.c:665:1
	ldr	r0, [sp, #52]
	.loc	2 665 1 epilogue_begin is_stmt 0 @ ../../CCC_common/Library/StdDriver/src/can.c:665:1
	add	sp, #56
	pop	{r4, r5, r7, pc}
.Ltmp143:
	.loc	2 0 1                           @ :0:1
.Ltmp144:
	.p2align	2
@ %bb.16:
__arm_cp.13_0:
	.long	SystemCoreClock
.Lcpi_end9:
	.size	__arm_cp.13_0, .Lcpi_end9-__arm_cp.13_0
__arm_cp.13_1:
	.long	8188                            @ 0x1ffc
.Lcpi_end10:
	.size	__arm_cp.13_1, .Lcpi_end10-__arm_cp.13_1
.Lfunc_end13:
	.size	CAN_ReadMsgObj, .Lfunc_end13-CAN_ReadMsgObj
	.cfi_endproc
	.cantunwind
	.fnend
                                        @ -- End function
	.section	.text.CAN_SetBaudRate,"ax",%progbits
	.hidden	CAN_SetBaudRate                 @ -- Begin function CAN_SetBaudRate
	.globl	CAN_SetBaudRate
	.p2align	2
	.type	CAN_SetBaudRate,%function
	.code	16                              @ @CAN_SetBaudRate
	.thumb_func
CAN_SetBaudRate:
.Lfunc_begin14:
	.loc	2 702 0 is_stmt 1               @ ../../CCC_common/Library/StdDriver/src/can.c:702:0
	.fnstart
	.cfi_startproc
@ %bb.0:
	.save	{r4, lr}
	push	{r4, lr}
	.cfi_def_cfa_offset 8
	.cfi_offset lr, -4
	.cfi_offset r4, -8
	.pad	#96
	sub	sp, #96
	.cfi_def_cfa_offset 104
	str	r0, [sp, #92]
	str	r1, [sp, #88]
	ldr	r0, __arm_cp.14_0
.Ltmp145:
	.loc	2 704 10 prologue_end           @ ../../CCC_common/Library/StdDriver/src/can.c:704:10
	str	r0, [sp, #80]
	movs	r1, #0
	.loc	2 704 35 is_stmt 0              @ ../../CCC_common/Library/StdDriver/src/can.c:704:35
	str	r1, [sp, #16]                   @ 4-byte Spill
	str	r1, [sp, #76]
	.loc	2 705 9 is_stmt 1               @ ../../CCC_common/Library/StdDriver/src/can.c:705:9
	str	r1, [sp, #72]
	.loc	2 705 24 is_stmt 0              @ ../../CCC_common/Library/StdDriver/src/can.c:705:24
	str	r1, [sp, #68]
	.loc	2 705 38                        @ ../../CCC_common/Library/StdDriver/src/can.c:705:38
	str	r1, [sp, #64]
	.loc	2 706 18 is_stmt 1              @ ../../CCC_common/Library/StdDriver/src/can.c:706:18
	str	r1, [sp, #56]
	.loc	2 706 28 is_stmt 0              @ ../../CCC_common/Library/StdDriver/src/can.c:706:28
	str	r1, [sp, #52]
	.loc	2 706 39                        @ ../../CCC_common/Library/StdDriver/src/can.c:706:39
	str	r1, [sp, #48]
	movw	r0, #1000
	.loc	2 707 9 is_stmt 1               @ ../../CCC_common/Library/StdDriver/src/can.c:707:9
	str	r0, [sp, #44]
	.loc	2 707 27 is_stmt 0              @ ../../CCC_common/Library/StdDriver/src/can.c:707:27
	str	r1, [sp, #40]
	.loc	2 708 13 is_stmt 1              @ ../../CCC_common/Library/StdDriver/src/can.c:708:13
	str	r1, [sp, #28]
	str	r1, [sp, #24]
	movs	r0, #1
	.loc	2 709 14                        @ ../../CCC_common/Library/StdDriver/src/can.c:709:14
	str	r0, [sp, #20]
	.loc	2 711 23                        @ ../../CCC_common/Library/StdDriver/src/can.c:711:23
	ldr	r0, [sp, #92]
	.loc	2 711 5 is_stmt 0               @ ../../CCC_common/Library/StdDriver/src/can.c:711:5
	bl	CAN_EnterInitMode
	.loc	2 713 27 is_stmt 1              @ ../../CCC_common/Library/StdDriver/src/can.c:713:27
	bl	CLK_GetPCLK0Freq
	ldr	r1, [sp, #16]                   @ 4-byte Reload
	.loc	2 713 16 is_stmt 0              @ ../../CCC_common/Library/StdDriver/src/can.c:713:16
	str	r1, [sp, #28]
	str	r0, [sp, #24]
.Ltmp146:
	.loc	2 715 8 is_stmt 1               @ ../../CCC_common/Library/StdDriver/src/can.c:715:8
	ldr	r0, [sp, #88]
	ldr	r1, __arm_cp.14_1
.Ltmp147:
	.loc	2 715 8 is_stmt 0               @ ../../CCC_common/Library/StdDriver/src/can.c:715:8
	cmp	r0, r1
	blo	.LBB14_2
	b	.LBB14_1
.LBB14_1:
	.loc	2 0 8                           @ ../../CCC_common/Library/StdDriver/src/can.c:0:8
	ldr	r0, __arm_cp.14_1
.Ltmp148:
	.loc	2 717 21 is_stmt 1              @ ../../CCC_common/Library/StdDriver/src/can.c:717:21
	str	r0, [sp, #88]
	.loc	2 718 5                         @ ../../CCC_common/Library/StdDriver/src/can.c:718:5
	b	.LBB14_2
.Ltmp149:
.LBB14_2:
	.loc	2 721 8                         @ ../../CCC_common/Library/StdDriver/src/can.c:721:8
	ldr	r0, [sp, #88]
	ldr	r1, __arm_cp.14_2
.Ltmp150:
	.loc	2 721 8 is_stmt 0               @ ../../CCC_common/Library/StdDriver/src/can.c:721:8
	cmp	r0, r1
	blo	.LBB14_4
	b	.LBB14_3
.LBB14_3:
	.loc	2 0 8                           @ ../../CCC_common/Library/StdDriver/src/can.c:0:8
	ldr	r0, __arm_cp.14_5
.Ltmp151:
	.loc	2 723 18 is_stmt 1              @ ../../CCC_common/Library/StdDriver/src/can.c:723:18
	str	r0, [sp, #36]
	.loc	2 724 5                         @ ../../CCC_common/Library/StdDriver/src/can.c:724:5
	b	.LBB14_8
.Ltmp152:
.LBB14_4:
	.loc	2 725 13                        @ ../../CCC_common/Library/StdDriver/src/can.c:725:13
	ldr	r0, [sp, #88]
	ldr	r1, __arm_cp.14_3
.Ltmp153:
	.loc	2 725 13 is_stmt 0              @ ../../CCC_common/Library/StdDriver/src/can.c:725:13
	cmp	r0, r1
	blo	.LBB14_6
	b	.LBB14_5
.LBB14_5:
	.loc	2 0 13                          @ ../../CCC_common/Library/StdDriver/src/can.c:0:13
	movw	r0, #800
.Ltmp154:
	.loc	2 727 18 is_stmt 1              @ ../../CCC_common/Library/StdDriver/src/can.c:727:18
	str	r0, [sp, #36]
	.loc	2 728 5                         @ ../../CCC_common/Library/StdDriver/src/can.c:728:5
	b	.LBB14_7
.Ltmp155:
.LBB14_6:
	.loc	2 0 5 is_stmt 0                 @ ../../CCC_common/Library/StdDriver/src/can.c:0:5
	ldr	r0, __arm_cp.14_4
.Ltmp156:
	.loc	2 731 18 is_stmt 1              @ ../../CCC_common/Library/StdDriver/src/can.c:731:18
	str	r0, [sp, #36]
	b	.LBB14_7
.Ltmp157:
.LBB14_7:
	.loc	2 0 18 is_stmt 0                @ ../../CCC_common/Library/StdDriver/src/can.c:0:18
	b	.LBB14_8
.LBB14_8:
	movs	r0, #49
.Ltmp158:
	.loc	2 735 14 is_stmt 1              @ ../../CCC_common/Library/StdDriver/src/can.c:735:14
	str	r0, [sp, #56]
	.loc	2 735 9 is_stmt 0               @ ../../CCC_common/Library/StdDriver/src/can.c:735:9
	b	.LBB14_9
.LBB14_9:                               @ =>This Inner Loop Header: Depth=1
.Ltmp159:
	.loc	2 735 49                        @ ../../CCC_common/Library/StdDriver/src/can.c:735:49
	ldr	r0, [sp, #56]
.Ltmp160:
	.loc	2 735 5                         @ ../../CCC_common/Library/StdDriver/src/can.c:735:5
	cmp	r0, #6
	bge	.LBB14_10
	b	.LBB14_28
.LBB14_10:                              @   in Loop: Header=BB14_9 Depth=1
.Ltmp161:
	.loc	2 737 23 is_stmt 1              @ ../../CCC_common/Library/StdDriver/src/can.c:737:23
	ldr	r0, [sp, #56]
	.loc	2 737 28 is_stmt 0              @ ../../CCC_common/Library/StdDriver/src/can.c:737:28
	lsrs	r1, r0, #31
	adds	r0, r0, r1
	asrs	r0, r0, #1
	.loc	2 737 21                        @ ../../CCC_common/Library/StdDriver/src/can.c:737:21
	adds	r0, r0, #1
	.loc	2 737 17                        @ ../../CCC_common/Library/StdDriver/src/can.c:737:17
	str	r0, [sp, #60]
	.loc	2 741 25 is_stmt 1              @ ../../CCC_common/Library/StdDriver/src/can.c:741:25
	ldr	r0, [sp, #24]
	str	r0, [sp, #8]                    @ 4-byte Spill
	ldr	r0, [sp, #28]
	.loc	2 741 48 is_stmt 0              @ ../../CCC_common/Library/StdDriver/src/can.c:741:48
	str	r0, [sp, #12]                   @ 4-byte Spill
	ldr	r0, [sp, #60]
	asrs	r1, r0, #31
	.loc	2 741 67                        @ ../../CCC_common/Library/StdDriver/src/can.c:741:67
	ldr	r2, [sp, #88]
	asrs	r3, r2, #31
	.loc	2 741 56                        @ ../../CCC_common/Library/StdDriver/src/can.c:741:56
	bl	__aeabi_lmul
	mov	r2, r0
	ldr	r0, [sp, #8]                    @ 4-byte Reload
	mov	r3, r1
	.loc	2 741 36                        @ ../../CCC_common/Library/StdDriver/src/can.c:741:36
	ldr	r1, [sp, #12]                   @ 4-byte Reload
	bl	__aeabi_ldivmod
	.loc	2 741 84                        @ ../../CCC_common/Library/StdDriver/src/can.c:741:84
	ldr	r1, [sp, #56]
	.loc	2 741 89                        @ ../../CCC_common/Library/StdDriver/src/can.c:741:89
	lsrs	r2, r1, #31
	adds	r2, r1, r2
	movs	r3, #1
	bics	r2, r3
	subs	r1, r1, r2
	.loc	2 741 81                        @ ../../CCC_common/Library/StdDriver/src/can.c:741:81
	adds	r0, r0, r1
	.loc	2 741 13                        @ ../../CCC_common/Library/StdDriver/src/can.c:741:13
	str	r0, [sp, #64]
	.loc	2 745 16 is_stmt 1              @ ../../CCC_common/Library/StdDriver/src/can.c:745:16
	ldr	r0, [sp, #64]
.Ltmp162:
	.loc	2 747 29                        @ ../../CCC_common/Library/StdDriver/src/can.c:747:29
	cmp	r0, #1
	blt	.LBB14_26
	b	.LBB14_11
.LBB14_11:                              @   in Loop: Header=BB14_9 Depth=1
	.loc	2 747 33 is_stmt 0              @ ../../CCC_common/Library/StdDriver/src/can.c:747:33
	ldr	r0, [sp, #64]
	movw	r1, #1024
.Ltmp163:
	.loc	2 747 12                        @ ../../CCC_common/Library/StdDriver/src/can.c:747:12
	cmp	r0, r1
	bgt	.LBB14_26
	b	.LBB14_12
.LBB14_12:                              @   in Loop: Header=BB14_9 Depth=1
.Ltmp164:
	.loc	2 749 30 is_stmt 1              @ ../../CCC_common/Library/StdDriver/src/can.c:749:30
	ldr	r0, [sp, #24]
	str	r0, [sp]                        @ 4-byte Spill
	ldr	r0, [sp, #28]
	.loc	2 749 53 is_stmt 0              @ ../../CCC_common/Library/StdDriver/src/can.c:749:53
	str	r0, [sp, #4]                    @ 4-byte Spill
	ldr	r0, [sp, #64]
	asrs	r1, r0, #31
	.loc	2 749 59                        @ ../../CCC_common/Library/StdDriver/src/can.c:749:59
	ldr	r2, [sp, #60]
	asrs	r3, r2, #31
	.loc	2 749 57                        @ ../../CCC_common/Library/StdDriver/src/can.c:749:57
	bl	__aeabi_lmul
	mov	r2, r0
	ldr	r0, [sp]                        @ 4-byte Reload
	mov	r3, r1
	.loc	2 749 41                        @ ../../CCC_common/Library/StdDriver/src/can.c:749:41
	ldr	r1, [sp, #4]                    @ 4-byte Reload
	bl	__aeabi_ldivmod
	.loc	2 749 18                        @ ../../CCC_common/Library/StdDriver/src/can.c:749:18
	str	r0, [sp, #84]
	.loc	2 751 30 is_stmt 1              @ ../../CCC_common/Library/StdDriver/src/can.c:751:30
	ldr	r0, [sp, #88]
	.loc	2 751 44 is_stmt 0              @ ../../CCC_common/Library/StdDriver/src/can.c:751:44
	ldr	r1, [sp, #84]
	.loc	2 751 42                        @ ../../CCC_common/Library/StdDriver/src/can.c:751:42
	subs	r0, r0, r1
	.loc	2 751 19                        @ ../../CCC_common/Library/StdDriver/src/can.c:751:19
	str	r0, [sp, #76]
.Ltmp165:
	.loc	2 754 16 is_stmt 1              @ ../../CCC_common/Library/StdDriver/src/can.c:754:16
	ldr	r0, [sp, #76]
.Ltmp166:
	.loc	2 754 16 is_stmt 0              @ ../../CCC_common/Library/StdDriver/src/can.c:754:16
	cmp	r0, #0
	bpl	.LBB14_14
	b	.LBB14_13
.LBB14_13:                              @   in Loop: Header=BB14_9 Depth=1
.Ltmp167:
	.loc	2 756 26 is_stmt 1              @ ../../CCC_common/Library/StdDriver/src/can.c:756:26
	ldr	r0, [sp, #76]
	.loc	2 756 25 is_stmt 0              @ ../../CCC_common/Library/StdDriver/src/can.c:756:25
	rsbs	r0, r0, #0
	.loc	2 756 23                        @ ../../CCC_common/Library/StdDriver/src/can.c:756:23
	str	r0, [sp, #76]
	.loc	2 757 13 is_stmt 1              @ ../../CCC_common/Library/StdDriver/src/can.c:757:13
	b	.LBB14_14
.Ltmp168:
.LBB14_14:                              @   in Loop: Header=BB14_9 Depth=1
	.loc	2 759 16                        @ ../../CCC_common/Library/StdDriver/src/can.c:759:16
	ldr	r0, [sp, #76]
	.loc	2 759 25 is_stmt 0              @ ../../CCC_common/Library/StdDriver/src/can.c:759:25
	ldr	r1, [sp, #80]
.Ltmp169:
	.loc	2 759 16                        @ ../../CCC_common/Library/StdDriver/src/can.c:759:16
	cmp	r0, r1
	bgt	.LBB14_25
	b	.LBB14_15
.LBB14_15:                              @   in Loop: Header=BB14_9 Depth=1
.Ltmp170:
	.loc	2 761 30 is_stmt 1              @ ../../CCC_common/Library/StdDriver/src/can.c:761:30
	ldr	r0, [sp, #76]
	.loc	2 761 28 is_stmt 0              @ ../../CCC_common/Library/StdDriver/src/can.c:761:28
	str	r0, [sp, #80]
.Ltmp171:
	.loc	2 762 20 is_stmt 1              @ ../../CCC_common/Library/StdDriver/src/can.c:762:20
	ldr	r0, [sp, #76]
.Ltmp172:
	.loc	2 762 20 is_stmt 0              @ ../../CCC_common/Library/StdDriver/src/can.c:762:20
	cbnz	r0, .LBB14_23
	b	.LBB14_16
.LBB14_16:                              @   in Loop: Header=BB14_9 Depth=1
.Ltmp173:
	.loc	2 764 42 is_stmt 1              @ ../../CCC_common/Library/StdDriver/src/can.c:764:42
	ldr	r0, [sp, #36]
	.loc	2 764 52 is_stmt 0              @ ../../CCC_common/Library/StdDriver/src/can.c:764:52
	ldr	r1, [sp, #56]
	.loc	2 764 57                        @ ../../CCC_common/Library/StdDriver/src/can.c:764:57
	lsrs	r2, r1, #31
	adds	r1, r1, r2
	asrs	r1, r1, #1
	add	r2, sp, #52
	add	r3, sp, #48
	.loc	2 764 27                        @ ../../CCC_common/Library/StdDriver/src/can.c:764:27
	bl	can_update_spt
	.loc	2 764 25                        @ ../../CCC_common/Library/StdDriver/src/can.c:764:25
	str	r0, [sp, #40]
	.loc	2 765 29 is_stmt 1              @ ../../CCC_common/Library/StdDriver/src/can.c:765:29
	ldr	r0, [sp, #36]
	.loc	2 765 40 is_stmt 0              @ ../../CCC_common/Library/StdDriver/src/can.c:765:40
	ldr	r1, [sp, #40]
	.loc	2 765 38                        @ ../../CCC_common/Library/StdDriver/src/can.c:765:38
	subs	r0, r0, r1
	.loc	2 765 27                        @ ../../CCC_common/Library/StdDriver/src/can.c:765:27
	str	r0, [sp, #76]
.Ltmp174:
	.loc	2 766 24 is_stmt 1              @ ../../CCC_common/Library/StdDriver/src/can.c:766:24
	ldr	r0, [sp, #76]
.Ltmp175:
	.loc	2 766 24 is_stmt 0              @ ../../CCC_common/Library/StdDriver/src/can.c:766:24
	cmp	r0, #0
	bpl	.LBB14_18
	b	.LBB14_17
.LBB14_17:                              @   in Loop: Header=BB14_9 Depth=1
.Ltmp176:
	.loc	2 768 34 is_stmt 1              @ ../../CCC_common/Library/StdDriver/src/can.c:768:34
	ldr	r0, [sp, #76]
	.loc	2 768 33 is_stmt 0              @ ../../CCC_common/Library/StdDriver/src/can.c:768:33
	rsbs	r0, r0, #0
	.loc	2 768 31                        @ ../../CCC_common/Library/StdDriver/src/can.c:768:31
	str	r0, [sp, #76]
	.loc	2 769 21 is_stmt 1              @ ../../CCC_common/Library/StdDriver/src/can.c:769:21
	b	.LBB14_18
.Ltmp177:
.LBB14_18:                              @   in Loop: Header=BB14_9 Depth=1
	.loc	2 770 24                        @ ../../CCC_common/Library/StdDriver/src/can.c:770:24
	ldr	r0, [sp, #76]
	.loc	2 770 33 is_stmt 0              @ ../../CCC_common/Library/StdDriver/src/can.c:770:33
	ldr	r1, [sp, #44]
.Ltmp178:
	.loc	2 770 24                        @ ../../CCC_common/Library/StdDriver/src/can.c:770:24
	cmp	r0, r1
	bgt	.LBB14_22
	b	.LBB14_19
.LBB14_19:                              @   in Loop: Header=BB14_9 Depth=1
.Ltmp179:
	.loc	2 772 37 is_stmt 1              @ ../../CCC_common/Library/StdDriver/src/can.c:772:37
	ldr	r0, [sp, #76]
	.loc	2 772 35 is_stmt 0              @ ../../CCC_common/Library/StdDriver/src/can.c:772:35
	str	r0, [sp, #44]
	.loc	2 773 37 is_stmt 1              @ ../../CCC_common/Library/StdDriver/src/can.c:773:37
	ldr	r0, [sp, #56]
	.loc	2 773 42 is_stmt 0              @ ../../CCC_common/Library/StdDriver/src/can.c:773:42
	lsrs	r1, r0, #31
	adds	r0, r0, r1
	asrs	r0, r0, #1
	.loc	2 773 35                        @ ../../CCC_common/Library/StdDriver/src/can.c:773:35
	str	r0, [sp, #72]
	.loc	2 774 36 is_stmt 1              @ ../../CCC_common/Library/StdDriver/src/can.c:774:36
	ldr	r0, [sp, #64]
	.loc	2 774 34 is_stmt 0              @ ../../CCC_common/Library/StdDriver/src/can.c:774:34
	str	r0, [sp, #68]
.Ltmp180:
	.loc	2 775 28 is_stmt 1              @ ../../CCC_common/Library/StdDriver/src/can.c:775:28
	ldr	r0, [sp, #76]
.Ltmp181:
	.loc	2 775 28 is_stmt 0              @ ../../CCC_common/Library/StdDriver/src/can.c:775:28
	cbnz	r0, .LBB14_21
	b	.LBB14_20
.LBB14_20:
.Ltmp182:
	.loc	2 777 29 is_stmt 1              @ ../../CCC_common/Library/StdDriver/src/can.c:777:29
	b	.LBB14_28
.Ltmp183:
.LBB14_21:                              @   in Loop: Header=BB14_9 Depth=1
	.loc	2 779 21                        @ ../../CCC_common/Library/StdDriver/src/can.c:779:21
	b	.LBB14_22
.Ltmp184:
.LBB14_22:                              @   in Loop: Header=BB14_9 Depth=1
	.loc	2 780 17                        @ ../../CCC_common/Library/StdDriver/src/can.c:780:17
	b	.LBB14_24
.Ltmp185:
.LBB14_23:                              @   in Loop: Header=BB14_9 Depth=1
	.loc	2 783 33                        @ ../../CCC_common/Library/StdDriver/src/can.c:783:33
	ldr	r0, [sp, #56]
	.loc	2 783 38 is_stmt 0              @ ../../CCC_common/Library/StdDriver/src/can.c:783:38
	lsrs	r1, r0, #31
	adds	r0, r0, r1
	asrs	r0, r0, #1
	.loc	2 783 31                        @ ../../CCC_common/Library/StdDriver/src/can.c:783:31
	str	r0, [sp, #72]
	.loc	2 784 32 is_stmt 1              @ ../../CCC_common/Library/StdDriver/src/can.c:784:32
	ldr	r0, [sp, #64]
	.loc	2 784 30 is_stmt 0              @ ../../CCC_common/Library/StdDriver/src/can.c:784:30
	str	r0, [sp, #68]
	b	.LBB14_24
.Ltmp186:
.LBB14_24:                              @   in Loop: Header=BB14_9 Depth=1
	.loc	2 786 13 is_stmt 1              @ ../../CCC_common/Library/StdDriver/src/can.c:786:13
	b	.LBB14_25
.Ltmp187:
.LBB14_25:                              @   in Loop: Header=BB14_9 Depth=1
	.loc	2 787 9                         @ ../../CCC_common/Library/StdDriver/src/can.c:787:9
	b	.LBB14_26
.Ltmp188:
.LBB14_26:                              @   in Loop: Header=BB14_9 Depth=1
	.loc	2 788 5                         @ ../../CCC_common/Library/StdDriver/src/can.c:788:5
	b	.LBB14_27
.Ltmp189:
.LBB14_27:                              @   in Loop: Header=BB14_9 Depth=1
	.loc	2 735 90                        @ ../../CCC_common/Library/StdDriver/src/can.c:735:90
	ldr	r0, [sp, #56]
	subs	r0, r0, #1
	str	r0, [sp, #56]
	.loc	2 735 5 is_stmt 0               @ ../../CCC_common/Library/StdDriver/src/can.c:735:5
	b	.LBB14_9
.Ltmp190:
.LBB14_28:
	.loc	2 790 26 is_stmt 1              @ ../../CCC_common/Library/StdDriver/src/can.c:790:26
	ldr	r0, [sp, #36]
	.loc	2 790 36 is_stmt 0              @ ../../CCC_common/Library/StdDriver/src/can.c:790:36
	ldr	r1, [sp, #72]
	add	r2, sp, #52
	add	r3, sp, #48
	.loc	2 790 11                        @ ../../CCC_common/Library/StdDriver/src/can.c:790:11
	bl	can_update_spt
	.loc	2 790 9                         @ ../../CCC_common/Library/StdDriver/src/can.c:790:9
	str	r0, [sp, #40]
.Ltmp191:
	.loc	2 794 8 is_stmt 1               @ ../../CCC_common/Library/StdDriver/src/can.c:794:8
	ldr	r0, [sp, #20]
.Ltmp192:
	.loc	2 794 8 is_stmt 0               @ ../../CCC_common/Library/StdDriver/src/can.c:794:8
	cmp	r0, #5
	blo	.LBB14_30
	b	.LBB14_29
.LBB14_29:
	.loc	2 0 8                           @ ../../CCC_common/Library/StdDriver/src/can.c:0:8
	movs	r0, #4
.Ltmp193:
	.loc	2 796 13 is_stmt 1              @ ../../CCC_common/Library/StdDriver/src/can.c:796:13
	str	r0, [sp, #20]
	.loc	2 797 5                         @ ../../CCC_common/Library/StdDriver/src/can.c:797:5
	b	.LBB14_30
.Ltmp194:
.LBB14_30:
	.loc	2 799 8                         @ ../../CCC_common/Library/StdDriver/src/can.c:799:8
	ldr	r0, [sp, #48]
	.loc	2 799 25 is_stmt 0              @ ../../CCC_common/Library/StdDriver/src/can.c:799:25
	ldr	r1, [sp, #20]
.Ltmp195:
	.loc	2 799 8                         @ ../../CCC_common/Library/StdDriver/src/can.c:799:8
	cmp	r0, r1
	bge	.LBB14_32
	b	.LBB14_31
.LBB14_31:
.Ltmp196:
	.loc	2 801 25 is_stmt 1              @ ../../CCC_common/Library/StdDriver/src/can.c:801:25
	ldr	r0, [sp, #48]
	.loc	2 801 13 is_stmt 0              @ ../../CCC_common/Library/StdDriver/src/can.c:801:13
	str	r0, [sp, #20]
	.loc	2 802 5 is_stmt 1               @ ../../CCC_common/Library/StdDriver/src/can.c:802:5
	b	.LBB14_32
.Ltmp197:
.LBB14_32:
	.loc	2 805 39                        @ ../../CCC_common/Library/StdDriver/src/can.c:805:39
	ldr	r0, [sp, #24]
	ldr	r1, [sp, #28]
	.loc	2 805 62 is_stmt 0              @ ../../CCC_common/Library/StdDriver/src/can.c:805:62
	ldr	r3, [sp, #68]
	.loc	2 805 74                        @ ../../CCC_common/Library/StdDriver/src/can.c:805:74
	ldr	r2, [sp, #52]
	.loc	2 805 82                        @ ../../CCC_common/Library/StdDriver/src/can.c:805:82
	ldr	r4, [sp, #48]
	.loc	2 805 80                        @ ../../CCC_common/Library/StdDriver/src/can.c:805:80
	adds	r2, r2, r4
	.loc	2 805 88                        @ ../../CCC_common/Library/StdDriver/src/can.c:805:88
	adds	r2, r2, #1
	.loc	2 805 71                        @ ../../CCC_common/Library/StdDriver/src/can.c:805:71
	muls	r2, r3, r2
	.loc	2 805 52                        @ ../../CCC_common/Library/StdDriver/src/can.c:805:52
	asrs	r3, r2, #31
	.loc	2 805 50                        @ ../../CCC_common/Library/StdDriver/src/can.c:805:50
	bl	__aeabi_ldivmod
	.loc	2 805 17                        @ ../../CCC_common/Library/StdDriver/src/can.c:805:17
	str	r0, [sp, #88]
	.loc	2 807 31 is_stmt 1              @ ../../CCC_common/Library/StdDriver/src/can.c:807:31
	ldr	r0, [sp, #48]
	.loc	2 807 37 is_stmt 0              @ ../../CCC_common/Library/StdDriver/src/can.c:807:37
	lsls	r0, r0, #12
	.loc	2 807 44                        @ ../../CCC_common/Library/StdDriver/src/can.c:807:44
	movw	r1, #4096
	subs	r0, r0, r1
	.loc	2 807 82                        @ ../../CCC_common/Library/StdDriver/src/can.c:807:82
	ldr	r1, [sp, #52]
	.loc	2 807 88                        @ ../../CCC_common/Library/StdDriver/src/can.c:807:88
	lsls	r1, r1, #8
	.loc	2 807 95                        @ ../../CCC_common/Library/StdDriver/src/can.c:807:95
	movw	r2, #256
	subs	r1, r1, r2
	.loc	2 807 68                        @ ../../CCC_common/Library/StdDriver/src/can.c:807:68
	orrs	r0, r1
	.loc	2 808 31 is_stmt 1              @ ../../CCC_common/Library/StdDriver/src/can.c:808:31
	ldr	r1, [sp, #68]
	.loc	2 808 40 is_stmt 0              @ ../../CCC_common/Library/StdDriver/src/can.c:808:40
	subs	r1, r1, #1
	movs	r2, #63
	.loc	2 808 47                        @ ../../CCC_common/Library/StdDriver/src/can.c:808:47
	ands	r1, r2
	.loc	2 807 119 is_stmt 1             @ ../../CCC_common/Library/StdDriver/src/can.c:807:119
	adds	r0, r0, r1
	.loc	2 808 71                        @ ../../CCC_common/Library/StdDriver/src/can.c:808:71
	ldr	r1, [sp, #20]
	.loc	2 808 75 is_stmt 0              @ ../../CCC_common/Library/StdDriver/src/can.c:808:75
	lsls	r1, r1, #6
	.loc	2 808 68                        @ ../../CCC_common/Library/StdDriver/src/can.c:808:68
	orrs	r0, r1
	.loc	2 807 5 is_stmt 1               @ ../../CCC_common/Library/StdDriver/src/can.c:807:5
	ldr	r1, [sp, #92]
	.loc	2 807 17 is_stmt 0              @ ../../CCC_common/Library/StdDriver/src/can.c:807:17
	str	r0, [r1, #12]
	.loc	2 811 31 is_stmt 1              @ ../../CCC_common/Library/StdDriver/src/can.c:811:31
	ldr	r0, [sp, #68]
	.loc	2 811 40 is_stmt 0              @ ../../CCC_common/Library/StdDriver/src/can.c:811:40
	subs	r0, r0, #1
	.loc	2 811 53                        @ ../../CCC_common/Library/StdDriver/src/can.c:811:53
	lsls	r0, r0, #22
	lsrs	r0, r0, #28
	.loc	2 811 5                         @ ../../CCC_common/Library/StdDriver/src/can.c:811:5
	ldr	r1, [sp, #92]
	.loc	2 811 17                        @ ../../CCC_common/Library/StdDriver/src/can.c:811:17
	str	r0, [r1, #24]
	.loc	2 815 23 is_stmt 1              @ ../../CCC_common/Library/StdDriver/src/can.c:815:23
	ldr	r0, [sp, #92]
	.loc	2 815 5 is_stmt 0               @ ../../CCC_common/Library/StdDriver/src/can.c:815:5
	bl	CAN_LeaveInitMode
	.loc	2 817 12 is_stmt 1              @ ../../CCC_common/Library/StdDriver/src/can.c:817:12
	ldr	r0, [sp, #88]
	.loc	2 817 5 epilogue_begin is_stmt 0 @ ../../CCC_common/Library/StdDriver/src/can.c:817:5
	add	sp, #96
	pop	{r4, pc}
.Ltmp198:
	.loc	2 0 5                           @ :0:5
.Ltmp199:
	.p2align	2
@ %bb.33:
__arm_cp.14_0:
	.long	1000000000                      @ 0x3b9aca00
.Lcpi_end11:
	.size	__arm_cp.14_0, .Lcpi_end11-__arm_cp.14_0
__arm_cp.14_1:
	.long	1000000                         @ 0xf4240
.Lcpi_end12:
	.size	__arm_cp.14_1, .Lcpi_end12-__arm_cp.14_1
__arm_cp.14_2:
	.long	800001                          @ 0xc3501
.Lcpi_end13:
	.size	__arm_cp.14_2, .Lcpi_end13-__arm_cp.14_2
__arm_cp.14_3:
	.long	500001                          @ 0x7a121
.Lcpi_end14:
	.size	__arm_cp.14_3, .Lcpi_end14-__arm_cp.14_3
__arm_cp.14_4:
	.long	875                             @ 0x36b
.Lcpi_end15:
	.size	__arm_cp.14_4, .Lcpi_end15-__arm_cp.14_4
__arm_cp.14_5:
	.long	750                             @ 0x2ee
.Lcpi_end16:
	.size	__arm_cp.14_5, .Lcpi_end16-__arm_cp.14_5
.Lfunc_end14:
	.size	CAN_SetBaudRate, .Lfunc_end14-CAN_SetBaudRate
	.cfi_endproc
	.cantunwind
	.fnend
                                        @ -- End function
	.section	.text.can_update_spt,"ax",%progbits
	.p2align	1                               @ -- Begin function can_update_spt
	.type	can_update_spt,%function
	.code	16                              @ @can_update_spt
	.thumb_func
can_update_spt:
.Lfunc_begin15:
	.loc	2 668 0 is_stmt 1               @ ../../CCC_common/Library/StdDriver/src/can.c:668:0
	.fnstart
	.cfi_startproc
@ %bb.0:
	.pad	#16
	sub	sp, #16
	.cfi_def_cfa_offset 16
	str	r0, [sp, #12]
	str	r1, [sp, #8]
	str	r2, [sp, #4]
	str	r3, [sp]
.Ltmp200:
	.loc	2 669 14 prologue_end           @ ../../CCC_common/Library/StdDriver/src/can.c:669:14
	ldr	r0, [sp, #8]
	.loc	2 669 19 is_stmt 0              @ ../../CCC_common/Library/StdDriver/src/can.c:669:19
	adds	r0, r0, #1
	.loc	2 669 26                        @ ../../CCC_common/Library/StdDriver/src/can.c:669:26
	ldr	r2, [sp, #12]
	.loc	2 669 35                        @ ../../CCC_common/Library/StdDriver/src/can.c:669:35
	mov	r1, r0
	muls	r1, r2, r1
	movw	r2, #1000
	.loc	2 669 49                        @ ../../CCC_common/Library/StdDriver/src/can.c:669:49
	sdiv	r1, r1, r2
	.loc	2 669 23                        @ ../../CCC_common/Library/StdDriver/src/can.c:669:23
	subs	r0, r0, r1
	.loc	2 669 6                         @ ../../CCC_common/Library/StdDriver/src/can.c:669:6
	ldr	r1, [sp]
	.loc	2 669 12                        @ ../../CCC_common/Library/StdDriver/src/can.c:669:12
	str	r0, [r1]
.Ltmp201:
	.loc	2 670 9 is_stmt 1               @ ../../CCC_common/Library/StdDriver/src/can.c:670:9
	ldr	r0, [sp]
	.loc	2 670 8 is_stmt 0               @ ../../CCC_common/Library/StdDriver/src/can.c:670:8
	ldr	r0, [r0]
.Ltmp202:
	.loc	2 670 8                         @ ../../CCC_common/Library/StdDriver/src/can.c:670:8
	cmp	r0, #0
	bgt	.LBB15_2
	b	.LBB15_1
.LBB15_1:
.Ltmp203:
	.loc	2 672 10 is_stmt 1              @ ../../CCC_common/Library/StdDriver/src/can.c:672:10
	ldr	r1, [sp]
	movs	r0, #1
	.loc	2 672 16 is_stmt 0              @ ../../CCC_common/Library/StdDriver/src/can.c:672:16
	str	r0, [r1]
	.loc	2 673 5 is_stmt 1               @ ../../CCC_common/Library/StdDriver/src/can.c:673:5
	b	.LBB15_2
.Ltmp204:
.LBB15_2:
	.loc	2 674 9                         @ ../../CCC_common/Library/StdDriver/src/can.c:674:9
	ldr	r0, [sp]
	.loc	2 674 8 is_stmt 0               @ ../../CCC_common/Library/StdDriver/src/can.c:674:8
	ldr	r0, [r0]
.Ltmp205:
	.loc	2 674 8                         @ ../../CCC_common/Library/StdDriver/src/can.c:674:8
	cmp	r0, #9
	blt	.LBB15_4
	b	.LBB15_3
.LBB15_3:
.Ltmp206:
	.loc	2 676 10 is_stmt 1              @ ../../CCC_common/Library/StdDriver/src/can.c:676:10
	ldr	r1, [sp]
	movs	r0, #8
	.loc	2 676 16 is_stmt 0              @ ../../CCC_common/Library/StdDriver/src/can.c:676:16
	str	r0, [r1]
	.loc	2 677 5 is_stmt 1               @ ../../CCC_common/Library/StdDriver/src/can.c:677:5
	b	.LBB15_4
.Ltmp207:
.LBB15_4:
	.loc	2 679 14                        @ ../../CCC_common/Library/StdDriver/src/can.c:679:14
	ldr	r0, [sp, #8]
	.loc	2 679 22 is_stmt 0              @ ../../CCC_common/Library/StdDriver/src/can.c:679:22
	ldr	r1, [sp]
	.loc	2 679 21                        @ ../../CCC_common/Library/StdDriver/src/can.c:679:21
	ldr	r1, [r1]
	.loc	2 679 19                        @ ../../CCC_common/Library/StdDriver/src/can.c:679:19
	subs	r0, r0, r1
	.loc	2 679 6                         @ ../../CCC_common/Library/StdDriver/src/can.c:679:6
	ldr	r1, [sp, #4]
	.loc	2 679 12                        @ ../../CCC_common/Library/StdDriver/src/can.c:679:12
	str	r0, [r1]
.Ltmp208:
	.loc	2 681 9 is_stmt 1               @ ../../CCC_common/Library/StdDriver/src/can.c:681:9
	ldr	r0, [sp, #4]
	.loc	2 681 8 is_stmt 0               @ ../../CCC_common/Library/StdDriver/src/can.c:681:8
	ldr	r0, [r0]
.Ltmp209:
	.loc	2 681 8                         @ ../../CCC_common/Library/StdDriver/src/can.c:681:8
	cmp	r0, #17
	blt	.LBB15_6
	b	.LBB15_5
.LBB15_5:
.Ltmp210:
	.loc	2 683 10 is_stmt 1              @ ../../CCC_common/Library/StdDriver/src/can.c:683:10
	ldr	r1, [sp, #4]
	movs	r0, #16
	.loc	2 683 16 is_stmt 0              @ ../../CCC_common/Library/StdDriver/src/can.c:683:16
	str	r0, [r1]
	.loc	2 684 18 is_stmt 1              @ ../../CCC_common/Library/StdDriver/src/can.c:684:18
	ldr	r0, [sp, #8]
	.loc	2 684 26 is_stmt 0              @ ../../CCC_common/Library/StdDriver/src/can.c:684:26
	ldr	r1, [sp, #4]
	.loc	2 684 25                        @ ../../CCC_common/Library/StdDriver/src/can.c:684:25
	ldr	r1, [r1]
	.loc	2 684 23                        @ ../../CCC_common/Library/StdDriver/src/can.c:684:23
	subs	r0, r0, r1
	.loc	2 684 10                        @ ../../CCC_common/Library/StdDriver/src/can.c:684:10
	ldr	r1, [sp]
	.loc	2 684 16                        @ ../../CCC_common/Library/StdDriver/src/can.c:684:16
	str	r0, [r1]
	.loc	2 685 5 is_stmt 1               @ ../../CCC_common/Library/StdDriver/src/can.c:685:5
	b	.LBB15_6
.Ltmp211:
.LBB15_6:
	.loc	2 686 20                        @ ../../CCC_common/Library/StdDriver/src/can.c:686:20
	ldr	r0, [sp, #8]
	.loc	2 686 25 is_stmt 0              @ ../../CCC_common/Library/StdDriver/src/can.c:686:25
	adds	r1, r0, #1
	.loc	2 686 32                        @ ../../CCC_common/Library/StdDriver/src/can.c:686:32
	ldr	r0, [sp]
	.loc	2 686 31                        @ ../../CCC_common/Library/StdDriver/src/can.c:686:31
	ldr	r0, [r0]
	.loc	2 686 29                        @ ../../CCC_common/Library/StdDriver/src/can.c:686:29
	subs	r2, r1, r0
	movw	r0, #1000
	.loc	2 686 17                        @ ../../CCC_common/Library/StdDriver/src/can.c:686:17
	muls	r0, r2, r0
	.loc	2 686 39                        @ ../../CCC_common/Library/StdDriver/src/can.c:686:39
	sdiv	r0, r0, r1
	.loc	2 686 5 epilogue_begin          @ ../../CCC_common/Library/StdDriver/src/can.c:686:5
	add	sp, #16
	bx	lr
.Ltmp212:
.Lfunc_end15:
	.size	can_update_spt, .Lfunc_end15-can_update_spt
	.cfi_endproc
	.cantunwind
	.fnend
                                        @ -- End function
	.section	.text.CAN_Close,"ax",%progbits
	.hidden	CAN_Close                       @ -- Begin function CAN_Close
	.globl	CAN_Close
	.p2align	1
	.type	CAN_Close,%function
	.code	16                              @ @CAN_Close
	.thumb_func
CAN_Close:
.Lfunc_begin16:
	.loc	2 832 0 is_stmt 1               @ ../../CCC_common/Library/StdDriver/src/can.c:832:0
	.fnstart
	.cfi_startproc
@ %bb.0:
	.save	{r7, lr}
	push	{r7, lr}
	.cfi_def_cfa_offset 8
	.cfi_offset lr, -4
	.cfi_offset r7, -8
	.pad	#8
	sub	sp, #8
	.cfi_def_cfa_offset 16
	str	r0, [sp, #4]
.Ltmp213:
	.loc	2 833 20 prologue_end           @ ../../CCC_common/Library/StdDriver/src/can.c:833:20
	ldr	r0, [sp, #4]
	movs	r1, #14
	.loc	2 833 5 is_stmt 0               @ ../../CCC_common/Library/StdDriver/src/can.c:833:5
	bl	CAN_DisableInt
	.loc	2 834 1 epilogue_begin is_stmt 1 @ ../../CCC_common/Library/StdDriver/src/can.c:834:1
	add	sp, #8
	pop	{r7, pc}
.Ltmp214:
.Lfunc_end16:
	.size	CAN_Close, .Lfunc_end16-CAN_Close
	.cfi_endproc
	.cantunwind
	.fnend
                                        @ -- End function
	.section	.text.CAN_DisableInt,"ax",%progbits
	.hidden	CAN_DisableInt                  @ -- Begin function CAN_DisableInt
	.globl	CAN_DisableInt
	.p2align	1
	.type	CAN_DisableInt,%function
	.code	16                              @ @CAN_DisableInt
	.thumb_func
CAN_DisableInt:
.Lfunc_begin17:
	.loc	2 1004 0                        @ ../../CCC_common/Library/StdDriver/src/can.c:1004:0
	.fnstart
	.cfi_startproc
@ %bb.0:
	.pad	#8
	sub	sp, #8
	.cfi_def_cfa_offset 8
	str	r0, [sp, #4]
	str	r1, [sp]
.Ltmp215:
	.loc	2 1005 17 prologue_end          @ ../../CCC_common/Library/StdDriver/src/can.c:1005:17
	ldr	r0, [sp, #4]
	.loc	2 1005 23 is_stmt 0             @ ../../CCC_common/Library/StdDriver/src/can.c:1005:23
	ldr	r0, [r0]
	.loc	2 1005 32                       @ ../../CCC_common/Library/StdDriver/src/can.c:1005:32
	ldr	r1, [sp]
	mvns	r1, r1
	movs	r2, #14
	mvns	r2, r2
	.loc	2 1005 29                       @ ../../CCC_common/Library/StdDriver/src/can.c:1005:29
	orrs	r1, r2
	.loc	2 1005 27                       @ ../../CCC_common/Library/StdDriver/src/can.c:1005:27
	ands	r0, r1
	.loc	2 1005 5                        @ ../../CCC_common/Library/StdDriver/src/can.c:1005:5
	ldr	r1, [sp, #4]
	.loc	2 1005 15                       @ ../../CCC_common/Library/StdDriver/src/can.c:1005:15
	str	r0, [r1]
	.loc	2 1006 1 epilogue_begin is_stmt 1 @ ../../CCC_common/Library/StdDriver/src/can.c:1006:1
	add	sp, #8
	bx	lr
.Ltmp216:
.Lfunc_end17:
	.size	CAN_DisableInt, .Lfunc_end17-CAN_DisableInt
	.cfi_endproc
	.cantunwind
	.fnend
                                        @ -- End function
	.section	.text.CAN_Open,"ax",%progbits
	.hidden	CAN_Open                        @ -- Begin function CAN_Open
	.globl	CAN_Open
	.p2align	1
	.type	CAN_Open,%function
	.code	16                              @ @CAN_Open
	.thumb_func
CAN_Open:
.Lfunc_begin18:
	.loc	2 852 0                         @ ../../CCC_common/Library/StdDriver/src/can.c:852:0
	.fnstart
	.cfi_startproc
@ %bb.0:
	.save	{r7, lr}
	push	{r7, lr}
	.cfi_def_cfa_offset 8
	.cfi_offset lr, -4
	.cfi_offset r7, -8
	.pad	#16
	sub	sp, #16
	.cfi_def_cfa_offset 24
	str	r0, [sp, #12]
	str	r1, [sp, #8]
	str	r2, [sp, #4]
.Ltmp217:
	.loc	2 855 41 prologue_end           @ ../../CCC_common/Library/StdDriver/src/can.c:855:41
	ldr	r0, [sp, #12]
	.loc	2 855 47 is_stmt 0              @ ../../CCC_common/Library/StdDriver/src/can.c:855:47
	ldr	r1, [sp, #8]
	.loc	2 855 25                        @ ../../CCC_common/Library/StdDriver/src/can.c:855:25
	bl	CAN_SetBaudRate
	.loc	2 855 23                        @ ../../CCC_common/Library/StdDriver/src/can.c:855:23
	str	r0, [sp]
.Ltmp218:
	.loc	2 857 8 is_stmt 1               @ ../../CCC_common/Library/StdDriver/src/can.c:857:8
	ldr	r0, [sp, #4]
.Ltmp219:
	.loc	2 857 8 is_stmt 0               @ ../../CCC_common/Library/StdDriver/src/can.c:857:8
	cmp	r0, #1
	bne	.LBB18_2
	b	.LBB18_1
.LBB18_1:
.Ltmp220:
	.loc	2 859 27 is_stmt 1              @ ../../CCC_common/Library/StdDriver/src/can.c:859:27
	ldr	r0, [sp, #12]
	movs	r1, #4
	.loc	2 859 9 is_stmt 0               @ ../../CCC_common/Library/StdDriver/src/can.c:859:9
	bl	CAN_EnterTestMode
	.loc	2 860 5 is_stmt 1               @ ../../CCC_common/Library/StdDriver/src/can.c:860:5
	b	.LBB18_2
.Ltmp221:
.LBB18_2:
	.loc	2 862 12                        @ ../../CCC_common/Library/StdDriver/src/can.c:862:12
	ldr	r0, [sp]
	.loc	2 862 5 epilogue_begin is_stmt 0 @ ../../CCC_common/Library/StdDriver/src/can.c:862:5
	add	sp, #16
	pop	{r7, pc}
.Ltmp222:
.Lfunc_end18:
	.size	CAN_Open, .Lfunc_end18-CAN_Open
	.cfi_endproc
	.cantunwind
	.fnend
                                        @ -- End function
	.section	.text.CAN_SetTxMsg,"ax",%progbits
	.hidden	CAN_SetTxMsg                    @ -- Begin function CAN_SetTxMsg
	.globl	CAN_SetTxMsg
	.p2align	2
	.type	CAN_SetTxMsg,%function
	.code	16                              @ @CAN_SetTxMsg
	.thumb_func
CAN_SetTxMsg:
.Lfunc_begin19:
	.loc	2 879 0 is_stmt 1               @ ../../CCC_common/Library/StdDriver/src/can.c:879:0
	.fnstart
	.cfi_startproc
@ %bb.0:
	.save	{r4, r5, r7, lr}
	push	{r4, r5, r7, lr}
	.cfi_def_cfa_offset 16
	.cfi_offset lr, -4
	.cfi_offset r7, -8
	.cfi_offset r5, -12
	.cfi_offset r4, -16
	.pad	#24
	sub	sp, #24
	.cfi_def_cfa_offset 40
	str	r0, [sp, #16]
	str	r1, [sp, #12]
	str	r2, [sp, #8]
.Ltmp223:
	.loc	2 882 41 prologue_end           @ ../../CCC_common/Library/StdDriver/src/can.c:882:41
	ldr	r0, [sp, #16]
	.loc	2 882 31 is_stmt 0              @ ../../CCC_common/Library/StdDriver/src/can.c:882:31
	bl	LockIF_TL
	mov	r1, r0
	.loc	2 882 22                        @ ../../CCC_common/Library/StdDriver/src/can.c:882:22
	uxtb	r0, r1
	add	r2, sp, #4
	.loc	2 882 20                        @ ../../CCC_common/Library/StdDriver/src/can.c:882:20
	strb	r1, [r2]
.Ltmp224:
	.loc	2 882 8                         @ ../../CCC_common/Library/StdDriver/src/can.c:882:8
	cmp	r0, #2
	bne	.LBB19_2
	b	.LBB19_1
.LBB19_1:
	.loc	2 0 8                           @ ../../CCC_common/Library/StdDriver/src/can.c:0:8
	movs	r0, #0
.Ltmp225:
	.loc	2 884 9 is_stmt 1               @ ../../CCC_common/Library/StdDriver/src/can.c:884:9
	str	r0, [sp, #20]
	b	.LBB19_9
.Ltmp226:
.LBB19_2:
	.loc	2 888 5                         @ ../../CCC_common/Library/StdDriver/src/can.c:888:5
	ldr	r0, [sp, #16]
	add	r1, sp, #4
	.loc	2 888 14 is_stmt 0              @ ../../CCC_common/Library/StdDriver/src/can.c:888:14
	ldrb	r2, [r1]
	movs	r1, #96
	.loc	2 888 5                         @ ../../CCC_common/Library/StdDriver/src/can.c:888:5
	muls	r1, r2, r1
	.loc	2 888 11                        @ ../../CCC_common/Library/StdDriver/src/can.c:888:11
	adds	r1, r0, r1
	movs	r0, #243
	.loc	2 888 32                        @ ../../CCC_common/Library/StdDriver/src/can.c:888:32
	str	r0, [r1, #36]
.Ltmp227:
	.loc	2 891 8 is_stmt 1               @ ../../CCC_common/Library/StdDriver/src/can.c:891:8
	ldr	r0, [sp, #8]
	.loc	2 891 17 is_stmt 0              @ ../../CCC_common/Library/StdDriver/src/can.c:891:17
	ldr	r0, [r0]
.Ltmp228:
	.loc	2 891 8                         @ ../../CCC_common/Library/StdDriver/src/can.c:891:8
	cbnz	r0, .LBB19_4
	b	.LBB19_3
.LBB19_3:
.Ltmp229:
	.loc	2 894 9 is_stmt 1               @ ../../CCC_common/Library/StdDriver/src/can.c:894:9
	ldr	r0, [sp, #16]
	add	r3, sp, #4
	.loc	2 894 18 is_stmt 0              @ ../../CCC_common/Library/StdDriver/src/can.c:894:18
	ldrb	r4, [r3]
	movs	r2, #96
	.loc	2 894 9                         @ ../../CCC_common/Library/StdDriver/src/can.c:894:9
	mov	r1, r2
	muls	r1, r4, r1
	.loc	2 894 15                        @ ../../CCC_common/Library/StdDriver/src/can.c:894:15
	adds	r1, r0, r1
	movs	r0, #0
	.loc	2 894 35                        @ ../../CCC_common/Library/StdDriver/src/can.c:894:35
	str	r0, [r1, #48]
	.loc	2 895 40 is_stmt 1              @ ../../CCC_common/Library/StdDriver/src/can.c:895:40
	ldr	r0, [sp, #8]
	.loc	2 895 49 is_stmt 0              @ ../../CCC_common/Library/StdDriver/src/can.c:895:49
	ldr	r0, [r0, #8]
	.loc	2 895 64                        @ ../../CCC_common/Library/StdDriver/src/can.c:895:64
	lsls	r0, r0, #21
	lsrs	r0, r0, #19
	movw	r1, #40960
	.loc	2 895 92                        @ ../../CCC_common/Library/StdDriver/src/can.c:895:92
	adds	r0, r0, r1
	.loc	2 895 9                         @ ../../CCC_common/Library/StdDriver/src/can.c:895:9
	ldr	r1, [sp, #16]
	.loc	2 895 18                        @ ../../CCC_common/Library/StdDriver/src/can.c:895:18
	ldrb	r3, [r3]
	.loc	2 895 9                         @ ../../CCC_common/Library/StdDriver/src/can.c:895:9
	muls	r2, r3, r2
	.loc	2 895 15                        @ ../../CCC_common/Library/StdDriver/src/can.c:895:15
	adds	r1, r1, r2
	.loc	2 895 35                        @ ../../CCC_common/Library/StdDriver/src/can.c:895:35
	str	r0, [r1, #52]
	.loc	2 896 5 is_stmt 1               @ ../../CCC_common/Library/StdDriver/src/can.c:896:5
	b	.LBB19_5
.Ltmp230:
.LBB19_4:
	.loc	2 900 38                        @ ../../CCC_common/Library/StdDriver/src/can.c:900:38
	ldr	r0, [sp, #8]
	.loc	2 900 47 is_stmt 0              @ ../../CCC_common/Library/StdDriver/src/can.c:900:47
	ldrh	r0, [r0, #8]
	.loc	2 900 9                         @ ../../CCC_common/Library/StdDriver/src/can.c:900:9
	ldr	r1, [sp, #16]
	add	r3, sp, #4
	.loc	2 900 18                        @ ../../CCC_common/Library/StdDriver/src/can.c:900:18
	ldrb	r5, [r3]
	movs	r2, #96
	.loc	2 900 9                         @ ../../CCC_common/Library/StdDriver/src/can.c:900:9
	mov	r4, r2
	muls	r4, r5, r4
	.loc	2 900 15                        @ ../../CCC_common/Library/StdDriver/src/can.c:900:15
	adds	r1, r1, r4
	.loc	2 900 35                        @ ../../CCC_common/Library/StdDriver/src/can.c:900:35
	str	r0, [r1, #48]
	.loc	2 901 40 is_stmt 1              @ ../../CCC_common/Library/StdDriver/src/can.c:901:40
	ldr	r0, [sp, #8]
	.loc	2 901 49 is_stmt 0              @ ../../CCC_common/Library/StdDriver/src/can.c:901:49
	ldrh	r0, [r0, #10]
	movw	r1, #57344
	.loc	2 901 120                       @ ../../CCC_common/Library/StdDriver/src/can.c:901:120
	orrs	r0, r1
	.loc	2 901 9                         @ ../../CCC_common/Library/StdDriver/src/can.c:901:9
	ldr	r1, [sp, #16]
	.loc	2 901 18                        @ ../../CCC_common/Library/StdDriver/src/can.c:901:18
	ldrb	r3, [r3]
	.loc	2 901 9                         @ ../../CCC_common/Library/StdDriver/src/can.c:901:9
	muls	r2, r3, r2
	.loc	2 901 15                        @ ../../CCC_common/Library/StdDriver/src/can.c:901:15
	adds	r1, r1, r2
	.loc	2 901 35                        @ ../../CCC_common/Library/StdDriver/src/can.c:901:35
	str	r0, [r1, #52]
	b	.LBB19_5
.Ltmp231:
.LBB19_5:
	.loc	2 904 8 is_stmt 1               @ ../../CCC_common/Library/StdDriver/src/can.c:904:8
	ldr	r0, [sp, #8]
	.loc	2 904 17 is_stmt 0              @ ../../CCC_common/Library/StdDriver/src/can.c:904:17
	ldr	r0, [r0, #4]
.Ltmp232:
	.loc	2 904 8                         @ ../../CCC_common/Library/StdDriver/src/can.c:904:8
	cbz	r0, .LBB19_7
	b	.LBB19_6
.LBB19_6:
.Ltmp233:
	.loc	2 906 9 is_stmt 1               @ ../../CCC_common/Library/StdDriver/src/can.c:906:9
	ldr	r0, [sp, #16]
	add	r1, sp, #4
	.loc	2 906 18 is_stmt 0              @ ../../CCC_common/Library/StdDriver/src/can.c:906:18
	ldrb	r2, [r1]
	movs	r1, #96
	.loc	2 906 9                         @ ../../CCC_common/Library/StdDriver/src/can.c:906:9
	muls	r1, r2, r1
	.loc	2 906 15                        @ ../../CCC_common/Library/StdDriver/src/can.c:906:15
	adds	r1, r0, r1
	.loc	2 906 35                        @ ../../CCC_common/Library/StdDriver/src/can.c:906:35
	ldr	r0, [r1, #52]
	movw	r2, #8192
	orrs	r0, r2
	str	r0, [r1, #52]
	.loc	2 907 5 is_stmt 1               @ ../../CCC_common/Library/StdDriver/src/can.c:907:5
	b	.LBB19_8
.Ltmp234:
.LBB19_7:
	.loc	2 910 9                         @ ../../CCC_common/Library/StdDriver/src/can.c:910:9
	ldr	r0, [sp, #16]
	add	r1, sp, #4
	.loc	2 910 18 is_stmt 0              @ ../../CCC_common/Library/StdDriver/src/can.c:910:18
	ldrb	r2, [r1]
	movs	r1, #96
	.loc	2 910 9                         @ ../../CCC_common/Library/StdDriver/src/can.c:910:9
	muls	r1, r2, r1
	.loc	2 910 15                        @ ../../CCC_common/Library/StdDriver/src/can.c:910:15
	adds	r1, r0, r1
	.loc	2 910 35                        @ ../../CCC_common/Library/StdDriver/src/can.c:910:35
	ldr	r0, [r1, #52]
	movw	r2, #8192
	bics	r0, r2
	str	r0, [r1, #52]
	b	.LBB19_8
.Ltmp235:
.LBB19_8:
	.loc	2 914 46 is_stmt 1              @ ../../CCC_common/Library/StdDriver/src/can.c:914:46
	ldr	r1, [sp, #8]
	ldrb	r0, [r1, #14]
	.loc	2 914 63 is_stmt 0              @ ../../CCC_common/Library/StdDriver/src/can.c:914:63
	lsls	r0, r0, #8
	.loc	2 914 81                        @ ../../CCC_common/Library/StdDriver/src/can.c:914:81
	ldrb	r1, [r1, #13]
	.loc	2 914 69                        @ ../../CCC_common/Library/StdDriver/src/can.c:914:69
	adds	r0, r0, r1
	.loc	2 914 5                         @ ../../CCC_common/Library/StdDriver/src/can.c:914:5
	ldr	r2, [sp, #16]
	add	r1, sp, #4
	.loc	2 914 14                        @ ../../CCC_common/Library/StdDriver/src/can.c:914:14
	ldrb	r5, [r1]
	movs	r3, #96
	.loc	2 914 5                         @ ../../CCC_common/Library/StdDriver/src/can.c:914:5
	mov	r4, r3
	muls	r4, r5, r4
	.loc	2 914 11                        @ ../../CCC_common/Library/StdDriver/src/can.c:914:11
	adds	r2, r2, r4
	.loc	2 914 33                        @ ../../CCC_common/Library/StdDriver/src/can.c:914:33
	str	r0, [r2, #60]
	.loc	2 915 46 is_stmt 1              @ ../../CCC_common/Library/StdDriver/src/can.c:915:46
	ldr	r2, [sp, #8]
	ldrb	r0, [r2, #16]
	.loc	2 915 63 is_stmt 0              @ ../../CCC_common/Library/StdDriver/src/can.c:915:63
	lsls	r0, r0, #8
	.loc	2 915 81                        @ ../../CCC_common/Library/StdDriver/src/can.c:915:81
	ldrb	r2, [r2, #15]
	.loc	2 915 69                        @ ../../CCC_common/Library/StdDriver/src/can.c:915:69
	adds	r0, r0, r2
	.loc	2 915 5                         @ ../../CCC_common/Library/StdDriver/src/can.c:915:5
	ldr	r2, [sp, #16]
	.loc	2 915 14                        @ ../../CCC_common/Library/StdDriver/src/can.c:915:14
	ldrb	r5, [r1]
	.loc	2 915 5                         @ ../../CCC_common/Library/StdDriver/src/can.c:915:5
	mov	r4, r3
	muls	r4, r5, r4
	.loc	2 915 11                        @ ../../CCC_common/Library/StdDriver/src/can.c:915:11
	adds	r2, r2, r4
	.loc	2 915 33                        @ ../../CCC_common/Library/StdDriver/src/can.c:915:33
	str	r0, [r2, #64]
	.loc	2 916 46 is_stmt 1              @ ../../CCC_common/Library/StdDriver/src/can.c:916:46
	ldr	r2, [sp, #8]
	ldrb	r0, [r2, #18]
	.loc	2 916 63 is_stmt 0              @ ../../CCC_common/Library/StdDriver/src/can.c:916:63
	lsls	r0, r0, #8
	.loc	2 916 71                        @ ../../CCC_common/Library/StdDriver/src/can.c:916:71
	ldrb	r2, [r2, #17]
	.loc	2 916 69                        @ ../../CCC_common/Library/StdDriver/src/can.c:916:69
	adds	r0, r0, r2
	.loc	2 916 5                         @ ../../CCC_common/Library/StdDriver/src/can.c:916:5
	ldr	r2, [sp, #16]
	.loc	2 916 14                        @ ../../CCC_common/Library/StdDriver/src/can.c:916:14
	ldrb	r5, [r1]
	.loc	2 916 5                         @ ../../CCC_common/Library/StdDriver/src/can.c:916:5
	mov	r4, r3
	muls	r4, r5, r4
	.loc	2 916 11                        @ ../../CCC_common/Library/StdDriver/src/can.c:916:11
	adds	r2, r2, r4
	.loc	2 916 33                        @ ../../CCC_common/Library/StdDriver/src/can.c:916:33
	str	r0, [r2, #68]
	.loc	2 917 46 is_stmt 1              @ ../../CCC_common/Library/StdDriver/src/can.c:917:46
	ldr	r2, [sp, #8]
	ldrb	r0, [r2, #20]
	.loc	2 917 63 is_stmt 0              @ ../../CCC_common/Library/StdDriver/src/can.c:917:63
	lsls	r0, r0, #8
	.loc	2 917 71                        @ ../../CCC_common/Library/StdDriver/src/can.c:917:71
	ldrb	r2, [r2, #19]
	.loc	2 917 69                        @ ../../CCC_common/Library/StdDriver/src/can.c:917:69
	adds	r0, r0, r2
	.loc	2 917 5                         @ ../../CCC_common/Library/StdDriver/src/can.c:917:5
	ldr	r2, [sp, #16]
	.loc	2 917 14                        @ ../../CCC_common/Library/StdDriver/src/can.c:917:14
	ldrb	r5, [r1]
	.loc	2 917 5                         @ ../../CCC_common/Library/StdDriver/src/can.c:917:5
	mov	r4, r3
	muls	r4, r5, r4
	.loc	2 917 11                        @ ../../CCC_common/Library/StdDriver/src/can.c:917:11
	adds	r2, r2, r4
	.loc	2 917 33                        @ ../../CCC_common/Library/StdDriver/src/can.c:917:33
	str	r0, [r2, #72]
	.loc	2 919 61 is_stmt 1              @ ../../CCC_common/Library/StdDriver/src/can.c:919:61
	ldr	r0, [sp, #8]
	.loc	2 919 70 is_stmt 0              @ ../../CCC_common/Library/StdDriver/src/can.c:919:70
	ldrb	r0, [r0, #12]
	ldr	r2, __arm_cp.19_0
	.loc	2 919 97                        @ ../../CCC_common/Library/StdDriver/src/can.c:919:97
	orrs	r0, r2
	.loc	2 919 5                         @ ../../CCC_common/Library/StdDriver/src/can.c:919:5
	ldr	r2, [sp, #16]
	.loc	2 919 14                        @ ../../CCC_common/Library/StdDriver/src/can.c:919:14
	ldrb	r5, [r1]
	.loc	2 919 5                         @ ../../CCC_common/Library/StdDriver/src/can.c:919:5
	mov	r4, r3
	muls	r4, r5, r4
	.loc	2 919 11                        @ ../../CCC_common/Library/StdDriver/src/can.c:919:11
	adds	r2, r2, r4
	.loc	2 919 33                        @ ../../CCC_common/Library/StdDriver/src/can.c:919:33
	str	r0, [r2, #56]
	.loc	2 920 41 is_stmt 1              @ ../../CCC_common/Library/StdDriver/src/can.c:920:41
	ldr	r0, [sp, #12]
	.loc	2 920 39 is_stmt 0              @ ../../CCC_common/Library/StdDriver/src/can.c:920:39
	adds	r0, r0, #1
	.loc	2 920 5                         @ ../../CCC_common/Library/StdDriver/src/can.c:920:5
	ldr	r2, [sp, #16]
	.loc	2 920 14                        @ ../../CCC_common/Library/StdDriver/src/can.c:920:14
	ldrb	r4, [r1]
	.loc	2 920 5                         @ ../../CCC_common/Library/StdDriver/src/can.c:920:5
	muls	r3, r4, r3
	.loc	2 920 11                        @ ../../CCC_common/Library/StdDriver/src/can.c:920:11
	adds	r2, r2, r3
	.loc	2 920 33                        @ ../../CCC_common/Library/StdDriver/src/can.c:920:33
	str	r0, [r2, #32]
	.loc	2 922 15 is_stmt 1              @ ../../CCC_common/Library/StdDriver/src/can.c:922:15
	ldr	r0, [sp, #16]
	.loc	2 922 31 is_stmt 0              @ ../../CCC_common/Library/StdDriver/src/can.c:922:31
	ldrb	r1, [r1]
	.loc	2 922 5                         @ ../../CCC_common/Library/StdDriver/src/can.c:922:5
	bl	ReleaseIF
	movs	r0, #1
	.loc	2 924 5 is_stmt 1               @ ../../CCC_common/Library/StdDriver/src/can.c:924:5
	str	r0, [sp, #20]
	b	.LBB19_9
.LBB19_9:
	.loc	2 925 1                         @ ../../CCC_common/Library/StdDriver/src/can.c:925:1
	ldr	r0, [sp, #20]
	.loc	2 925 1 epilogue_begin is_stmt 0 @ ../../CCC_common/Library/StdDriver/src/can.c:925:1
	add	sp, #24
	pop	{r4, r5, r7, pc}
.Ltmp236:
	.loc	2 0 1                           @ :0:1
.Ltmp237:
	.p2align	2
@ %bb.10:
__arm_cp.19_0:
	.long	34944                           @ 0x8880
.Lcpi_end17:
	.size	__arm_cp.19_0, .Lcpi_end17-__arm_cp.19_0
.Lfunc_end19:
	.size	CAN_SetTxMsg, .Lfunc_end19-CAN_SetTxMsg
	.cfi_endproc
	.cantunwind
	.fnend
                                        @ -- End function
	.section	.text.CAN_TriggerTxMsg,"ax",%progbits
	.hidden	CAN_TriggerTxMsg                @ -- Begin function CAN_TriggerTxMsg
	.globl	CAN_TriggerTxMsg
	.p2align	2
	.type	CAN_TriggerTxMsg,%function
	.code	16                              @ @CAN_TriggerTxMsg
	.thumb_func
CAN_TriggerTxMsg:
.Lfunc_begin20:
	.loc	2 940 0 is_stmt 1               @ ../../CCC_common/Library/StdDriver/src/can.c:940:0
	.fnstart
	.cfi_startproc
@ %bb.0:
	.save	{r4, lr}
	push	{r4, lr}
	.cfi_def_cfa_offset 8
	.cfi_offset lr, -4
	.cfi_offset r4, -8
	.pad	#24
	sub	sp, #24
	.cfi_def_cfa_offset 32
	str	r0, [sp, #16]
	str	r1, [sp, #12]
.Ltmp238:
	.loc	2 942 32 prologue_end           @ ../../CCC_common/Library/StdDriver/src/can.c:942:32
	ldr	r0, __arm_cp.20_0
	ldr	r0, [r0]
	.loc	2 942 14 is_stmt 0              @ ../../CCC_common/Library/StdDriver/src/can.c:942:14
	str	r0, [sp, #4]
.Ltmp239:
	.loc	2 944 41 is_stmt 1              @ ../../CCC_common/Library/StdDriver/src/can.c:944:41
	ldr	r0, [sp, #16]
	.loc	2 944 31 is_stmt 0              @ ../../CCC_common/Library/StdDriver/src/can.c:944:31
	bl	LockIF_TL
	mov	r1, r0
	.loc	2 944 22                        @ ../../CCC_common/Library/StdDriver/src/can.c:944:22
	uxtb	r0, r1
	add	r2, sp, #8
	.loc	2 944 20                        @ ../../CCC_common/Library/StdDriver/src/can.c:944:20
	strb	r1, [r2]
.Ltmp240:
	.loc	2 944 8                         @ ../../CCC_common/Library/StdDriver/src/can.c:944:8
	cmp	r0, #2
	bne	.LBB20_2
	b	.LBB20_1
.LBB20_1:
	.loc	2 0 8                           @ ../../CCC_common/Library/StdDriver/src/can.c:0:8
	movs	r0, #0
.Ltmp241:
	.loc	2 946 9 is_stmt 1               @ ../../CCC_common/Library/StdDriver/src/can.c:946:9
	str	r0, [sp, #20]
	b	.LBB20_8
.Ltmp242:
.LBB20_2:
	.loc	2 949 5                         @ ../../CCC_common/Library/StdDriver/src/can.c:949:5
	ldr	r1, [sp, #16]
	.loc	2 949 18 is_stmt 0              @ ../../CCC_common/Library/StdDriver/src/can.c:949:18
	ldr	r0, [r1, #4]
	movs	r2, #8
	bics	r0, r2
	str	r0, [r1, #4]
	.loc	2 952 5 is_stmt 1               @ ../../CCC_common/Library/StdDriver/src/can.c:952:5
	ldr	r0, [sp, #16]
	add	r3, sp, #8
	.loc	2 952 14 is_stmt 0              @ ../../CCC_common/Library/StdDriver/src/can.c:952:14
	ldrb	r4, [r3]
	movs	r2, #96
	.loc	2 952 5                         @ ../../CCC_common/Library/StdDriver/src/can.c:952:5
	mov	r1, r2
	muls	r1, r4, r1
	.loc	2 952 11                        @ ../../CCC_common/Library/StdDriver/src/can.c:952:11
	adds	r1, r0, r1
	movs	r0, #12
	.loc	2 952 32                        @ ../../CCC_common/Library/StdDriver/src/can.c:952:32
	str	r0, [r1, #36]
	.loc	2 955 39 is_stmt 1              @ ../../CCC_common/Library/StdDriver/src/can.c:955:39
	ldr	r0, [sp, #12]
	.loc	2 955 37 is_stmt 0              @ ../../CCC_common/Library/StdDriver/src/can.c:955:37
	adds	r0, r0, #1
	.loc	2 955 5                         @ ../../CCC_common/Library/StdDriver/src/can.c:955:5
	ldr	r1, [sp, #16]
	.loc	2 955 14                        @ ../../CCC_common/Library/StdDriver/src/can.c:955:14
	ldrb	r3, [r3]
	.loc	2 955 5                         @ ../../CCC_common/Library/StdDriver/src/can.c:955:5
	muls	r2, r3, r2
	.loc	2 955 11                        @ ../../CCC_common/Library/StdDriver/src/can.c:955:11
	adds	r1, r1, r2
	.loc	2 955 31                        @ ../../CCC_common/Library/StdDriver/src/can.c:955:31
	str	r0, [r1, #32]
	.loc	2 957 5 is_stmt 1               @ ../../CCC_common/Library/StdDriver/src/can.c:957:5
	b	.LBB20_3
.LBB20_3:                               @ =>This Inner Loop Header: Depth=1
	.loc	2 957 11 is_stmt 0              @ ../../CCC_common/Library/StdDriver/src/can.c:957:11
	ldr	r0, [sp, #16]
	add	r1, sp, #8
	.loc	2 957 20                        @ ../../CCC_common/Library/StdDriver/src/can.c:957:20
	ldrb	r2, [r1]
	movs	r1, #96
	.loc	2 957 11                        @ ../../CCC_common/Library/StdDriver/src/can.c:957:11
	muls	r1, r2, r1
	.loc	2 957 17                        @ ../../CCC_common/Library/StdDriver/src/can.c:957:17
	adds	r0, r0, r1
	.loc	2 957 32                        @ ../../CCC_common/Library/StdDriver/src/can.c:957:32
	ldr	r0, [r0, #32]
	.loc	2 957 5                         @ ../../CCC_common/Library/StdDriver/src/can.c:957:5
	lsls	r0, r0, #16
	cmp	r0, #0
	bpl	.LBB20_7
	b	.LBB20_4
.LBB20_4:                               @   in Loop: Header=BB20_3 Depth=1
.Ltmp243:
	.loc	2 959 12 is_stmt 1              @ ../../CCC_common/Library/StdDriver/src/can.c:959:12
	ldr	r0, [sp, #4]
	subs	r0, r0, #1
	str	r0, [sp, #4]
.Ltmp244:
	.loc	2 959 12 is_stmt 0              @ ../../CCC_common/Library/StdDriver/src/can.c:959:12
	cbnz	r0, .LBB20_6
	b	.LBB20_5
.LBB20_5:
.Ltmp245:
	.loc	2 961 23 is_stmt 1              @ ../../CCC_common/Library/StdDriver/src/can.c:961:23
	ldr	r0, [sp, #16]
	add	r1, sp, #8
	.loc	2 961 29 is_stmt 0              @ ../../CCC_common/Library/StdDriver/src/can.c:961:29
	ldrb	r1, [r1]
	.loc	2 961 13                        @ ../../CCC_common/Library/StdDriver/src/can.c:961:13
	bl	ReleaseIF
	movs	r0, #0
	mvns	r0, r0
	.loc	2 962 13 is_stmt 1              @ ../../CCC_common/Library/StdDriver/src/can.c:962:13
	str	r0, [sp, #20]
	b	.LBB20_8
.Ltmp246:
.LBB20_6:                               @   in Loop: Header=BB20_3 Depth=1
	.loc	2 957 5                         @ ../../CCC_common/Library/StdDriver/src/can.c:957:5
	b	.LBB20_3
.LBB20_7:
	.loc	2 965 5                         @ ../../CCC_common/Library/StdDriver/src/can.c:965:5
	ldr	r0, [sp, #16]
	add	r1, sp, #8
	.loc	2 965 14 is_stmt 0              @ ../../CCC_common/Library/StdDriver/src/can.c:965:14
	ldrb	r4, [r1]
	movs	r3, #96
	.loc	2 965 5                         @ ../../CCC_common/Library/StdDriver/src/can.c:965:5
	mov	r2, r3
	muls	r2, r4, r2
	.loc	2 965 11                        @ ../../CCC_common/Library/StdDriver/src/can.c:965:11
	adds	r2, r0, r2
	movs	r0, #132
	.loc	2 965 33                        @ ../../CCC_common/Library/StdDriver/src/can.c:965:33
	str	r0, [r2, #36]
	.loc	2 966 40 is_stmt 1              @ ../../CCC_common/Library/StdDriver/src/can.c:966:40
	ldr	r0, [sp, #12]
	.loc	2 966 38 is_stmt 0              @ ../../CCC_common/Library/StdDriver/src/can.c:966:38
	adds	r0, r0, #1
	.loc	2 966 5                         @ ../../CCC_common/Library/StdDriver/src/can.c:966:5
	ldr	r2, [sp, #16]
	.loc	2 966 14                        @ ../../CCC_common/Library/StdDriver/src/can.c:966:14
	ldrb	r4, [r1]
	.loc	2 966 5                         @ ../../CCC_common/Library/StdDriver/src/can.c:966:5
	muls	r3, r4, r3
	.loc	2 966 11                        @ ../../CCC_common/Library/StdDriver/src/can.c:966:11
	adds	r2, r2, r3
	.loc	2 966 32                        @ ../../CCC_common/Library/StdDriver/src/can.c:966:32
	str	r0, [r2, #32]
	.loc	2 968 15 is_stmt 1              @ ../../CCC_common/Library/StdDriver/src/can.c:968:15
	ldr	r0, [sp, #16]
	.loc	2 968 31 is_stmt 0              @ ../../CCC_common/Library/StdDriver/src/can.c:968:31
	ldrb	r1, [r1]
	.loc	2 968 5                         @ ../../CCC_common/Library/StdDriver/src/can.c:968:5
	bl	ReleaseIF
	movs	r0, #1
	.loc	2 970 5 is_stmt 1               @ ../../CCC_common/Library/StdDriver/src/can.c:970:5
	str	r0, [sp, #20]
	b	.LBB20_8
.LBB20_8:
	.loc	2 971 1                         @ ../../CCC_common/Library/StdDriver/src/can.c:971:1
	ldr	r0, [sp, #20]
	.loc	2 971 1 epilogue_begin is_stmt 0 @ ../../CCC_common/Library/StdDriver/src/can.c:971:1
	add	sp, #24
	pop	{r4, pc}
.Ltmp247:
	.loc	2 0 1                           @ :0:1
.Ltmp248:
	.p2align	2
@ %bb.9:
__arm_cp.20_0:
	.long	SystemCoreClock
.Lcpi_end18:
	.size	__arm_cp.20_0, .Lcpi_end18-__arm_cp.20_0
.Lfunc_end20:
	.size	CAN_TriggerTxMsg, .Lfunc_end20-CAN_TriggerTxMsg
	.cfi_endproc
	.cantunwind
	.fnend
                                        @ -- End function
	.section	.text.CAN_EnableInt,"ax",%progbits
	.hidden	CAN_EnableInt                   @ -- Begin function CAN_EnableInt
	.globl	CAN_EnableInt
	.p2align	1
	.type	CAN_EnableInt,%function
	.code	16                              @ @CAN_EnableInt
	.thumb_func
CAN_EnableInt:
.Lfunc_begin21:
	.loc	2 988 0 is_stmt 1               @ ../../CCC_common/Library/StdDriver/src/can.c:988:0
	.fnstart
	.cfi_startproc
@ %bb.0:
	.pad	#8
	sub	sp, #8
	.cfi_def_cfa_offset 8
	str	r0, [sp, #4]
	str	r1, [sp]
.Ltmp249:
	.loc	2 989 18 prologue_end           @ ../../CCC_common/Library/StdDriver/src/can.c:989:18
	ldr	r0, [sp, #4]
	.loc	2 989 24 is_stmt 0              @ ../../CCC_common/Library/StdDriver/src/can.c:989:24
	ldr	r0, [r0]
	movs	r2, #14
	.loc	2 989 28                        @ ../../CCC_common/Library/StdDriver/src/can.c:989:28
	bics	r0, r2
	.loc	2 990 18 is_stmt 1              @ ../../CCC_common/Library/StdDriver/src/can.c:990:18
	ldr	r1, [sp]
	.loc	2 990 26 is_stmt 0              @ ../../CCC_common/Library/StdDriver/src/can.c:990:26
	ands	r1, r2
	.loc	2 989 85 is_stmt 1              @ ../../CCC_common/Library/StdDriver/src/can.c:989:85
	adds	r0, r0, r1
	.loc	2 989 5 is_stmt 0               @ ../../CCC_common/Library/StdDriver/src/can.c:989:5
	ldr	r1, [sp, #4]
	.loc	2 989 15                        @ ../../CCC_common/Library/StdDriver/src/can.c:989:15
	str	r0, [r1]
	.loc	2 991 1 epilogue_begin is_stmt 1 @ ../../CCC_common/Library/StdDriver/src/can.c:991:1
	add	sp, #8
	bx	lr
.Ltmp250:
.Lfunc_end21:
	.size	CAN_EnableInt, .Lfunc_end21-CAN_EnableInt
	.cfi_endproc
	.cantunwind
	.fnend
                                        @ -- End function
	.section	.text.CAN_SetRxMsg,"ax",%progbits
	.hidden	CAN_SetRxMsg                    @ -- Begin function CAN_SetRxMsg
	.globl	CAN_SetRxMsg
	.p2align	1
	.type	CAN_SetRxMsg,%function
	.code	16                              @ @CAN_SetRxMsg
	.thumb_func
CAN_SetRxMsg:
.Lfunc_begin22:
	.loc	2 1026 0                        @ ../../CCC_common/Library/StdDriver/src/can.c:1026:0
	.fnstart
	.cfi_startproc
@ %bb.0:
	.save	{r4, lr}
	push	{r4, lr}
	.cfi_def_cfa_offset 8
	.cfi_offset lr, -4
	.cfi_offset r4, -8
	.pad	#32
	sub	sp, #32
	.cfi_def_cfa_offset 40
	str	r0, [sp, #24]
	str	r1, [sp, #20]
	str	r2, [sp, #16]
	str	r3, [sp, #12]
	movs	r0, #0
.Ltmp251:
	.loc	2 1027 14 prologue_end          @ ../../CCC_common/Library/StdDriver/src/can.c:1027:14
	str	r0, [sp, #8]
	.loc	2 1029 5                        @ ../../CCC_common/Library/StdDriver/src/can.c:1029:5
	b	.LBB22_1
.LBB22_1:                               @ =>This Inner Loop Header: Depth=1
	.loc	2 1029 27 is_stmt 0             @ ../../CCC_common/Library/StdDriver/src/can.c:1029:27
	ldr	r0, [sp, #24]
	add	r1, sp, #20
	.loc	2 1029 42                       @ ../../CCC_common/Library/StdDriver/src/can.c:1029:42
	ldrb	r1, [r1]
	add	r2, sp, #16
	.loc	2 1029 62                       @ ../../CCC_common/Library/StdDriver/src/can.c:1029:62
	ldrb	r2, [r2]
	.loc	2 1029 73                       @ ../../CCC_common/Library/StdDriver/src/can.c:1029:73
	ldr	r3, [sp, #12]
	movs	r4, #1
	.loc	2 1029 11                       @ ../../CCC_common/Library/StdDriver/src/can.c:1029:11
	str	r4, [sp]
	bl	CAN_SetRxMsgObj
	.loc	2 1029 5                        @ ../../CCC_common/Library/StdDriver/src/can.c:1029:5
	cbnz	r0, .LBB22_5
	b	.LBB22_2
.LBB22_2:                               @   in Loop: Header=BB22_1 Depth=1
.Ltmp252:
	.loc	2 1031 12 is_stmt 1             @ ../../CCC_common/Library/StdDriver/src/can.c:1031:12
	ldr	r0, [sp, #8]
	adds	r0, r0, #1
	str	r0, [sp, #8]
.Ltmp253:
	.loc	2 1031 12 is_stmt 0             @ ../../CCC_common/Library/StdDriver/src/can.c:1031:12
	lsrs	r0, r0, #28
	cbz	r0, .LBB22_4
	b	.LBB22_3
.LBB22_3:
	.loc	2 0 12                          @ ../../CCC_common/Library/StdDriver/src/can.c:0:12
	movs	r0, #0
.Ltmp254:
	.loc	2 1033 13 is_stmt 1             @ ../../CCC_common/Library/StdDriver/src/can.c:1033:13
	str	r0, [sp, #28]
	b	.LBB22_6
.Ltmp255:
.LBB22_4:                               @   in Loop: Header=BB22_1 Depth=1
	.loc	2 1029 5                        @ ../../CCC_common/Library/StdDriver/src/can.c:1029:5
	b	.LBB22_1
.LBB22_5:
	.loc	2 0 5 is_stmt 0                 @ ../../CCC_common/Library/StdDriver/src/can.c:0:5
	movs	r0, #1
	.loc	2 1037 5 is_stmt 1              @ ../../CCC_common/Library/StdDriver/src/can.c:1037:5
	str	r0, [sp, #28]
	b	.LBB22_6
.LBB22_6:
	.loc	2 1038 1                        @ ../../CCC_common/Library/StdDriver/src/can.c:1038:1
	ldr	r0, [sp, #28]
	.loc	2 1038 1 epilogue_begin is_stmt 0 @ ../../CCC_common/Library/StdDriver/src/can.c:1038:1
	add	sp, #32
	pop	{r4, pc}
.Ltmp256:
.Lfunc_end22:
	.size	CAN_SetRxMsg, .Lfunc_end22-CAN_SetRxMsg
	.cfi_endproc
	.cantunwind
	.fnend
                                        @ -- End function
	.section	.text.CAN_SetRxMsgAndMsk,"ax",%progbits
	.hidden	CAN_SetRxMsgAndMsk              @ -- Begin function CAN_SetRxMsgAndMsk
	.globl	CAN_SetRxMsgAndMsk
	.p2align	1
	.type	CAN_SetRxMsgAndMsk,%function
	.code	16                              @ @CAN_SetRxMsgAndMsk
	.thumb_func
CAN_SetRxMsgAndMsk:
.Lfunc_begin23:
	.loc	2 1058 0 is_stmt 1              @ ../../CCC_common/Library/StdDriver/src/can.c:1058:0
	.fnstart
	.cfi_startproc
@ %bb.0:
	.save	{r4, r5, r7, lr}
	push	{r4, r5, r7, lr}
	.cfi_def_cfa_offset 16
	.cfi_offset lr, -4
	.cfi_offset r7, -8
	.cfi_offset r5, -12
	.cfi_offset r4, -16
	.pad	#32
	sub	sp, #32
	.cfi_def_cfa_offset 48
	ldr	r4, [sp, #48]
	str	r0, [sp, #24]
	str	r1, [sp, #20]
	str	r2, [sp, #16]
	str	r3, [sp, #12]
	movs	r0, #0
.Ltmp257:
	.loc	2 1059 14 prologue_end          @ ../../CCC_common/Library/StdDriver/src/can.c:1059:14
	str	r0, [sp, #8]
	.loc	2 1061 5                        @ ../../CCC_common/Library/StdDriver/src/can.c:1061:5
	b	.LBB23_1
.LBB23_1:                               @ =>This Inner Loop Header: Depth=1
	.loc	2 1061 33 is_stmt 0             @ ../../CCC_common/Library/StdDriver/src/can.c:1061:33
	ldr	r0, [sp, #24]
	add	r1, sp, #20
	.loc	2 1061 48                       @ ../../CCC_common/Library/StdDriver/src/can.c:1061:48
	ldrb	r1, [r1]
	add	r2, sp, #16
	.loc	2 1061 68                       @ ../../CCC_common/Library/StdDriver/src/can.c:1061:68
	ldrb	r2, [r2]
	.loc	2 1061 79                       @ ../../CCC_common/Library/StdDriver/src/can.c:1061:79
	ldr	r3, [sp, #12]
	.loc	2 1061 86                       @ ../../CCC_common/Library/StdDriver/src/can.c:1061:86
	ldr	r4, [sp, #48]
	movs	r5, #1
	.loc	2 1061 11                       @ ../../CCC_common/Library/StdDriver/src/can.c:1061:11
	str	r5, [sp, #4]
	str	r4, [sp]
	bl	CAN_SetRxMsgObjAndMsk
	.loc	2 1061 5                        @ ../../CCC_common/Library/StdDriver/src/can.c:1061:5
	cbnz	r0, .LBB23_5
	b	.LBB23_2
.LBB23_2:                               @   in Loop: Header=BB23_1 Depth=1
.Ltmp258:
	.loc	2 1063 12 is_stmt 1             @ ../../CCC_common/Library/StdDriver/src/can.c:1063:12
	ldr	r0, [sp, #8]
	adds	r0, r0, #1
	str	r0, [sp, #8]
.Ltmp259:
	.loc	2 1063 12 is_stmt 0             @ ../../CCC_common/Library/StdDriver/src/can.c:1063:12
	lsrs	r0, r0, #28
	cbz	r0, .LBB23_4
	b	.LBB23_3
.LBB23_3:
	.loc	2 0 12                          @ ../../CCC_common/Library/StdDriver/src/can.c:0:12
	movs	r0, #0
.Ltmp260:
	.loc	2 1065 13 is_stmt 1             @ ../../CCC_common/Library/StdDriver/src/can.c:1065:13
	str	r0, [sp, #28]
	b	.LBB23_6
.Ltmp261:
.LBB23_4:                               @   in Loop: Header=BB23_1 Depth=1
	.loc	2 1061 5                        @ ../../CCC_common/Library/StdDriver/src/can.c:1061:5
	b	.LBB23_1
.LBB23_5:
	.loc	2 0 5 is_stmt 0                 @ ../../CCC_common/Library/StdDriver/src/can.c:0:5
	movs	r0, #1
	.loc	2 1069 5 is_stmt 1              @ ../../CCC_common/Library/StdDriver/src/can.c:1069:5
	str	r0, [sp, #28]
	b	.LBB23_6
.LBB23_6:
	.loc	2 1070 1                        @ ../../CCC_common/Library/StdDriver/src/can.c:1070:1
	ldr	r0, [sp, #28]
	.loc	2 1070 1 epilogue_begin is_stmt 0 @ ../../CCC_common/Library/StdDriver/src/can.c:1070:1
	add	sp, #32
	pop	{r4, r5, r7, pc}
.Ltmp262:
.Lfunc_end23:
	.size	CAN_SetRxMsgAndMsk, .Lfunc_end23-CAN_SetRxMsgAndMsk
	.cfi_endproc
	.cantunwind
	.fnend
                                        @ -- End function
	.section	.text.CAN_SetMultiRxMsg,"ax",%progbits
	.hidden	CAN_SetMultiRxMsg               @ -- Begin function CAN_SetMultiRxMsg
	.globl	CAN_SetMultiRxMsg
	.p2align	1
	.type	CAN_SetMultiRxMsg,%function
	.code	16                              @ @CAN_SetMultiRxMsg
	.thumb_func
CAN_SetMultiRxMsg:
.Lfunc_begin24:
	.loc	2 1090 0 is_stmt 1              @ ../../CCC_common/Library/StdDriver/src/can.c:1090:0
	.fnstart
	.cfi_startproc
@ %bb.0:
	.save	{r4, lr}
	push	{r4, lr}
	.cfi_def_cfa_offset 8
	.cfi_offset lr, -4
	.cfi_offset r4, -8
	.pad	#40
	sub	sp, #40
	.cfi_def_cfa_offset 48
	ldr	r4, [sp, #48]
	str	r0, [sp, #32]
	str	r1, [sp, #28]
	str	r2, [sp, #24]
	str	r3, [sp, #20]
	movs	r0, #0
.Ltmp263:
	.loc	2 1093 14 prologue_end          @ ../../CCC_common/Library/StdDriver/src/can.c:1093:14
	str	r0, [sp, #8]
	movs	r0, #1
.Ltmp264:
	.loc	2 1095 11                       @ ../../CCC_common/Library/StdDriver/src/can.c:1095:11
	str	r0, [sp, #16]
	.loc	2 1095 9 is_stmt 0              @ ../../CCC_common/Library/StdDriver/src/can.c:1095:9
	b	.LBB24_1
.LBB24_1:                               @ =>This Loop Header: Depth=1
                                        @     Child Loop BB24_5 Depth 2
.Ltmp265:
	.loc	2 1095 18                       @ ../../CCC_common/Library/StdDriver/src/can.c:1095:18
	ldr	r0, [sp, #16]
	.loc	2 1095 23                       @ ../../CCC_common/Library/StdDriver/src/can.c:1095:23
	ldr	r1, [sp, #24]
.Ltmp266:
	.loc	2 1095 5                        @ ../../CCC_common/Library/StdDriver/src/can.c:1095:5
	cmp	r0, r1
	bhi	.LBB24_11
	b	.LBB24_2
.LBB24_2:                               @   in Loop: Header=BB24_1 Depth=1
	.loc	2 0 5                           @ ../../CCC_common/Library/StdDriver/src/can.c:0:5
	movs	r0, #0
.Ltmp267:
	.loc	2 1097 25 is_stmt 1             @ ../../CCC_common/Library/StdDriver/src/can.c:1097:25
	str	r0, [sp, #12]
	.loc	2 1099 23                       @ ../../CCC_common/Library/StdDriver/src/can.c:1099:23
	ldr	r0, [sp, #16]
	.loc	2 1099 19 is_stmt 0             @ ../../CCC_common/Library/StdDriver/src/can.c:1099:19
	ldr	r1, [sp, #28]
	adds	r0, r0, r1
	subs	r0, r0, #1
	str	r0, [sp, #28]
.Ltmp268:
	.loc	2 1101 12 is_stmt 1             @ ../../CCC_common/Library/StdDriver/src/can.c:1101:12
	ldr	r0, [sp, #16]
	.loc	2 1101 17 is_stmt 0             @ ../../CCC_common/Library/StdDriver/src/can.c:1101:17
	ldr	r1, [sp, #24]
.Ltmp269:
	.loc	2 1101 12                       @ ../../CCC_common/Library/StdDriver/src/can.c:1101:12
	cmp	r0, r1
	bne	.LBB24_4
	b	.LBB24_3
.LBB24_3:                               @   in Loop: Header=BB24_1 Depth=1
	.loc	2 0 12                          @ ../../CCC_common/Library/StdDriver/src/can.c:0:12
	movs	r0, #1
.Ltmp270:
	.loc	2 1103 25 is_stmt 1             @ ../../CCC_common/Library/StdDriver/src/can.c:1103:25
	str	r0, [sp, #8]
	.loc	2 1104 9                        @ ../../CCC_common/Library/StdDriver/src/can.c:1104:9
	b	.LBB24_4
.Ltmp271:
.LBB24_4:                               @   in Loop: Header=BB24_1 Depth=1
	.loc	2 1106 9                        @ ../../CCC_common/Library/StdDriver/src/can.c:1106:9
	b	.LBB24_5
.LBB24_5:                               @   Parent Loop BB24_1 Depth=1
                                        @ =>  This Inner Loop Header: Depth=2
	.loc	2 1106 31 is_stmt 0             @ ../../CCC_common/Library/StdDriver/src/can.c:1106:31
	ldr	r0, [sp, #32]
	add	r1, sp, #28
	.loc	2 1106 46                       @ ../../CCC_common/Library/StdDriver/src/can.c:1106:46
	ldrb	r1, [r1]
	add	r2, sp, #20
	.loc	2 1106 66                       @ ../../CCC_common/Library/StdDriver/src/can.c:1106:66
	ldrb	r2, [r2]
	.loc	2 1106 77                       @ ../../CCC_common/Library/StdDriver/src/can.c:1106:77
	ldr	r3, [sp, #48]
	add	r4, sp, #8
	.loc	2 1106 93                       @ ../../CCC_common/Library/StdDriver/src/can.c:1106:93
	ldrb	r4, [r4]
	.loc	2 1106 15                       @ ../../CCC_common/Library/StdDriver/src/can.c:1106:15
	str	r4, [sp]
	bl	CAN_SetRxMsgObj
	.loc	2 1106 9                        @ ../../CCC_common/Library/StdDriver/src/can.c:1106:9
	cbnz	r0, .LBB24_9
	b	.LBB24_6
.LBB24_6:                               @   in Loop: Header=BB24_5 Depth=2
.Ltmp272:
	.loc	2 1108 16 is_stmt 1             @ ../../CCC_common/Library/StdDriver/src/can.c:1108:16
	ldr	r0, [sp, #12]
	adds	r0, r0, #1
	str	r0, [sp, #12]
.Ltmp273:
	.loc	2 1108 16 is_stmt 0             @ ../../CCC_common/Library/StdDriver/src/can.c:1108:16
	lsrs	r0, r0, #28
	cbz	r0, .LBB24_8
	b	.LBB24_7
.LBB24_7:
	.loc	2 0 16                          @ ../../CCC_common/Library/StdDriver/src/can.c:0:16
	movs	r0, #0
.Ltmp274:
	.loc	2 1110 17 is_stmt 1             @ ../../CCC_common/Library/StdDriver/src/can.c:1110:17
	str	r0, [sp, #36]
	b	.LBB24_12
.Ltmp275:
.LBB24_8:                               @   in Loop: Header=BB24_5 Depth=2
	.loc	2 1106 9                        @ ../../CCC_common/Library/StdDriver/src/can.c:1106:9
	b	.LBB24_5
.LBB24_9:                               @   in Loop: Header=BB24_1 Depth=1
	.loc	2 1113 5                        @ ../../CCC_common/Library/StdDriver/src/can.c:1113:5
	b	.LBB24_10
.Ltmp276:
.LBB24_10:                              @   in Loop: Header=BB24_1 Depth=1
	.loc	2 1095 37                       @ ../../CCC_common/Library/StdDriver/src/can.c:1095:37
	ldr	r0, [sp, #16]
	adds	r0, r0, #1
	str	r0, [sp, #16]
	.loc	2 1095 5 is_stmt 0              @ ../../CCC_common/Library/StdDriver/src/can.c:1095:5
	b	.LBB24_1
.Ltmp277:
.LBB24_11:
	.loc	2 0 5                           @ ../../CCC_common/Library/StdDriver/src/can.c:0:5
	movs	r0, #1
	.loc	2 1115 5 is_stmt 1              @ ../../CCC_common/Library/StdDriver/src/can.c:1115:5
	str	r0, [sp, #36]
	b	.LBB24_12
.LBB24_12:
	.loc	2 1116 1                        @ ../../CCC_common/Library/StdDriver/src/can.c:1116:1
	ldr	r0, [sp, #36]
	.loc	2 1116 1 epilogue_begin is_stmt 0 @ ../../CCC_common/Library/StdDriver/src/can.c:1116:1
	add	sp, #40
	pop	{r4, pc}
.Ltmp278:
.Lfunc_end24:
	.size	CAN_SetMultiRxMsg, .Lfunc_end24-CAN_SetMultiRxMsg
	.cfi_endproc
	.cantunwind
	.fnend
                                        @ -- End function
	.section	.text.CAN_Transmit,"ax",%progbits
	.hidden	CAN_Transmit                    @ -- Begin function CAN_Transmit
	.globl	CAN_Transmit
	.p2align	1
	.type	CAN_Transmit,%function
	.code	16                              @ @CAN_Transmit
	.thumb_func
CAN_Transmit:
.Lfunc_begin25:
	.loc	2 1134 0 is_stmt 1              @ ../../CCC_common/Library/StdDriver/src/can.c:1134:0
	.fnstart
	.cfi_startproc
@ %bb.0:
	.save	{r7, lr}
	push	{r7, lr}
	.cfi_def_cfa_offset 8
	.cfi_offset lr, -4
	.cfi_offset r7, -8
	.pad	#24
	sub	sp, #24
	.cfi_def_cfa_offset 32
	str	r0, [sp, #16]
	str	r1, [sp, #12]
	str	r2, [sp, #8]
.Ltmp279:
	.loc	2 1137 13 prologue_end          @ ../../CCC_common/Library/StdDriver/src/can.c:1137:13
	ldr	r0, [sp, #16]
	.loc	2 1137 19 is_stmt 0             @ ../../CCC_common/Library/StdDriver/src/can.c:1137:19
	ldr	r0, [r0]
	movs	r1, #128
	.loc	2 1137 23                       @ ../../CCC_common/Library/StdDriver/src/can.c:1137:23
	ands	r0, r1
	.loc	2 1137 11                       @ ../../CCC_common/Library/StdDriver/src/can.c:1137:11
	str	r0, [sp, #4]
	.loc	2 1138 13 is_stmt 1             @ ../../CCC_common/Library/StdDriver/src/can.c:1138:13
	ldr	r0, [sp, #16]
	.loc	2 1138 19 is_stmt 0             @ ../../CCC_common/Library/StdDriver/src/can.c:1138:19
	ldr	r0, [r0, #20]
	movs	r1, #4
	.loc	2 1138 24                       @ ../../CCC_common/Library/StdDriver/src/can.c:1138:24
	ands	r0, r1
	.loc	2 1138 11                       @ ../../CCC_common/Library/StdDriver/src/can.c:1138:11
	str	r0, [sp]
.Ltmp280:
	.loc	2 1139 8 is_stmt 1              @ ../../CCC_common/Library/StdDriver/src/can.c:1139:8
	ldr	r0, [sp, #4]
	.loc	2 1139 14 is_stmt 0             @ ../../CCC_common/Library/StdDriver/src/can.c:1139:14
	cbz	r0, .LBB25_3
	b	.LBB25_1
.LBB25_1:
	.loc	2 1139 17                       @ ../../CCC_common/Library/StdDriver/src/can.c:1139:17
	ldr	r0, [sp]
.Ltmp281:
	.loc	2 1139 8                        @ ../../CCC_common/Library/StdDriver/src/can.c:1139:8
	cbz	r0, .LBB25_3
	b	.LBB25_2
.LBB25_2:
.Ltmp282:
	.loc	2 1141 34 is_stmt 1             @ ../../CCC_common/Library/StdDriver/src/can.c:1141:34
	ldr	r0, [sp, #16]
	.loc	2 1141 40 is_stmt 0             @ ../../CCC_common/Library/StdDriver/src/can.c:1141:40
	ldr	r1, [sp, #8]
	.loc	2 1141 17                       @ ../../CCC_common/Library/StdDriver/src/can.c:1141:17
	bl	CAN_BasicSendMsg
	.loc	2 1141 9                        @ ../../CCC_common/Library/StdDriver/src/can.c:1141:9
	str	r0, [sp, #20]
	b	.LBB25_7
.Ltmp283:
.LBB25_3:
	.loc	2 1145 25 is_stmt 1             @ ../../CCC_common/Library/StdDriver/src/can.c:1145:25
	ldr	r0, [sp, #16]
	.loc	2 1145 31 is_stmt 0             @ ../../CCC_common/Library/StdDriver/src/can.c:1145:31
	ldr	r1, [sp, #12]
	.loc	2 1145 42                       @ ../../CCC_common/Library/StdDriver/src/can.c:1145:42
	ldr	r2, [sp, #8]
	.loc	2 1145 12                       @ ../../CCC_common/Library/StdDriver/src/can.c:1145:12
	bl	CAN_SetTxMsg
.Ltmp284:
	.loc	2 1145 12                       @ ../../CCC_common/Library/StdDriver/src/can.c:1145:12
	cbnz	r0, .LBB25_5
	b	.LBB25_4
.LBB25_4:
	.loc	2 0 12                          @ ../../CCC_common/Library/StdDriver/src/can.c:0:12
	movs	r0, #0
.Ltmp285:
	.loc	2 1147 13 is_stmt 1             @ ../../CCC_common/Library/StdDriver/src/can.c:1147:13
	str	r0, [sp, #20]
	b	.LBB25_7
.Ltmp286:
.LBB25_5:
	.loc	2 1149 26                       @ ../../CCC_common/Library/StdDriver/src/can.c:1149:26
	ldr	r0, [sp, #16]
	.loc	2 1149 32 is_stmt 0             @ ../../CCC_common/Library/StdDriver/src/can.c:1149:32
	ldr	r1, [sp, #12]
	.loc	2 1149 9                        @ ../../CCC_common/Library/StdDriver/src/can.c:1149:9
	bl	CAN_TriggerTxMsg
	b	.LBB25_6
.Ltmp287:
.LBB25_6:
	.loc	2 0 9                           @ ../../CCC_common/Library/StdDriver/src/can.c:0:9
	movs	r0, #1
	.loc	2 1152 5 is_stmt 1              @ ../../CCC_common/Library/StdDriver/src/can.c:1152:5
	str	r0, [sp, #20]
	b	.LBB25_7
.LBB25_7:
	.loc	2 1153 1                        @ ../../CCC_common/Library/StdDriver/src/can.c:1153:1
	ldr	r0, [sp, #20]
	.loc	2 1153 1 epilogue_begin is_stmt 0 @ ../../CCC_common/Library/StdDriver/src/can.c:1153:1
	add	sp, #24
	pop	{r7, pc}
.Ltmp288:
.Lfunc_end25:
	.size	CAN_Transmit, .Lfunc_end25-CAN_Transmit
	.cfi_endproc
	.cantunwind
	.fnend
                                        @ -- End function
	.section	.text.CAN_Receive,"ax",%progbits
	.hidden	CAN_Receive                     @ -- Begin function CAN_Receive
	.globl	CAN_Receive
	.p2align	1
	.type	CAN_Receive,%function
	.code	16                              @ @CAN_Receive
	.thumb_func
CAN_Receive:
.Lfunc_begin26:
	.loc	2 1169 0 is_stmt 1              @ ../../CCC_common/Library/StdDriver/src/can.c:1169:0
	.fnstart
	.cfi_startproc
@ %bb.0:
	.save	{r7, lr}
	push	{r7, lr}
	.cfi_def_cfa_offset 8
	.cfi_offset lr, -4
	.cfi_offset r7, -8
	.pad	#24
	sub	sp, #24
	.cfi_def_cfa_offset 32
	str	r0, [sp, #16]
	str	r1, [sp, #12]
	str	r2, [sp, #8]
.Ltmp289:
	.loc	2 1172 13 prologue_end          @ ../../CCC_common/Library/StdDriver/src/can.c:1172:13
	ldr	r0, [sp, #16]
	.loc	2 1172 19 is_stmt 0             @ ../../CCC_common/Library/StdDriver/src/can.c:1172:19
	ldr	r0, [r0]
	movs	r1, #128
	.loc	2 1172 23                       @ ../../CCC_common/Library/StdDriver/src/can.c:1172:23
	ands	r0, r1
	.loc	2 1172 11                       @ ../../CCC_common/Library/StdDriver/src/can.c:1172:11
	str	r0, [sp, #4]
	.loc	2 1173 13 is_stmt 1             @ ../../CCC_common/Library/StdDriver/src/can.c:1173:13
	ldr	r0, [sp, #16]
	.loc	2 1173 19 is_stmt 0             @ ../../CCC_common/Library/StdDriver/src/can.c:1173:19
	ldr	r0, [r0, #20]
	movs	r1, #4
	.loc	2 1173 24                       @ ../../CCC_common/Library/StdDriver/src/can.c:1173:24
	ands	r0, r1
	.loc	2 1173 11                       @ ../../CCC_common/Library/StdDriver/src/can.c:1173:11
	str	r0, [sp]
.Ltmp290:
	.loc	2 1175 8 is_stmt 1              @ ../../CCC_common/Library/StdDriver/src/can.c:1175:8
	ldr	r0, [sp, #4]
	.loc	2 1175 14 is_stmt 0             @ ../../CCC_common/Library/StdDriver/src/can.c:1175:14
	cbz	r0, .LBB26_3
	b	.LBB26_1
.LBB26_1:
	.loc	2 1175 17                       @ ../../CCC_common/Library/StdDriver/src/can.c:1175:17
	ldr	r0, [sp]
.Ltmp291:
	.loc	2 1175 8                        @ ../../CCC_common/Library/StdDriver/src/can.c:1175:8
	cbz	r0, .LBB26_3
	b	.LBB26_2
.LBB26_2:
.Ltmp292:
	.loc	2 1177 37 is_stmt 1             @ ../../CCC_common/Library/StdDriver/src/can.c:1177:37
	ldr	r0, [sp, #16]
	.loc	2 1177 43 is_stmt 0             @ ../../CCC_common/Library/StdDriver/src/can.c:1177:43
	ldr	r1, [sp, #8]
	.loc	2 1177 17                       @ ../../CCC_common/Library/StdDriver/src/can.c:1177:17
	bl	CAN_BasicReceiveMsg
	.loc	2 1177 9                        @ ../../CCC_common/Library/StdDriver/src/can.c:1177:9
	str	r0, [sp, #20]
	b	.LBB26_4
.Ltmp293:
.LBB26_3:
	.loc	2 1181 31 is_stmt 1             @ ../../CCC_common/Library/StdDriver/src/can.c:1181:31
	ldr	r0, [sp, #16]
	add	r1, sp, #12
	.loc	2 1181 46 is_stmt 0             @ ../../CCC_common/Library/StdDriver/src/can.c:1181:46
	ldrb	r1, [r1]
	.loc	2 1181 72                       @ ../../CCC_common/Library/StdDriver/src/can.c:1181:72
	ldr	r3, [sp, #8]
	movs	r2, #1
	.loc	2 1181 16                       @ ../../CCC_common/Library/StdDriver/src/can.c:1181:16
	bl	CAN_ReadMsgObj
	.loc	2 1181 9                        @ ../../CCC_common/Library/StdDriver/src/can.c:1181:9
	str	r0, [sp, #20]
	b	.LBB26_4
.Ltmp294:
.LBB26_4:
	.loc	2 1183 1 is_stmt 1              @ ../../CCC_common/Library/StdDriver/src/can.c:1183:1
	ldr	r0, [sp, #20]
	.loc	2 1183 1 epilogue_begin is_stmt 0 @ ../../CCC_common/Library/StdDriver/src/can.c:1183:1
	add	sp, #24
	pop	{r7, pc}
.Ltmp295:
.Lfunc_end26:
	.size	CAN_Receive, .Lfunc_end26-CAN_Receive
	.cfi_endproc
	.cantunwind
	.fnend
                                        @ -- End function
	.section	.text.CAN_CLR_INT_PENDING_BIT,"ax",%progbits
	.hidden	CAN_CLR_INT_PENDING_BIT         @ -- Begin function CAN_CLR_INT_PENDING_BIT
	.globl	CAN_CLR_INT_PENDING_BIT
	.p2align	1
	.type	CAN_CLR_INT_PENDING_BIT,%function
	.code	16                              @ @CAN_CLR_INT_PENDING_BIT
	.thumb_func
CAN_CLR_INT_PENDING_BIT:
.Lfunc_begin27:
	.loc	2 1195 0 is_stmt 1              @ ../../CCC_common/Library/StdDriver/src/can.c:1195:0
	.fnstart
	.cfi_startproc
@ %bb.0:
	.save	{r7, lr}
	push	{r7, lr}
	.cfi_def_cfa_offset 8
	.cfi_offset lr, -4
	.cfi_offset r7, -8
	.pad	#16
	sub	sp, #16
	.cfi_def_cfa_offset 24
                                        @ kill: def $r2 killed $r1
	str	r0, [sp, #12]
	add	r0, sp, #8
	strb	r1, [r0]
.Ltmp296:
	.loc	2 1198 33 prologue_end          @ ../../CCC_common/Library/StdDriver/src/can.c:1198:33
	ldr	r0, [sp, #12]
	.loc	2 1198 23 is_stmt 0             @ ../../CCC_common/Library/StdDriver/src/can.c:1198:23
	bl	LockIF_TL
	.loc	2 1198 21                       @ ../../CCC_common/Library/StdDriver/src/can.c:1198:21
	str	r0, [sp, #4]
.Ltmp297:
	.loc	2 1198 8                        @ ../../CCC_common/Library/StdDriver/src/can.c:1198:8
	cmp	r0, #2
	bne	.LBB27_2
	b	.LBB27_1
.LBB27_1:
	.loc	2 0 8                           @ ../../CCC_common/Library/StdDriver/src/can.c:0:8
	movs	r0, #0
.Ltmp298:
	.loc	2 1200 21 is_stmt 1             @ ../../CCC_common/Library/StdDriver/src/can.c:1200:21
	str	r0, [sp, #4]
	.loc	2 1201 5                        @ ../../CCC_common/Library/StdDriver/src/can.c:1201:5
	b	.LBB27_2
.Ltmp299:
.LBB27_2:
	.loc	2 1203 5                        @ ../../CCC_common/Library/StdDriver/src/can.c:1203:5
	ldr	r0, [sp, #12]
	.loc	2 1203 14 is_stmt 0             @ ../../CCC_common/Library/StdDriver/src/can.c:1203:14
	ldr	r3, [sp, #4]
	movs	r2, #96
	.loc	2 1203 5                        @ ../../CCC_common/Library/StdDriver/src/can.c:1203:5
	mov	r1, r2
	muls	r1, r3, r1
	.loc	2 1203 11                       @ ../../CCC_common/Library/StdDriver/src/can.c:1203:11
	adds	r1, r0, r1
	movs	r0, #12
	.loc	2 1203 33                       @ ../../CCC_common/Library/StdDriver/src/can.c:1203:33
	str	r0, [r1, #36]
	add	r0, sp, #8
	.loc	2 1204 40 is_stmt 1             @ ../../CCC_common/Library/StdDriver/src/can.c:1204:40
	ldrb	r0, [r0]
	.loc	2 1204 38 is_stmt 0             @ ../../CCC_common/Library/StdDriver/src/can.c:1204:38
	adds	r0, r0, #1
	.loc	2 1204 5                        @ ../../CCC_common/Library/StdDriver/src/can.c:1204:5
	ldr	r1, [sp, #12]
	.loc	2 1204 14                       @ ../../CCC_common/Library/StdDriver/src/can.c:1204:14
	ldr	r3, [sp, #4]
	.loc	2 1204 5                        @ ../../CCC_common/Library/StdDriver/src/can.c:1204:5
	muls	r2, r3, r2
	.loc	2 1204 11                       @ ../../CCC_common/Library/StdDriver/src/can.c:1204:11
	adds	r1, r1, r2
	.loc	2 1204 32                       @ ../../CCC_common/Library/StdDriver/src/can.c:1204:32
	str	r0, [r1, #32]
	.loc	2 1206 15 is_stmt 1             @ ../../CCC_common/Library/StdDriver/src/can.c:1206:15
	ldr	r0, [sp, #12]
	.loc	2 1206 21 is_stmt 0             @ ../../CCC_common/Library/StdDriver/src/can.c:1206:21
	ldr	r1, [sp, #4]
	.loc	2 1206 5                        @ ../../CCC_common/Library/StdDriver/src/can.c:1206:5
	bl	ReleaseIF
	.loc	2 1207 1 epilogue_begin is_stmt 1 @ ../../CCC_common/Library/StdDriver/src/can.c:1207:1
	add	sp, #16
	pop	{r7, pc}
.Ltmp300:
.Lfunc_end27:
	.size	CAN_CLR_INT_PENDING_BIT, .Lfunc_end27-CAN_CLR_INT_PENDING_BIT
	.cfi_endproc
	.cantunwind
	.fnend
                                        @ -- End function
	.section	.text.LockIF,"ax",%progbits
	.p2align	2                               @ -- Begin function LockIF
	.type	LockIF,%function
	.code	16                              @ @LockIF
	.thumb_func
LockIF:
.Lfunc_begin28:
	.loc	2 66 0                          @ ../../CCC_common/Library/StdDriver/src/can.c:66:0
	.fnstart
	.cfi_startproc
@ %bb.0:
	.pad	#16
	sub	sp, #16
	.cfi_def_cfa_offset 16
	str	r0, [sp, #12]
	movs	r0, #0
.Ltmp301:
	.loc	2 74 14 prologue_end            @ ../../CCC_common/Library/StdDriver/src/can.c:74:14
	str	r0, [sp, #8]
	movs	r0, #2
	.loc	2 77 17                         @ ../../CCC_common/Library/StdDriver/src/can.c:77:17
	str	r0, [sp, #4]
	.loc	2 80 18                         @ ../../CCC_common/Library/StdDriver/src/can.c:80:18
	ldr	r0, [sp, #12]
	.loc	2 80 24 is_stmt 0               @ ../../CCC_common/Library/StdDriver/src/can.c:80:24
	ldr	r0, [r0]
	movs	r1, #14
	.loc	2 80 28                         @ ../../CCC_common/Library/StdDriver/src/can.c:80:28
	ands	r0, r1
	.loc	2 80 16                         @ ../../CCC_common/Library/StdDriver/src/can.c:80:16
	str	r0, [sp]
	.loc	2 81 17 is_stmt 1               @ ../../CCC_common/Library/StdDriver/src/can.c:81:17
	ldr	r0, [sp, #12]
	.loc	2 81 23 is_stmt 0               @ ../../CCC_common/Library/StdDriver/src/can.c:81:23
	ldr	r0, [r0]
	.loc	2 81 27                         @ ../../CCC_common/Library/StdDriver/src/can.c:81:27
	bics	r0, r1
	.loc	2 81 5                          @ ../../CCC_common/Library/StdDriver/src/can.c:81:5
	ldr	r1, [sp, #12]
	.loc	2 81 15                         @ ../../CCC_common/Library/StdDriver/src/can.c:81:15
	str	r0, [r1]
.Ltmp302:
	.loc	2 84 9 is_stmt 1                @ ../../CCC_common/Library/StdDriver/src/can.c:84:9
	ldr	r0, [sp, #12]
	.loc	2 84 21 is_stmt 0               @ ../../CCC_common/Library/StdDriver/src/can.c:84:21
	ldr	r0, [r0, #32]
.Ltmp303:
	.loc	2 84 8                          @ ../../CCC_common/Library/StdDriver/src/can.c:84:8
	lsls	r0, r0, #16
	cmp	r0, #0
	bmi	.LBB28_4
	b	.LBB28_1
.LBB28_1:
.Ltmp304:
	.loc	2 86 25 is_stmt 1               @ ../../CCC_common/Library/StdDriver/src/can.c:86:25
	ldr	r0, [sp, #8]
	.loc	2 86 12 is_stmt 0               @ ../../CCC_common/Library/StdDriver/src/can.c:86:12
	lsls	r1, r0, #1
	ldr	r0, __arm_cp.28_0
	ldrb	r0, [r0, r1]
.Ltmp305:
	.loc	2 86 12                         @ ../../CCC_common/Library/StdDriver/src/can.c:86:12
	cbnz	r0, .LBB28_3
	b	.LBB28_2
.LBB28_2:
.Ltmp306:
	.loc	2 88 26 is_stmt 1               @ ../../CCC_common/Library/StdDriver/src/can.c:88:26
	ldr	r0, [sp, #8]
	.loc	2 88 13 is_stmt 0               @ ../../CCC_common/Library/StdDriver/src/can.c:88:13
	lsls	r2, r0, #1
	ldr	r1, __arm_cp.28_0
	movs	r0, #1
	.loc	2 88 39                         @ ../../CCC_common/Library/StdDriver/src/can.c:88:39
	strb	r0, [r1, r2]
	movs	r0, #0
	.loc	2 89 25 is_stmt 1               @ ../../CCC_common/Library/StdDriver/src/can.c:89:25
	str	r0, [sp, #4]
	.loc	2 90 9                          @ ../../CCC_common/Library/StdDriver/src/can.c:90:9
	b	.LBB28_3
.Ltmp307:
.LBB28_3:
	.loc	2 91 5                          @ ../../CCC_common/Library/StdDriver/src/can.c:91:5
	b	.LBB28_4
.Ltmp308:
.LBB28_4:
	.loc	2 94 8                          @ ../../CCC_common/Library/StdDriver/src/can.c:94:8
	ldr	r0, [sp, #4]
.Ltmp309:
	.loc	2 94 8 is_stmt 0                @ ../../CCC_common/Library/StdDriver/src/can.c:94:8
	cmp	r0, #2
	bne	.LBB28_10
	b	.LBB28_5
.LBB28_5:
.Ltmp310:
	.loc	2 96 13 is_stmt 1               @ ../../CCC_common/Library/StdDriver/src/can.c:96:13
	ldr	r0, [sp, #12]
	movs	r1, #128
	.loc	2 96 25 is_stmt 0               @ ../../CCC_common/Library/StdDriver/src/can.c:96:25
	ldr	r0, [r0, r1]
.Ltmp311:
	.loc	2 96 12                         @ ../../CCC_common/Library/StdDriver/src/can.c:96:12
	lsls	r0, r0, #16
	cmp	r0, #0
	bmi	.LBB28_9
	b	.LBB28_6
.LBB28_6:
.Ltmp312:
	.loc	2 98 29 is_stmt 1               @ ../../CCC_common/Library/StdDriver/src/can.c:98:29
	ldr	r0, [sp, #8]
	.loc	2 98 16 is_stmt 0               @ ../../CCC_common/Library/StdDriver/src/can.c:98:16
	lsls	r1, r0, #1
	ldr	r0, __arm_cp.28_0
	adds	r0, r0, r1
	ldrb	r0, [r0, #1]
.Ltmp313:
	.loc	2 98 16                         @ ../../CCC_common/Library/StdDriver/src/can.c:98:16
	cbnz	r0, .LBB28_8
	b	.LBB28_7
.LBB28_7:
.Ltmp314:
	.loc	2 100 30 is_stmt 1              @ ../../CCC_common/Library/StdDriver/src/can.c:100:30
	ldr	r0, [sp, #8]
	.loc	2 100 17 is_stmt 0              @ ../../CCC_common/Library/StdDriver/src/can.c:100:17
	lsls	r1, r0, #1
	ldr	r0, __arm_cp.28_0
	adds	r1, r0, r1
	movs	r0, #1
	.loc	2 100 43                        @ ../../CCC_common/Library/StdDriver/src/can.c:100:43
	strb	r0, [r1, #1]
	.loc	2 101 29 is_stmt 1              @ ../../CCC_common/Library/StdDriver/src/can.c:101:29
	str	r0, [sp, #4]
	.loc	2 102 13                        @ ../../CCC_common/Library/StdDriver/src/can.c:102:13
	b	.LBB28_8
.Ltmp315:
.LBB28_8:
	.loc	2 103 9                         @ ../../CCC_common/Library/StdDriver/src/can.c:103:9
	b	.LBB28_9
.Ltmp316:
.LBB28_9:
	.loc	2 104 5                         @ ../../CCC_common/Library/StdDriver/src/can.c:104:5
	b	.LBB28_10
.Ltmp317:
.LBB28_10:
	.loc	2 107 18                        @ ../../CCC_common/Library/StdDriver/src/can.c:107:18
	ldr	r2, [sp]
	.loc	2 107 5 is_stmt 0               @ ../../CCC_common/Library/StdDriver/src/can.c:107:5
	ldr	r1, [sp, #12]
	.loc	2 107 15                        @ ../../CCC_common/Library/StdDriver/src/can.c:107:15
	ldr	r0, [r1]
	orrs	r0, r2
	str	r0, [r1]
	.loc	2 109 12 is_stmt 1              @ ../../CCC_common/Library/StdDriver/src/can.c:109:12
	ldr	r0, [sp, #4]
	.loc	2 109 5 epilogue_begin is_stmt 0 @ ../../CCC_common/Library/StdDriver/src/can.c:109:5
	add	sp, #16
	bx	lr
.Ltmp318:
	.loc	2 0 5                           @ :0:5
.Ltmp319:
	.p2align	2
@ %bb.11:
__arm_cp.28_0:
	.long	gu8LockCanIf
.Lcpi_end19:
	.size	__arm_cp.28_0, .Lcpi_end19-__arm_cp.28_0
.Lfunc_end28:
	.size	LockIF, .Lfunc_end28-LockIF
	.cfi_endproc
	.cantunwind
	.fnend
                                        @ -- End function
	.type	gu8LockCanIf,%object            @ @gu8LockCanIf
	.section	.bss.gu8LockCanIf,"aw",%nobits
gu8LockCanIf:
	.zero	2
	.size	gu8LockCanIf, 2

	.file	3 "D:\\work\\dheeraj\\local\\CEL\\CCC\\CCC_CPU0\\Code" "../../CCC_common/Library/Device/Nuvoton/M261/Include\\can_reg.h"
	.file	4 "D:\\work\\dheeraj\\local\\CEL\\CCC\\CCC_CPU0\\Code" "../../CCC_common/Library/StdDriver/inc\\can.h"
	.section	".note.GNU-stack","",%progbits
	.eabi_attribute	30, 6	@ Tag_ABI_optimization_goals
	.ARM_attribute	16, 1	@ Tag_AV_eba