	.text
	.syntax unified
	.eabi_attribute	67, "2.09"	@ Tag_conformance
	.cpu	cortex-m23
	.eabi_attribute	6, 16	@ Tag_CPU_arch
	.eabi_attribute	7, 77	@ Tag_CPU_arch_profile
	.eabi_attribute	8, 0	@ Tag_ARM_ISA_use
	.eabi_attribute	9, 3	@ Tag_THUMB_ISA_use
	.eabi_attribute	34, 0	@ Tag_CPU_unaligned_access
	.eabi_attribute	17, 1	@ Tag_ABI_PCS_GOT_use
	.eabi_attribute	20, 2	@ Tag_ABI_FP_denormal
	.eabi_attribute	21, 0	@ Tag_ABI_FP_exceptions
	.eabi_attribute	23, 1	@ Tag_ABI_FP_number_model
	.eabi_attribute	24, 1	@ Tag_ABI_align_needed
	.eabi_attribute	25, 1	@ Tag_ABI_align_preserved
	.eabi_attribute	38, 1	@ Tag_ABI_FP_16bit_format
	.eabi_attribute	18, 4	@ Tag_ABI_PCS_wchar_t
	.eabi_attribute	26, 2	@ Tag_ABI_enum_size
	.eabi_attribute	14, 0	@ Tag_ABI_PCS_R9_use
	.file	"cmds.c"
	.file	1 "C:\\Users\\Anaya\\AppData\\Local\\Keil_v5\\ARM\\ARMCLANG\\bin\\..\\include" "stdint.h"
	.file	2 "D:\\work\\dheeraj\\local\\CEL\\CCC\\CCC_CPU0\\Code" "source/Include\\cli.h"
	.file	3 "D:\\work\\dheeraj\\local\\CEL\\CCC\\CCC_CPU0\\Code" "source/cmds.c"
	.file	4 "D:\\work\\dheeraj\\local\\CEL\\CCC\\CCC_CPU0\\Code" "source/Include\\app.h"
	.section	.text.cli_showversion,"ax",%progbits
	.p2align	2                               @ -- Begin function cli_showversion
	.type	cli_showversion,%function
	.code	16                              @ @cli_showversion
	.thumb_func
cli_showversion:
.Lfunc_begin0:
	.loc	3 136 0                         @ source/cmds.c:136:0
	.fnstart
	.cfi_sections .debug_frame
	.cfi_startproc
@ %bb.0:
	.save	{r7, lr}
	push	{r7, lr}
	.cfi_def_cfa_offset 8
	.cfi_offset lr, -4
	.cfi_offset r7, -8
	movs	r0, #0
	movs	r1, #32
.Ltmp0:
	.loc	3 137 2 prologue_end            @ source/cmds.c:137:2
	bl	my_strtok
	mov	r1, r0
	ldr	r0, __arm_cp.0_0
	str	r1, [r0]
.Ltmp1:
	.loc	3 137 2 is_stmt 0               @ source/cmds.c:137:2
	ldr	r0, [r0]
	ldrb	r0, [r0]
.Ltmp2:
	.loc	3 137 2                         @ source/cmds.c:137:2
	cbz	r0, .LBB0_2
	b	.LBB0_1
.LBB0_1:
.Ltmp3:
	.loc	3 137 2                         @ source/cmds.c:137:2
	ldr	r0, __arm_cp.0_7
	bl	printf
	b	.LBB0_3
.Ltmp4:
.LBB0_2:
	.loc	3 138 2 is_stmt 1               @ source/cmds.c:138:2
	ldr	r0, __arm_cp.0_1
	ldr	r1, __arm_cp.0_2
	bl	printf
	.loc	3 139 2                         @ source/cmds.c:139:2
	ldr	r0, __arm_cp.0_3
	ldr	r1, __arm_cp.0_4
	ldr	r2, __arm_cp.0_5
	ldr	r3, __arm_cp.0_6
	bl	printf
	.loc	3 140 1                         @ source/cmds.c:140:1
	b	.LBB0_3
.LBB0_3:
	.loc	3 140 1 epilogue_begin is_stmt 0 @ source/cmds.c:140:1
	pop	{r7, pc}
.Ltmp5:
	.loc	3 0 1                           @ :0:1
.Ltmp6:
	.p2align	2
@ %bb.4:
__arm_cp.0_0:
	.long	token
.Lcpi_end0:
	.size	__arm_cp.0_0, .Lcpi_end0-__arm_cp.0_0
__arm_cp.0_1:
	.long	.L.str.1
.Lcpi_end1:
	.size	__arm_cp.0_1, .Lcpi_end1-__arm_cp.0_1
__arm_cp.0_2:
	.long	.L.str.2
.Lcpi_end2:
	.size	__arm_cp.0_2, .Lcpi_end2-__arm_cp.0_2
__arm_cp.0_3:
	.long	.L.str.3
.Lcpi_end3:
	.size	__arm_cp.0_3, .Lcpi_end3-__arm_cp.0_3
__arm_cp.0_4:
	.long	.L.str.4
.Lcpi_end4:
	.size	__arm_cp.0_4, .Lcpi_end4-__arm_cp.0_4
__arm_cp.0_5:
	.long	.L.str.5
.Lcpi_end5:
	.size	__arm_cp.0_5, .Lcpi_end5-__arm_cp.0_5
__arm_cp.0_6:
	.long	.L.str.6
.Lcpi_end6:
	.size	__arm_cp.0_6, .Lcpi_end6-__arm_cp.0_6
__arm_cp.0_7:
	.long	.L.str
.Lcpi_end7:
	.size	__arm_cp.0_7, .Lcpi_end7-__arm_cp.0_7
.Lfunc_end0:
	.size	cli_showversion, .Lfunc_end0-cli_showversion
	.cfi_endproc
	.cantunwind
	.fnend
                                        @ -- End function
	.section	.text.cli_setstation,"ax",%progbits
	.p2align	2                               @ -- Begin function cli_setstation
	.type	cli_setstation,%function
	.code	16                              @ @cli_setstation
	.thumb_func
cli_setstation:
.Lfunc_begin1:
	.loc	3 650 0 is_stmt 1               @ source/cmds.c:650:0
	.fnstart
	.cfi_startproc
@ %bb.0:
	.save	{r7, lr}
	push	{r7, lr}
	.cfi_def_cfa_offset 8
	.cfi_offset lr, -4
	.cfi_offset r7, -8
	.pad	#8
	sub	sp, #8
	.cfi_def_cfa_offset 16
	movs	r0, #0
	movs	r1, #32
.Ltmp7:
	.loc	3 653 10 prologue_end           @ source/cmds.c:653:10
	bl	my_strtok
	mov	r1, r0
	.loc	3 653 8 is_stmt 0               @ source/cmds.c:653:8
	ldr	r0, __arm_cp.1_0
	str	r0, [sp]                        @ 4-byte Spill
	str	r1, [r0]
	.loc	3 654 13 is_stmt 1              @ source/cmds.c:654:13
	ldr	r0, [r0]
	.loc	3 654 6 is_stmt 0               @ source/cmds.c:654:6
	bl	strlen
	mov	r1, r0
	ldr	r0, [sp]                        @ 4-byte Reload
	add	r2, sp, #4
	.loc	3 654 4                         @ source/cmds.c:654:4
	strb	r1, [r2]
.Ltmp8:
	.loc	3 655 14 is_stmt 1              @ source/cmds.c:655:14
	ldr	r0, [r0]
	.loc	3 655 7 is_stmt 0               @ source/cmds.c:655:7
	ldr	r1, __arm_cp.1_1
	bl	strcmp
.Ltmp9:
	.loc	3 655 6                         @ source/cmds.c:655:6
	cbnz	r0, .LBB1_5
	b	.LBB1_1
.LBB1_1:
	.loc	3 0 6                           @ source/cmds.c:0:6
	movs	r0, #0
	movs	r1, #32
.Ltmp10:
	.loc	3 656 11 is_stmt 1              @ source/cmds.c:656:11
	bl	my_strtok
	mov	r1, r0
	.loc	3 656 9 is_stmt 0               @ source/cmds.c:656:9
	ldr	r0, __arm_cp.1_0
	str	r1, [r0]
	.loc	3 657 14 is_stmt 1              @ source/cmds.c:657:14
	ldr	r0, [r0]
	.loc	3 657 7 is_stmt 0               @ source/cmds.c:657:7
	bl	strlen
	mov	r1, r0
	add	r0, sp, #4
	.loc	3 657 5                         @ source/cmds.c:657:5
	strb	r1, [r0]
.Ltmp11:
	.loc	3 658 7 is_stmt 1               @ source/cmds.c:658:7
	ldrb	r0, [r0]
.Ltmp12:
	.loc	3 658 7 is_stmt 0               @ source/cmds.c:658:7
	cmp	r0, #16
	bhi	.LBB1_3
	b	.LBB1_2
.LBB1_2:
.Ltmp13:
	.loc	3 659 26 is_stmt 1              @ source/cmds.c:659:26
	ldr	r0, __arm_cp.1_0
	ldr	r1, [r0]
	.loc	3 659 4 is_stmt 0               @ source/cmds.c:659:4
	ldr	r0, __arm_cp.1_4
	bl	strcpy
	.loc	3 660 28 is_stmt 1              @ source/cmds.c:660:28
	ldr	r1, __arm_cp.1_5
	movs	r0, #1
	strb	r0, [r1, #6]
	.loc	3 661 3                         @ source/cmds.c:661:3
	b	.LBB1_4
.Ltmp14:
.LBB1_3:
	.loc	3 663 4                         @ source/cmds.c:663:4
	ldr	r0, __arm_cp.1_2
	bl	printf
	.loc	3 664 15                        @ source/cmds.c:664:15
	ldr	r1, __arm_cp.1_3
	movs	r0, #2
	strb	r0, [r1]
	b	.LBB1_4
.Ltmp15:
.LBB1_4:
	.loc	3 666 2                         @ source/cmds.c:666:2
	b	.LBB1_12
.Ltmp16:
.LBB1_5:
	.loc	3 667 19                        @ source/cmds.c:667:19
	ldr	r0, __arm_cp.1_0
	ldr	r0, [r0]
	.loc	3 667 12 is_stmt 0              @ source/cmds.c:667:12
	ldr	r1, __arm_cp.1_6
	bl	strcmp
.Ltmp17:
	.loc	3 667 11                        @ source/cmds.c:667:11
	cbnz	r0, .LBB1_10
	b	.LBB1_6
.LBB1_6:
	.loc	3 0 11                          @ source/cmds.c:0:11
	movs	r0, #0
	movs	r1, #32
.Ltmp18:
	.loc	3 668 11 is_stmt 1              @ source/cmds.c:668:11
	bl	my_strtok
	mov	r1, r0
	.loc	3 668 9 is_stmt 0               @ source/cmds.c:668:9
	ldr	r0, __arm_cp.1_0
	str	r1, [r0]
	.loc	3 669 14 is_stmt 1              @ source/cmds.c:669:14
	ldr	r0, [r0]
	.loc	3 669 7 is_stmt 0               @ source/cmds.c:669:7
	bl	strlen
	mov	r1, r0
	add	r0, sp, #4
	.loc	3 669 5                         @ source/cmds.c:669:5
	strb	r1, [r0]
.Ltmp19:
	.loc	3 670 7 is_stmt 1               @ source/cmds.c:670:7
	ldrb	r0, [r0]
.Ltmp20:
	.loc	3 670 7 is_stmt 0               @ source/cmds.c:670:7
	cmp	r0, #16
	bhi	.LBB1_8
	b	.LBB1_7
.LBB1_7:
.Ltmp21:
	.loc	3 671 27 is_stmt 1              @ source/cmds.c:671:27
	ldr	r0, __arm_cp.1_0
	ldr	r1, [r0]
	.loc	3 671 4 is_stmt 0               @ source/cmds.c:671:4
	ldr	r0, __arm_cp.1_4
	adds	r0, #22
	bl	strcpy
	.loc	3 672 3 is_stmt 1               @ source/cmds.c:672:3
	b	.LBB1_9
.Ltmp22:
.LBB1_8:
	.loc	3 674 4                         @ source/cmds.c:674:4
	ldr	r0, __arm_cp.1_2
	bl	printf
	.loc	3 675 15                        @ source/cmds.c:675:15
	ldr	r1, __arm_cp.1_3
	movs	r0, #2
	strb	r0, [r1]
	b	.LBB1_9
.Ltmp23:
.LBB1_9:
	.loc	3 677 2                         @ source/cmds.c:677:2
	b	.LBB1_11
.Ltmp24:
.LBB1_10:
	.loc	3 679 3                         @ source/cmds.c:679:3
	ldr	r0, __arm_cp.1_7
	bl	printf
	.loc	3 680 14                        @ source/cmds.c:680:14
	ldr	r1, __arm_cp.1_3
	movs	r0, #2
	strb	r0, [r1]
	b	.LBB1_11
.Ltmp25:
.LBB1_11:
	.loc	3 0 14 is_stmt 0                @ source/cmds.c:0:14
	b	.LBB1_12
.LBB1_12:
	.loc	3 682 1 epilogue_begin is_stmt 1 @ source/cmds.c:682:1
	add	sp, #8
	pop	{r7, pc}
.Ltmp26:
	.loc	3 0 1 is_stmt 0                 @ :0:1
.Ltmp27:
	.p2align	2
@ %bb.13:
__arm_cp.1_0:
	.long	token
.Lcpi_end8:
	.size	__arm_cp.1_0, .Lcpi_end8-__arm_cp.1_0
__arm_cp.1_1:
	.long	.L.str.78
.Lcpi_end9:
	.size	__arm_cp.1_1, .Lcpi_end9-__arm_cp.1_1
__arm_cp.1_2:
	.long	.L.str.79
.Lcpi_end10:
	.size	__arm_cp.1_2, .Lcpi_end10-__arm_cp.1_2
__arm_cp.1_3:
	.long	ERROR_CODE
.Lcpi_end11:
	.size	__arm_cp.1_3, .Lcpi_end11-__arm_cp.1_3
__arm_cp.1_4:
	.long	cfg
.Lcpi_end12:
	.size	__arm_cp.1_4, .Lcpi_end12-__arm_cp.1_4
__arm_cp.1_5:
	.long	sys
.Lcpi_end13:
	.size	__arm_cp.1_5, .Lcpi_end13-__arm_cp.1_5
__arm_cp.1_6:
	.long	.L.str.80
.Lcpi_end14:
	.size	__arm_cp.1_6, .Lcpi_end14-__arm_cp.1_6
__arm_cp.1_7:
	.long	.L.str.81
.Lcpi_end15:
	.size	__arm_cp.1_7, .Lcpi_end15-__arm_cp.1_7
.Lfunc_end1:
	.size	cli_setstation, .Lfunc_end1-cli_setstation
	.cfi_endproc
	.cantunwind
	.fnend
                                        @ -- End function
	.section	.text.cli_setaddress,"ax",%progbits
	.p2align	2                               @ -- Begin function cli_setaddress
	.type	cli_setaddress,%function
	.code	16                              @ @cli_setaddress
	.thumb_func
cli_setaddress:
.Lfunc_begin2:
	.loc	3 722 0 is_stmt 1               @ source/cmds.c:722:0
	.fnstart
	.cfi_startproc
@ %bb.0:
	.save	{r7, lr}
	push	{r7, lr}
	.cfi_def_cfa_offset 8
	.cfi_offset lr, -4
	.cfi_offset r7, -8
	.pad	#8
	sub	sp, #8
	.cfi_def_cfa_offset 16
	movs	r0, #0
	movs	r1, #32
.Ltmp28:
	.loc	3 725 10 prologue_end           @ source/cmds.c:725:10
	bl	my_strtok
	mov	r1, r0
	.loc	3 725 8 is_stmt 0               @ source/cmds.c:725:8
	ldr	r0, __arm_cp.2_0
	str	r0, [sp]                        @ 4-byte Spill
	str	r1, [r0]
	.loc	3 726 13 is_stmt 1              @ source/cmds.c:726:13
	ldr	r0, [r0]
	.loc	3 726 6 is_stmt 0               @ source/cmds.c:726:6
	bl	strlen
	mov	r1, r0
	ldr	r0, [sp]                        @ 4-byte Reload
	add	r2, sp, #4
	.loc	3 726 4                         @ source/cmds.c:726:4
	strb	r1, [r2]
.Ltmp29:
	.loc	3 727 14 is_stmt 1              @ source/cmds.c:727:14
	ldr	r0, [r0]
	.loc	3 727 7 is_stmt 0               @ source/cmds.c:727:7
	ldr	r1, __arm_cp.2_1
	bl	strcmp
.Ltmp30:
	.loc	3 727 6                         @ source/cmds.c:727:6
	cbnz	r0, .LBB2_5
	b	.LBB2_1
.LBB2_1:
	.loc	3 0 6                           @ source/cmds.c:0:6
	movs	r0, #0
	movs	r1, #32
.Ltmp31:
	.loc	3 729 11 is_stmt 1              @ source/cmds.c:729:11
	bl	my_strtok
	mov	r1, r0
	.loc	3 729 9 is_stmt 0               @ source/cmds.c:729:9
	ldr	r0, __arm_cp.2_0
	str	r1, [r0]
	.loc	3 730 14 is_stmt 1              @ source/cmds.c:730:14
	ldr	r0, [r0]
	.loc	3 730 7 is_stmt 0               @ source/cmds.c:730:7
	bl	strlen
	mov	r1, r0
	add	r0, sp, #4
	.loc	3 730 5                         @ source/cmds.c:730:5
	strb	r1, [r0]
.Ltmp32:
	.loc	3 731 7 is_stmt 1               @ source/cmds.c:731:7
	ldrb	r0, [r0]
.Ltmp33:
	.loc	3 731 7 is_stmt 0               @ source/cmds.c:731:7
	cmp	r0, #4
	bhi	.LBB2_3
	b	.LBB2_2
.LBB2_2:
.Ltmp34:
	.loc	3 733 29 is_stmt 1              @ source/cmds.c:733:29
	ldr	r0, __arm_cp.2_0
	ldr	r1, [r0]
	.loc	3 733 4 is_stmt 0               @ source/cmds.c:733:4
	ldr	r0, __arm_cp.2_4
	adds	r0, #17
	bl	strcpy
	.loc	3 734 28 is_stmt 1              @ source/cmds.c:734:28
	ldr	r1, __arm_cp.2_5
	movs	r0, #1
	strb	r0, [r1, #6]
	.loc	3 735 3                         @ source/cmds.c:735:3
	b	.LBB2_4
.Ltmp35:
.LBB2_3:
	.loc	3 738 4                         @ source/cmds.c:738:4
	ldr	r0, __arm_cp.2_2
	bl	printf
	.loc	3 739 15                        @ source/cmds.c:739:15
	ldr	r1, __arm_cp.2_3
	movs	r0, #2
	strb	r0, [r1]
	b	.LBB2_4
.Ltmp36:
.LBB2_4:
	.loc	3 741 2                         @ source/cmds.c:741:2
	b	.LBB2_12
.Ltmp37:
.LBB2_5:
	.loc	3 742 19                        @ source/cmds.c:742:19
	ldr	r0, __arm_cp.2_0
	ldr	r0, [r0]
	.loc	3 742 12 is_stmt 0              @ source/cmds.c:742:12
	ldr	r1, __arm_cp.2_6
	bl	strcmp
.Ltmp38:
	.loc	3 742 11                        @ source/cmds.c:742:11
	cbnz	r0, .LBB2_10
	b	.LBB2_6
.LBB2_6:
	.loc	3 0 11                          @ source/cmds.c:0:11
	movs	r0, #0
	movs	r1, #32
.Ltmp39:
	.loc	3 744 11 is_stmt 1              @ source/cmds.c:744:11
	bl	my_strtok
	mov	r1, r0
	.loc	3 744 9 is_stmt 0               @ source/cmds.c:744:9
	ldr	r0, __arm_cp.2_0
	str	r1, [r0]
	.loc	3 745 14 is_stmt 1              @ source/cmds.c:745:14
	ldr	r0, [r0]
	.loc	3 745 7 is_stmt 0               @ source/cmds.c:745:7
	bl	strlen
	mov	r1, r0
	add	r0, sp, #4
	.loc	3 745 5                         @ source/cmds.c:745:5
	strb	r1, [r0]
.Ltmp40:
	.loc	3 746 7 is_stmt 1               @ source/cmds.c:746:7
	ldrb	r0, [r0]
.Ltmp41:
	.loc	3 746 7 is_stmt 0               @ source/cmds.c:746:7
	cmp	r0, #4
	bhi	.LBB2_8
	b	.LBB2_7
.LBB2_7:
.Ltmp42:
	.loc	3 748 32 is_stmt 1              @ source/cmds.c:748:32
	ldr	r0, __arm_cp.2_0
	ldr	r1, [r0]
	.loc	3 748 4 is_stmt 0               @ source/cmds.c:748:4
	ldr	r0, __arm_cp.2_4
	adds	r0, #39
	bl	strcpy
	.loc	3 749 3 is_stmt 1               @ source/cmds.c:749:3
	b	.LBB2_9
.Ltmp43:
.LBB2_8:
	.loc	3 752 4                         @ source/cmds.c:752:4
	ldr	r0, __arm_cp.2_2
	bl	printf
	.loc	3 753 15                        @ source/cmds.c:753:15
	ldr	r1, __arm_cp.2_3
	movs	r0, #2
	strb	r0, [r1]
	b	.LBB2_9
.Ltmp44:
.LBB2_9:
	.loc	3 755 2                         @ source/cmds.c:755:2
	b	.LBB2_11
.Ltmp45:
.LBB2_10:
	.loc	3 758 3                         @ source/cmds.c:758:3
	ldr	r0, __arm_cp.2_7
	bl	printf
	.loc	3 759 14                        @ source/cmds.c:759:14
	ldr	r1, __arm_cp.2_3
	movs	r0, #2
	strb	r0, [r1]
	b	.LBB2_11
.Ltmp46:
.LBB2_11:
	.loc	3 0 14 is_stmt 0                @ source/cmds.c:0:14
	b	.LBB2_12
.LBB2_12:
	.loc	3 761 1 epilogue_begin is_stmt 1 @ source/cmds.c:761:1
	add	sp, #8
	pop	{r7, pc}
.Ltmp47:
	.loc	3 0 1 is_stmt 0                 @ :0:1
.Ltmp48:
	.p2align	2
@ %bb.13:
__arm_cp.2_0:
	.long	token
.Lcpi_end16:
	.size	__arm_cp.2_0, .Lcpi_end16-__arm_cp.2_0
__arm_cp.2_1:
	.long	.L.str.78
.Lcpi_end17:
	.size	__arm_cp.2_1, .Lcpi_end17-__arm_cp.2_1
__arm_cp.2_2:
	.long	.L.str.86
.Lcpi_end18:
	.size	__arm_cp.2_2, .Lcpi_end18-__arm_cp.2_2
__arm_cp.2_3:
	.long	ERROR_CODE
.Lcpi_end19:
	.size	__arm_cp.2_3, .Lcpi_end19-__arm_cp.2_3
__arm_cp.2_4:
	.long	cfg
.Lcpi_end20:
	.size	__arm_cp.2_4, .Lcpi_end20-__arm_cp.2_4
__arm_cp.2_5:
	.long	sys
.Lcpi_end21:
	.size	__arm_cp.2_5, .Lcpi_end21-__arm_cp.2_5
__arm_cp.2_6:
	.long	.L.str.80
.Lcpi_end22:
	.size	__arm_cp.2_6, .Lcpi_end22-__arm_cp.2_6
__arm_cp.2_7:
	.long	.L.str.81
.Lcpi_end23:
	.size	__arm_cp.2_7, .Lcpi_end23-__arm_cp.2_7
.Lfunc_end2:
	.size	cli_setaddress, .Lfunc_end2-cli_setaddress
	.cfi_endproc
	.cantunwind
	.fnend
                                        @ -- End function
	.section	.text.cli_showstate,"ax",%progbits
	.p2align	2                               @ -- Begin function cli_showstate
	.type	cli_showstate,%function
	.code	16                              @ @cli_showstate
	.thumb_func
cli_showstate:
.Lfunc_begin3:
	.loc	3 333 0 is_stmt 1               @ source/cmds.c:333:0
	.fnstart
	.cfi_startproc
@ %bb.0:
	.save	{r7, lr}
	push	{r7, lr}
	.cfi_def_cfa_offset 8
	.cfi_offset lr, -4
	.cfi_offset r7, -8
	.pad	#56
	sub	sp, #56
	.cfi_def_cfa_offset 64
.Ltmp49:
	.loc	3 337 12 prologue_end           @ source/cmds.c:337:12
	ldr	r1, __arm_cp.3_43
	movs	r0, #1
	strb	r0, [r1]
	.loc	3 340 2                         @ source/cmds.c:340:2
	ldr	r0, __arm_cp.3_44
	bl	printf
	.loc	3 341 2                         @ source/cmds.c:341:2
	ldr	r0, .LCPI3_45
	bl	printf
	add	r1, sp, #48
	movs	r0, #0
.Ltmp50:
	.loc	3 342 9                         @ source/cmds.c:342:9
	strb	r0, [r1]
	.loc	3 342 7 is_stmt 0               @ source/cmds.c:342:7
	b	.LBB3_1
.LBB3_1:                                @ =>This Inner Loop Header: Depth=1
	.loc	3 0 7                           @ source/cmds.c:0:7
	add	r0, sp, #48
.Ltmp51:
	.loc	3 342 14                        @ source/cmds.c:342:14
	ldrb	r0, [r0]
.Ltmp52:
	.loc	3 342 2                         @ source/cmds.c:342:2
	cmp	r0, #19
	bhi	.LBB3_4
	b	.LBB3_2
.LBB3_2:                                @   in Loop: Header=BB3_1 Depth=1
	.loc	3 0 2                           @ source/cmds.c:0:2
	add	r0, sp, #48
.Ltmp53:
	.loc	3 343 18 is_stmt 1              @ source/cmds.c:343:18
	ldrb	r0, [r0]
	.loc	3 343 20 is_stmt 0              @ source/cmds.c:343:20
	adds	r1, r0, #1
	.loc	3 343 3                         @ source/cmds.c:343:3
	ldr	r0, .LCPI3_46
	bl	printf
	.loc	3 344 2 is_stmt 1               @ source/cmds.c:344:2
	b	.LBB3_3
.Ltmp54:
.LBB3_3:                                @   in Loop: Header=BB3_1 Depth=1
	.loc	3 342 41                        @ source/cmds.c:342:41
	ldr	r0, [sp, #48]
	adds	r0, r0, #1
	add	r1, sp, #48
	strb	r0, [r1]
	.loc	3 342 2 is_stmt 0               @ source/cmds.c:342:2
	b	.LBB3_1
.Ltmp55:
.LBB3_4:
	.loc	3 345 2 is_stmt 1               @ source/cmds.c:345:2
	ldr	r0, .LCPI3_47
	bl	printf
	add	r1, sp, #52
	movs	r0, #0
.Ltmp56:
	.loc	3 346 9                         @ source/cmds.c:346:9
	strb	r0, [r1]
	.loc	3 346 7 is_stmt 0               @ source/cmds.c:346:7
	b	.LBB3_5
.LBB3_5:                                @ =>This Inner Loop Header: Depth=1
	.loc	3 0 7                           @ source/cmds.c:0:7
	add	r0, sp, #52
.Ltmp57:
	.loc	3 346 15                        @ source/cmds.c:346:15
	ldrb	r0, [r0]
.Ltmp58:
	.loc	3 346 2                         @ source/cmds.c:346:2
	cmp	r0, #3
	bhi	.LBB3_8
	b	.LBB3_6
.LBB3_6:                                @   in Loop: Header=BB3_5 Depth=1
	.loc	3 0 2                           @ source/cmds.c:0:2
	add	r0, sp, #52
.Ltmp59:
	.loc	3 347 15 is_stmt 1              @ source/cmds.c:347:15
	ldrb	r0, [r0]
	ldr	r2, .LCPI3_48
	.loc	3 347 36 is_stmt 0              @ source/cmds.c:347:36
	muls	r2, r0, r2
	ldr	r1, .LCPI3_49
	adds	r2, r1, r2
	.loc	3 347 42                        @ source/cmds.c:347:42
	adds	r2, #94
	movs	r1, #20
	.loc	3 347 3                         @ source/cmds.c:347:3
	bl	print_state
	.loc	3 348 2 is_stmt 1               @ source/cmds.c:348:2
	b	.LBB3_7
.Ltmp60:
.LBB3_7:                                @   in Loop: Header=BB3_5 Depth=1
	.loc	3 346 24                        @ source/cmds.c:346:24
	ldr	r0, [sp, #52]
	adds	r0, r0, #1
	add	r1, sp, #52
	strb	r0, [r1]
	.loc	3 346 2 is_stmt 0               @ source/cmds.c:346:2
	b	.LBB3_5
.Ltmp61:
.LBB3_8:
	.loc	3 350 2 is_stmt 1               @ source/cmds.c:350:2
	ldr	r0, .LCPI3_47
	bl	printf
	.loc	3 351 2                         @ source/cmds.c:351:2
	ldr	r0, __arm_cp.3_50
	bl	printf
	.loc	3 352 2                         @ source/cmds.c:352:2
	ldr	r0, .LCPI3_45
	bl	printf
	add	r1, sp, #48
	movs	r0, #0
.Ltmp62:
	.loc	3 353 9                         @ source/cmds.c:353:9
	strb	r0, [r1]
	.loc	3 353 7 is_stmt 0               @ source/cmds.c:353:7
	b	.LBB3_9
.LBB3_9:                                @ =>This Inner Loop Header: Depth=1
	.loc	3 0 7                           @ source/cmds.c:0:7
	add	r0, sp, #48
.Ltmp63:
	.loc	3 353 14                        @ source/cmds.c:353:14
	ldrb	r0, [r0]
.Ltmp64:
	.loc	3 353 2                         @ source/cmds.c:353:2
	cmp	r0, #7
	bhi	.LBB3_12
	b	.LBB3_10
.LBB3_10:                               @   in Loop: Header=BB3_9 Depth=1
	.loc	3 0 2                           @ source/cmds.c:0:2
	add	r0, sp, #48
.Ltmp65:
	.loc	3 354 18 is_stmt 1              @ source/cmds.c:354:18
	ldrb	r0, [r0]
	.loc	3 354 20 is_stmt 0              @ source/cmds.c:354:20
	adds	r1, r0, #1
	.loc	3 354 3                         @ source/cmds.c:354:3
	ldr	r0, .LCPI3_46
	bl	printf
	.loc	3 355 2 is_stmt 1               @ source/cmds.c:355:2
	b	.LBB3_11
.Ltmp66:
.LBB3_11:                               @   in Loop: Header=BB3_9 Depth=1
	.loc	3 353 42                        @ source/cmds.c:353:42
	ldr	r0, [sp, #48]
	adds	r0, r0, #1
	add	r1, sp, #48
	strb	r0, [r1]
	.loc	3 353 2 is_stmt 0               @ source/cmds.c:353:2
	b	.LBB3_9
.Ltmp67:
.LBB3_12:
	.loc	3 356 2 is_stmt 1               @ source/cmds.c:356:2
	ldr	r0, .LCPI3_47
	bl	printf
	add	r1, sp, #52
	movs	r0, #0
.Ltmp68:
	.loc	3 357 9                         @ source/cmds.c:357:9
	strb	r0, [r1]
	.loc	3 357 7 is_stmt 0               @ source/cmds.c:357:7
	b	.LBB3_13
.LBB3_13:                               @ =>This Inner Loop Header: Depth=1
	.loc	3 0 7                           @ source/cmds.c:0:7
	add	r0, sp, #52
.Ltmp69:
	.loc	3 357 15                        @ source/cmds.c:357:15
	ldrb	r0, [r0]
.Ltmp70:
	.loc	3 357 2                         @ source/cmds.c:357:2
	cmp	r0, #3
	bhi	.LBB3_16
	b	.LBB3_14
.LBB3_14:                               @   in Loop: Header=BB3_13 Depth=1
	.loc	3 0 2                           @ source/cmds.c:0:2
	add	r0, sp, #52
.Ltmp71:
	.loc	3 358 15 is_stmt 1              @ source/cmds.c:358:15
	ldrb	r0, [r0]
	ldr	r2, .LCPI3_48
	.loc	3 358 37 is_stmt 0              @ source/cmds.c:358:37
	muls	r2, r0, r2
	ldr	r1, .LCPI3_49
	adds	r2, r1, r2
	.loc	3 358 43                        @ source/cmds.c:358:43
	adds	r2, #214
	movs	r1, #8
	.loc	3 358 3                         @ source/cmds.c:358:3
	bl	print_state
	.loc	3 359 2 is_stmt 1               @ source/cmds.c:359:2
	b	.LBB3_15
.Ltmp72:
.LBB3_15:                               @   in Loop: Header=BB3_13 Depth=1
	.loc	3 357 24                        @ source/cmds.c:357:24
	ldr	r0, [sp, #52]
	adds	r0, r0, #1
	add	r1, sp, #52
	strb	r0, [r1]
	.loc	3 357 2 is_stmt 0               @ source/cmds.c:357:2
	b	.LBB3_13
.Ltmp73:
.LBB3_16:
	.loc	3 361 2 is_stmt 1               @ source/cmds.c:361:2
	ldr	r0, .LCPI3_47
	bl	printf
	.loc	3 362 2                         @ source/cmds.c:362:2
	ldr	r0, __arm_cp.3_51
	bl	printf
	.loc	3 363 2                         @ source/cmds.c:363:2
	ldr	r0, .LCPI3_45
	bl	printf
	add	r1, sp, #48
	movs	r0, #0
.Ltmp74:
	.loc	3 364 9                         @ source/cmds.c:364:9
	strb	r0, [r1]
	.loc	3 364 7 is_stmt 0               @ source/cmds.c:364:7
	b	.LBB3_17
.LBB3_17:                               @ =>This Inner Loop Header: Depth=1
	.loc	3 0 7                           @ source/cmds.c:0:7
	add	r0, sp, #48
.Ltmp75:
	.loc	3 364 14                        @ source/cmds.c:364:14
	ldrb	r0, [r0]
.Ltmp76:
	.loc	3 364 2                         @ source/cmds.c:364:2
	cmp	r0, #7
	bhi	.LBB3_20
	b	.LBB3_18
.LBB3_18:                               @   in Loop: Header=BB3_17 Depth=1
	.loc	3 0 2                           @ source/cmds.c:0:2
	add	r0, sp, #48
.Ltmp77:
	.loc	3 365 18 is_stmt 1              @ source/cmds.c:365:18
	ldrb	r0, [r0]
	.loc	3 365 20 is_stmt 0              @ source/cmds.c:365:20
	adds	r1, r0, #1
	.loc	3 365 3                         @ source/cmds.c:365:3
	ldr	r0, .LCPI3_46
	bl	printf
	.loc	3 366 2 is_stmt 1               @ source/cmds.c:366:2
	b	.LBB3_19
.Ltmp78:
.LBB3_19:                               @   in Loop: Header=BB3_17 Depth=1
	.loc	3 364 42                        @ source/cmds.c:364:42
	ldr	r0, [sp, #48]
	adds	r0, r0, #1
	add	r1, sp, #48
	strb	r0, [r1]
	.loc	3 364 2 is_stmt 0               @ source/cmds.c:364:2
	b	.LBB3_17
.Ltmp79:
.LBB3_20:
	.loc	3 367 2 is_stmt 1               @ source/cmds.c:367:2
	ldr	r0, .LCPI3_47
	str	r0, [sp, #40]                   @ 4-byte Spill
	bl	printf
	.loc	3 368 2                         @ source/cmds.c:368:2
	ldr	r0, .LCPI3_49
	ldr	r1, __arm_cp.3_52
	adds	r2, r0, r1
	movs	r0, #3
	movs	r1, #8
	bl	print_state
	ldr	r0, [sp, #40]                   @ 4-byte Reload
	.loc	3 371 2                         @ source/cmds.c:371:2
	bl	printf
	.loc	3 372 2                         @ source/cmds.c:372:2
	ldr	r0, __arm_cp.3_53
	bl	printf
	.loc	3 373 2                         @ source/cmds.c:373:2
	ldr	r0, .LCPI3_45
	bl	printf
	add	r1, sp, #48
	movs	r0, #0
.Ltmp80:
	.loc	3 374 9                         @ source/cmds.c:374:9
	strb	r0, [r1]
	.loc	3 374 7 is_stmt 0               @ source/cmds.c:374:7
	b	.LBB3_21
.LBB3_21:                               @ =>This Inner Loop Header: Depth=1
	.loc	3 0 7                           @ source/cmds.c:0:7
	add	r0, sp, #48
.Ltmp81:
	.loc	3 374 14                        @ source/cmds.c:374:14
	ldrb	r0, [r0]
.Ltmp82:
	.loc	3 374 2                         @ source/cmds.c:374:2
	cmp	r0, #39
	bhi	.LBB3_24
	b	.LBB3_22
.LBB3_22:                               @   in Loop: Header=BB3_21 Depth=1
	.loc	3 0 2                           @ source/cmds.c:0:2
	add	r0, sp, #48
.Ltmp83:
	.loc	3 375 18 is_stmt 1              @ source/cmds.c:375:18
	ldrb	r0, [r0]
	.loc	3 375 20 is_stmt 0              @ source/cmds.c:375:20
	adds	r1, r0, #1
	.loc	3 375 3                         @ source/cmds.c:375:3
	ldr	r0, .LCPI3_46
	bl	printf
	.loc	3 376 2 is_stmt 1               @ source/cmds.c:376:2
	b	.LBB3_23
.Ltmp84:
.LBB3_23:                               @   in Loop: Header=BB3_21 Depth=1
	.loc	3 374 42                        @ source/cmds.c:374:42
	ldr	r0, [sp, #48]
	adds	r0, r0, #1
	add	r1, sp, #48
	strb	r0, [r1]
	.loc	3 374 2 is_stmt 0               @ source/cmds.c:374:2
	b	.LBB3_21
.Ltmp85:
.LBB3_24:
	.loc	3 377 2 is_stmt 1               @ source/cmds.c:377:2
	ldr	r0, .LCPI3_47
	str	r0, [sp, #36]                   @ 4-byte Spill
	bl	printf
	.loc	3 378 2                         @ source/cmds.c:378:2
	ldr	r0, .LCPI3_49
	ldr	r1, __arm_cp.3_54
	adds	r2, r0, r1
	movs	r0, #3
	movs	r1, #40
	bl	print_state_nvo
	ldr	r0, [sp, #36]                   @ 4-byte Reload
	.loc	3 381 2                         @ source/cmds.c:381:2
	bl	printf
	.loc	3 382 2                         @ source/cmds.c:382:2
	ldr	r0, __arm_cp.3_55
	bl	printf
	.loc	3 383 2                         @ source/cmds.c:383:2
	ldr	r0, __arm_cp.3_11
	bl	printf
	.loc	3 384 2                         @ source/cmds.c:384:2
	ldr	r0, __arm_cp.3_12
	bl	printf
	.loc	3 385 2                         @ source/cmds.c:385:2
	ldr	r0, __arm_cp.3_2
	bl	printf
	add	r1, sp, #48
	movs	r0, #0
.Ltmp86:
	.loc	3 386 9                         @ source/cmds.c:386:9
	strb	r0, [r1]
	.loc	3 386 7 is_stmt 0               @ source/cmds.c:386:7
	b	.LBB3_25
.LBB3_25:                               @ =>This Inner Loop Header: Depth=1
	.loc	3 0 7                           @ source/cmds.c:0:7
	add	r0, sp, #48
.Ltmp87:
	.loc	3 386 14                        @ source/cmds.c:386:14
	ldrb	r0, [r0]
.Ltmp88:
	.loc	3 386 2                         @ source/cmds.c:386:2
	cmp	r0, #20
	bhi	.LBB3_28
	b	.LBB3_26
.LBB3_26:                               @   in Loop: Header=BB3_25 Depth=1
	.loc	3 0 2                           @ source/cmds.c:0:2
	add	r0, sp, #48
.Ltmp89:
	.loc	3 388 18 is_stmt 1              @ source/cmds.c:388:18
	ldrb	r0, [r0]
	.loc	3 388 20 is_stmt 0              @ source/cmds.c:388:20
	adds	r1, r0, #1
	.loc	3 388 3                         @ source/cmds.c:388:3
	ldr	r0, .LCPI3_46
	bl	printf
	.loc	3 389 2 is_stmt 1               @ source/cmds.c:389:2
	b	.LBB3_27
.Ltmp90:
.LBB3_27:                               @   in Loop: Header=BB3_25 Depth=1
	.loc	3 386 47                        @ source/cmds.c:386:47
	ldr	r0, [sp, #48]
	adds	r0, r0, #1
	add	r1, sp, #48
	strb	r0, [r1]
	.loc	3 386 2 is_stmt 0               @ source/cmds.c:386:2
	b	.LBB3_25
.Ltmp91:
.LBB3_28:
	.loc	3 390 2 is_stmt 1               @ source/cmds.c:390:2
	ldr	r0, __arm_cp.3_3
	bl	printf
	add	r1, sp, #52
	movs	r0, #0
.Ltmp92:
	.loc	3 391 9                         @ source/cmds.c:391:9
	strb	r0, [r1]
	.loc	3 391 7 is_stmt 0               @ source/cmds.c:391:7
	b	.LBB3_29
.LBB3_29:                               @ =>This Inner Loop Header: Depth=1
	.loc	3 0 7                           @ source/cmds.c:0:7
	add	r0, sp, #52
.Ltmp93:
	.loc	3 391 15                        @ source/cmds.c:391:15
	ldrb	r0, [r0]
.Ltmp94:
	.loc	3 391 2                         @ source/cmds.c:391:2
	cmp	r0, #3
	bhi	.LBB3_32
	b	.LBB3_30
.LBB3_30:                               @   in Loop: Header=BB3_29 Depth=1
	.loc	3 0 2                           @ source/cmds.c:0:2
	add	r0, sp, #52
.Ltmp95:
	.loc	3 392 15 is_stmt 1              @ source/cmds.c:392:15
	ldrb	r0, [r0]
	ldr	r2, .LCPI3_48
	.loc	3 392 42 is_stmt 0              @ source/cmds.c:392:42
	muls	r2, r0, r2
	ldr	r1, __arm_cp.3_6
	adds	r1, r1, r2
	movw	r2, #262
	.loc	3 392 48                        @ source/cmds.c:392:48
	adds	r2, r1, r2
	movs	r1, #21
	.loc	3 392 3                         @ source/cmds.c:392:3
	bl	print_state
	.loc	3 393 2 is_stmt 1               @ source/cmds.c:393:2
	b	.LBB3_31
.Ltmp96:
.LBB3_31:                               @   in Loop: Header=BB3_29 Depth=1
	.loc	3 391 24                        @ source/cmds.c:391:24
	ldr	r0, [sp, #52]
	adds	r0, r0, #1
	add	r1, sp, #52
	strb	r0, [r1]
	.loc	3 391 2 is_stmt 0               @ source/cmds.c:391:2
	b	.LBB3_29
.Ltmp97:
.LBB3_32:
	.loc	3 397 2 is_stmt 1               @ source/cmds.c:397:2
	ldr	r0, __arm_cp.3_3
	bl	printf
	.loc	3 398 2                         @ source/cmds.c:398:2
	ldr	r0, __arm_cp.3_13
	bl	printf
	.loc	3 399 2                         @ source/cmds.c:399:2
	ldr	r0, __arm_cp.3_2
	bl	printf
	add	r1, sp, #48
	movs	r0, #0
.Ltmp98:
	.loc	3 400 9                         @ source/cmds.c:400:9
	strb	r0, [r1]
	.loc	3 400 7 is_stmt 0               @ source/cmds.c:400:7
	b	.LBB3_33
.LBB3_33:                               @ =>This Inner Loop Header: Depth=1
	.loc	3 0 7                           @ source/cmds.c:0:7
	add	r0, sp, #48
.Ltmp99:
	.loc	3 400 14                        @ source/cmds.c:400:14
	ldrb	r0, [r0]
.Ltmp100:
	.loc	3 400 2                         @ source/cmds.c:400:2
	cmp	r0, #19
	bhi	.LBB3_36
	b	.LBB3_34
.LBB3_34:                               @   in Loop: Header=BB3_33 Depth=1
	.loc	3 0 2                           @ source/cmds.c:0:2
	add	r0, sp, #48
.Ltmp101:
	.loc	3 403 18 is_stmt 1              @ source/cmds.c:403:18
	ldrb	r0, [r0]
	.loc	3 403 20 is_stmt 0              @ source/cmds.c:403:20
	adds	r1, r0, #1
	.loc	3 403 3                         @ source/cmds.c:403:3
	ldr	r0, __arm_cp.3_40
	bl	printf
	.loc	3 404 2 is_stmt 1               @ source/cmds.c:404:2
	b	.LBB3_35
.Ltmp102:
.LBB3_35:                               @   in Loop: Header=BB3_33 Depth=1
	.loc	3 400 41                        @ source/cmds.c:400:41
	ldr	r0, [sp, #48]
	adds	r0, r0, #1
	add	r1, sp, #48
	strb	r0, [r1]
	.loc	3 400 2 is_stmt 0               @ source/cmds.c:400:2
	b	.LBB3_33
.Ltmp103:
.LBB3_36:
	.loc	3 405 2 is_stmt 1               @ source/cmds.c:405:2
	ldr	r0, __arm_cp.3_3
	bl	printf
	add	r1, sp, #52
	movs	r0, #0
.Ltmp104:
	.loc	3 406 9                         @ source/cmds.c:406:9
	strb	r0, [r1]
	.loc	3 406 7 is_stmt 0               @ source/cmds.c:406:7
	b	.LBB3_37
.LBB3_37:                               @ =>This Inner Loop Header: Depth=1
	.loc	3 0 7                           @ source/cmds.c:0:7
	add	r0, sp, #52
.Ltmp105:
	.loc	3 406 15                        @ source/cmds.c:406:15
	ldrb	r0, [r0]
.Ltmp106:
	.loc	3 406 2                         @ source/cmds.c:406:2
	cmp	r0, #2
	bhi	.LBB3_40
	b	.LBB3_38
.LBB3_38:                               @   in Loop: Header=BB3_37 Depth=1
	.loc	3 0 2                           @ source/cmds.c:0:2
	add	r0, sp, #52
.Ltmp107:
	.loc	3 407 15 is_stmt 1              @ source/cmds.c:407:15
	ldrb	r0, [r0]
	ldr	r2, __arm_cp.3_37
	.loc	3 407 36 is_stmt 0              @ source/cmds.c:407:36
	muls	r2, r0, r2
	ldr	r1, __arm_cp.3_6
	adds	r1, r1, r2
	ldr	r2, __arm_cp.3_42
	.loc	3 407 42                        @ source/cmds.c:407:42
	adds	r2, r1, r2
	movs	r1, #20
	.loc	3 407 3                         @ source/cmds.c:407:3
	bl	print_state
	.loc	3 408 3 is_stmt 1               @ source/cmds.c:408:3
	b	.LBB3_39
.Ltmp108:
.LBB3_39:                               @   in Loop: Header=BB3_37 Depth=1
	.loc	3 406 24                        @ source/cmds.c:406:24
	ldr	r0, [sp, #52]
	adds	r0, r0, #1
	add	r1, sp, #52
	strb	r0, [r1]
	.loc	3 406 2 is_stmt 0               @ source/cmds.c:406:2
	b	.LBB3_37
.Ltmp109:
.LBB3_40:
	.loc	3 410 2 is_stmt 1               @ source/cmds.c:410:2
	ldr	r0, __arm_cp.3_3
	bl	printf
	.loc	3 411 2                         @ source/cmds.c:411:2
	ldr	r0, __arm_cp.3_14
	bl	printf
	.loc	3 412 2                         @ source/cmds.c:412:2
	ldr	r0, __arm_cp.3_2
	bl	printf
	add	r1, sp, #48
	movs	r0, #0
.Ltmp110:
	.loc	3 413 9                         @ source/cmds.c:413:9
	strb	r0, [r1]
	.loc	3 413 7 is_stmt 0               @ source/cmds.c:413:7
	b	.LBB3_41
.LBB3_41:                               @ =>This Inner Loop Header: Depth=1
	.loc	3 0 7                           @ source/cmds.c:0:7
	add	r0, sp, #48
.Ltmp111:
	.loc	3 413 14                        @ source/cmds.c:413:14
	ldrb	r0, [r0]
.Ltmp112:
	.loc	3 413 2                         @ source/cmds.c:413:2
	cmp	r0, #20
	bhi	.LBB3_44
	b	.LBB3_42
.LBB3_42:                               @   in Loop: Header=BB3_41 Depth=1
	.loc	3 0 2                           @ source/cmds.c:0:2
	add	r0, sp, #48
.Ltmp113:
	.loc	3 416 18 is_stmt 1              @ source/cmds.c:416:18
	ldrb	r0, [r0]
	.loc	3 416 20 is_stmt 0              @ source/cmds.c:416:20
	adds	r1, r0, #1
	.loc	3 416 3                         @ source/cmds.c:416:3
	ldr	r0, __arm_cp.3_40
	bl	printf
	.loc	3 417 2 is_stmt 1               @ source/cmds.c:417:2
	b	.LBB3_43
.Ltmp114:
.LBB3_43:                               @   in Loop: Header=BB3_41 Depth=1
	.loc	3 413 44                        @ source/cmds.c:413:44
	ldr	r0, [sp, #48]
	adds	r0, r0, #1
	add	r1, sp, #48
	strb	r0, [r1]
	.loc	3 413 2 is_stmt 0               @ source/cmds.c:413:2
	b	.LBB3_41
.Ltmp115:
.LBB3_44:
	.loc	3 418 2 is_stmt 1               @ source/cmds.c:418:2
	ldr	r0, __arm_cp.3_3
	bl	printf
	add	r1, sp, #52
	movs	r0, #0
.Ltmp116:
	.loc	3 419 9                         @ source/cmds.c:419:9
	strb	r0, [r1]
	.loc	3 419 7 is_stmt 0               @ source/cmds.c:419:7
	b	.LBB3_45
.LBB3_45:                               @ =>This Inner Loop Header: Depth=1
	.loc	3 0 7                           @ source/cmds.c:0:7
	add	r0, sp, #52
.Ltmp117:
	.loc	3 419 15                        @ source/cmds.c:419:15
	ldrb	r0, [r0]
.Ltmp118:
	.loc	3 419 2                         @ source/cmds.c:419:2
	cmp	r0, #2
	bhi	.LBB3_48
	b	.LBB3_46
.LBB3_46:                               @   in Loop: Header=BB3_45 Depth=1
	.loc	3 0 2                           @ source/cmds.c:0:2
	add	r0, sp, #52
.Ltmp119:
	.loc	3 420 15 is_stmt 1              @ source/cmds.c:420:15
	ldrb	r0, [r0]
	ldr	r2, __arm_cp.3_37
	.loc	3 420 40 is_stmt 0              @ source/cmds.c:420:40
	muls	r2, r0, r2
	ldr	r1, __arm_cp.3_6
	adds	r1, r1, r2
	ldr	r2, __arm_cp.3_41
	.loc	3 420 46                        @ source/cmds.c:420:46
	adds	r2, r1, r2
	movs	r1, #21
	.loc	3 420 3                         @ source/cmds.c:420:3
	bl	print_state
	.loc	3 421 2 is_stmt 1               @ source/cmds.c:421:2
	b	.LBB3_47
.Ltmp120:
.LBB3_47:                               @   in Loop: Header=BB3_45 Depth=1
	.loc	3 419 24                        @ source/cmds.c:419:24
	ldr	r0, [sp, #52]
	adds	r0, r0, #1
	add	r1, sp, #52
	strb	r0, [r1]
	.loc	3 419 2 is_stmt 0               @ source/cmds.c:419:2
	b	.LBB3_45
.Ltmp121:
.LBB3_48:
	.loc	3 423 2 is_stmt 1               @ source/cmds.c:423:2
	ldr	r0, __arm_cp.3_3
	bl	printf
	.loc	3 424 2                         @ source/cmds.c:424:2
	ldr	r0, __arm_cp.3_15
	bl	printf
	.loc	3 425 2                         @ source/cmds.c:425:2
	ldr	r0, __arm_cp.3_2
	bl	printf
	add	r1, sp, #48
	movs	r0, #0
.Ltmp122:
	.loc	3 426 9                         @ source/cmds.c:426:9
	strb	r0, [r1]
	.loc	3 426 7 is_stmt 0               @ source/cmds.c:426:7
	b	.LBB3_49
.LBB3_49:                               @ =>This Inner Loop Header: Depth=1
	.loc	3 0 7                           @ source/cmds.c:0:7
	add	r0, sp, #48
.Ltmp123:
	.loc	3 426 14                        @ source/cmds.c:426:14
	ldrb	r0, [r0]
.Ltmp124:
	.loc	3 426 2                         @ source/cmds.c:426:2
	cmp	r0, #7
	bhi	.LBB3_52
	b	.LBB3_50
.LBB3_50:                               @   in Loop: Header=BB3_49 Depth=1
	.loc	3 0 2                           @ source/cmds.c:0:2
	add	r0, sp, #48
.Ltmp125:
	.loc	3 428 18 is_stmt 1              @ source/cmds.c:428:18
	ldrb	r0, [r0]
	.loc	3 428 20 is_stmt 0              @ source/cmds.c:428:20
	adds	r1, r0, #1
	.loc	3 428 3                         @ source/cmds.c:428:3
	ldr	r0, __arm_cp.3_40
	bl	printf
	.loc	3 429 2 is_stmt 1               @ source/cmds.c:429:2
	b	.LBB3_51
.Ltmp126:
.LBB3_51:                               @   in Loop: Header=BB3_49 Depth=1
	.loc	3 426 42                        @ source/cmds.c:426:42
	ldr	r0, [sp, #48]
	adds	r0, r0, #1
	add	r1, sp, #48
	strb	r0, [r1]
	.loc	3 426 2 is_stmt 0               @ source/cmds.c:426:2
	b	.LBB3_49
.Ltmp127:
.LBB3_52:
	.loc	3 430 2 is_stmt 1               @ source/cmds.c:430:2
	ldr	r0, __arm_cp.3_3
	bl	printf
	add	r1, sp, #52
	movs	r0, #0
.Ltmp128:
	.loc	3 431 9                         @ source/cmds.c:431:9
	strb	r0, [r1]
	.loc	3 431 7 is_stmt 0               @ source/cmds.c:431:7
	b	.LBB3_53
.LBB3_53:                               @ =>This Inner Loop Header: Depth=1
	.loc	3 0 7                           @ source/cmds.c:0:7
	add	r0, sp, #52
.Ltmp129:
	.loc	3 431 15                        @ source/cmds.c:431:15
	ldrb	r0, [r0]
.Ltmp130:
	.loc	3 431 2                         @ source/cmds.c:431:2
	cmp	r0, #2
	bhi	.LBB3_68
	b	.LBB3_54
.LBB3_54:                               @   in Loop: Header=BB3_53 Depth=1
	.loc	3 0 2                           @ source/cmds.c:0:2
	add	r0, sp, #52
.Ltmp131:
	.loc	3 432 15 is_stmt 1              @ source/cmds.c:432:15
	ldrb	r0, [r0]
	ldr	r2, __arm_cp.3_37
	.loc	3 432 37 is_stmt 0              @ source/cmds.c:432:37
	muls	r2, r0, r2
	ldr	r1, __arm_cp.3_6
	adds	r1, r1, r2
	ldr	r2, __arm_cp.3_39
	.loc	3 432 43                        @ source/cmds.c:432:43
	adds	r2, r1, r2
	movs	r1, #8
	.loc	3 432 3                         @ source/cmds.c:432:3
	bl	print_state
	.loc	3 433 2 is_stmt 1               @ source/cmds.c:433:2
	b	.LBB3_55
.Ltmp132:
.LBB3_55:                               @   in Loop: Header=BB3_53 Depth=1
	.loc	3 431 24                        @ source/cmds.c:431:24
	ldr	r0, [sp, #52]
	adds	r0, r0, #1
	add	r1, sp, #52
	strb	r0, [r1]
	.loc	3 431 2 is_stmt 0               @ source/cmds.c:431:2
	b	.LBB3_53
.Ltmp133:
	.loc	3 0 2                           @ :0:2
.Ltmp134:
	.p2align	2
@ %bb.56:
__arm_cp.3_43:
	.long	testprint
.Lcpi_end24:
	.size	__arm_cp.3_43, .Lcpi_end24-__arm_cp.3_43
	.p2align	2
@ %bb.57:
__arm_cp.3_44:
	.long	.L.str.7
.Lcpi_end25:
	.size	__arm_cp.3_44, .Lcpi_end25-__arm_cp.3_44
	.p2align	2
@ %bb.58:
.LCPI3_45:
	.long	.L.str.8
	.p2align	2
@ %bb.59:
.LCPI3_46:
	.long	.L.str.9
	.p2align	2
@ %bb.60:
.LCPI3_47:
	.long	.L.str.10
	.p2align	2
@ %bb.61:
.LCPI3_48:
	.long	1702                            @ 0x6a6
	.p2align	2
@ %bb.62:
.LCPI3_49:
	.long	pe
	.p2align	2
@ %bb.63:
__arm_cp.3_50:
	.long	.L.str.11
.Lcpi_end26:
	.size	__arm_cp.3_50, .Lcpi_end26-__arm_cp.3_50
	.p2align	2
@ %bb.64:
__arm_cp.3_51:
	.long	.L.str.12
.Lcpi_end27:
	.size	__arm_cp.3_51, .Lcpi_end27-__arm_cp.3_51
	.p2align	2
@ %bb.65:
__arm_cp.3_52:
	.long	5944                            @ 0x1738
.Lcpi_end28:
	.size	__arm_cp.3_52, .Lcpi_end28-__arm_cp.3_52
	.p2align	2
@ %bb.66:
__arm_cp.3_53:
	.long	.L.str.13
.Lcpi_end29:
	.size	__arm_cp.3_53, .Lcpi_end29-__arm_cp.3_53
	.p2align	2
@ %bb.67:
__arm_cp.3_54:
	.long	5656                            @ 0x1618
.Lcpi_end30:
	.size	__arm_cp.3_54, .Lcpi_end30-__arm_cp.3_54
	.p2align	1
.LBB3_68:
	.loc	3 436 5 is_stmt 1               @ source/cmds.c:436:5
	ldr	r0, __arm_cp.3_6
	movw	r1, #5152
	adds	r0, r0, r1
	str	r0, [sp, #44]
	.loc	3 437 2                         @ source/cmds.c:437:2
	ldr	r0, __arm_cp.3_16
	bl	printf
	.loc	3 438 28                        @ source/cmds.c:438:28
	ldr	r0, [sp, #44]
	.loc	3 438 32 is_stmt 0              @ source/cmds.c:438:32
	ldrb	r0, [r0]
	lsls	r0, r0, #29
	lsrs	r1, r0, #31
	.loc	3 438 27                        @ source/cmds.c:438:27
	ldr	r0, __arm_cp.3_17
	str	r0, [sp, #24]                   @ 4-byte Spill
	ldr	r2, __arm_cp.3_18
	str	r2, [sp, #28]                   @ 4-byte Spill
	str	r0, [sp, #32]                   @ 4-byte Spill
	cbz	r1, .LBB3_70
@ %bb.69:
	.loc	3 0 27                          @ source/cmds.c:0:27
	ldr	r0, [sp, #28]                   @ 4-byte Reload
	str	r0, [sp, #32]                   @ 4-byte Spill
.LBB3_70:
	.loc	3 438 27                        @ source/cmds.c:438:27
	ldr	r2, [sp, #32]                   @ 4-byte Reload
	.loc	3 438 2                         @ source/cmds.c:438:2
	ldr	r0, __arm_cp.3_19
	str	r0, [sp, #16]                   @ 4-byte Spill
	movs	r1, #1
	bl	printf
                                        @ kill: def $r1 killed $r0
	.loc	3 439 28 is_stmt 1              @ source/cmds.c:439:28
	ldr	r0, [sp, #24]                   @ 4-byte Reload
	ldr	r1, [sp, #44]
	.loc	3 439 32 is_stmt 0              @ source/cmds.c:439:32
	ldrb	r1, [r1]
	lsls	r1, r1, #28
	lsrs	r1, r1, #31
	.loc	3 439 27                        @ source/cmds.c:439:27
	str	r0, [sp, #20]                   @ 4-byte Spill
	cbz	r1, .LBB3_72
@ %bb.71:
	.loc	3 0 27                          @ source/cmds.c:0:27
	ldr	r0, [sp, #28]                   @ 4-byte Reload
	str	r0, [sp, #20]                   @ 4-byte Spill
.LBB3_72:
	.loc	3 439 27                        @ source/cmds.c:439:27
	ldr	r0, [sp, #16]                   @ 4-byte Reload
	ldr	r2, [sp, #20]                   @ 4-byte Reload
	movs	r1, #2
	.loc	3 439 2                         @ source/cmds.c:439:2
	bl	printf
                                        @ kill: def $r1 killed $r0
	.loc	3 440 28 is_stmt 1              @ source/cmds.c:440:28
	ldr	r0, [sp, #24]                   @ 4-byte Reload
	ldr	r1, [sp, #44]
	.loc	3 440 32 is_stmt 0              @ source/cmds.c:440:32
	ldrb	r1, [r1]
	lsls	r1, r1, #27
	lsrs	r1, r1, #31
	.loc	3 440 27                        @ source/cmds.c:440:27
	str	r0, [sp, #12]                   @ 4-byte Spill
	cbz	r1, .LBB3_74
@ %bb.73:
	.loc	3 0 27                          @ source/cmds.c:0:27
	ldr	r0, [sp, #28]                   @ 4-byte Reload
	str	r0, [sp, #12]                   @ 4-byte Spill
.LBB3_74:
	.loc	3 440 27                        @ source/cmds.c:440:27
	ldr	r0, [sp, #16]                   @ 4-byte Reload
	ldr	r2, [sp, #12]                   @ 4-byte Reload
	movs	r1, #3
	.loc	3 440 2                         @ source/cmds.c:440:2
	bl	printf
	.loc	3 442 2 is_stmt 1               @ source/cmds.c:442:2
	ldr	r0, __arm_cp.3_20
	bl	printf
                                        @ kill: def $r1 killed $r0
	.loc	3 443 27                        @ source/cmds.c:443:27
	ldr	r0, [sp, #24]                   @ 4-byte Reload
	ldr	r1, [sp, #44]
	.loc	3 443 31 is_stmt 0              @ source/cmds.c:443:31
	ldrb	r1, [r1]
	lsls	r1, r1, #30
	lsrs	r1, r1, #31
	.loc	3 443 27                        @ source/cmds.c:443:27
	str	r0, [sp, #8]                    @ 4-byte Spill
	cbnz	r1, .LBB3_76
@ %bb.75:
	.loc	3 0 27                          @ source/cmds.c:0:27
	ldr	r0, [sp, #28]                   @ 4-byte Reload
	str	r0, [sp, #8]                    @ 4-byte Spill
.LBB3_76:
	.loc	3 443 27                        @ source/cmds.c:443:27
	ldr	r0, [sp, #16]                   @ 4-byte Reload
	ldr	r2, [sp, #8]                    @ 4-byte Reload
	movs	r1, #4
	.loc	3 443 2                         @ source/cmds.c:443:2
	bl	printf
	.loc	3 445 2 is_stmt 1               @ source/cmds.c:445:2
	ldr	r0, __arm_cp.3_21
	bl	printf
                                        @ kill: def $r1 killed $r0
	.loc	3 446 31                        @ source/cmds.c:446:31
	ldr	r0, [sp, #24]                   @ 4-byte Reload
	ldr	r1, [sp, #44]
	.loc	3 446 35 is_stmt 0              @ source/cmds.c:446:35
	ldrb	r1, [r1]
	.loc	3 446 31                        @ source/cmds.c:446:31
	lsls	r1, r1, #31
	str	r0, [sp, #4]                    @ 4-byte Spill
	cbnz	r1, .LBB3_78
@ %bb.77:
	.loc	3 0 31                          @ source/cmds.c:0:31
	ldr	r0, [sp, #28]                   @ 4-byte Reload
	str	r0, [sp, #4]                    @ 4-byte Spill
.LBB3_78:
	.loc	3 446 31                        @ source/cmds.c:446:31
	ldr	r2, [sp, #4]                    @ 4-byte Reload
	.loc	3 446 2                         @ source/cmds.c:446:2
	ldr	r0, __arm_cp.3_22
	movs	r1, #5
	bl	printf
	.loc	3 448 2 is_stmt 1               @ source/cmds.c:448:2
	ldr	r0, __arm_cp.3_3
	bl	printf
.Ltmp135:
	.loc	3 449 9                         @ source/cmds.c:449:9
	ldr	r0, __arm_cp.3_23
	movs	r1, #32
	.loc	3 449 5 is_stmt 0               @ source/cmds.c:449:5
	ldrb	r0, [r0, r1]
.Ltmp136:
	.loc	3 449 5                         @ source/cmds.c:449:5
	lsls	r0, r0, #31
	cbz	r0, .LBB3_80
	b	.LBB3_79
.LBB3_79:
.Ltmp137:
	.loc	3 450 3 is_stmt 1               @ source/cmds.c:450:3
	ldr	r0, __arm_cp.3_26
	bl	printf
	.loc	3 451 2                         @ source/cmds.c:451:2
	b	.LBB3_81
.Ltmp138:
.LBB3_80:
	.loc	3 453 13                        @ source/cmds.c:453:13
	ldr	r1, __arm_cp.3_24
	ldrh	r0, [r1]
	adds	r0, r0, #1
	strh	r0, [r1]
	.loc	3 454 3                         @ source/cmds.c:454:3
	ldr	r0, __arm_cp.3_25
	bl	printf
	b	.LBB3_81
.Ltmp139:
.LBB3_81:
	.loc	3 456 9                         @ source/cmds.c:456:9
	ldr	r0, __arm_cp.3_23
	movs	r1, #32
	.loc	3 456 5 is_stmt 0               @ source/cmds.c:456:5
	ldrb	r0, [r0, r1]
.Ltmp140:
	.loc	3 456 5                         @ source/cmds.c:456:5
	lsls	r0, r0, #30
	cmp	r0, #0
	bpl	.LBB3_83
	b	.LBB3_82
.LBB3_82:
.Ltmp141:
	.loc	3 457 3 is_stmt 1               @ source/cmds.c:457:3
	ldr	r0, __arm_cp.3_29
	bl	printf
	.loc	3 458 2                         @ source/cmds.c:458:2
	b	.LBB3_84
.Ltmp142:
.LBB3_83:
	.loc	3 460 13                        @ source/cmds.c:460:13
	ldr	r1, __arm_cp.3_27
	ldrh	r0, [r1]
	adds	r0, r0, #1
	strh	r0, [r1]
	.loc	3 461 3                         @ source/cmds.c:461:3
	ldr	r0, __arm_cp.3_28
	bl	printf
	b	.LBB3_84
.Ltmp143:
.LBB3_84:
	.loc	3 463 65                        @ source/cmds.c:463:65
	ldr	r0, __arm_cp.3_24
	ldrh	r1, [r0]
	.loc	3 463 76 is_stmt 0              @ source/cmds.c:463:76
	ldr	r0, __arm_cp.3_27
	ldrh	r2, [r0]
	.loc	3 463 2                         @ source/cmds.c:463:2
	ldr	r0, __arm_cp.3_30
	bl	printf
	.loc	3 465 2 is_stmt 1               @ source/cmds.c:465:2
	ldr	r0, __arm_cp.3_3
	bl	printf
	.loc	3 467 2                         @ source/cmds.c:467:2
	ldr	r0, __arm_cp.3_31
	bl	printf
	.loc	3 469 43                        @ source/cmds.c:469:43
	ldr	r0, __arm_cp.3_32
	ldr	r1, [r0, #60]
	.loc	3 469 63 is_stmt 0              @ source/cmds.c:469:63
	ldr	r0, __arm_cp.3_23
	ldr	r2, [r0, #12]
	.loc	3 469 2                         @ source/cmds.c:469:2
	ldr	r0, __arm_cp.3_33
	bl	printf
	add	r1, sp, #52
	movs	r0, #0
.Ltmp144:
	.loc	3 470 9 is_stmt 1               @ source/cmds.c:470:9
	strb	r0, [r1]
	.loc	3 470 7 is_stmt 0               @ source/cmds.c:470:7
	b	.LBB3_85
.LBB3_85:                               @ =>This Loop Header: Depth=1
                                        @     Child Loop BB3_87 Depth 2
                                        @     Child Loop BB3_91 Depth 2
	.loc	3 0 7                           @ source/cmds.c:0:7
	add	r0, sp, #52
.Ltmp145:
	.loc	3 470 15                        @ source/cmds.c:470:15
	ldrb	r0, [r0]
.Ltmp146:
	.loc	3 470 2                         @ source/cmds.c:470:2
	cmp	r0, #2
	bhi	.LBB3_96
	b	.LBB3_86
.LBB3_86:                               @   in Loop: Header=BB3_85 Depth=1
	.loc	3 0 2                           @ source/cmds.c:0:2
	add	r0, sp, #52
.Ltmp147:
	.loc	3 471 26 is_stmt 1              @ source/cmds.c:471:26
	ldrb	r0, [r0]
	.loc	3 471 27 is_stmt 0              @ source/cmds.c:471:27
	adds	r1, r0, #1
	.loc	3 471 5                         @ source/cmds.c:471:5
	ldr	r0, __arm_cp.3_34
	bl	printf
	add	r1, sp, #48
	movs	r0, #0
.Ltmp148:
	.loc	3 472 12 is_stmt 1              @ source/cmds.c:472:12
	strb	r0, [r1]
	.loc	3 472 10 is_stmt 0              @ source/cmds.c:472:10
	b	.LBB3_87
.LBB3_87:                               @   Parent Loop BB3_85 Depth=1
                                        @ =>  This Inner Loop Header: Depth=2
	.loc	3 0 10                          @ source/cmds.c:0:10
	add	r0, sp, #48
.Ltmp149:
	.loc	3 472 18                        @ source/cmds.c:472:18
	ldrb	r0, [r0]
.Ltmp150:
	.loc	3 472 5                         @ source/cmds.c:472:5
	cmp	r0, #3
	bhi	.LBB3_90
	b	.LBB3_88
.LBB3_88:                               @   in Loop: Header=BB3_87 Depth=2
	.loc	3 0 5                           @ source/cmds.c:0:5
	add	r0, sp, #52
.Ltmp151:
	.loc	3 473 39 is_stmt 1              @ source/cmds.c:473:39
	ldrb	r0, [r0]
	movs	r1, #5
	.loc	3 473 20 is_stmt 0              @ source/cmds.c:473:20
	muls	r1, r0, r1
	ldr	r0, __arm_cp.3_32
	adds	r0, r0, r1
	add	r1, sp, #48
	.loc	3 473 42                        @ source/cmds.c:473:42
	ldrb	r1, [r1]
	.loc	3 473 20                        @ source/cmds.c:473:20
	adds	r0, r0, r1
	movs	r1, #44
	ldrb	r1, [r0, r1]
	.loc	3 473 6                         @ source/cmds.c:473:6
	ldr	r0, __arm_cp.3_38
	bl	printf
	.loc	3 474 4 is_stmt 1               @ source/cmds.c:474:4
	b	.LBB3_89
.Ltmp152:
.LBB3_89:                               @   in Loop: Header=BB3_87 Depth=2
	.loc	3 472 27                        @ source/cmds.c:472:27
	ldr	r0, [sp, #48]
	adds	r0, r0, #1
	add	r1, sp, #48
	strb	r0, [r1]
	.loc	3 472 5 is_stmt 0               @ source/cmds.c:472:5
	b	.LBB3_87
.Ltmp153:
.LBB3_90:                               @   in Loop: Header=BB3_85 Depth=1
	.loc	3 475 5 is_stmt 1               @ source/cmds.c:475:5
	ldr	r0, __arm_cp.3_35
	bl	printf
	add	r1, sp, #48
	movs	r0, #0
.Ltmp154:
	.loc	3 476 12                        @ source/cmds.c:476:12
	strb	r0, [r1]
	.loc	3 476 10 is_stmt 0              @ source/cmds.c:476:10
	b	.LBB3_91
.LBB3_91:                               @   Parent Loop BB3_85 Depth=1
                                        @ =>  This Inner Loop Header: Depth=2
	.loc	3 0 10                          @ source/cmds.c:0:10
	add	r0, sp, #48
.Ltmp155:
	.loc	3 476 18                        @ source/cmds.c:476:18
	ldrb	r0, [r0]
.Ltmp156:
	.loc	3 476 5                         @ source/cmds.c:476:5
	cmp	r0, #3
	bhi	.LBB3_94
	b	.LBB3_92
.LBB3_92:                               @   in Loop: Header=BB3_91 Depth=2
	.loc	3 0 5                           @ source/cmds.c:0:5
	add	r0, sp, #52
.Ltmp157:
	.loc	3 477 23 is_stmt 1              @ source/cmds.c:477:23
	ldrb	r0, [r0]
	ldr	r1, __arm_cp.3_37
	.loc	3 477 20 is_stmt 0              @ source/cmds.c:477:20
	muls	r1, r0, r1
	ldr	r0, __arm_cp.3_6
	adds	r0, r0, r1
	add	r1, sp, #48
	.loc	3 477 41                        @ source/cmds.c:477:41
	ldrb	r1, [r1]
	.loc	3 477 26                        @ source/cmds.c:477:26
	adds	r0, r0, r1
	.loc	3 477 20                        @ source/cmds.c:477:20
	ldrb	r1, [r0, #14]
	.loc	3 477 6                         @ source/cmds.c:477:6
	ldr	r0, __arm_cp.3_38
	bl	printf
	.loc	3 478 4 is_stmt 1               @ source/cmds.c:478:4
	b	.LBB3_93
.Ltmp158:
.LBB3_93:                               @   in Loop: Header=BB3_91 Depth=2
	.loc	3 476 27                        @ source/cmds.c:476:27
	ldr	r0, [sp, #48]
	adds	r0, r0, #1
	add	r1, sp, #48
	strb	r0, [r1]
	.loc	3 476 5 is_stmt 0               @ source/cmds.c:476:5
	b	.LBB3_91
.Ltmp159:
.LBB3_94:                               @   in Loop: Header=BB3_85 Depth=1
	.loc	3 479 5 is_stmt 1               @ source/cmds.c:479:5
	ldr	r0, __arm_cp.3_36
	bl	printf
	.loc	3 480 2                         @ source/cmds.c:480:2
	b	.LBB3_95
.Ltmp160:
.LBB3_95:                               @   in Loop: Header=BB3_85 Depth=1
	.loc	3 470 24                        @ source/cmds.c:470:24
	ldr	r0, [sp, #52]
	adds	r0, r0, #1
	add	r1, sp, #52
	strb	r0, [r1]
	.loc	3 470 2 is_stmt 0               @ source/cmds.c:470:2
	b	.LBB3_85
.Ltmp161:
.LBB3_96:
	.loc	3 481 1 epilogue_begin is_stmt 1 @ source/cmds.c:481:1
	add	sp, #56
	pop	{r7, pc}
.Ltmp162:
	.loc	3 0 1 is_stmt 0                 @ :0:1
.Ltmp163:
	.p2align	2
@ %bb.97:
__arm_cp.3_55:
	.long	.L.str.14
.Lcpi_end31:
	.size	__arm_cp.3_55, .Lcpi_end31-__arm_cp.3_55
	.p2align	2
@ %bb.98:
__arm_cp.3_2:
	.long	.L.str.8
.Lcpi_end32:
	.size	__arm_cp.3_2, .Lcpi_end32-__arm_cp.3_2
__arm_cp.3_3:
	.long	.L.str.10
.Lcpi_end33:
	.size	__arm_cp.3_3, .Lcpi_end33-__arm_cp.3_3
__arm_cp.3_6:
	.long	pe
.Lcpi_end34:
	.size	__arm_cp.3_6, .Lcpi_end34-__arm_cp.3_6
__arm_cp.3_11:
	.long	.L.str.15
.Lcpi_end35:
	.size	__arm_cp.3_11, .Lcpi_end35-__arm_cp.3_11
__arm_cp.3_12:
	.long	.L.str.16
.Lcpi_end36:
	.size	__arm_cp.3_12, .Lcpi_end36-__arm_cp.3_12
__arm_cp.3_13:
	.long	.L.str.17
.Lcpi_end37:
	.size	__arm_cp.3_13, .Lcpi_end37-__arm_cp.3_13
__arm_cp.3_14:
	.long	.L.str.18
.Lcpi_end38:
	.size	__arm_cp.3_14, .Lcpi_end38-__arm_cp.3_14
__arm_cp.3_15:
	.long	.L.str.19
.Lcpi_end39:
	.size	__arm_cp.3_15, .Lcpi_end39-__arm_cp.3_15
__arm_cp.3_16:
	.long	.L.str.20
.Lcpi_end40:
	.size	__arm_cp.3_16, .Lcpi_end40-__arm_cp.3_16
__arm_cp.3_17:
	.long	.L.str.22
.Lcpi_end41:
	.size	__arm_cp.3_17, .Lcpi_end41-__arm_cp.3_17
__arm_cp.3_18:
	.long	.L.str.23
.Lcpi_end42:
	.size	__arm_cp.3_18, .Lcpi_end42-__arm_cp.3_18
__arm_cp.3_19:
	.long	.L.str.21
.Lcpi_end43:
	.size	__arm_cp.3_19, .Lcpi_end43-__arm_cp.3_19
__arm_cp.3_20:
	.long	.L.str.24
.Lcpi_end44:
	.size	__arm_cp.3_20, .Lcpi_end44-__arm_cp.3_20
__arm_cp.3_21:
	.long	.L.str.25
.Lcpi_end45:
	.size	__arm_cp.3_21, .Lcpi_end45-__arm_cp.3_21
__arm_cp.3_22:
	.long	.L.str.26
.Lcpi_end46:
	.size	__arm_cp.3_22, .Lcpi_end46-__arm_cp.3_22
__arm_cp.3_23:
	.long	sys
.Lcpi_end47:
	.size	__arm_cp.3_23, .Lcpi_end47-__arm_cp.3_23
__arm_cp.3_24:
	.long	com0_count
.Lcpi_end48:
	.size	__arm_cp.3_24, .Lcpi_end48-__arm_cp.3_24
__arm_cp.3_25:
	.long	.L.str.28
.Lcpi_end49:
	.size	__arm_cp.3_25, .Lcpi_end49-__arm_cp.3_25
__arm_cp.3_26:
	.long	.L.str.27
.Lcpi_end50:
	.size	__arm_cp.3_26, .Lcpi_end50-__arm_cp.3_26
__arm_cp.3_27:
	.long	com1_count
.Lcpi_end51:
	.size	__arm_cp.3_27, .Lcpi_end51-__arm_cp.3_27
__arm_cp.3_28:
	.long	.L.str.30
.Lcpi_end52:
	.size	__arm_cp.3_28, .Lcpi_end52-__arm_cp.3_28
__arm_cp.3_29:
	.long	.L.str.29
.Lcpi_end53:
	.size	__arm_cp.3_29, .Lcpi_end53-__arm_cp.3_29
__arm_cp.3_30:
	.long	.L.str.31
.Lcpi_end54:
	.size	__arm_cp.3_30, .Lcpi_end54-__arm_cp.3_30
__arm_cp.3_31:
	.long	.L.str.32
.Lcpi_end55:
	.size	__arm_cp.3_31, .Lcpi_end55-__arm_cp.3_31
__arm_cp.3_32:
	.long	cfg
.Lcpi_end56:
	.size	__arm_cp.3_32, .Lcpi_end56-__arm_cp.3_32
__arm_cp.3_33:
	.long	.L.str.33
.Lcpi_end57:
	.size	__arm_cp.3_33, .Lcpi_end57-__arm_cp.3_33
__arm_cp.3_34:
	.long	.L.str.34
.Lcpi_end58:
	.size	__arm_cp.3_34, .Lcpi_end58-__arm_cp.3_34
__arm_cp.3_35:
	.long	.L.str.36
.Lcpi_end59:
	.size	__arm_cp.3_35, .Lcpi_end59-__arm_cp.3_35
__arm_cp.3_36:
	.long	.L.str.37
.Lcpi_end60:
	.size	__arm_cp.3_36, .Lcpi_end60-__arm_cp.3_36
__arm_cp.3_37:
	.long	1702                            @ 0x6a6
.Lcpi_end61:
	.size	__arm_cp.3_37, .Lcpi_end61-__arm_cp.3_37
__arm_cp.3_38:
	.long	.L.str.35
.Lcpi_end62:
	.size	__arm_cp.3_38, .Lcpi_end62-__arm_cp.3_38
__arm_cp.3_39:
	.long	1126                            @ 0x466
.Lcpi_end63:
	.size	__arm_cp.3_39, .Lcpi_end63-__arm_cp.3_39
__arm_cp.3_40:
	.long	.L.str.9
.Lcpi_end64:
	.size	__arm_cp.3_40, .Lcpi_end64-__arm_cp.3_40
__arm_cp.3_41:
	.long	1174                            @ 0x496
.Lcpi_end65:
	.size	__arm_cp.3_41, .Lcpi_end65-__arm_cp.3_41
__arm_cp.3_42:
	.long	1006                            @ 0x3ee
.Lcpi_end66:
	.size	__arm_cp.3_42, .Lcpi_end66-__arm_cp.3_42
.Lfunc_end3:
	.size	cli_showstate, .Lfunc_end3-cli_showstate
	.cfi_endproc
	.cantunwind
	.fnend
                                        @ -- End function
	.section	.text.cli_showstate_json,"ax",%progbits
	.p2align	2                               @ -- Begin function cli_showstate_json
	.type	cli_showstate_json,%function
	.code	16                              @ @cli_showstate_json
	.thumb_func
cli_showstate_json:
.Lfunc_begin4:
	.loc	3 524 0 is_stmt 1               @ source/cmds.c:524:0
	.fnstart
	.cfi_startproc
@ %bb.0:
	.save	{r7, lr}
	push	{r7, lr}
	.cfi_def_cfa_offset 8
	.cfi_offset lr, -4
	.cfi_offset r7, -8
	.pad	#48
	sub	sp, #48
	.cfi_def_cfa_offset 56
.Ltmp164:
	.loc	3 528 2 prologue_end            @ source/cmds.c:528:2
	ldr	r0, __arm_cp.4_0
	bl	printf
	.loc	3 530 2                         @ source/cmds.c:530:2
	ldr	r0, __arm_cp.4_1
	bl	printf
	add	r1, sp, #44
	movs	r0, #0
.Ltmp165:
	.loc	3 531 9                         @ source/cmds.c:531:9
	strb	r0, [r1]
	.loc	3 531 7 is_stmt 0               @ source/cmds.c:531:7
	b	.LBB4_1
.LBB4_1:                                @ =>This Inner Loop Header: Depth=1
	.loc	3 0 7                           @ source/cmds.c:0:7
	add	r0, sp, #44
.Ltmp166:
	.loc	3 531 15                        @ source/cmds.c:531:15
	ldrb	r0, [r0]
.Ltmp167:
	.loc	3 531 2                         @ source/cmds.c:531:2
	cmp	r0, #3
	bhi	.LBB4_4
	b	.LBB4_2
.LBB4_2:                                @   in Loop: Header=BB4_1 Depth=1
	.loc	3 0 2                           @ source/cmds.c:0:2
	add	r0, sp, #44
.Ltmp168:
	.loc	3 532 20 is_stmt 1              @ source/cmds.c:532:20
	ldrb	r0, [r0]
	ldr	r2, __arm_cp.4_32
	.loc	3 532 41 is_stmt 0              @ source/cmds.c:532:41
	muls	r2, r0, r2
	ldr	r1, __arm_cp.4_5
	adds	r2, r1, r2
	.loc	3 532 47                        @ source/cmds.c:532:47
	adds	r2, #94
	movs	r1, #20
	.loc	3 532 3                         @ source/cmds.c:532:3
	bl	print_state_json
	.loc	3 533 2 is_stmt 1               @ source/cmds.c:533:2
	b	.LBB4_3
.Ltmp169:
.LBB4_3:                                @   in Loop: Header=BB4_1 Depth=1
	.loc	3 531 24                        @ source/cmds.c:531:24
	ldr	r0, [sp, #44]
	adds	r0, r0, #1
	add	r1, sp, #44
	strb	r0, [r1]
	.loc	3 531 2 is_stmt 0               @ source/cmds.c:531:2
	b	.LBB4_1
.Ltmp170:
.LBB4_4:
	.loc	3 534 2 is_stmt 1               @ source/cmds.c:534:2
	ldr	r0, __arm_cp.4_2
	bl	printf
	.loc	3 537 2                         @ source/cmds.c:537:2
	ldr	r0, __arm_cp.4_3
	bl	printf
	add	r1, sp, #44
	movs	r0, #0
.Ltmp171:
	.loc	3 538 9                         @ source/cmds.c:538:9
	strb	r0, [r1]
	.loc	3 538 7 is_stmt 0               @ source/cmds.c:538:7
	b	.LBB4_5
.LBB4_5:                                @ =>This Inner Loop Header: Depth=1
	.loc	3 0 7                           @ source/cmds.c:0:7
	add	r0, sp, #44
.Ltmp172:
	.loc	3 538 15                        @ source/cmds.c:538:15
	ldrb	r0, [r0]
.Ltmp173:
	.loc	3 538 2                         @ source/cmds.c:538:2
	cmp	r0, #3
	bhi	.LBB4_8
	b	.LBB4_6
.LBB4_6:                                @   in Loop: Header=BB4_5 Depth=1
	.loc	3 0 2                           @ source/cmds.c:0:2
	add	r0, sp, #44
.Ltmp174:
	.loc	3 539 20 is_stmt 1              @ source/cmds.c:539:20
	ldrb	r0, [r0]
	ldr	r2, __arm_cp.4_32
	.loc	3 539 42 is_stmt 0              @ source/cmds.c:539:42
	muls	r2, r0, r2
	ldr	r1, __arm_cp.4_5
	adds	r2, r1, r2
	.loc	3 539 48                        @ source/cmds.c:539:48
	adds	r2, #214
	movs	r1, #8
	.loc	3 539 3                         @ source/cmds.c:539:3
	bl	print_state_json
	.loc	3 540 2 is_stmt 1               @ source/cmds.c:540:2
	b	.LBB4_7
.Ltmp175:
.LBB4_7:                                @   in Loop: Header=BB4_5 Depth=1
	.loc	3 538 24                        @ source/cmds.c:538:24
	ldr	r0, [sp, #44]
	adds	r0, r0, #1
	add	r1, sp, #44
	strb	r0, [r1]
	.loc	3 538 2 is_stmt 0               @ source/cmds.c:538:2
	b	.LBB4_5
.Ltmp176:
.LBB4_8:
	.loc	3 541 2 is_stmt 1               @ source/cmds.c:541:2
	ldr	r0, __arm_cp.4_2
	str	r0, [sp, #32]                   @ 4-byte Spill
	bl	printf
	.loc	3 544 2                         @ source/cmds.c:544:2
	ldr	r0, __arm_cp.4_4
	bl	printf
	.loc	3 546 2                         @ source/cmds.c:546:2
	ldr	r0, __arm_cp.4_5
	str	r0, [sp, #24]                   @ 4-byte Spill
	ldr	r1, __arm_cp.4_6
	adds	r2, r0, r1
	movs	r0, #3
	str	r0, [sp, #28]                   @ 4-byte Spill
	movs	r1, #8
	bl	print_state_json
	ldr	r0, [sp, #32]                   @ 4-byte Reload
	.loc	3 547 2                         @ source/cmds.c:547:2
	bl	printf
	.loc	3 550 2                         @ source/cmds.c:550:2
	ldr	r0, __arm_cp.4_7
	bl	printf
	ldr	r1, [sp, #24]                   @ 4-byte Reload
                                        @ kill: def $r2 killed $r0
	ldr	r0, [sp, #28]                   @ 4-byte Reload
	ldr	r2, __arm_cp.4_8
	.loc	3 551 2                         @ source/cmds.c:551:2
	adds	r2, r1, r2
	movs	r1, #40
	bl	print_state_json
	ldr	r0, [sp, #32]                   @ 4-byte Reload
	.loc	3 552 2                         @ source/cmds.c:552:2
	bl	printf
	.loc	3 555 2                         @ source/cmds.c:555:2
	ldr	r0, __arm_cp.4_9
	bl	printf
	add	r1, sp, #44
	movs	r0, #0
.Ltmp177:
	.loc	3 556 9                         @ source/cmds.c:556:9
	strb	r0, [r1]
	.loc	3 556 7 is_stmt 0               @ source/cmds.c:556:7
	b	.LBB4_9
.LBB4_9:                                @ =>This Inner Loop Header: Depth=1
	.loc	3 0 7                           @ source/cmds.c:0:7
	add	r0, sp, #44
.Ltmp178:
	.loc	3 556 15                        @ source/cmds.c:556:15
	ldrb	r0, [r0]
.Ltmp179:
	.loc	3 556 2                         @ source/cmds.c:556:2
	cmp	r0, #3
	bhi	.LBB4_12
	b	.LBB4_10
.LBB4_10:                               @   in Loop: Header=BB4_9 Depth=1
	.loc	3 0 2                           @ source/cmds.c:0:2
	add	r0, sp, #44
.Ltmp180:
	.loc	3 557 20 is_stmt 1              @ source/cmds.c:557:20
	ldrb	r0, [r0]
	ldr	r2, __arm_cp.4_32
	.loc	3 557 47 is_stmt 0              @ source/cmds.c:557:47
	muls	r2, r0, r2
	ldr	r1, __arm_cp.4_5
	adds	r1, r1, r2
	movw	r2, #262
	.loc	3 557 53                        @ source/cmds.c:557:53
	adds	r2, r1, r2
	movs	r1, #21
	.loc	3 557 3                         @ source/cmds.c:557:3
	bl	print_state_json
	.loc	3 558 2 is_stmt 1               @ source/cmds.c:558:2
	b	.LBB4_11
.Ltmp181:
.LBB4_11:                               @   in Loop: Header=BB4_9 Depth=1
	.loc	3 556 24                        @ source/cmds.c:556:24
	ldr	r0, [sp, #44]
	adds	r0, r0, #1
	add	r1, sp, #44
	strb	r0, [r1]
	.loc	3 556 2 is_stmt 0               @ source/cmds.c:556:2
	b	.LBB4_9
.Ltmp182:
.LBB4_12:
	.loc	3 559 2 is_stmt 1               @ source/cmds.c:559:2
	ldr	r0, __arm_cp.4_2
	bl	printf
	.loc	3 562 2                         @ source/cmds.c:562:2
	ldr	r0, __arm_cp.4_10
	bl	printf
	add	r1, sp, #44
	movs	r0, #0
.Ltmp183:
	.loc	3 564 9                         @ source/cmds.c:564:9
	strb	r0, [r1]
	.loc	3 564 7 is_stmt 0               @ source/cmds.c:564:7
	b	.LBB4_13
.LBB4_13:                               @ =>This Inner Loop Header: Depth=1
	.loc	3 0 7                           @ source/cmds.c:0:7
	add	r0, sp, #44
.Ltmp184:
	.loc	3 564 15                        @ source/cmds.c:564:15
	ldrb	r0, [r0]
.Ltmp185:
	.loc	3 564 2                         @ source/cmds.c:564:2
	cmp	r0, #2
	bhi	.LBB4_16
	b	.LBB4_14
.LBB4_14:                               @   in Loop: Header=BB4_13 Depth=1
	.loc	3 0 2                           @ source/cmds.c:0:2
	add	r0, sp, #44
.Ltmp186:
	.loc	3 565 20 is_stmt 1              @ source/cmds.c:565:20
	ldrb	r0, [r0]
	ldr	r2, __arm_cp.4_32
	.loc	3 565 41 is_stmt 0              @ source/cmds.c:565:41
	muls	r2, r0, r2
	ldr	r1, __arm_cp.4_5
	adds	r1, r1, r2
	ldr	r2, __arm_cp.4_36
	.loc	3 565 47                        @ source/cmds.c:565:47
	adds	r2, r1, r2
	movs	r1, #20
	.loc	3 565 3                         @ source/cmds.c:565:3
	bl	print_state_json
	.loc	3 566 2 is_stmt 1               @ source/cmds.c:566:2
	b	.LBB4_15
.Ltmp187:
.LBB4_15:                               @   in Loop: Header=BB4_13 Depth=1
	.loc	3 564 24                        @ source/cmds.c:564:24
	ldr	r0, [sp, #44]
	adds	r0, r0, #1
	add	r1, sp, #44
	strb	r0, [r1]
	.loc	3 564 2 is_stmt 0               @ source/cmds.c:564:2
	b	.LBB4_13
.Ltmp188:
.LBB4_16:
	.loc	3 567 2 is_stmt 1               @ source/cmds.c:567:2
	ldr	r0, __arm_cp.4_2
	bl	printf
	.loc	3 569 2                         @ source/cmds.c:569:2
	ldr	r0, __arm_cp.4_11
	bl	printf
	add	r1, sp, #44
	movs	r0, #0
.Ltmp189:
	.loc	3 570 9                         @ source/cmds.c:570:9
	strb	r0, [r1]
	.loc	3 570 7 is_stmt 0               @ source/cmds.c:570:7
	b	.LBB4_17
.LBB4_17:                               @ =>This Inner Loop Header: Depth=1
	.loc	3 0 7                           @ source/cmds.c:0:7
	add	r0, sp, #44
.Ltmp190:
	.loc	3 570 15                        @ source/cmds.c:570:15
	ldrb	r0, [r0]
.Ltmp191:
	.loc	3 570 2                         @ source/cmds.c:570:2
	cmp	r0, #2
	bhi	.LBB4_20
	b	.LBB4_18
.LBB4_18:                               @   in Loop: Header=BB4_17 Depth=1
	.loc	3 0 2                           @ source/cmds.c:0:2
	add	r0, sp, #44
.Ltmp192:
	.loc	3 571 20 is_stmt 1              @ source/cmds.c:571:20
	ldrb	r0, [r0]
	ldr	r2, __arm_cp.4_32
	.loc	3 571 45 is_stmt 0              @ source/cmds.c:571:45
	muls	r2, r0, r2
	ldr	r1, __arm_cp.4_5
	adds	r1, r1, r2
	ldr	r2, __arm_cp.4_35
	.loc	3 571 51                        @ source/cmds.c:571:51
	adds	r2, r1, r2
	movs	r1, #21
	.loc	3 571 3                         @ source/cmds.c:571:3
	bl	print_state_json
	.loc	3 572 2 is_stmt 1               @ source/cmds.c:572:2
	b	.LBB4_19
.Ltmp193:
.LBB4_19:                               @   in Loop: Header=BB4_17 Depth=1
	.loc	3 570 24                        @ source/cmds.c:570:24
	ldr	r0, [sp, #44]
	adds	r0, r0, #1
	add	r1, sp, #44
	strb	r0, [r1]
	.loc	3 570 2 is_stmt 0               @ source/cmds.c:570:2
	b	.LBB4_17
.Ltmp194:
.LBB4_20:
	.loc	3 573 2 is_stmt 1               @ source/cmds.c:573:2
	ldr	r0, __arm_cp.4_2
	bl	printf
	.loc	3 575 2                         @ source/cmds.c:575:2
	ldr	r0, __arm_cp.4_12
	bl	printf
	add	r1, sp, #44
	movs	r0, #0
.Ltmp195:
	.loc	3 576 9                         @ source/cmds.c:576:9
	strb	r0, [r1]
	.loc	3 576 7 is_stmt 0               @ source/cmds.c:576:7
	b	.LBB4_21
.LBB4_21:                               @ =>This Inner Loop Header: Depth=1
	.loc	3 0 7                           @ source/cmds.c:0:7
	add	r0, sp, #44
.Ltmp196:
	.loc	3 576 15                        @ source/cmds.c:576:15
	ldrb	r0, [r0]
.Ltmp197:
	.loc	3 576 2                         @ source/cmds.c:576:2
	cmp	r0, #2
	bhi	.LBB4_24
	b	.LBB4_22
.LBB4_22:                               @   in Loop: Header=BB4_21 Depth=1
	.loc	3 0 2                           @ source/cmds.c:0:2
	add	r0, sp, #44
.Ltmp198:
	.loc	3 577 20 is_stmt 1              @ source/cmds.c:577:20
	ldrb	r0, [r0]
	ldr	r2, __arm_cp.4_32
	.loc	3 577 42 is_stmt 0              @ source/cmds.c:577:42
	muls	r2, r0, r2
	ldr	r1, __arm_cp.4_5
	adds	r1, r1, r2
	ldr	r2, __arm_cp.4_34
	.loc	3 577 48                        @ source/cmds.c:577:48
	adds	r2, r1, r2
	movs	r1, #8
	.loc	3 577 3                         @ source/cmds.c:577:3
	bl	print_state_json
	.loc	3 578 2 is_stmt 1               @ source/cmds.c:578:2
	b	.LBB4_23
.Ltmp199:
.LBB4_23:                               @   in Loop: Header=BB4_21 Depth=1
	.loc	3 576 24                        @ source/cmds.c:576:24
	ldr	r0, [sp, #44]
	adds	r0, r0, #1
	add	r1, sp, #44
	strb	r0, [r1]
	.loc	3 576 2 is_stmt 0               @ source/cmds.c:576:2
	b	.LBB4_21
.Ltmp200:
.LBB4_24:
	.loc	3 579 2 is_stmt 1               @ source/cmds.c:579:2
	ldr	r0, __arm_cp.4_2
	str	r0, [sp, #20]                   @ 4-byte Spill
	bl	printf
	.loc	3 581 5                         @ source/cmds.c:581:5
	ldr	r0, __arm_cp.4_5
	movw	r1, #5152
	adds	r0, r0, r1
	str	r0, [sp, #36]
	.loc	3 582 2                         @ source/cmds.c:582:2
	ldr	r0, __arm_cp.4_13
	bl	printf
	.loc	3 583 22                        @ source/cmds.c:583:22
	ldr	r0, [sp, #36]
	.loc	3 583 26 is_stmt 0              @ source/cmds.c:583:26
	ldrb	r0, [r0]
	lsls	r0, r0, #29
	lsrs	r1, r0, #31
	.loc	3 583 21                        @ source/cmds.c:583:21
	rsbs	r0, r1, #0
	adcs	r1, r0
	.loc	3 583 2                         @ source/cmds.c:583:2
	ldr	r0, __arm_cp.4_14
	bl	printf
	.loc	3 584 22 is_stmt 1              @ source/cmds.c:584:22
	ldr	r0, [sp, #36]
	.loc	3 584 26 is_stmt 0              @ source/cmds.c:584:26
	ldrb	r0, [r0]
	lsls	r0, r0, #28
	lsrs	r1, r0, #31
	.loc	3 584 21                        @ source/cmds.c:584:21
	rsbs	r0, r1, #0
	adcs	r1, r0
	.loc	3 584 2                         @ source/cmds.c:584:2
	ldr	r0, __arm_cp.4_15
	bl	printf
	.loc	3 585 22 is_stmt 1              @ source/cmds.c:585:22
	ldr	r0, [sp, #36]
	.loc	3 585 26 is_stmt 0              @ source/cmds.c:585:26
	ldrb	r0, [r0]
	lsls	r0, r0, #27
	lsrs	r1, r0, #31
	.loc	3 585 21                        @ source/cmds.c:585:21
	rsbs	r0, r1, #0
	adcs	r1, r0
	.loc	3 585 2                         @ source/cmds.c:585:2
	ldr	r0, __arm_cp.4_16
	bl	printf
	.loc	3 586 21 is_stmt 1              @ source/cmds.c:586:21
	ldr	r0, [sp, #36]
	.loc	3 586 25 is_stmt 0              @ source/cmds.c:586:25
	ldrb	r0, [r0]
	lsls	r0, r0, #30
	lsrs	r1, r0, #31
	.loc	3 586 20                        @ source/cmds.c:586:20
	rsbs	r0, r1, #0
	adcs	r1, r0
	.loc	3 586 2                         @ source/cmds.c:586:2
	ldr	r0, __arm_cp.4_17
	bl	printf
	.loc	3 587 22 is_stmt 1              @ source/cmds.c:587:22
	ldr	r0, [sp, #36]
	.loc	3 587 26 is_stmt 0              @ source/cmds.c:587:26
	ldrb	r1, [r0]
	movs	r0, #1
	str	r0, [sp, #8]                    @ 4-byte Spill
	ands	r1, r0
	.loc	3 587 21                        @ source/cmds.c:587:21
	rsbs	r0, r1, #0
	adcs	r1, r0
	.loc	3 587 2                         @ source/cmds.c:587:2
	ldr	r0, __arm_cp.4_18
	bl	printf
                                        @ kill: def $r1 killed $r0
	.loc	3 588 2 is_stmt 1               @ source/cmds.c:588:2
	ldr	r0, [sp, #20]                   @ 4-byte Reload
	bl	printf
	.loc	3 590 2                         @ source/cmds.c:590:2
	ldr	r0, __arm_cp.4_19
	bl	printf
                                        @ kill: def $r1 killed $r0
	.loc	3 591 24                        @ source/cmds.c:591:24
	ldr	r0, [sp, #8]                    @ 4-byte Reload
	ldr	r1, __arm_cp.4_20
	str	r1, [sp, #16]                   @ 4-byte Spill
	movs	r2, #32
	.loc	3 591 20 is_stmt 0              @ source/cmds.c:591:20
	str	r2, [sp, #12]                   @ 4-byte Spill
	ldrb	r1, [r1, r2]
	.loc	3 591 34                        @ source/cmds.c:591:34
	ands	r1, r0
	.loc	3 591 2                         @ source/cmds.c:591:2
	ldr	r0, __arm_cp.4_21
	bl	printf
	ldr	r1, [sp, #12]                   @ 4-byte Reload
                                        @ kill: def $r2 killed $r0
	.loc	3 592 20 is_stmt 1              @ source/cmds.c:592:20
	ldr	r0, [sp, #16]                   @ 4-byte Reload
	ldrb	r0, [r0, r1]
	movs	r1, #2
	.loc	3 592 34 is_stmt 0              @ source/cmds.c:592:34
	ands	r0, r1
	.loc	3 592 19                        @ source/cmds.c:592:19
	lsrs	r1, r0, #1
	.loc	3 592 2                         @ source/cmds.c:592:2
	ldr	r0, __arm_cp.4_22
	bl	printf
                                        @ kill: def $r1 killed $r0
	.loc	3 593 2 is_stmt 1               @ source/cmds.c:593:2
	ldr	r0, [sp, #20]                   @ 4-byte Reload
	bl	printf
	.loc	3 595 2                         @ source/cmds.c:595:2
	ldr	r0, __arm_cp.4_23
	bl	printf
	add	r1, sp, #44
	movs	r0, #0
.Ltmp201:
	.loc	3 596 9                         @ source/cmds.c:596:9
	strb	r0, [r1]
	.loc	3 596 7 is_stmt 0               @ source/cmds.c:596:7
	b	.LBB4_25
.LBB4_25:                               @ =>This Loop Header: Depth=1
                                        @     Child Loop BB4_27 Depth 2
	.loc	3 0 7                           @ source/cmds.c:0:7
	add	r0, sp, #44
.Ltmp202:
	.loc	3 596 15                        @ source/cmds.c:596:15
	ldrb	r0, [r0]
.Ltmp203:
	.loc	3 596 2                         @ source/cmds.c:596:2
	cmp	r0, #2
	bhi	.LBB4_32
	b	.LBB4_26
.LBB4_26:                               @   in Loop: Header=BB4_25 Depth=1
	.loc	3 0 2                           @ source/cmds.c:0:2
	add	r0, sp, #44
.Ltmp204:
	.loc	3 597 25 is_stmt 1              @ source/cmds.c:597:25
	ldrb	r0, [r0]
	.loc	3 597 26 is_stmt 0              @ source/cmds.c:597:26
	adds	r1, r0, #1
	.loc	3 597 5                         @ source/cmds.c:597:5
	ldr	r0, __arm_cp.4_30
	bl	printf
	add	r1, sp, #40
	movs	r0, #0
.Ltmp205:
	.loc	3 598 12 is_stmt 1              @ source/cmds.c:598:12
	strb	r0, [r1]
	.loc	3 598 10 is_stmt 0              @ source/cmds.c:598:10
	b	.LBB4_27
.LBB4_27:                               @   Parent Loop BB4_25 Depth=1
                                        @ =>  This Inner Loop Header: Depth=2
	.loc	3 0 10                          @ source/cmds.c:0:10
	add	r0, sp, #40
.Ltmp206:
	.loc	3 598 18                        @ source/cmds.c:598:18
	ldrb	r0, [r0]
.Ltmp207:
	.loc	3 598 5                         @ source/cmds.c:598:5
	cmp	r0, #3
	bhi	.LBB4_30
	b	.LBB4_28
.LBB4_28:                               @   in Loop: Header=BB4_27 Depth=2
	.loc	3 0 5                           @ source/cmds.c:0:5
	add	r0, sp, #44
.Ltmp208:
	.loc	3 599 39 is_stmt 1              @ source/cmds.c:599:39
	ldrb	r0, [r0]
	movs	r1, #5
	.loc	3 599 20 is_stmt 0              @ source/cmds.c:599:20
	muls	r1, r0, r1
	ldr	r0, __arm_cp.4_25
	adds	r0, r0, r1
	add	r1, sp, #40
	.loc	3 599 42                        @ source/cmds.c:599:42
	ldrb	r1, [r1]
	.loc	3 599 20                        @ source/cmds.c:599:20
	adds	r0, r0, r1
	movs	r1, #44
	ldrb	r1, [r0, r1]
	.loc	3 599 6                         @ source/cmds.c:599:6
	ldr	r0, __arm_cp.4_33
	bl	printf
	.loc	3 600 4 is_stmt 1               @ source/cmds.c:600:4
	b	.LBB4_29
.Ltmp209:
.LBB4_29:                               @   in Loop: Header=BB4_27 Depth=2
	.loc	3 598 27                        @ source/cmds.c:598:27
	ldr	r0, [sp, #40]
	adds	r0, r0, #1
	add	r1, sp, #40
	strb	r0, [r1]
	.loc	3 598 5 is_stmt 0               @ source/cmds.c:598:5
	b	.LBB4_27
.Ltmp210:
.LBB4_30:                               @   in Loop: Header=BB4_25 Depth=1
	.loc	3 601 5 is_stmt 1               @ source/cmds.c:601:5
	ldr	r0, __arm_cp.4_31
	bl	printf
	.loc	3 602 2                         @ source/cmds.c:602:2
	b	.LBB4_31
.Ltmp211:
.LBB4_31:                               @   in Loop: Header=BB4_25 Depth=1
	.loc	3 596 24                        @ source/cmds.c:596:24
	ldr	r0, [sp, #44]
	adds	r0, r0, #1
	add	r1, sp, #44
	strb	r0, [r1]
	.loc	3 596 2 is_stmt 0               @ source/cmds.c:596:2
	b	.LBB4_25
.Ltmp212:
.LBB4_32:
	.loc	3 603 2 is_stmt 1               @ source/cmds.c:603:2
	ldr	r0, __arm_cp.4_24
	bl	printf
	.loc	3 604 23                        @ source/cmds.c:604:23
	ldr	r0, __arm_cp.4_25
	ldr	r1, [r0, #60]
	.loc	3 604 2 is_stmt 0               @ source/cmds.c:604:2
	ldr	r0, __arm_cp.4_26
	bl	printf
	.loc	3 605 2 is_stmt 1               @ source/cmds.c:605:2
	ldr	r0, __arm_cp.4_2
	bl	printf
	.loc	3 607 2                         @ source/cmds.c:607:2
	ldr	r0, __arm_cp.4_27
	bl	printf
	add	r1, sp, #44
	movs	r0, #0
.Ltmp213:
	.loc	3 608 9                         @ source/cmds.c:608:9
	strb	r0, [r1]
	.loc	3 608 7 is_stmt 0               @ source/cmds.c:608:7
	b	.LBB4_33
.LBB4_33:                               @ =>This Loop Header: Depth=1
                                        @     Child Loop BB4_35 Depth 2
	.loc	3 0 7                           @ source/cmds.c:0:7
	add	r0, sp, #44
.Ltmp214:
	.loc	3 608 15                        @ source/cmds.c:608:15
	ldrb	r0, [r0]
.Ltmp215:
	.loc	3 608 2                         @ source/cmds.c:608:2
	cmp	r0, #2
	bhi	.LBB4_40
	b	.LBB4_34
.LBB4_34:                               @   in Loop: Header=BB4_33 Depth=1
	.loc	3 0 2                           @ source/cmds.c:0:2
	add	r0, sp, #44
.Ltmp216:
	.loc	3 609 25 is_stmt 1              @ source/cmds.c:609:25
	ldrb	r0, [r0]
	.loc	3 609 26 is_stmt 0              @ source/cmds.c:609:26
	adds	r1, r0, #1
	.loc	3 609 5                         @ source/cmds.c:609:5
	ldr	r0, __arm_cp.4_30
	bl	printf
	add	r1, sp, #40
	movs	r0, #0
.Ltmp217:
	.loc	3 610 12 is_stmt 1              @ source/cmds.c:610:12
	strb	r0, [r1]
	.loc	3 610 10 is_stmt 0              @ source/cmds.c:610:10
	b	.LBB4_35
.LBB4_35:                               @   Parent Loop BB4_33 Depth=1
                                        @ =>  This Inner Loop Header: Depth=2
	.loc	3 0 10                          @ source/cmds.c:0:10
	add	r0, sp, #40
.Ltmp218:
	.loc	3 610 18                        @ source/cmds.c:610:18
	ldrb	r0, [r0]
.Ltmp219:
	.loc	3 610 5                         @ source/cmds.c:610:5
	cmp	r0, #3
	bhi	.LBB4_38
	b	.LBB4_36
.LBB4_36:                               @   in Loop: Header=BB4_35 Depth=2
	.loc	3 0 5                           @ source/cmds.c:0:5
	add	r0, sp, #44
.Ltmp220:
	.loc	3 611 23 is_stmt 1              @ source/cmds.c:611:23
	ldrb	r0, [r0]
	ldr	r1, __arm_cp.4_32
	.loc	3 611 20 is_stmt 0              @ source/cmds.c:611:20
	muls	r1, r0, r1
	ldr	r0, __arm_cp.4_5
	adds	r0, r0, r1
	add	r1, sp, #40
	.loc	3 611 41                        @ source/cmds.c:611:41
	ldrb	r1, [r1]
	.loc	3 611 26                        @ source/cmds.c:611:26
	adds	r0, r0, r1
	.loc	3 611 20                        @ source/cmds.c:611:20
	ldrb	r1, [r0, #14]
	.loc	3 611 6                         @ source/cmds.c:611:6
	ldr	r0, __arm_cp.4_33
	bl	printf
	.loc	3 612 4 is_stmt 1               @ source/cmds.c:612:4
	b	.LBB4_37
.Ltmp221:
.LBB4_37:                               @   in Loop: Header=BB4_35 Depth=2
	.loc	3 610 27                        @ source/cmds.c:610:27
	ldr	r0, [sp, #40]
	adds	r0, r0, #1
	add	r1, sp, #40
	strb	r0, [r1]
	.loc	3 610 5 is_stmt 0               @ source/cmds.c:610:5
	b	.LBB4_35
.Ltmp222:
.LBB4_38:                               @   in Loop: Header=BB4_33 Depth=1
	.loc	3 613 5 is_stmt 1               @ source/cmds.c:613:5
	ldr	r0, __arm_cp.4_31
	bl	printf
	.loc	3 614 2                         @ source/cmds.c:614:2
	b	.LBB4_39
.Ltmp223:
.LBB4_39:                               @   in Loop: Header=BB4_33 Depth=1
	.loc	3 608 24                        @ source/cmds.c:608:24
	ldr	r0, [sp, #44]
	adds	r0, r0, #1
	add	r1, sp, #44
	strb	r0, [r1]
	.loc	3 608 2 is_stmt 0               @ source/cmds.c:608:2
	b	.LBB4_33
.Ltmp224:
.LBB4_40:
	.loc	3 615 2 is_stmt 1               @ source/cmds.c:615:2
	ldr	r0, __arm_cp.4_28
	bl	printf
	.loc	3 616 23                        @ source/cmds.c:616:23
	ldr	r0, __arm_cp.4_20
	ldr	r1, [r0, #12]
	.loc	3 616 2 is_stmt 0               @ source/cmds.c:616:2
	ldr	r0, __arm_cp.4_26
	bl	printf
	.loc	3 617 2 is_stmt 1               @ source/cmds.c:617:2
	ldr	r0, __arm_cp.4_29
	str	r0, [sp, #4]                    @ 4-byte Spill
	bl	printf
                                        @ kill: def $r1 killed $r0
	.loc	3 619 2                         @ source/cmds.c:619:2
	ldr	r0, [sp, #4]                    @ 4-byte Reload
	bl	printf
	.loc	3 620 1 epilogue_begin          @ source/cmds.c:620:1
	add	sp, #48
	pop	{r7, pc}
.Ltmp225:
	.loc	3 0 1 is_stmt 0                 @ :0:1
.Ltmp226:
	.p2align	2
@ %bb.41:
__arm_cp.4_0:
	.long	.L.str.47
.Lcpi_end67:
	.size	__arm_cp.4_0, .Lcpi_end67-__arm_cp.4_0
__arm_cp.4_1:
	.long	.L.str.48
.Lcpi_end68:
	.size	__arm_cp.4_1, .Lcpi_end68-__arm_cp.4_1
__arm_cp.4_2:
	.long	.L.str.49
.Lcpi_end69:
	.size	__arm_cp.4_2, .Lcpi_end69-__arm_cp.4_2
__arm_cp.4_3:
	.long	.L.str.50
.Lcpi_end70:
	.size	__arm_cp.4_3, .Lcpi_end70-__arm_cp.4_3
__arm_cp.4_4:
	.long	.L.str.51
.Lcpi_end71:
	.size	__arm_cp.4_4, .Lcpi_end71-__arm_cp.4_4
__arm_cp.4_5:
	.long	pe
.Lcpi_end72:
	.size	__arm_cp.4_5, .Lcpi_end72-__arm_cp.4_5
__arm_cp.4_6:
	.long	5944                            @ 0x1738
.Lcpi_end73:
	.size	__arm_cp.4_6, .Lcpi_end73-__arm_cp.4_6
__arm_cp.4_7:
	.long	.L.str.52
.Lcpi_end74:
	.size	__arm_cp.4_7, .Lcpi_end74-__arm_cp.4_7
__arm_cp.4_8:
	.long	5656                            @ 0x1618
.Lcpi_end75:
	.size	__arm_cp.4_8, .Lcpi_end75-__arm_cp.4_8
__arm_cp.4_9:
	.long	.L.str.53
.Lcpi_end76:
	.size	__arm_cp.4_9, .Lcpi_end76-__arm_cp.4_9
__arm_cp.4_10:
	.long	.L.str.54
.Lcpi_end77:
	.size	__arm_cp.4_10, .Lcpi_end77-__arm_cp.4_10
__arm_cp.4_11:
	.long	.L.str.55
.Lcpi_end78:
	.size	__arm_cp.4_11, .Lcpi_end78-__arm_cp.4_11
__arm_cp.4_12:
	.long	.L.str.56
.Lcpi_end79:
	.size	__arm_cp.4_12, .Lcpi_end79-__arm_cp.4_12
__arm_cp.4_13:
	.long	.L.str.57
.Lcpi_end80:
	.size	__arm_cp.4_13, .Lcpi_end80-__arm_cp.4_13
__arm_cp.4_14:
	.long	.L.str.58
.Lcpi_end81:
	.size	__arm_cp.4_14, .Lcpi_end81-__arm_cp.4_14
__arm_cp.4_15:
	.long	.L.str.59
.Lcpi_end82:
	.size	__arm_cp.4_15, .Lcpi_end82-__arm_cp.4_15
__arm_cp.4_16:
	.long	.L.str.60
.Lcpi_end83:
	.size	__arm_cp.4_16, .Lcpi_end83-__arm_cp.4_16
__arm_cp.4_17:
	.long	.L.str.61
.Lcpi_end84:
	.size	__arm_cp.4_17, .Lcpi_end84-__arm_cp.4_17
__arm_cp.4_18:
	.long	.L.str.62
.Lcpi_end85:
	.size	__arm_cp.4_18, .Lcpi_end85-__arm_cp.4_18
__arm_cp.4_19:
	.long	.L.str.63
.Lcpi_end86:
	.size	__arm_cp.4_19, .Lcpi_end86-__arm_cp.4_19
__arm_cp.4_20:
	.long	sys
.Lcpi_end87:
	.size	__arm_cp.4_20, .Lcpi_end87-__arm_cp.4_20
__arm_cp.4_21:
	.long	.L.str.64
.Lcpi_end88:
	.size	__arm_cp.4_21, .Lcpi_end88-__arm_cp.4_21
__arm_cp.4_22:
	.long	.L.str.65
.Lcpi_end89:
	.size	__arm_cp.4_22, .Lcpi_end89-__arm_cp.4_22
__arm_cp.4_23:
	.long	.L.str.66
.Lcpi_end90:
	.size	__arm_cp.4_23, .Lcpi_end90-__arm_cp.4_23
__arm_cp.4_24:
	.long	.L.str.69
.Lcpi_end91:
	.size	__arm_cp.4_24, .Lcpi_end91-__arm_cp.4_24
__arm_cp.4_25:
	.long	cfg
.Lcpi_end92:
	.size	__arm_cp.4_25, .Lcpi_end92-__arm_cp.4_25
__arm_cp.4_26:
	.long	.L.str.70
.Lcpi_end93:
	.size	__arm_cp.4_26, .Lcpi_end93-__arm_cp.4_26
__arm_cp.4_27:
	.long	.L.str.71
.Lcpi_end94:
	.size	__arm_cp.4_27, .Lcpi_end94-__arm_cp.4_27
__arm_cp.4_28:
	.long	.L.str.72
.Lcpi_end95:
	.size	__arm_cp.4_28, .Lcpi_end95-__arm_cp.4_28
__arm_cp.4_29:
	.long	.L.str.73
.Lcpi_end96:
	.size	__arm_cp.4_29, .Lcpi_end96-__arm_cp.4_29
__arm_cp.4_30:
	.long	.L.str.67
.Lcpi_end97:
	.size	__arm_cp.4_30, .Lcpi_end97-__arm_cp.4_30
__arm_cp.4_31:
	.long	.L.str.68
.Lcpi_end98:
	.size	__arm_cp.4_31, .Lcpi_end98-__arm_cp.4_31
__arm_cp.4_32:
	.long	1702                            @ 0x6a6
.Lcpi_end99:
	.size	__arm_cp.4_32, .Lcpi_end99-__arm_cp.4_32
__arm_cp.4_33:
	.long	.L.str.35
.Lcpi_end100:
	.size	__arm_cp.4_33, .Lcpi_end100-__arm_cp.4_33
__arm_cp.4_34:
	.long	1126                            @ 0x466
.Lcpi_end101:
	.size	__arm_cp.4_34, .Lcpi_end101-__arm_cp.4_34
__arm_cp.4_35:
	.long	1174                            @ 0x496
.Lcpi_end102:
	.size	__arm_cp.4_35, .Lcpi_end102-__arm_cp.4_35
__arm_cp.4_36:
	.long	1006                            @ 0x3ee
.Lcpi_end103:
	.size	__arm_cp.4_36, .Lcpi_end103-__arm_cp.4_36
.Lfunc_end4:
	.size	cli_showstate_json, .Lfunc_end4-cli_showstate_json
	.cfi_endproc
	.cantunwind
	.fnend
                                        @ -- End function
	.section	.text.cli_showinterlock,"ax",%progbits
	.p2align	2                               @ -- Begin function cli_showinterlock
	.type	cli_showinterlock,%function
	.code	16                              @ @cli_showinterlock
	.thumb_func
cli_showinterlock:
.Lfunc_begin5:
	.loc	3 707 0 is_stmt 1               @ source/cmds.c:707:0
	.fnstart
	.cfi_startproc
@ %bb.0:
	.save	{r7, lr}
	push	{r7, lr}
	.cfi_def_cfa_offset 8
	.cfi_offset lr, -4
	.cfi_offset r7, -8
.Ltmp227:
	.loc	3 708 21 prologue_end           @ source/cmds.c:708:21
	ldr	r0, __arm_cp.5_0
	ldrb	r0, [r0]
	lsls	r0, r0, #26
	lsrs	r0, r0, #30
.Ltmp228:
	.loc	3 708 7 is_stmt 0               @ source/cmds.c:708:7
	cmp	r0, #3
	bne	.LBB5_2
	b	.LBB5_1
.LBB5_1:
.Ltmp229:
	.loc	3 709 4 is_stmt 1               @ source/cmds.c:709:4
	ldr	r0, __arm_cp.5_4
	bl	printf
	.loc	3 710 3                         @ source/cmds.c:710:3
	b	.LBB5_9
.Ltmp230:
.LBB5_2:
	.loc	3 711 26                        @ source/cmds.c:711:26
	ldr	r0, __arm_cp.5_0
	ldrb	r0, [r0]
	lsls	r0, r0, #26
	lsrs	r0, r0, #30
.Ltmp231:
	.loc	3 711 12 is_stmt 0              @ source/cmds.c:711:12
	cmp	r0, #1
	bne	.LBB5_4
	b	.LBB5_3
.LBB5_3:
.Ltmp232:
	.loc	3 712 4 is_stmt 1               @ source/cmds.c:712:4
	ldr	r0, __arm_cp.5_3
	bl	printf
	.loc	3 713 3                         @ source/cmds.c:713:3
	b	.LBB5_8
.Ltmp233:
.LBB5_4:
	.loc	3 714 26                        @ source/cmds.c:714:26
	ldr	r0, __arm_cp.5_0
	ldrb	r0, [r0]
	lsls	r0, r0, #26
	lsrs	r0, r0, #30
.Ltmp234:
	.loc	3 714 12 is_stmt 0              @ source/cmds.c:714:12
	cmp	r0, #2
	bne	.LBB5_6
	b	.LBB5_5
.LBB5_5:
.Ltmp235:
	.loc	3 715 4 is_stmt 1               @ source/cmds.c:715:4
	ldr	r0, __arm_cp.5_2
	bl	printf
	.loc	3 716 3                         @ source/cmds.c:716:3
	b	.LBB5_7
.Ltmp236:
.LBB5_6:
	.loc	3 718 4                         @ source/cmds.c:718:4
	ldr	r0, __arm_cp.5_1
	bl	printf
	b	.LBB5_7
.Ltmp237:
.LBB5_7:
	.loc	3 0 4 is_stmt 0                 @ source/cmds.c:0:4
	b	.LBB5_8
.LBB5_8:
	b	.LBB5_9
.LBB5_9:
	.loc	3 720 1 epilogue_begin is_stmt 1 @ source/cmds.c:720:1
	pop	{r7, pc}
.Ltmp238:
	.loc	3 0 1 is_stmt 0                 @ :0:1
.Ltmp239:
	.p2align	2
@ %bb.10:
__arm_cp.5_0:
	.long	cpu_ctrls_u
.Lcpi_end104:
	.size	__arm_cp.5_0, .Lcpi_end104-__arm_cp.5_0
__arm_cp.5_1:
	.long	.L.str.85
.Lcpi_end105:
	.size	__arm_cp.5_1, .Lcpi_end105-__arm_cp.5_1
__arm_cp.5_2:
	.long	.L.str.84
.Lcpi_end106:
	.size	__arm_cp.5_2, .Lcpi_end106-__arm_cp.5_2
__arm_cp.5_3:
	.long	.L.str.83
.Lcpi_end107:
	.size	__arm_cp.5_3, .Lcpi_end107-__arm_cp.5_3
__arm_cp.5_4:
	.long	.L.str.82
.Lcpi_end108:
	.size	__arm_cp.5_4, .Lcpi_end108-__arm_cp.5_4
.Lfunc_end5:
	.size	cli_showinterlock, .Lfunc_end5-cli_showinterlock
	.cfi_endproc
	.cantunwind
	.fnend
                                        @ -- End function
	.section	.text.cli_showdebug,"ax",%progbits
	.p2align	1                               @ -- Begin function cli_showdebug
	.type	cli_showdebug,%function
	.code	16                              @ @cli_showdebug
	.thumb_func
cli_showdebug:
.Lfunc_begin6:
	.loc	3 1023 0 is_stmt 1              @ source/cmds.c:1023:0
	.fnstart
	.cfi_startproc
@ %bb.0:
	.save	{r7, lr}
	push	{r7, lr}
	.cfi_def_cfa_offset 8
	.cfi_offset lr, -4
	.cfi_offset r7, -8
.Ltmp240:
	.loc	3 1024 2 prologue_end           @ source/cmds.c:1024:2
	bl	showdebug
	.loc	3 1025 1 epilogue_begin         @ source/cmds.c:1025:1
	pop	{r7, pc}
.Ltmp241:
.Lfunc_end6:
	.size	cli_showdebug, .Lfunc_end6-cli_showdebug
	.cfi_endproc
	.cantunwind
	.fnend
                                        @ -- End function
	.section	.text.cli_settime,"ax",%progbits
	.p2align	2                               @ -- Begin function cli_settime
	.type	cli_settime,%function
	.code	16                              @ @cli_settime
	.thumb_func
cli_settime:
.Lfunc_begin7:
	.loc	3 795 0                         @ source/cmds.c:795:0
	.fnstart
	.cfi_startproc
@ %bb.0:
	.save	{r7, lr}
	push	{r7, lr}
	.cfi_def_cfa_offset 8
	.cfi_offset lr, -4
	.cfi_offset r7, -8
	.pad	#48
	sub	sp, #48
	.cfi_def_cfa_offset 56
	add	r1, sp, #36
	movs	r0, #0
.Ltmp242:
	.loc	3 796 7 prologue_end            @ source/cmds.c:796:7
	str	r0, [sp, #12]                   @ 4-byte Spill
	strb	r0, [r1, #8]
	ldr	r1, __arm_cp.7_0
	str	r1, [sp, #40]
	ldr	r1, __arm_cp.7_1
	str	r1, [sp, #36]
	movs	r1, #32
	.loc	3 801 13                        @ source/cmds.c:801:13
	str	r1, [sp, #8]                    @ 4-byte Spill
	bl	my_strtok
	ldr	r1, [sp, #8]                    @ 4-byte Reload
	mov	r2, r0
	.loc	3 801 11 is_stmt 0              @ source/cmds.c:801:11
	ldr	r0, [sp, #12]                   @ 4-byte Reload
	str	r2, [sp, #24]
	.loc	3 802 13 is_stmt 1              @ source/cmds.c:802:13
	bl	my_strtok
	ldr	r1, [sp, #8]                    @ 4-byte Reload
	mov	r2, r0
	.loc	3 802 11 is_stmt 0              @ source/cmds.c:802:11
	ldr	r0, [sp, #12]                   @ 4-byte Reload
	str	r2, [sp, #20]
	.loc	3 803 13 is_stmt 1              @ source/cmds.c:803:13
	bl	my_strtok
	ldr	r1, [sp, #8]                    @ 4-byte Reload
	mov	r2, r0
	.loc	3 803 11 is_stmt 0              @ source/cmds.c:803:11
	ldr	r0, [sp, #12]                   @ 4-byte Reload
	str	r2, [sp, #16]
	.loc	3 804 2 is_stmt 1               @ source/cmds.c:804:2
	bl	my_strtok
	mov	r1, r0
	ldr	r0, __arm_cp.7_2
	str	r1, [r0]
.Ltmp243:
	.loc	3 804 2 is_stmt 0               @ source/cmds.c:804:2
	ldr	r0, [r0]
	ldrb	r0, [r0]
.Ltmp244:
	.loc	3 804 2                         @ source/cmds.c:804:2
	cbz	r0, .LBB7_2
	b	.LBB7_1
.LBB7_1:
.Ltmp245:
	.loc	3 804 2                         @ source/cmds.c:804:2
	ldr	r0, __arm_cp.7_7
	bl	printf
	b	.LBB7_9
.Ltmp246:
.LBB7_2:
	.loc	3 805 14 is_stmt 1              @ source/cmds.c:805:14
	ldr	r0, [sp, #24]
	.loc	3 805 8 is_stmt 0               @ source/cmds.c:805:8
	bl	toint
	mov	r1, r0
	add	r0, sp, #32
	.loc	3 805 6                         @ source/cmds.c:805:6
	strh	r1, [r0]
.Ltmp247:
	.loc	3 806 6 is_stmt 1               @ source/cmds.c:806:6
	ldrh	r0, [r0]
.Ltmp248:
	.loc	3 806 6 is_stmt 0               @ source/cmds.c:806:6
	cmp	r0, #24
	blo	.LBB7_4
	b	.LBB7_3
.LBB7_3:
.Ltmp249:
	.loc	3 807 3 is_stmt 1               @ source/cmds.c:807:3
	ldr	r0, __arm_cp.7_5
	bl	printf
	.loc	3 808 14                        @ source/cmds.c:808:14
	ldr	r1, __arm_cp.7_6
	movs	r0, #2
	strb	r0, [r1]
	.loc	3 809 3                         @ source/cmds.c:809:3
	b	.LBB7_9
.Ltmp250:
.LBB7_4:
	.loc	3 811 14                        @ source/cmds.c:811:14
	ldr	r0, [sp, #20]
	.loc	3 811 8 is_stmt 0               @ source/cmds.c:811:8
	bl	toint
	mov	r1, r0
	add	r0, sp, #32
	.loc	3 811 6                         @ source/cmds.c:811:6
	strh	r1, [r0]
.Ltmp251:
	.loc	3 812 6 is_stmt 1               @ source/cmds.c:812:6
	ldrh	r0, [r0]
.Ltmp252:
	.loc	3 812 6 is_stmt 0               @ source/cmds.c:812:6
	cmp	r0, #60
	blo	.LBB7_6
	b	.LBB7_5
.LBB7_5:
.Ltmp253:
	.loc	3 813 3 is_stmt 1               @ source/cmds.c:813:3
	ldr	r0, __arm_cp.7_5
	bl	printf
	.loc	3 814 14                        @ source/cmds.c:814:14
	ldr	r1, __arm_cp.7_6
	movs	r0, #2
	strb	r0, [r1]
	.loc	3 816 3                         @ source/cmds.c:816:3
	b	.LBB7_9
.Ltmp254:
.LBB7_6:
	.loc	3 818 14                        @ source/cmds.c:818:14
	ldr	r0, [sp, #16]
	.loc	3 818 8 is_stmt 0               @ source/cmds.c:818:8
	bl	toint
	mov	r1, r0
	add	r0, sp, #32
	.loc	3 818 6                         @ source/cmds.c:818:6
	strh	r1, [r0]
.Ltmp255:
	.loc	3 819 6 is_stmt 1               @ source/cmds.c:819:6
	ldrh	r0, [r0]
.Ltmp256:
	.loc	3 819 6 is_stmt 0               @ source/cmds.c:819:6
	cmp	r0, #60
	blo	.LBB7_8
	b	.LBB7_7
.LBB7_7:
.Ltmp257:
	.loc	3 820 3 is_stmt 1               @ source/cmds.c:820:3
	ldr	r0, __arm_cp.7_5
	bl	printf
	.loc	3 821 14                        @ source/cmds.c:821:14
	ldr	r1, __arm_cp.7_6
	movs	r0, #2
	strb	r0, [r1]
	.loc	3 822 3                         @ source/cmds.c:822:3
	b	.LBB7_9
.Ltmp258:
.LBB7_8:
	.loc	3 824 17                        @ source/cmds.c:824:17
	ldr	r0, [sp, #24]
	.loc	3 824 11 is_stmt 0              @ source/cmds.c:824:11
	bl	toint
	.loc	3 824 9                         @ source/cmds.c:824:9
	ldr	r1, __arm_cp.7_3
	str	r1, [sp, #4]                    @ 4-byte Spill
	strb	r0, [r1, #3]
	.loc	3 825 17 is_stmt 1              @ source/cmds.c:825:17
	ldr	r0, [sp, #20]
	.loc	3 825 11 is_stmt 0              @ source/cmds.c:825:11
	bl	toint
	ldr	r1, [sp, #4]                    @ 4-byte Reload
	.loc	3 825 9                         @ source/cmds.c:825:9
	strb	r0, [r1, #4]
	.loc	3 826 17 is_stmt 1              @ source/cmds.c:826:17
	ldr	r0, [sp, #16]
	.loc	3 826 11 is_stmt 0              @ source/cmds.c:826:11
	bl	toint
	mov	r1, r0
	.loc	3 826 9                         @ source/cmds.c:826:9
	ldr	r0, [sp, #4]                    @ 4-byte Reload
	strb	r1, [r0, #5]
	.loc	3 827 18 is_stmt 1              @ source/cmds.c:827:18
	bl	conv2seconds
	.loc	3 827 16 is_stmt 0              @ source/cmds.c:827:16
	ldr	r1, __arm_cp.7_4
	str	r0, [r1]
	.loc	3 828 1 is_stmt 1               @ source/cmds.c:828:1
	b	.LBB7_9
.LBB7_9:
	.loc	3 828 1 epilogue_begin is_stmt 0 @ source/cmds.c:828:1
	add	sp, #48
	pop	{r7, pc}
.Ltmp259:
	.loc	3 0 1                           @ :0:1
.Ltmp260:
	.p2align	2
@ %bb.10:
__arm_cp.7_0:
	.long	541412681                       @ 0x20454d49
.Lcpi_end109:
	.size	__arm_cp.7_0, .Lcpi_end109-__arm_cp.7_0
__arm_cp.7_1:
	.long	1414808915                      @ 0x54544553
.Lcpi_end110:
	.size	__arm_cp.7_1, .Lcpi_end110-__arm_cp.7_1
__arm_cp.7_2:
	.long	token
.Lcpi_end111:
	.size	__arm_cp.7_2, .Lcpi_end111-__arm_cp.7_2
__arm_cp.7_3:
	.long	tod
.Lcpi_end112:
	.size	__arm_cp.7_3, .Lcpi_end112-__arm_cp.7_3
__arm_cp.7_4:
	.long	sys
.Lcpi_end113:
	.size	__arm_cp.7_4, .Lcpi_end113-__arm_cp.7_4
__arm_cp.7_5:
	.long	.L.str.87
.Lcpi_end114:
	.size	__arm_cp.7_5, .Lcpi_end114-__arm_cp.7_5
__arm_cp.7_6:
	.long	ERROR_CODE
.Lcpi_end115:
	.size	__arm_cp.7_6, .Lcpi_end115-__arm_cp.7_6
__arm_cp.7_7:
	.long	.L.str
.Lcpi_end116:
	.size	__arm_cp.7_7, .Lcpi_end116-__arm_cp.7_7
.Lfunc_end7:
	.size	cli_settime, .Lfunc_end7-cli_settime
	.cfi_endproc
	.cantunwind
	.fnend
                                        @ -- End function
	.section	.text.cli_setdate,"ax",%progbits
	.p2align	2                               @ -- Begin function cli_setdate
	.type	cli_setdate,%function
	.code	16                              @ @cli_setdate
	.thumb_func
cli_setdate:
.Lfunc_begin8:
	.loc	3 892 0 is_stmt 1               @ source/cmds.c:892:0
	.fnstart
	.cfi_startproc
@ %bb.0:
	.save	{r7, lr}
	push	{r7, lr}
	.cfi_def_cfa_offset 8
	.cfi_offset lr, -4
	.cfi_offset r7, -8
	.pad	#40
	sub	sp, #40
	.cfi_def_cfa_offset 48
	add	r1, sp, #24
	movs	r0, #0
.Ltmp261:
	.loc	3 896 7 prologue_end            @ source/cmds.c:896:7
	str	r0, [sp, #8]                    @ 4-byte Spill
	strb	r0, [r1, #8]
	ldr	r1, __arm_cp.8_0
	str	r1, [sp, #28]
	ldr	r1, __arm_cp.8_1
	str	r1, [sp, #24]
	movs	r1, #32
	.loc	3 898 13                        @ source/cmds.c:898:13
	str	r1, [sp, #4]                    @ 4-byte Spill
	bl	my_strtok
	ldr	r1, [sp, #4]                    @ 4-byte Reload
	mov	r2, r0
	.loc	3 898 11 is_stmt 0              @ source/cmds.c:898:11
	ldr	r0, [sp, #8]                    @ 4-byte Reload
	str	r2, [sp, #12]
	.loc	3 899 13 is_stmt 1              @ source/cmds.c:899:13
	bl	my_strtok
	ldr	r1, [sp, #4]                    @ 4-byte Reload
	mov	r2, r0
	.loc	3 899 11 is_stmt 0              @ source/cmds.c:899:11
	ldr	r0, [sp, #8]                    @ 4-byte Reload
	str	r2, [sp, #16]
	.loc	3 900 13 is_stmt 1              @ source/cmds.c:900:13
	bl	my_strtok
	ldr	r1, [sp, #4]                    @ 4-byte Reload
	mov	r2, r0
	.loc	3 900 11 is_stmt 0              @ source/cmds.c:900:11
	ldr	r0, [sp, #8]                    @ 4-byte Reload
	str	r2, [sp, #20]
	.loc	3 901 2 is_stmt 1               @ source/cmds.c:901:2
	bl	my_strtok
	mov	r1, r0
	ldr	r0, __arm_cp.8_2
	str	r1, [r0]
.Ltmp262:
	.loc	3 901 2 is_stmt 0               @ source/cmds.c:901:2
	ldr	r0, [r0]
	ldrb	r0, [r0]
.Ltmp263:
	.loc	3 901 2                         @ source/cmds.c:901:2
	cbz	r0, .LBB8_2
	b	.LBB8_1
.LBB8_1:
.Ltmp264:
	.loc	3 901 2                         @ source/cmds.c:901:2
	ldr	r0, __arm_cp.8_8
	bl	printf
	b	.LBB8_12
.Ltmp265:
.LBB8_2:
	.loc	3 903 14 is_stmt 1              @ source/cmds.c:903:14
	ldr	r0, [sp, #20]
	.loc	3 903 8 is_stmt 0               @ source/cmds.c:903:8
	bl	toint
	mov	r1, r0
	add	r0, sp, #36
	.loc	3 903 6                         @ source/cmds.c:903:6
	strh	r1, [r0]
.Ltmp266:
	.loc	3 904 7 is_stmt 1               @ source/cmds.c:904:7
	ldrh	r0, [r0]
	.loc	3 904 18 is_stmt 0              @ source/cmds.c:904:18
	cmp	r0, #31
	bhi	.LBB8_4
	b	.LBB8_3
.LBB8_3:
	.loc	3 0 18                          @ source/cmds.c:0:18
	add	r0, sp, #36
	.loc	3 904 22                        @ source/cmds.c:904:22
	ldrh	r0, [r0]
.Ltmp267:
	.loc	3 904 6                         @ source/cmds.c:904:6
	cbnz	r0, .LBB8_5
	b	.LBB8_4
.LBB8_4:
.Ltmp268:
	.loc	3 905 3 is_stmt 1               @ source/cmds.c:905:3
	ldr	r0, __arm_cp.8_6
	bl	printf
	.loc	3 906 14                        @ source/cmds.c:906:14
	ldr	r1, __arm_cp.8_7
	movs	r0, #2
	strb	r0, [r1]
	.loc	3 907 3                         @ source/cmds.c:907:3
	b	.LBB8_12
.Ltmp269:
.LBB8_5:
	.loc	3 909 14                        @ source/cmds.c:909:14
	ldr	r0, [sp, #16]
	.loc	3 909 8 is_stmt 0               @ source/cmds.c:909:8
	bl	toint
	mov	r1, r0
	add	r0, sp, #36
	.loc	3 909 6                         @ source/cmds.c:909:6
	strh	r1, [r0]
.Ltmp270:
	.loc	3 910 7 is_stmt 1               @ source/cmds.c:910:7
	ldrh	r0, [r0]
	.loc	3 910 18 is_stmt 0              @ source/cmds.c:910:18
	cmp	r0, #12
	bhi	.LBB8_7
	b	.LBB8_6
.LBB8_6:
	.loc	3 0 18                          @ source/cmds.c:0:18
	add	r0, sp, #36
	.loc	3 910 22                        @ source/cmds.c:910:22
	ldrh	r0, [r0]
.Ltmp271:
	.loc	3 910 6                         @ source/cmds.c:910:6
	cbnz	r0, .LBB8_8
	b	.LBB8_7
.LBB8_7:
.Ltmp272:
	.loc	3 911 3 is_stmt 1               @ source/cmds.c:911:3
	ldr	r0, __arm_cp.8_6
	bl	printf
	.loc	3 912 14                        @ source/cmds.c:912:14
	ldr	r1, __arm_cp.8_7
	movs	r0, #2
	strb	r0, [r1]
	.loc	3 913 3                         @ source/cmds.c:913:3
	b	.LBB8_12
.Ltmp273:
.LBB8_8:
	.loc	3 915 14                        @ source/cmds.c:915:14
	ldr	r0, [sp, #12]
	.loc	3 915 8 is_stmt 0               @ source/cmds.c:915:8
	bl	toint
	mov	r1, r0
	add	r0, sp, #36
	.loc	3 915 6                         @ source/cmds.c:915:6
	strh	r1, [r0]
.Ltmp274:
	.loc	3 916 7 is_stmt 1               @ source/cmds.c:916:7
	ldrh	r0, [r0]
	.loc	3 916 20 is_stmt 0              @ source/cmds.c:916:20
	lsrs	r0, r0, #3
	cmp	r0, #253
	blo	.LBB8_10
	b	.LBB8_9
.LBB8_9:
	.loc	3 0 20                          @ source/cmds.c:0:20
	add	r0, sp, #36
	.loc	3 916 24                        @ source/cmds.c:916:24
	ldrh	r0, [r0]
	ldr	r1, __arm_cp.8_3
.Ltmp275:
	.loc	3 916 6                         @ source/cmds.c:916:6
	cmp	r0, r1
	blo	.LBB8_11
	b	.LBB8_10
.LBB8_10:
.Ltmp276:
	.loc	3 917 3 is_stmt 1               @ source/cmds.c:917:3
	ldr	r0, __arm_cp.8_6
	bl	printf
	.loc	3 918 14                        @ source/cmds.c:918:14
	ldr	r1, __arm_cp.8_7
	movs	r0, #2
	strb	r0, [r1]
	.loc	3 919 3                         @ source/cmds.c:919:3
	b	.LBB8_12
.Ltmp277:
.LBB8_11:
	.loc	3 921 17                        @ source/cmds.c:921:17
	ldr	r0, [sp, #12]
	.loc	3 921 11 is_stmt 0              @ source/cmds.c:921:11
	bl	toint
	.loc	3 921 27                        @ source/cmds.c:921:27
	movw	r1, #2000
	subs	r0, r0, r1
	.loc	3 921 9                         @ source/cmds.c:921:9
	ldr	r1, __arm_cp.8_4
	str	r1, [sp]                        @ 4-byte Spill
	strb	r0, [r1, #2]
	.loc	3 922 17 is_stmt 1              @ source/cmds.c:922:17
	ldr	r0, [sp, #16]
	.loc	3 922 11 is_stmt 0              @ source/cmds.c:922:11
	bl	toint
	ldr	r1, [sp]                        @ 4-byte Reload
	.loc	3 922 9                         @ source/cmds.c:922:9
	strb	r0, [r1, #1]
	.loc	3 923 17 is_stmt 1              @ source/cmds.c:923:17
	ldr	r0, [sp, #20]
	.loc	3 923 11 is_stmt 0              @ source/cmds.c:923:11
	bl	toint
	mov	r1, r0
	.loc	3 923 9                         @ source/cmds.c:923:9
	ldr	r0, [sp]                        @ 4-byte Reload
	strb	r1, [r0]
	.loc	3 924 18 is_stmt 1              @ source/cmds.c:924:18
	bl	conv2seconds
	.loc	3 924 16 is_stmt 0              @ source/cmds.c:924:16
	ldr	r1, __arm_cp.8_5
	str	r0, [r1]
	.loc	3 925 1 is_stmt 1               @ source/cmds.c:925:1
	b	.LBB8_12
.LBB8_12:
	.loc	3 925 1 epilogue_begin is_stmt 0 @ source/cmds.c:925:1
	add	sp, #40
	pop	{r7, pc}
.Ltmp278:
	.loc	3 0 1                           @ :0:1
.Ltmp279:
	.p2align	2
@ %bb.13:
__arm_cp.8_0:
	.long	541414465                       @ 0x20455441
.Lcpi_end117:
	.size	__arm_cp.8_0, .Lcpi_end117-__arm_cp.8_0
__arm_cp.8_1:
	.long	1146373459                      @ 0x44544553
.Lcpi_end118:
	.size	__arm_cp.8_1, .Lcpi_end118-__arm_cp.8_1
__arm_cp.8_2:
	.long	token
.Lcpi_end119:
	.size	__arm_cp.8_2, .Lcpi_end119-__arm_cp.8_2
__arm_cp.8_3:
	.long	2081                            @ 0x821
.Lcpi_end120:
	.size	__arm_cp.8_3, .Lcpi_end120-__arm_cp.8_3
__arm_cp.8_4:
	.long	tod
.Lcpi_end121:
	.size	__arm_cp.8_4, .Lcpi_end121-__arm_cp.8_4
__arm_cp.8_5:
	.long	sys
.Lcpi_end122:
	.size	__arm_cp.8_5, .Lcpi_end122-__arm_cp.8_5
__arm_cp.8_6:
	.long	.L.str.90
.Lcpi_end123:
	.size	__arm_cp.8_6, .Lcpi_end123-__arm_cp.8_6
__arm_cp.8_7:
	.long	ERROR_CODE
.Lcpi_end124:
	.size	__arm_cp.8_7, .Lcpi_end124-__arm_cp.8_7
__arm_cp.8_8:
	.long	.L.str
.Lcpi_end125:
	.size	__arm_cp.8_8, .Lcpi_end125-__arm_cp.8_8
.Lfunc_end8:
	.size	cli_setdate, .Lfunc_end8-cli_setdate
	.cfi_endproc
	.cantunwind
	.fnend
                                        @ -- End function
	.section	.text.cli_showdate,"ax",%progbits
	.p2align	2                               @ -- Begin function cli_showdate
	.type	cli_showdate,%function
	.code	16                              @ @cli_showdate
	.thumb_func
cli_showdate:
.Lfunc_begin9:
	.loc	3 947 0 is_stmt 1               @ source/cmds.c:947:0
	.fnstart
	.cfi_startproc
@ %bb.0:
	.save	{r4, r5, r7, lr}
	push	{r4, r5, r7, lr}
	.cfi_def_cfa_offset 16
	.cfi_offset lr, -4
	.cfi_offset r7, -8
	.cfi_offset r5, -12
	.cfi_offset r4, -16
	.pad	#24
	sub	sp, #24
	.cfi_def_cfa_offset 40
	movs	r0, #0
	movs	r1, #32
.Ltmp280:
	.loc	3 948 2 prologue_end            @ source/cmds.c:948:2
	bl	my_strtok
	mov	r1, r0
	ldr	r0, __arm_cp.9_0
	str	r1, [r0]
.Ltmp281:
	.loc	3 948 2 is_stmt 0               @ source/cmds.c:948:2
	ldr	r0, [r0]
	ldrb	r0, [r0]
.Ltmp282:
	.loc	3 948 2                         @ source/cmds.c:948:2
	cbz	r0, .LBB9_2
	b	.LBB9_1
.LBB9_1:
.Ltmp283:
	.loc	3 948 2                         @ source/cmds.c:948:2
	ldr	r0, __arm_cp.9_3
	bl	printf
	b	.LBB9_3
.Ltmp284:
.LBB9_2:
	.loc	3 950 15 is_stmt 1              @ source/cmds.c:950:15
	ldr	r0, __arm_cp.9_1
	ldr	r0, [r0]
	add	r5, sp, #16
	.loc	3 950 2 is_stmt 0               @ source/cmds.c:950:2
	mov	r1, r5
	bl	conv2TOD
	.loc	3 951 46 is_stmt 1              @ source/cmds.c:951:46
	ldrb	r1, [r5]
	.loc	3 951 54 is_stmt 0              @ source/cmds.c:951:54
	ldrb	r2, [r5, #1]
	.loc	3 951 62                        @ source/cmds.c:951:62
	ldrb	r3, [r5, #2]
	.loc	3 951 70                        @ source/cmds.c:951:70
	ldrb	r0, [r5, #3]
	.loc	3 951 78                        @ source/cmds.c:951:78
	ldrb	r4, [r5, #4]
	.loc	3 951 86                        @ source/cmds.c:951:86
	ldrb	r5, [r5, #5]
	.loc	3 951 2                         @ source/cmds.c:951:2
	str	r5, [sp, #8]
	str	r4, [sp, #4]
	str	r0, [sp]
	ldr	r0, __arm_cp.9_2
	bl	printf
	.loc	3 952 1 is_stmt 1               @ source/cmds.c:952:1
	b	.LBB9_3
.LBB9_3:
	.loc	3 952 1 epilogue_begin is_stmt 0 @ source/cmds.c:952:1
	add	sp, #24
	pop	{r4, r5, r7, pc}
.Ltmp285:
	.loc	3 0 1                           @ :0:1
.Ltmp286:
	.p2align	2
@ %bb.4:
__arm_cp.9_0:
	.long	token
.Lcpi_end126:
	.size	__arm_cp.9_0, .Lcpi_end126-__arm_cp.9_0
__arm_cp.9_1:
	.long	sys
.Lcpi_end127:
	.size	__arm_cp.9_1, .Lcpi_end127-__arm_cp.9_1
__arm_cp.9_2:
	.long	.L.str.91
.Lcpi_end128:
	.size	__arm_cp.9_2, .Lcpi_end128-__arm_cp.9_2
__arm_cp.9_3:
	.long	.L.str
.Lcpi_end129:
	.size	__arm_cp.9_3, .Lcpi_end129-__arm_cp.9_3
.Lfunc_end9:
	.size	cli_showdate, .Lfunc_end9-cli_showdate
	.cfi_endproc
	.cantunwind
	.fnend
                                        @ -- End function
	.section	.text.cli_showtime,"ax",%progbits
	.p2align	2                               @ -- Begin function cli_showtime
	.type	cli_showtime,%function
	.code	16                              @ @cli_showtime
	.thumb_func
cli_showtime:
.Lfunc_begin10:
	.loc	3 850 0 is_stmt 1               @ source/cmds.c:850:0
	.fnstart
	.cfi_startproc
@ %bb.0:
	.save	{r7, lr}
	push	{r7, lr}
	.cfi_def_cfa_offset 8
	.cfi_offset lr, -4
	.cfi_offset r7, -8
	.pad	#16
	sub	sp, #16
	.cfi_def_cfa_offset 24
	movs	r0, #0
	movs	r1, #32
.Ltmp287:
	.loc	3 851 2 prologue_end            @ source/cmds.c:851:2
	bl	my_strtok
	mov	r1, r0
	ldr	r0, __arm_cp.10_0
	str	r1, [r0]
.Ltmp288:
	.loc	3 851 2 is_stmt 0               @ source/cmds.c:851:2
	ldr	r0, [r0]
	ldrb	r0, [r0]
.Ltmp289:
	.loc	3 851 2                         @ source/cmds.c:851:2
	cbz	r0, .LBB10_2
	b	.LBB10_1
.LBB10_1:
.Ltmp290:
	.loc	3 851 2                         @ source/cmds.c:851:2
	ldr	r0, __arm_cp.10_4
	bl	printf
	b	.LBB10_3
.Ltmp291:
.LBB10_2:
	.loc	3 853 15 is_stmt 1              @ source/cmds.c:853:15
	ldr	r0, __arm_cp.10_1
	ldr	r0, [r0]
	add	r1, sp, #8
	.loc	3 853 2 is_stmt 0               @ source/cmds.c:853:2
	str	r1, [sp, #4]                    @ 4-byte Spill
	bl	conv2TOD
	ldr	r0, [sp, #4]                    @ 4-byte Reload
	.loc	3 854 22 is_stmt 1              @ source/cmds.c:854:22
	ldrb	r1, [r0, #3]
	.loc	3 854 2 is_stmt 0               @ source/cmds.c:854:2
	ldr	r0, __arm_cp.10_2
	str	r0, [sp]                        @ 4-byte Spill
	bl	printf
	ldr	r1, [sp, #4]                    @ 4-byte Reload
                                        @ kill: def $r2 killed $r0
	.loc	3 855 22 is_stmt 1              @ source/cmds.c:855:22
	ldr	r0, [sp]                        @ 4-byte Reload
	ldrb	r1, [r1, #4]
	.loc	3 855 2 is_stmt 0               @ source/cmds.c:855:2
	bl	printf
                                        @ kill: def $r1 killed $r0
	.loc	3 856 21 is_stmt 1              @ source/cmds.c:856:21
	ldr	r0, [sp, #4]                    @ 4-byte Reload
	ldrb	r1, [r0, #5]
	.loc	3 856 2 is_stmt 0               @ source/cmds.c:856:2
	ldr	r0, __arm_cp.10_3
	bl	printf
	.loc	3 857 1 is_stmt 1               @ source/cmds.c:857:1
	b	.LBB10_3
.LBB10_3:
	.loc	3 857 1 epilogue_begin is_stmt 0 @ source/cmds.c:857:1
	add	sp, #16
	pop	{r7, pc}
.Ltmp292:
	.loc	3 0 1                           @ :0:1
.Ltmp293:
	.p2align	2
@ %bb.4:
__arm_cp.10_0:
	.long	token
.Lcpi_end130:
	.size	__arm_cp.10_0, .Lcpi_end130-__arm_cp.10_0
__arm_cp.10_1:
	.long	sys
.Lcpi_end131:
	.size	__arm_cp.10_1, .Lcpi_end131-__arm_cp.10_1
__arm_cp.10_2:
	.long	.L.str.88
.Lcpi_end132:
	.size	__arm_cp.10_2, .Lcpi_end132-__arm_cp.10_2
__arm_cp.10_3:
	.long	.L.str.89
.Lcpi_end133:
	.size	__arm_cp.10_3, .Lcpi_end133-__arm_cp.10_3
__arm_cp.10_4:
	.long	.L.str
.Lcpi_end134:
	.size	__arm_cp.10_4, .Lcpi_end134-__arm_cp.10_4
.Lfunc_end10:
	.size	cli_showtime, .Lfunc_end10-cli_showtime
	.cfi_endproc
	.cantunwind
	.fnend
                                        @ -- End function
	.section	.text.cli_hangcpu,"ax",%progbits
	.p2align	2                               @ -- Begin function cli_hangcpu
	.type	cli_hangcpu,%function
	.code	16                              @ @cli_hangcpu
	.thumb_func
cli_hangcpu:
.Lfunc_begin11:
	.loc	3 983 0 is_stmt 1               @ source/cmds.c:983:0
	.fnstart
	.cfi_startproc
@ %bb.0:
	.save	{r7, lr}
	push	{r7, lr}
	.cfi_def_cfa_offset 8
	.cfi_offset lr, -4
	.cfi_offset r7, -8
	movs	r0, #0
	movs	r1, #32
.Ltmp294:
	.loc	3 984 10 prologue_end           @ source/cmds.c:984:10
	bl	my_strtok
	mov	r1, r0
	.loc	3 984 8 is_stmt 0               @ source/cmds.c:984:8
	ldr	r0, __arm_cp.11_0
	str	r1, [r0]
.Ltmp295:
	.loc	3 985 14 is_stmt 1              @ source/cmds.c:985:14
	ldr	r0, [r0]
	.loc	3 985 7 is_stmt 0               @ source/cmds.c:985:7
	ldr	r1, __arm_cp.11_1
	bl	strcmp
.Ltmp296:
	.loc	3 985 6                         @ source/cmds.c:985:6
	cbnz	r0, .LBB11_2
	b	.LBB11_1
.LBB11_1:
.Ltmp297:
	.loc	3 986 15 is_stmt 1              @ source/cmds.c:986:15
	ldr	r1, __arm_cp.11_2
	ldrb	r0, [r1]
	movs	r2, #1
	orrs	r0, r2
	strb	r0, [r1]
	.loc	3 987 2                         @ source/cmds.c:987:2
	b	.LBB11_12
.Ltmp298:
.LBB11_2:
	.loc	3 988 18                        @ source/cmds.c:988:18
	ldr	r0, __arm_cp.11_0
	ldr	r0, [r0]
	.loc	3 988 11 is_stmt 0              @ source/cmds.c:988:11
	ldr	r1, __arm_cp.11_3
	bl	strcmp
.Ltmp299:
	.loc	3 988 10                        @ source/cmds.c:988:10
	cbnz	r0, .LBB11_4
	b	.LBB11_3
.LBB11_3:
.Ltmp300:
	.loc	3 989 15 is_stmt 1              @ source/cmds.c:989:15
	ldr	r1, __arm_cp.11_2
	ldrb	r0, [r1]
	movs	r2, #2
	orrs	r0, r2
	strb	r0, [r1]
	.loc	3 990 2                         @ source/cmds.c:990:2
	b	.LBB11_11
.Ltmp301:
.LBB11_4:
	.loc	3 991 18                        @ source/cmds.c:991:18
	ldr	r0, __arm_cp.11_0
	ldr	r0, [r0]
	.loc	3 991 11 is_stmt 0              @ source/cmds.c:991:11
	ldr	r1, __arm_cp.11_4
	bl	strcmp
.Ltmp302:
	.loc	3 991 10                        @ source/cmds.c:991:10
	cbnz	r0, .LBB11_6
	b	.LBB11_5
.LBB11_5:
.Ltmp303:
	.loc	3 992 15 is_stmt 1              @ source/cmds.c:992:15
	ldr	r1, __arm_cp.11_2
	ldrb	r0, [r1]
	movs	r2, #4
	orrs	r0, r2
	strb	r0, [r1]
	.loc	3 993 2                         @ source/cmds.c:993:2
	b	.LBB11_10
.Ltmp304:
.LBB11_6:
	.loc	3 994 18                        @ source/cmds.c:994:18
	ldr	r0, __arm_cp.11_0
	ldr	r0, [r0]
	.loc	3 994 11 is_stmt 0              @ source/cmds.c:994:11
	ldr	r1, __arm_cp.11_5
	bl	strcmp
.Ltmp305:
	.loc	3 994 10                        @ source/cmds.c:994:10
	cbnz	r0, .LBB11_8
	b	.LBB11_7
.LBB11_7:
.Ltmp306:
	.loc	3 995 15 is_stmt 1              @ source/cmds.c:995:15
	ldr	r1, __arm_cp.11_2
	ldrb	r0, [r1]
	movs	r2, #8
	orrs	r0, r2
	strb	r0, [r1]
	.loc	3 996 2                         @ source/cmds.c:996:2
	b	.LBB11_9
.Ltmp307:
.LBB11_8:
	.loc	3 998 3                         @ source/cmds.c:998:3
	ldr	r0, __arm_cp.11_6
	bl	printf
	.loc	3 999 14                        @ source/cmds.c:999:14
	ldr	r1, __arm_cp.11_7
	movs	r0, #2
	strb	r0, [r1]
	.loc	3 1000 3                        @ source/cmds.c:1000:3
	b	.LBB11_12
.Ltmp308:
.LBB11_9:
	.loc	3 0 3 is_stmt 0                 @ source/cmds.c:0:3
	b	.LBB11_10
.LBB11_10:
	b	.LBB11_11
.LBB11_11:
	b	.LBB11_12
.LBB11_12:
	.loc	3 1002 1 epilogue_begin is_stmt 1 @ source/cmds.c:1002:1
	pop	{r7, pc}
.Ltmp309:
	.loc	3 0 1 is_stmt 0                 @ :0:1
.Ltmp310:
	.p2align	2
@ %bb.13:
__arm_cp.11_0:
	.long	token
.Lcpi_end135:
	.size	__arm_cp.11_0, .Lcpi_end135-__arm_cp.11_0
__arm_cp.11_1:
	.long	.L.str.92
.Lcpi_end136:
	.size	__arm_cp.11_1, .Lcpi_end136-__arm_cp.11_1
__arm_cp.11_2:
	.long	g_test_hang
.Lcpi_end137:
	.size	__arm_cp.11_2, .Lcpi_end137-__arm_cp.11_2
__arm_cp.11_3:
	.long	.L.str.93
.Lcpi_end138:
	.size	__arm_cp.11_3, .Lcpi_end138-__arm_cp.11_3
__arm_cp.11_4:
	.long	.L.str.94
.Lcpi_end139:
	.size	__arm_cp.11_4, .Lcpi_end139-__arm_cp.11_4
__arm_cp.11_5:
	.long	.L.str.95
.Lcpi_end140:
	.size	__arm_cp.11_5, .Lcpi_end140-__arm_cp.11_5
__arm_cp.11_6:
	.long	.L.str.96
.Lcpi_end141:
	.size	__arm_cp.11_6, .Lcpi_end141-__arm_cp.11_6
__arm_cp.11_7:
	.long	ERROR_CODE
.Lcpi_end142:
	.size	__arm_cp.11_7, .Lcpi_end142-__arm_cp.11_7
.Lfunc_end11:
	.size	cli_hangcpu, .Lfunc_end11-cli_hangcpu
	.cfi_endproc
	.cantunwind
	.fnend
                                        @ -- End function
	.section	.text.print_state,"ax",%progbits
	.p2align	2                               @ -- Begin function print_state
	.type	print_state,%function
	.code	16                              @ @print_state
	.thumb_func
print_state:
.Lfunc_begin12:
	.loc	3 217 0 is_stmt 1               @ source/cmds.c:217:0
	.fnstart
	.cfi_startproc
@ %bb.0:
	.save	{r7, lr}
	push	{r7, lr}
	.cfi_def_cfa_offset 8
	.cfi_offset lr, -4
	.cfi_offset r7, -8
	.pad	#48
	sub	sp, #48
	.cfi_def_cfa_offset 56
	mov	r3, r0
                                        @ kill: def $r0 killed $r1
                                        @ kill: def $r0 killed $r3
	add	r0, sp, #44
	strb	r3, [r0]
	add	r3, sp, #40
	strb	r1, [r3]
	str	r2, [sp, #36]
	add	r2, sp, #32
	movs	r1, #0
.Ltmp311:
	.loc	3 218 11 prologue_end           @ source/cmds.c:218:11
	strb	r1, [r2]
.Ltmp312:
	.loc	3 222 7                         @ source/cmds.c:222:7
	ldrb	r0, [r0]
.Ltmp313:
	.loc	3 222 7 is_stmt 0               @ source/cmds.c:222:7
	cmp	r0, #3
	bne	.LBB12_2
	b	.LBB12_1
.LBB12_1:
	.loc	3 0 7                           @ source/cmds.c:0:7
	add	r0, sp, #32
.Ltmp314:
	.loc	3 223 24 is_stmt 1              @ source/cmds.c:223:24
	str	r0, [sp, #20]                   @ 4-byte Spill
	ldrb	r1, [r0]
	.loc	3 223 22 is_stmt 0              @ source/cmds.c:223:22
	ldr	r0, __arm_cp.12_0
	adds	r0, r0, r1
	.loc	3 223 9                         @ source/cmds.c:223:9
	ldr	r1, __arm_cp.12_2
	bl	sprintf
	ldr	r1, [sp, #20]                   @ 4-byte Reload
	mov	r2, r0
	.loc	3 223 6                         @ source/cmds.c:223:6
	ldr	r0, [sp, #32]
	adds	r0, r0, r2
	strb	r0, [r1]
	.loc	3 224 3 is_stmt 1               @ source/cmds.c:224:3
	b	.LBB12_3
.Ltmp315:
.LBB12_2:
	.loc	3 0 3 is_stmt 0                 @ source/cmds.c:0:3
	add	r0, sp, #32
.Ltmp316:
	.loc	3 226 24 is_stmt 1              @ source/cmds.c:226:24
	str	r0, [sp, #16]                   @ 4-byte Spill
	ldrb	r1, [r0]
	.loc	3 226 22 is_stmt 0              @ source/cmds.c:226:22
	ldr	r0, __arm_cp.12_0
	adds	r0, r0, r1
	add	r1, sp, #44
	.loc	3 226 36                        @ source/cmds.c:226:36
	ldrb	r1, [r1]
	.loc	3 226 47                        @ source/cmds.c:226:47
	adds	r2, r1, #1
	.loc	3 226 9                         @ source/cmds.c:226:9
	ldr	r1, __arm_cp.12_1
	bl	sprintf
	ldr	r1, [sp, #16]                   @ 4-byte Reload
	mov	r2, r0
	.loc	3 226 6                         @ source/cmds.c:226:6
	ldr	r0, [sp, #32]
	adds	r0, r0, r2
	strb	r0, [r1]
	b	.LBB12_3
.Ltmp317:
.LBB12_3:
	.loc	3 0 6                           @ source/cmds.c:0:6
	add	r1, sp, #28
	movs	r0, #0
.Ltmp318:
	.loc	3 229 10 is_stmt 1              @ source/cmds.c:229:10
	strb	r0, [r1]
	.loc	3 229 8 is_stmt 0               @ source/cmds.c:229:8
	b	.LBB12_4
.LBB12_4:                               @ =>This Inner Loop Header: Depth=1
	.loc	3 0 8                           @ source/cmds.c:0:8
	add	r0, sp, #28
.Ltmp319:
	.loc	3 229 15                        @ source/cmds.c:229:15
	ldrb	r0, [r0]
	add	r1, sp, #40
	.loc	3 229 19                        @ source/cmds.c:229:19
	ldrb	r1, [r1]
.Ltmp320:
	.loc	3 229 3                         @ source/cmds.c:229:3
	cmp	r0, r1
	bge	.LBB12_12
	b	.LBB12_5
.LBB12_5:                               @   in Loop: Header=BB12_4 Depth=1
.Ltmp321:
	.loc	3 230 9 is_stmt 1               @ source/cmds.c:230:9
	ldr	r0, [sp, #36]
	add	r1, sp, #28
	.loc	3 230 16 is_stmt 0              @ source/cmds.c:230:16
	ldrb	r2, [r1]
	movs	r1, #6
	.loc	3 230 9                         @ source/cmds.c:230:9
	muls	r1, r2, r1
	adds	r0, r0, r1
	.loc	3 230 6                         @ source/cmds.c:230:6
	str	r0, [sp, #24]
	add	r0, sp, #32
	.loc	3 231 24 is_stmt 1              @ source/cmds.c:231:24
	ldrb	r1, [r0]
	.loc	3 231 22 is_stmt 0              @ source/cmds.c:231:22
	ldr	r0, __arm_cp.12_0
	adds	r0, r0, r1
	.loc	3 231 33                        @ source/cmds.c:231:33
	str	r0, [sp, #12]                   @ 4-byte Spill
	ldr	r0, [sp, #24]
	.loc	3 231 36                        @ source/cmds.c:231:36
	ldrb	r0, [r0]
	.loc	3 231 32                        @ source/cmds.c:231:32
	cmp	r0, #1
	bne	.LBB12_7
	b	.LBB12_6
.LBB12_6:                               @   in Loop: Header=BB12_4 Depth=1
	.loc	3 0 32                          @ source/cmds.c:0:32
	ldr	r0, __arm_cp.12_6
	.loc	3 231 32                        @ source/cmds.c:231:32
	str	r0, [sp, #8]                    @ 4-byte Spill
	b	.LBB12_10
.LBB12_7:                               @   in Loop: Header=BB12_4 Depth=1
	.loc	3 232 25 is_stmt 1              @ source/cmds.c:232:25
	ldr	r0, [sp, #24]
	.loc	3 232 28 is_stmt 0              @ source/cmds.c:232:28
	ldrb	r1, [r0]
	.loc	3 232 24                        @ source/cmds.c:232:24
	ldr	r0, __arm_cp.12_4
	ldr	r2, __arm_cp.12_5
	str	r2, [sp]                        @ 4-byte Spill
	str	r0, [sp, #4]                    @ 4-byte Spill
	cbz	r1, .LBB12_9
@ %bb.8:                                @   in Loop: Header=BB12_4 Depth=1
	.loc	3 0 24                          @ source/cmds.c:0:24
	ldr	r0, [sp]                        @ 4-byte Reload
	str	r0, [sp, #4]                    @ 4-byte Spill
.LBB12_9:                               @   in Loop: Header=BB12_4 Depth=1
	.loc	3 232 24                        @ source/cmds.c:232:24
	ldr	r0, [sp, #4]                    @ 4-byte Reload
	.loc	3 231 32 is_stmt 1              @ source/cmds.c:231:32
	str	r0, [sp, #8]                    @ 4-byte Spill
	b	.LBB12_10
.LBB12_10:                              @   in Loop: Header=BB12_4 Depth=1
	ldr	r0, [sp, #12]                   @ 4-byte Reload
	ldr	r2, [sp, #8]                    @ 4-byte Reload
	.loc	3 231 9 is_stmt 0               @ source/cmds.c:231:9
	ldr	r1, __arm_cp.12_7
	bl	sprintf
	mov	r1, r0
	.loc	3 231 6                         @ source/cmds.c:231:6
	ldr	r0, [sp, #32]
	adds	r0, r0, r1
	add	r1, sp, #32
	strb	r0, [r1]
	.loc	3 234 3 is_stmt 1               @ source/cmds.c:234:3
	b	.LBB12_11
.Ltmp322:
.LBB12_11:                              @   in Loop: Header=BB12_4 Depth=1
	.loc	3 229 30                        @ source/cmds.c:229:30
	ldr	r0, [sp, #28]
	adds	r0, r0, #1
	add	r1, sp, #28
	strb	r0, [r1]
	.loc	3 229 3 is_stmt 0               @ source/cmds.c:229:3
	b	.LBB12_4
.Ltmp323:
.LBB12_12:
	.loc	3 235 3 is_stmt 1               @ source/cmds.c:235:3
	ldr	r0, __arm_cp.12_3
	ldr	r1, __arm_cp.12_0
	bl	printf
	.loc	3 236 1 epilogue_begin          @ source/cmds.c:236:1
	add	sp, #48
	pop	{r7, pc}
.Ltmp324:
	.loc	3 0 1 is_stmt 0                 @ :0:1
.Ltmp325:
	.p2align	2
@ %bb.13:
__arm_cp.12_0:
	.long	buf
.Lcpi_end143:
	.size	__arm_cp.12_0, .Lcpi_end143-__arm_cp.12_0
__arm_cp.12_1:
	.long	.L.str.39
.Lcpi_end144:
	.size	__arm_cp.12_1, .Lcpi_end144-__arm_cp.12_1
__arm_cp.12_2:
	.long	.L.str.38
.Lcpi_end145:
	.size	__arm_cp.12_2, .Lcpi_end145-__arm_cp.12_2
__arm_cp.12_3:
	.long	.L.str.44
.Lcpi_end146:
	.size	__arm_cp.12_3, .Lcpi_end146-__arm_cp.12_3
__arm_cp.12_4:
	.long	.L.str.42
.Lcpi_end147:
	.size	__arm_cp.12_4, .Lcpi_end147-__arm_cp.12_4
__arm_cp.12_5:
	.long	.L.str.43
.Lcpi_end148:
	.size	__arm_cp.12_5, .Lcpi_end148-__arm_cp.12_5
__arm_cp.12_6:
	.long	.L.str.41
.Lcpi_end149:
	.size	__arm_cp.12_6, .Lcpi_end149-__arm_cp.12_6
__arm_cp.12_7:
	.long	.L.str.40
.Lcpi_end150:
	.size	__arm_cp.12_7, .Lcpi_end150-__arm_cp.12_7
.Lfunc_end12:
	.size	print_state, .Lfunc_end12-print_state
	.cfi_endproc
	.cantunwind
	.fnend
                                        @ -- End function
	.section	.text.print_state_nvo,"ax",%progbits
	.p2align	2                               @ -- Begin function print_state_nvo
	.type	print_state_nvo,%function
	.code	16                              @ @print_state_nvo
	.thumb_func
print_state_nvo:
.Lfunc_begin13:
	.loc	3 170 0 is_stmt 1               @ source/cmds.c:170:0
	.fnstart
	.cfi_startproc
@ %bb.0:
	.save	{r7, lr}
	push	{r7, lr}
	.cfi_def_cfa_offset 8
	.cfi_offset lr, -4
	.cfi_offset r7, -8
	.pad	#48
	sub	sp, #48
	.cfi_def_cfa_offset 56
	mov	r3, r0
                                        @ kill: def $r0 killed $r1
                                        @ kill: def $r0 killed $r3
	add	r0, sp, #44
	strb	r3, [r0]
	add	r3, sp, #40
	strb	r1, [r3]
	str	r2, [sp, #36]
	add	r2, sp, #32
	movs	r1, #0
.Ltmp326:
	.loc	3 171 11 prologue_end           @ source/cmds.c:171:11
	strb	r1, [r2]
.Ltmp327:
	.loc	3 175 7                         @ source/cmds.c:175:7
	ldrb	r0, [r0]
.Ltmp328:
	.loc	3 175 7 is_stmt 0               @ source/cmds.c:175:7
	cmp	r0, #3
	bne	.LBB13_2
	b	.LBB13_1
.LBB13_1:
	.loc	3 0 7                           @ source/cmds.c:0:7
	add	r0, sp, #32
.Ltmp329:
	.loc	3 176 24 is_stmt 1              @ source/cmds.c:176:24
	str	r0, [sp, #20]                   @ 4-byte Spill
	ldrb	r1, [r0]
	.loc	3 176 22 is_stmt 0              @ source/cmds.c:176:22
	ldr	r0, __arm_cp.13_0
	adds	r0, r0, r1
	.loc	3 176 9                         @ source/cmds.c:176:9
	ldr	r1, __arm_cp.13_2
	bl	sprintf
	ldr	r1, [sp, #20]                   @ 4-byte Reload
	mov	r2, r0
	.loc	3 176 6                         @ source/cmds.c:176:6
	ldr	r0, [sp, #32]
	adds	r0, r0, r2
	strb	r0, [r1]
	.loc	3 177 3 is_stmt 1               @ source/cmds.c:177:3
	b	.LBB13_3
.Ltmp330:
.LBB13_2:
	.loc	3 0 3 is_stmt 0                 @ source/cmds.c:0:3
	add	r0, sp, #32
.Ltmp331:
	.loc	3 179 24 is_stmt 1              @ source/cmds.c:179:24
	str	r0, [sp, #16]                   @ 4-byte Spill
	ldrb	r1, [r0]
	.loc	3 179 22 is_stmt 0              @ source/cmds.c:179:22
	ldr	r0, __arm_cp.13_0
	adds	r0, r0, r1
	add	r1, sp, #44
	.loc	3 179 36                        @ source/cmds.c:179:36
	ldrb	r1, [r1]
	.loc	3 179 47                        @ source/cmds.c:179:47
	adds	r2, r1, #1
	.loc	3 179 9                         @ source/cmds.c:179:9
	ldr	r1, __arm_cp.13_1
	bl	sprintf
	ldr	r1, [sp, #16]                   @ 4-byte Reload
	mov	r2, r0
	.loc	3 179 6                         @ source/cmds.c:179:6
	ldr	r0, [sp, #32]
	adds	r0, r0, r2
	strb	r0, [r1]
	b	.LBB13_3
.Ltmp332:
.LBB13_3:
	.loc	3 0 6                           @ source/cmds.c:0:6
	add	r1, sp, #28
	movs	r0, #0
.Ltmp333:
	.loc	3 182 10 is_stmt 1              @ source/cmds.c:182:10
	strb	r0, [r1]
	.loc	3 182 8 is_stmt 0               @ source/cmds.c:182:8
	b	.LBB13_4
.LBB13_4:                               @ =>This Inner Loop Header: Depth=1
	.loc	3 0 8                           @ source/cmds.c:0:8
	add	r0, sp, #28
.Ltmp334:
	.loc	3 182 15                        @ source/cmds.c:182:15
	ldrb	r0, [r0]
	add	r1, sp, #40
	.loc	3 182 19                        @ source/cmds.c:182:19
	ldrb	r1, [r1]
.Ltmp335:
	.loc	3 182 3                         @ source/cmds.c:182:3
	cmp	r0, r1
	bge	.LBB13_12
	b	.LBB13_5
.LBB13_5:                               @   in Loop: Header=BB13_4 Depth=1
.Ltmp336:
	.loc	3 183 9 is_stmt 1               @ source/cmds.c:183:9
	ldr	r0, [sp, #36]
	add	r1, sp, #28
	.loc	3 183 16 is_stmt 0              @ source/cmds.c:183:16
	ldrb	r2, [r1]
	movs	r1, #6
	.loc	3 183 9                         @ source/cmds.c:183:9
	muls	r1, r2, r1
	adds	r0, r0, r1
	.loc	3 183 6                         @ source/cmds.c:183:6
	str	r0, [sp, #24]
	add	r0, sp, #32
	.loc	3 184 24 is_stmt 1              @ source/cmds.c:184:24
	ldrb	r1, [r0]
	.loc	3 184 22 is_stmt 0              @ source/cmds.c:184:22
	ldr	r0, __arm_cp.13_0
	adds	r0, r0, r1
	.loc	3 184 33                        @ source/cmds.c:184:33
	str	r0, [sp, #12]                   @ 4-byte Spill
	ldr	r0, [sp, #24]
	.loc	3 184 36                        @ source/cmds.c:184:36
	ldrb	r0, [r0]
	.loc	3 184 32                        @ source/cmds.c:184:32
	cmp	r0, #1
	bne	.LBB13_7
	b	.LBB13_6
.LBB13_6:                               @   in Loop: Header=BB13_4 Depth=1
	.loc	3 0 32                          @ source/cmds.c:0:32
	ldr	r0, __arm_cp.13_6
	.loc	3 184 32                        @ source/cmds.c:184:32
	str	r0, [sp, #8]                    @ 4-byte Spill
	b	.LBB13_10
.LBB13_7:                               @   in Loop: Header=BB13_4 Depth=1
	.loc	3 184 59                        @ source/cmds.c:184:59
	ldr	r0, [sp, #24]
	.loc	3 184 62                        @ source/cmds.c:184:62
	ldrb	r1, [r0]
	.loc	3 184 58                        @ source/cmds.c:184:58
	ldr	r0, __arm_cp.13_4
	ldr	r2, __arm_cp.13_5
	str	r2, [sp]                        @ 4-byte Spill
	str	r0, [sp, #4]                    @ 4-byte Spill
	cbz	r1, .LBB13_9
@ %bb.8:                                @   in Loop: Header=BB13_4 Depth=1
	.loc	3 0 58                          @ source/cmds.c:0:58
	ldr	r0, [sp]                        @ 4-byte Reload
	str	r0, [sp, #4]                    @ 4-byte Spill
.LBB13_9:                               @   in Loop: Header=BB13_4 Depth=1
	.loc	3 184 58                        @ source/cmds.c:184:58
	ldr	r0, [sp, #4]                    @ 4-byte Reload
	.loc	3 184 32                        @ source/cmds.c:184:32
	str	r0, [sp, #8]                    @ 4-byte Spill
	b	.LBB13_10
.LBB13_10:                              @   in Loop: Header=BB13_4 Depth=1
	ldr	r0, [sp, #12]                   @ 4-byte Reload
	ldr	r2, [sp, #8]                    @ 4-byte Reload
	.loc	3 184 9                         @ source/cmds.c:184:9
	ldr	r1, __arm_cp.13_7
	bl	sprintf
	mov	r1, r0
	.loc	3 184 6                         @ source/cmds.c:184:6
	ldr	r0, [sp, #32]
	adds	r0, r0, r1
	add	r1, sp, #32
	strb	r0, [r1]
	.loc	3 185 3 is_stmt 1               @ source/cmds.c:185:3
	b	.LBB13_11
.Ltmp337:
.LBB13_11:                              @   in Loop: Header=BB13_4 Depth=1
	.loc	3 182 30                        @ source/cmds.c:182:30
	ldr	r0, [sp, #28]
	adds	r0, r0, #1
	add	r1, sp, #28
	strb	r0, [r1]
	.loc	3 182 3 is_stmt 0               @ source/cmds.c:182:3
	b	.LBB13_4
.Ltmp338:
.LBB13_12:
	.loc	3 186 3 is_stmt 1               @ source/cmds.c:186:3
	ldr	r0, __arm_cp.13_3
	ldr	r1, __arm_cp.13_0
	bl	printf
	.loc	3 187 1 epilogue_begin          @ source/cmds.c:187:1
	add	sp, #48
	pop	{r7, pc}
.Ltmp339:
	.loc	3 0 1 is_stmt 0                 @ :0:1
.Ltmp340:
	.p2align	2
@ %bb.13:
__arm_cp.13_0:
	.long	buf
.Lcpi_end151:
	.size	__arm_cp.13_0, .Lcpi_end151-__arm_cp.13_0
__arm_cp.13_1:
	.long	.L.str.39
.Lcpi_end152:
	.size	__arm_cp.13_1, .Lcpi_end152-__arm_cp.13_1
__arm_cp.13_2:
	.long	.L.str.38
.Lcpi_end153:
	.size	__arm_cp.13_2, .Lcpi_end153-__arm_cp.13_2
__arm_cp.13_3:
	.long	.L.str.44
.Lcpi_end154:
	.size	__arm_cp.13_3, .Lcpi_end154-__arm_cp.13_3
__arm_cp.13_4:
	.long	.L.str.46
.Lcpi_end155:
	.size	__arm_cp.13_4, .Lcpi_end155-__arm_cp.13_4
__arm_cp.13_5:
	.long	.L.str.43
.Lcpi_end156:
	.size	__arm_cp.13_5, .Lcpi_end156-__arm_cp.13_5
__arm_cp.13_6:
	.long	.L.str.45
.Lcpi_end157:
	.size	__arm_cp.13_6, .Lcpi_end157-__arm_cp.13_6
__arm_cp.13_7:
	.long	.L.str.40
.Lcpi_end158:
	.size	__arm_cp.13_7, .Lcpi_end158-__arm_cp.13_7
.Lfunc_end13:
	.size	print_state_nvo, .Lfunc_end13-print_state_nvo
	.cfi_endproc
	.cantunwind
	.fnend
                                        @ -- End function
	.section	.text.print_state_json,"ax",%progbits
	.p2align	2                               @ -- Begin function print_state_json
	.type	print_state_json,%function
	.code	16                              @ @print_state_json
	.thumb_func
print_state_json:
.Lfunc_begin14:
	.loc	3 273 0 is_stmt 1               @ source/cmds.c:273:0
	.fnstart
	.cfi_startproc
@ %bb.0:
	.save	{r7, lr}
	push	{r7, lr}
	.cfi_def_cfa_offset 8
	.cfi_offset lr, -4
	.cfi_offset r7, -8
	.pad	#56
	sub	sp, #56
	.cfi_def_cfa_offset 64
	mov	r3, r0
                                        @ kill: def $r0 killed $r1
                                        @ kill: def $r0 killed $r3
	add	r0, sp, #52
	strb	r3, [r0]
	add	r3, sp, #48
	strb	r1, [r3]
	str	r2, [sp, #44]
	add	r2, sp, #40
	movs	r1, #0
.Ltmp341:
	.loc	3 274 10 prologue_end           @ source/cmds.c:274:10
	strb	r1, [r2]
.Ltmp342:
	.loc	3 278 6                         @ source/cmds.c:278:6
	ldrb	r0, [r0]
.Ltmp343:
	.loc	3 278 6 is_stmt 0               @ source/cmds.c:278:6
	cmp	r0, #3
	bne	.LBB14_2
	b	.LBB14_1
.LBB14_1:
	.loc	3 0 6                           @ source/cmds.c:0:6
	add	r0, sp, #40
.Ltmp344:
	.loc	3 279 23 is_stmt 1              @ source/cmds.c:279:23
	str	r0, [sp, #28]                   @ 4-byte Spill
	ldrb	r1, [r0]
	.loc	3 279 21 is_stmt 0              @ source/cmds.c:279:21
	ldr	r0, __arm_cp.14_0
	adds	r0, r0, r1
	.loc	3 279 8                         @ source/cmds.c:279:8
	ldr	r1, __arm_cp.14_2
	bl	sprintf
	ldr	r1, [sp, #28]                   @ 4-byte Reload
	mov	r2, r0
	.loc	3 279 5                         @ source/cmds.c:279:5
	ldr	r0, [sp, #40]
	adds	r0, r0, r2
	strb	r0, [r1]
	.loc	3 280 2 is_stmt 1               @ source/cmds.c:280:2
	b	.LBB14_3
.Ltmp345:
.LBB14_2:
	.loc	3 0 2 is_stmt 0                 @ source/cmds.c:0:2
	add	r0, sp, #40
.Ltmp346:
	.loc	3 282 23 is_stmt 1              @ source/cmds.c:282:23
	str	r0, [sp, #24]                   @ 4-byte Spill
	ldrb	r1, [r0]
	.loc	3 282 21 is_stmt 0              @ source/cmds.c:282:21
	ldr	r0, __arm_cp.14_0
	adds	r0, r0, r1
	add	r1, sp, #52
	.loc	3 282 38                        @ source/cmds.c:282:38
	ldrb	r1, [r1]
	.loc	3 282 49                        @ source/cmds.c:282:49
	adds	r2, r1, #1
	.loc	3 282 8                         @ source/cmds.c:282:8
	ldr	r1, __arm_cp.14_1
	bl	sprintf
	ldr	r1, [sp, #24]                   @ 4-byte Reload
	mov	r2, r0
	.loc	3 282 5                         @ source/cmds.c:282:5
	ldr	r0, [sp, #40]
	adds	r0, r0, r2
	strb	r0, [r1]
	b	.LBB14_3
.Ltmp347:
.LBB14_3:
	.loc	3 0 5                           @ source/cmds.c:0:5
	add	r1, sp, #36
	movs	r0, #0
.Ltmp348:
	.loc	3 285 9 is_stmt 1               @ source/cmds.c:285:9
	strb	r0, [r1]
	.loc	3 285 7 is_stmt 0               @ source/cmds.c:285:7
	b	.LBB14_4
.LBB14_4:                               @ =>This Inner Loop Header: Depth=1
	.loc	3 0 7                           @ source/cmds.c:0:7
	add	r0, sp, #36
.Ltmp349:
	.loc	3 285 14                        @ source/cmds.c:285:14
	ldrb	r0, [r0]
	add	r1, sp, #48
	.loc	3 285 18                        @ source/cmds.c:285:18
	ldrb	r1, [r1]
.Ltmp350:
	.loc	3 285 2                         @ source/cmds.c:285:2
	cmp	r0, r1
	bge	.LBB14_12
	b	.LBB14_5
.LBB14_5:                               @   in Loop: Header=BB14_4 Depth=1
.Ltmp351:
	.loc	3 286 8 is_stmt 1               @ source/cmds.c:286:8
	ldr	r1, [sp, #44]
	add	r0, sp, #36
	.loc	3 286 15 is_stmt 0              @ source/cmds.c:286:15
	ldrb	r3, [r0]
	movs	r2, #6
	.loc	3 286 8                         @ source/cmds.c:286:8
	muls	r2, r3, r2
	adds	r1, r1, r2
	.loc	3 286 5                         @ source/cmds.c:286:5
	str	r1, [sp, #32]
	add	r1, sp, #40
	.loc	3 287 23 is_stmt 1              @ source/cmds.c:287:23
	ldrb	r2, [r1]
	.loc	3 287 21 is_stmt 0              @ source/cmds.c:287:21
	ldr	r1, __arm_cp.14_0
	adds	r1, r1, r2
	.loc	3 287 37                        @ source/cmds.c:287:37
	str	r1, [sp, #16]                   @ 4-byte Spill
	ldrb	r0, [r0]
	.loc	3 287 40                        @ source/cmds.c:287:40
	str	r0, [sp, #20]                   @ 4-byte Spill
	ldr	r0, [sp, #32]
	.loc	3 287 43                        @ source/cmds.c:287:43
	ldrb	r0, [r0]
	.loc	3 287 39                        @ source/cmds.c:287:39
	cmp	r0, #1
	bne	.LBB14_7
	b	.LBB14_6
.LBB14_6:                               @   in Loop: Header=BB14_4 Depth=1
	.loc	3 0 39                          @ source/cmds.c:0:39
	movs	r0, #2
	.loc	3 287 39                        @ source/cmds.c:287:39
	str	r0, [sp, #12]                   @ 4-byte Spill
	b	.LBB14_10
.LBB14_7:                               @   in Loop: Header=BB14_4 Depth=1
	.loc	3 287 59                        @ source/cmds.c:287:59
	ldr	r0, [sp, #32]
	.loc	3 287 62                        @ source/cmds.c:287:62
	ldrb	r1, [r0]
	movs	r0, #1
	movs	r2, #3
	.loc	3 287 58                        @ source/cmds.c:287:58
	str	r2, [sp, #4]                    @ 4-byte Spill
	str	r0, [sp, #8]                    @ 4-byte Spill
	cbz	r1, .LBB14_9
@ %bb.8:                                @   in Loop: Header=BB14_4 Depth=1
	.loc	3 0 58                          @ source/cmds.c:0:58
	ldr	r0, [sp, #4]                    @ 4-byte Reload
	str	r0, [sp, #8]                    @ 4-byte Spill
.LBB14_9:                               @   in Loop: Header=BB14_4 Depth=1
	.loc	3 287 58                        @ source/cmds.c:287:58
	ldr	r0, [sp, #8]                    @ 4-byte Reload
	.loc	3 287 39                        @ source/cmds.c:287:39
	str	r0, [sp, #12]                   @ 4-byte Spill
	b	.LBB14_10
.LBB14_10:                              @   in Loop: Header=BB14_4 Depth=1
	ldr	r2, [sp, #20]                   @ 4-byte Reload
	ldr	r0, [sp, #16]                   @ 4-byte Reload
	ldr	r3, [sp, #12]                   @ 4-byte Reload
	.loc	3 287 8                         @ source/cmds.c:287:8
	ldr	r1, __arm_cp.14_4
	bl	sprintf
	mov	r1, r0
	.loc	3 287 5                         @ source/cmds.c:287:5
	ldr	r0, [sp, #40]
	adds	r0, r0, r1
	add	r1, sp, #40
	strb	r0, [r1]
	.loc	3 288 2 is_stmt 1               @ source/cmds.c:288:2
	b	.LBB14_11
.Ltmp352:
.LBB14_11:                              @   in Loop: Header=BB14_4 Depth=1
	.loc	3 285 29                        @ source/cmds.c:285:29
	ldr	r0, [sp, #36]
	adds	r0, r0, #1
	add	r1, sp, #36
	strb	r0, [r1]
	.loc	3 285 2 is_stmt 0               @ source/cmds.c:285:2
	b	.LBB14_4
.Ltmp353:
.LBB14_12:
	.loc	3 289 2 is_stmt 1               @ source/cmds.c:289:2
	ldr	r0, __arm_cp.14_3
	ldr	r1, __arm_cp.14_0
	bl	printf
	.loc	3 290 1 epilogue_begin          @ source/cmds.c:290:1
	add	sp, #56
	pop	{r7, pc}
.Ltmp354:
	.loc	3 0 1 is_stmt 0                 @ :0:1
.Ltmp355:
	.p2align	2
@ %bb.13:
__arm_cp.14_0:
	.long	buf
.Lcpi_end159:
	.size	__arm_cp.14_0, .Lcpi_end159-__arm_cp.14_0
__arm_cp.14_1:
	.long	.L.str.75
.Lcpi_end160:
	.size	__arm_cp.14_1, .Lcpi_end160-__arm_cp.14_1
__arm_cp.14_2:
	.long	.L.str.74
.Lcpi_end161:
	.size	__arm_cp.14_2, .Lcpi_end161-__arm_cp.14_2
__arm_cp.14_3:
	.long	.L.str.77
.Lcpi_end162:
	.size	__arm_cp.14_3, .Lcpi_end162-__arm_cp.14_3
__arm_cp.14_4:
	.long	.L.str.76
.Lcpi_end163:
	.size	__arm_cp.14_4, .Lcpi_end163-__arm_cp.14_4
.Lfunc_end14:
	.size	print_state_json, .Lfunc_end14-print_state_json
	.cfi_endproc
	.cantunwind
	.fnend
                                        @ -- End function
	.section	.text.showdebug,"ax",%progbits
	.p2align	2                               @ -- Begin function showdebug
	.type	showdebug,%function
	.code	16                              @ @showdebug
	.thumb_func
showdebug:
.Lfunc_begin15:
	.loc	3 1064 0 is_stmt 1              @ source/cmds.c:1064:0
	.fnstart
	.cfi_startproc
@ %bb.0:
	.save	{r4, r5, r7, lr}
	push	{r4, r5, r7, lr}
	.cfi_def_cfa_offset 16
	.cfi_offset lr, -4
	.cfi_offset r7, -8
	.cfi_offset r5, -12
	.cfi_offset r4, -16
	.pad	#80
	sub	sp, #80
	.cfi_def_cfa_offset 96
.Ltmp356:
	.loc	3 1070 4 prologue_end           @ source/cmds.c:1070:4
	ldr	r0, __arm_cp.15_0
	bl	printf
	add	r1, sp, #76
	movs	r0, #0
.Ltmp357:
	.loc	3 1071 9                        @ source/cmds.c:1071:9
	strb	r0, [r1]
	.loc	3 1071 8 is_stmt 0              @ source/cmds.c:1071:8
	b	.LBB15_1
.LBB15_1:                               @ =>This Inner Loop Header: Depth=1
	.loc	3 0 8                           @ source/cmds.c:0:8
	add	r0, sp, #76
.Ltmp358:
	.loc	3 1071 13                       @ source/cmds.c:1071:13
	ldrb	r0, [r0]
.Ltmp359:
	.loc	3 1071 4                        @ source/cmds.c:1071:4
	cmp	r0, #3
	bhi	.LBB15_4
	b	.LBB15_2
.LBB15_2:                               @   in Loop: Header=BB15_1 Depth=1
	.loc	3 0 4                           @ source/cmds.c:0:4
	add	r0, sp, #76
.Ltmp360:
	.loc	3 1072 42 is_stmt 1             @ source/cmds.c:1072:42
	ldrb	r1, [r0]
	.loc	3 1072 17 is_stmt 0             @ source/cmds.c:1072:17
	ldr	r0, __arm_cp.15_3
	adds	r0, r0, r1
	ldr	r1, __arm_cp.15_4
	ldrb	r1, [r0, r1]
	.loc	3 1072 2                        @ source/cmds.c:1072:2
	ldr	r0, __arm_cp.15_31
	bl	printf
	.loc	3 1073 4 is_stmt 1              @ source/cmds.c:1073:4
	b	.LBB15_3
.Ltmp361:
.LBB15_3:                               @   in Loop: Header=BB15_1 Depth=1
	.loc	3 1071 19                       @ source/cmds.c:1071:19
	ldr	r0, [sp, #76]
	adds	r0, r0, #1
	add	r1, sp, #76
	strb	r0, [r1]
	.loc	3 1071 4 is_stmt 0              @ source/cmds.c:1071:4
	b	.LBB15_1
.Ltmp362:
.LBB15_4:
	.loc	3 1075 4 is_stmt 1              @ source/cmds.c:1075:4
	ldr	r0, __arm_cp.15_1
	bl	printf
	add	r1, sp, #76
	movs	r0, #0
.Ltmp363:
	.loc	3 1076 9                        @ source/cmds.c:1076:9
	strb	r0, [r1]
	.loc	3 1076 8 is_stmt 0              @ source/cmds.c:1076:8
	b	.LBB15_5
.LBB15_5:                               @ =>This Inner Loop Header: Depth=1
	.loc	3 0 8                           @ source/cmds.c:0:8
	add	r0, sp, #76
.Ltmp364:
	.loc	3 1076 13                       @ source/cmds.c:1076:13
	ldrb	r0, [r0]
.Ltmp365:
	.loc	3 1076 4                        @ source/cmds.c:1076:4
	cmp	r0, #3
	bhi	.LBB15_8
	b	.LBB15_6
.LBB15_6:                               @   in Loop: Header=BB15_5 Depth=1
	.loc	3 0 4                           @ source/cmds.c:0:4
	add	r0, sp, #76
.Ltmp366:
	.loc	3 1077 44 is_stmt 1             @ source/cmds.c:1077:44
	ldrb	r1, [r0]
	.loc	3 1077 17 is_stmt 0             @ source/cmds.c:1077:17
	ldr	r0, __arm_cp.15_3
	adds	r0, r0, r1
	movw	r1, #5152
	ldrb	r1, [r0, r1]
	.loc	3 1077 2                        @ source/cmds.c:1077:2
	ldr	r0, __arm_cp.15_31
	bl	printf
	.loc	3 1078 4 is_stmt 1              @ source/cmds.c:1078:4
	b	.LBB15_7
.Ltmp367:
.LBB15_7:                               @   in Loop: Header=BB15_5 Depth=1
	.loc	3 1076 19                       @ source/cmds.c:1076:19
	ldr	r0, [sp, #76]
	adds	r0, r0, #1
	add	r1, sp, #76
	strb	r0, [r1]
	.loc	3 1076 4 is_stmt 0              @ source/cmds.c:1076:4
	b	.LBB15_5
.Ltmp368:
.LBB15_8:
	.loc	3 1080 2 is_stmt 1              @ source/cmds.c:1080:2
	ldr	r0, __arm_cp.15_2
	str	r0, [sp, #44]                   @ 4-byte Spill
	bl	printf
                                        @ kill: def $r1 killed $r0
	.loc	3 1081 2                        @ source/cmds.c:1081:2
	ldr	r0, [sp, #44]                   @ 4-byte Reload
	bl	printf
	.loc	3 1082 8                        @ source/cmds.c:1082:8
	ldr	r0, __arm_cp.15_3
	str	r0, [sp, #48]                   @ 4-byte Spill
	ldr	r1, __arm_cp.15_4
	adds	r0, r0, r1
	str	r0, [sp, #64]
	.loc	3 1083 33                       @ source/cmds.c:1083:33
	ldr	r0, [sp, #64]
	.loc	3 1083 40 is_stmt 0             @ source/cmds.c:1083:40
	ldrb	r1, [r0, #1]
	movs	r0, #3
	.loc	3 1083 33                       @ source/cmds.c:1083:33
	str	r0, [sp, #40]                   @ 4-byte Spill
	ands	r1, r0
	.loc	3 1083 2                        @ source/cmds.c:1083:2
	ldr	r0, __arm_cp.15_5
	bl	printf
                                        @ kill: def $r1 killed $r0
	.loc	3 1084 35 is_stmt 1             @ source/cmds.c:1084:35
	ldr	r0, [sp, #40]                   @ 4-byte Reload
	ldr	r1, [sp, #64]
	.loc	3 1084 42 is_stmt 0             @ source/cmds.c:1084:42
	ldrb	r1, [r1]
	.loc	3 1084 35                       @ source/cmds.c:1084:35
	ands	r1, r0
	.loc	3 1084 2                        @ source/cmds.c:1084:2
	ldr	r0, __arm_cp.15_6
	bl	printf
	.loc	3 1085 35 is_stmt 1             @ source/cmds.c:1085:35
	ldr	r0, [sp, #64]
	.loc	3 1085 42 is_stmt 0             @ source/cmds.c:1085:42
	ldrb	r0, [r0]
	lsls	r0, r0, #28
	lsrs	r1, r0, #30
	.loc	3 1085 2                        @ source/cmds.c:1085:2
	ldr	r0, __arm_cp.15_7
	bl	printf
	.loc	3 1086 35 is_stmt 1             @ source/cmds.c:1086:35
	ldr	r0, [sp, #64]
	.loc	3 1086 42 is_stmt 0             @ source/cmds.c:1086:42
	ldrb	r0, [r0]
	lsls	r0, r0, #26
	lsrs	r1, r0, #30
	.loc	3 1086 2                        @ source/cmds.c:1086:2
	ldr	r0, __arm_cp.15_8
	bl	printf
	.loc	3 1087 35 is_stmt 1             @ source/cmds.c:1087:35
	ldr	r0, [sp, #64]
	.loc	3 1087 42 is_stmt 0             @ source/cmds.c:1087:42
	ldrb	r0, [r0]
	lsrs	r1, r0, #6
	.loc	3 1087 2                        @ source/cmds.c:1087:2
	ldr	r0, __arm_cp.15_9
	bl	printf
                                        @ kill: def $r1 killed $r0
	.loc	3 1090 2 is_stmt 1              @ source/cmds.c:1090:2
	ldr	r0, [sp, #44]                   @ 4-byte Reload
	bl	printf
                                        @ kill: def $r1 killed $r0
	ldr	r0, [sp, #48]                   @ 4-byte Reload
	movw	r1, #5152
	.loc	3 1091 5                        @ source/cmds.c:1091:5
	adds	r0, r0, r1
	str	r0, [sp, #68]
	.loc	3 1092 37                       @ source/cmds.c:1092:37
	ldr	r0, [sp, #68]
	.loc	3 1092 41 is_stmt 0             @ source/cmds.c:1092:41
	ldrb	r0, [r0]
	lsls	r0, r0, #29
	lsrs	r1, r0, #31
	movs	r0, #80
	str	r0, [sp, #52]                   @ 4-byte Spill
	movs	r2, #65
	.loc	3 1092 36                       @ source/cmds.c:1092:36
	str	r2, [sp, #56]                   @ 4-byte Spill
	str	r0, [sp, #60]                   @ 4-byte Spill
	cbz	r1, .LBB15_10
@ %bb.9:
	.loc	3 0 36                          @ source/cmds.c:0:36
	ldr	r0, [sp, #56]                   @ 4-byte Reload
	str	r0, [sp, #60]                   @ 4-byte Spill
.LBB15_10:
	.loc	3 1092 36                       @ source/cmds.c:1092:36
	ldr	r1, [sp, #60]                   @ 4-byte Reload
	.loc	3 1092 2                        @ source/cmds.c:1092:2
	ldr	r0, __arm_cp.15_10
	bl	printf
                                        @ kill: def $r1 killed $r0
	.loc	3 1093 37 is_stmt 1             @ source/cmds.c:1093:37
	ldr	r0, [sp, #52]                   @ 4-byte Reload
	ldr	r1, [sp, #68]
	.loc	3 1093 41 is_stmt 0             @ source/cmds.c:1093:41
	ldrb	r1, [r1]
	lsls	r1, r1, #28
	lsrs	r1, r1, #31
	.loc	3 1093 36                       @ source/cmds.c:1093:36
	str	r0, [sp, #36]                   @ 4-byte Spill
	cbz	r1, .LBB15_12
@ %bb.11:
	.loc	3 0 36                          @ source/cmds.c:0:36
	ldr	r0, [sp, #56]                   @ 4-byte Reload
	str	r0, [sp, #36]                   @ 4-byte Spill
.LBB15_12:
	.loc	3 1093 36                       @ source/cmds.c:1093:36
	ldr	r1, [sp, #36]                   @ 4-byte Reload
	.loc	3 1093 2                        @ source/cmds.c:1093:2
	ldr	r0, __arm_cp.15_11
	bl	printf
                                        @ kill: def $r1 killed $r0
	.loc	3 1094 37 is_stmt 1             @ source/cmds.c:1094:37
	ldr	r0, [sp, #52]                   @ 4-byte Reload
	ldr	r1, [sp, #68]
	.loc	3 1094 41 is_stmt 0             @ source/cmds.c:1094:41
	ldrb	r1, [r1]
	lsls	r1, r1, #27
	lsrs	r1, r1, #31
	.loc	3 1094 36                       @ source/cmds.c:1094:36
	str	r0, [sp, #32]                   @ 4-byte Spill
	cbz	r1, .LBB15_14
@ %bb.13:
	.loc	3 0 36                          @ source/cmds.c:0:36
	ldr	r0, [sp, #56]                   @ 4-byte Reload
	str	r0, [sp, #32]                   @ 4-byte Spill
.LBB15_14:
	.loc	3 1094 36                       @ source/cmds.c:1094:36
	ldr	r1, [sp, #32]                   @ 4-byte Reload
	.loc	3 1094 2                        @ source/cmds.c:1094:2
	ldr	r0, __arm_cp.15_12
	bl	printf
                                        @ kill: def $r1 killed $r0
	.loc	3 1095 37 is_stmt 1             @ source/cmds.c:1095:37
	ldr	r0, [sp, #52]                   @ 4-byte Reload
	ldr	r1, [sp, #68]
	.loc	3 1095 41 is_stmt 0             @ source/cmds.c:1095:41
	ldrb	r1, [r1]
	lsls	r1, r1, #30
	lsrs	r1, r1, #31
	.loc	3 1095 36                       @ source/cmds.c:1095:36
	str	r0, [sp, #28]                   @ 4-byte Spill
	cbz	r1, .LBB15_16
@ %bb.15:
	.loc	3 0 36                          @ source/cmds.c:0:36
	ldr	r0, [sp, #56]                   @ 4-byte Reload
	str	r0, [sp, #28]                   @ 4-byte Spill
.LBB15_16:
	.loc	3 1095 36                       @ source/cmds.c:1095:36
	ldr	r1, [sp, #28]                   @ 4-byte Reload
	.loc	3 1095 2                        @ source/cmds.c:1095:2
	ldr	r0, __arm_cp.15_13
	bl	printf
                                        @ kill: def $r1 killed $r0
	.loc	3 1096 37 is_stmt 1             @ source/cmds.c:1096:37
	ldr	r0, [sp, #52]                   @ 4-byte Reload
	ldr	r1, [sp, #68]
	.loc	3 1096 41 is_stmt 0             @ source/cmds.c:1096:41
	ldrb	r1, [r1]
	.loc	3 1096 36                       @ source/cmds.c:1096:36
	lsls	r1, r1, #31
	str	r0, [sp, #24]                   @ 4-byte Spill
	cbz	r1, .LBB15_18
@ %bb.17:
	.loc	3 0 36                          @ source/cmds.c:0:36
	ldr	r0, [sp, #56]                   @ 4-byte Reload
	str	r0, [sp, #24]                   @ 4-byte Spill
.LBB15_18:
	.loc	3 1096 36                       @ source/cmds.c:1096:36
	ldr	r1, [sp, #24]                   @ 4-byte Reload
	.loc	3 1096 2                        @ source/cmds.c:1096:2
	ldr	r0, __arm_cp.15_14
	bl	printf
	.loc	3 1097 34 is_stmt 1             @ source/cmds.c:1097:34
	ldr	r0, [sp, #68]
	.loc	3 1097 38 is_stmt 0             @ source/cmds.c:1097:38
	ldrb	r0, [r0]
	lsls	r0, r0, #25
	lsrs	r1, r0, #30
	.loc	3 1097 2                        @ source/cmds.c:1097:2
	ldr	r0, __arm_cp.15_15
	bl	printf
	.loc	3 1098 38 is_stmt 1             @ source/cmds.c:1098:38
	ldr	r0, [sp, #68]
	.loc	3 1098 42 is_stmt 0             @ source/cmds.c:1098:42
	ldrb	r1, [r0, #3]
	.loc	3 1098 2                        @ source/cmds.c:1098:2
	ldr	r0, __arm_cp.15_16
	bl	printf
	.loc	3 1099 38 is_stmt 1             @ source/cmds.c:1099:38
	ldr	r0, [sp, #68]
	.loc	3 1099 42 is_stmt 0             @ source/cmds.c:1099:42
	ldrb	r1, [r0, #2]
	.loc	3 1099 2                        @ source/cmds.c:1099:2
	ldr	r0, __arm_cp.15_17
	bl	printf
	.loc	3 1101 33 is_stmt 1             @ source/cmds.c:1101:33
	ldr	r0, __arm_cp.15_18
	str	r0, [sp, #4]                    @ 4-byte Spill
	ldrb	r0, [r0]
	lsls	r0, r0, #29
	lsrs	r1, r0, #31
	.loc	3 1101 2 is_stmt 0              @ source/cmds.c:1101:2
	ldr	r0, __arm_cp.15_19
	bl	printf
                                        @ kill: def $r1 killed $r0
	.loc	3 1102 33 is_stmt 1             @ source/cmds.c:1102:33
	ldr	r0, [sp, #4]                    @ 4-byte Reload
	ldrb	r0, [r0]
	lsls	r0, r0, #28
	lsrs	r1, r0, #31
	.loc	3 1102 2 is_stmt 0              @ source/cmds.c:1102:2
	ldr	r0, __arm_cp.15_20
	bl	printf
                                        @ kill: def $r1 killed $r0
	.loc	3 1103 33 is_stmt 1             @ source/cmds.c:1103:33
	ldr	r0, [sp, #4]                    @ 4-byte Reload
	ldrb	r0, [r0]
	lsls	r0, r0, #30
	lsrs	r1, r0, #31
	.loc	3 1103 2 is_stmt 0              @ source/cmds.c:1103:2
	ldr	r0, __arm_cp.15_21
	bl	printf
                                        @ kill: def $r1 killed $r0
	.loc	3 1104 38 is_stmt 1             @ source/cmds.c:1104:38
	ldr	r0, [sp, #4]                    @ 4-byte Reload
	ldrb	r0, [r0]
	lsls	r0, r0, #26
	lsrs	r1, r0, #30
	.loc	3 1104 2 is_stmt 0              @ source/cmds.c:1104:2
	ldr	r0, __arm_cp.15_22
	bl	printf
                                        @ kill: def $r1 killed $r0
	.loc	3 1105 40 is_stmt 1             @ source/cmds.c:1105:40
	ldr	r0, [sp, #4]                    @ 4-byte Reload
	ldrb	r1, [r0]
	movs	r0, #1
	.loc	3 1105 26 is_stmt 0             @ source/cmds.c:1105:26
	ands	r1, r0
	.loc	3 1105 2                        @ source/cmds.c:1105:2
	ldr	r0, __arm_cp.15_23
	bl	printf
                                        @ kill: def $r1 killed $r0
	.loc	3 1106 33 is_stmt 1             @ source/cmds.c:1106:33
	ldr	r0, [sp, #4]                    @ 4-byte Reload
	ldrb	r0, [r0]
	lsrs	r1, r0, #7
	.loc	3 1106 2 is_stmt 0              @ source/cmds.c:1106:2
	ldr	r0, __arm_cp.15_24
	bl	printf
                                        @ kill: def $r1 killed $r0
	.loc	3 1107 35 is_stmt 1             @ source/cmds.c:1107:35
	ldr	r0, [sp, #4]                    @ 4-byte Reload
	ldrb	r0, [r0]
	lsls	r0, r0, #25
	lsrs	r1, r0, #31
	.loc	3 1107 2 is_stmt 0              @ source/cmds.c:1107:2
	ldr	r0, __arm_cp.15_25
	bl	printf
	.loc	3 1108 53 is_stmt 1             @ source/cmds.c:1108:53
	ldr	r0, __arm_cp.15_26
	str	r0, [sp, #16]                   @ 4-byte Spill
	ldrb	r0, [r0]
	.loc	3 1108 35 is_stmt 0             @ source/cmds.c:1108:35
	ldr	r4, __arm_cp.15_27
	str	r4, [sp, #8]                    @ 4-byte Spill
	adds	r4, #96
	lsls	r0, r0, #2
	ldr	r1, [r4, r0]
	.loc	3 1108 2                        @ source/cmds.c:1108:2
	ldr	r0, __arm_cp.15_28
	bl	printf
	ldr	r1, [sp, #16]                   @ 4-byte Reload
                                        @ kill: def $r2 killed $r0
	.loc	3 1109 61 is_stmt 1             @ source/cmds.c:1109:61
	ldr	r0, [sp, #8]                    @ 4-byte Reload
	ldrb	r1, [r1]
	.loc	3 1109 35 is_stmt 0             @ source/cmds.c:1109:35
	adds	r0, #104
	str	r0, [sp, #12]                   @ 4-byte Spill
	lsls	r1, r1, #2
	ldr	r1, [r0, r1]
	.loc	3 1109 2                        @ source/cmds.c:1109:2
	ldr	r0, __arm_cp.15_29
	bl	printf
	ldr	r1, [sp, #16]                   @ 4-byte Reload
                                        @ kill: def $r2 killed $r0
	.loc	3 1110 63 is_stmt 1             @ source/cmds.c:1110:63
	ldr	r0, [sp, #8]                    @ 4-byte Reload
	ldrb	r1, [r1]
	.loc	3 1110 36 is_stmt 0             @ source/cmds.c:1110:36
	adds	r0, #112
	str	r0, [sp, #20]                   @ 4-byte Spill
	lsls	r1, r1, #2
	ldr	r1, [r0, r1]
	.loc	3 1110 2                        @ source/cmds.c:1110:2
	ldr	r0, __arm_cp.15_30
	bl	printf
	ldr	r3, [sp, #12]                   @ 4-byte Reload
	ldr	r2, [sp, #16]                   @ 4-byte Reload
	ldr	r1, [sp, #20]                   @ 4-byte Reload
	.loc	3 1111 20 is_stmt 1             @ source/cmds.c:1111:20
	ldrb	r0, [r2]
	.loc	3 1111 2 is_stmt 0              @ source/cmds.c:1111:2
	lsls	r5, r0, #2
	movs	r0, #0
	.loc	3 1111 28                       @ source/cmds.c:1111:28
	str	r0, [r4, r5]
	.loc	3 1112 28 is_stmt 1             @ source/cmds.c:1112:28
	ldrb	r4, [r2]
	.loc	3 1112 2 is_stmt 0              @ source/cmds.c:1112:2
	lsls	r4, r4, #2
	.loc	3 1112 36                       @ source/cmds.c:1112:36
	str	r0, [r3, r4]
	.loc	3 1113 29 is_stmt 1             @ source/cmds.c:1113:29
	ldrb	r2, [r2]
	.loc	3 1113 2 is_stmt 0              @ source/cmds.c:1113:2
	lsls	r2, r2, #2
	.loc	3 1113 37                       @ source/cmds.c:1113:37
	str	r0, [r1, r2]
	.loc	3 1114 1 epilogue_begin is_stmt 1 @ source/cmds.c:1114:1
	add	sp, #80
	pop	{r4, r5, r7, pc}
.Ltmp369:
	.loc	3 0 1 is_stmt 0                 @ :0:1
.Ltmp370:
	.p2align	2
@ %bb.19:
__arm_cp.15_0:
	.long	.L.str.97
.Lcpi_end164:
	.size	__arm_cp.15_0, .Lcpi_end164-__arm_cp.15_0
__arm_cp.15_1:
	.long	.L.str.99
.Lcpi_end165:
	.size	__arm_cp.15_1, .Lcpi_end165-__arm_cp.15_1
__arm_cp.15_2:
	.long	.L.str.10
.Lcpi_end166:
	.size	__arm_cp.15_2, .Lcpi_end166-__arm_cp.15_2
__arm_cp.15_3:
	.long	pe
.Lcpi_end167:
	.size	__arm_cp.15_3, .Lcpi_end167-__arm_cp.15_3
__arm_cp.15_4:
	.long	5143                            @ 0x1417
.Lcpi_end168:
	.size	__arm_cp.15_4, .Lcpi_end168-__arm_cp.15_4
__arm_cp.15_5:
	.long	.L.str.100
.Lcpi_end169:
	.size	__arm_cp.15_5, .Lcpi_end169-__arm_cp.15_5
__arm_cp.15_6:
	.long	.L.str.101
.Lcpi_end170:
	.size	__arm_cp.15_6, .Lcpi_end170-__arm_cp.15_6
__arm_cp.15_7:
	.long	.L.str.102
.Lcpi_end171:
	.size	__arm_cp.15_7, .Lcpi_end171-__arm_cp.15_7
__arm_cp.15_8:
	.long	.L.str.103
.Lcpi_end172:
	.size	__arm_cp.15_8, .Lcpi_end172-__arm_cp.15_8
__arm_cp.15_9:
	.long	.L.str.104
.Lcpi_end173:
	.size	__arm_cp.15_9, .Lcpi_end173-__arm_cp.15_9
__arm_cp.15_10:
	.long	.L.str.105
.Lcpi_end174:
	.size	__arm_cp.15_10, .Lcpi_end174-__arm_cp.15_10
__arm_cp.15_11:
	.long	.L.str.106
.Lcpi_end175:
	.size	__arm_cp.15_11, .Lcpi_end175-__arm_cp.15_11
__arm_cp.15_12:
	.long	.L.str.107
.Lcpi_end176:
	.size	__arm_cp.15_12, .Lcpi_end176-__arm_cp.15_12
__arm_cp.15_13:
	.long	.L.str.108
.Lcpi_end177:
	.size	__arm_cp.15_13, .Lcpi_end177-__arm_cp.15_13
__arm_cp.15_14:
	.long	.L.str.109
.Lcpi_end178:
	.size	__arm_cp.15_14, .Lcpi_end178-__arm_cp.15_14
__arm_cp.15_15:
	.long	.L.str.110
.Lcpi_end179:
	.size	__arm_cp.15_15, .Lcpi_end179-__arm_cp.15_15
__arm_cp.15_16:
	.long	.L.str.111
.Lcpi_end180:
	.size	__arm_cp.15_16, .Lcpi_end180-__arm_cp.15_16
__arm_cp.15_17:
	.long	.L.str.112
.Lcpi_end181:
	.size	__arm_cp.15_17, .Lcpi_end181-__arm_cp.15_17
__arm_cp.15_18:
	.long	cpu_ctrls_u
.Lcpi_end182:
	.size	__arm_cp.15_18, .Lcpi_end182-__arm_cp.15_18
__arm_cp.15_19:
	.long	.L.str.113
.Lcpi_end183:
	.size	__arm_cp.15_19, .Lcpi_end183-__arm_cp.15_19
__arm_cp.15_20:
	.long	.L.str.114
.Lcpi_end184:
	.size	__arm_cp.15_20, .Lcpi_end184-__arm_cp.15_20
__arm_cp.15_21:
	.long	.L.str.115
.Lcpi_end185:
	.size	__arm_cp.15_21, .Lcpi_end185-__arm_cp.15_21
__arm_cp.15_22:
	.long	.L.str.116
.Lcpi_end186:
	.size	__arm_cp.15_22, .Lcpi_end186-__arm_cp.15_22
__arm_cp.15_23:
	.long	.L.str.117
.Lcpi_end187:
	.size	__arm_cp.15_23, .Lcpi_end187-__arm_cp.15_23
__arm_cp.15_24:
	.long	.L.str.118
.Lcpi_end188:
	.size	__arm_cp.15_24, .Lcpi_end188-__arm_cp.15_24
__arm_cp.15_25:
	.long	.L.str.119
.Lcpi_end189:
	.size	__arm_cp.15_25, .Lcpi_end189-__arm_cp.15_25
__arm_cp.15_26:
	.long	com_id
.Lcpi_end190:
	.size	__arm_cp.15_26, .Lcpi_end190-__arm_cp.15_26
__arm_cp.15_27:
	.long	sys
.Lcpi_end191:
	.size	__arm_cp.15_27, .Lcpi_end191-__arm_cp.15_27
__arm_cp.15_28:
	.long	.L.str.120
.Lcpi_end192:
	.size	__arm_cp.15_28, .Lcpi_end192-__arm_cp.15_28
__arm_cp.15_29:
	.long	.L.str.121
.Lcpi_end193:
	.size	__arm_cp.15_29, .Lcpi_end193-__arm_cp.15_29
__arm_cp.15_30:
	.long	.L.str.122
.Lcpi_end194:
	.size	__arm_cp.15_30, .Lcpi_end194-__arm_cp.15_30
__arm_cp.15_31:
	.long	.L.str.98
.Lcpi_end195:
	.size	__arm_cp.15_31, .Lcpi_end195-__arm_cp.15_31
.Lfunc_end15:
	.size	showdebug, .Lfunc_end15-showdebug
	.cfi_endproc
	.cantunwind
	.fnend
                                        @ -- End function
	.hidden	cmdList                         @ @cmdList
	.type	cmdList,%object
	.section	.data.cmdList,"aw",%progbits
	.globl	cmdList
	.p2align	2, 0x0
cmdList:
	.byte	0                               @ 0x0
	.asciz	"---- SYSTEM SETTINGS ----\000\000\000\000\000\000\000\000\000\000\000\000\000\000"
	.zero	40
	.zero	30
	.zero	1
	.long	0
	.byte	0                               @ 0x0
	.zero	3
	.byte	0                               @ 0x0
	.asciz	"Show firmware and hardware version\000\000\000\000\000"
	.zero	40
	.asciz	"showversion\000\000\000\000\000\000\000\000\000\000\000\000\000\000\000\000\000\000"
	.zero	1
	.long	cli_showversion
	.byte	0                               @ 0x0
	.zero	3
	.byte	0                               @ 0x0
	.asciz	"set stationI name\000\000\000\000\000\000\000\000\000\000\000\000\000\000\000\000\000\000\000\000\000\000"
	.asciz	"<remote|local> <station>\000\000\000\000\000\000\000\000\000\000\000\000\000\000\000"
	.asciz	"setstation\000\000\000\000\000\000\000\000\000\000\000\000\000\000\000\000\000\000\000"
	.zero	1
	.long	cli_setstation
	.byte	0                               @ 0x0
	.zero	3
	.byte	0                               @ 0x0
	.asciz	"set equipment address\000\000\000\000\000\000\000\000\000\000\000\000\000\000\000\000\000\000"
	.asciz	"<remote|local> <address>\000\000\000\000\000\000\000\000\000\000\000\000\000\000\000"
	.asciz	"setaddr\000\000\000\000\000\000\000\000\000\000\000\000\000\000\000\000\000\000\000\000\000\000"
	.zero	1
	.long	cli_setaddress
	.byte	0                               @ 0x0
	.zero	3
	.byte	0                               @ 0x0
	.asciz	"---- STATUS ----\000\000\000\000\000\000\000\000\000\000\000\000\000\000\000\000\000\000\000\000\000\000\000"
	.zero	40
	.zero	30
	.zero	1
	.long	0
	.byte	0                               @ 0x0
	.zero	3
	.byte	0                               @ 0x0
	.asciz	"Show State\000\000\000\000\000\000\000\000\000\000\000\000\000\000\000\000\000\000\000\000\000\000\000\000\000\000\000\000\000"
	.zero	40
	.asciz	"showstate\000\000\000\000\000\000\000\000\000\000\000\000\000\000\000\000\000\000\000\000"
	.zero	1
	.long	cli_showstate
	.byte	0                               @ 0x0
	.zero	3
	.byte	0                               @ 0x0
	.asciz	"Show State in JSON\000\000\000\000\000\000\000\000\000\000\000\000\000\000\000\000\000\000\000\000\000"
	.zero	40
	.asciz	"showstatejson\000\000\000\000\000\000\000\000\000\000\000\000\000\000\000\000"
	.zero	1
	.long	cli_showstate_json
	.byte	0                               @ 0x0
	.zero	3
	.byte	0                               @ 0x0
	.asciz	"show interlock  mode\000\000\000\000\000\000\000\000\000\000\000\000\000\000\000\000\000\000\000"
	.zero	40
	.asciz	"showinterlock\000\000\000\000\000\000\000\000\000\000\000\000\000\000\000\000"
	.zero	1
	.long	cli_showinterlock
	.byte	0                               @ 0x0
	.zero	3
	.byte	0                               @ 0x0
	.asciz	"show debug info\000\000\000\000\000\000\000\000\000\000\000\000\000\000\000\000\000\000\000\000\000\000\000\000"
	.zero	40
	.asciz	"showdebug\000\000\000\000\000\000\000\000\000\000\000\000\000\000\000\000\000\000\000\000"
	.zero	1
	.long	cli_showdebug
	.byte	0                               @ 0x0
	.zero	3
	.byte	0                               @ 0x0
	.asciz	"---- Date and Time ----\000\000\000\000\000\000\000\000\000\000\000\000\000\000\000\000"
	.zero	40
	.zero	30
	.zero	1
	.long	0
	.byte	0                               @ 0x0
	.zero	3
	.byte	0                               @ 0x0
	.asciz	"Set wall clock time in RTC manually\000\000\000\000"
	.asciz	"HH MM SS\000\000\000\000\000\000\000\000\000\000\000\000\000\000\000\000\000\000\000\000\000\000\000\000\000\000\000\000\000\000\000"
	.asciz	"settime\000\000\000\000\000\000\000\000\000\000\000\000\000\000\000\000\000\000\000\000\000\000"
	.zero	1
	.long	cli_settime
	.byte	0                               @ 0x0
	.zero	3
	.byte	0                               @ 0x0
	.asciz	"Set date in RTC manually\000\000\000\000\000\000\000\000\000\000\000\000\000\000\000"
	.asciz	"YYYY MM DD\000\000\000\000\000\000\000\000\000\000\000\000\000\000\000\000\000\000\000\000\000\000\000\000\000\000\000\000\000"
	.asciz	"setdate\000\000\000\000\000\000\000\000\000\000\000\000\000\000\000\000\000\000\000\000\000\000"
	.zero	1
	.long	cli_setdate
	.byte	0                               @ 0x0
	.zero	3
	.byte	0                               @ 0x0
	.asciz	"Show current RTC date\000\000\000\000\000\000\000\000\000\000\000\000\000\000\000\000\000\000"
	.zero	40
	.asciz	"showdate\000\000\000\000\000\000\000\000\000\000\000\000\000\000\000\000\000\000\000\000\000"
	.zero	1
	.long	cli_showdate
	.byte	0                               @ 0x0
	.zero	3
	.byte	0                               @ 0x0
	.asciz	"Show current RTC time\000\000\000\000\000\000\000\000\000\000\000\000\000\000\000\000\000\000"
	.zero	40
	.asciz	"showtime\000\000\000\000\000\000\000\000\000\000\000\000\000\000\000\000\000\000\000\000\000"
	.zero	1
	.long	cli_showtime
	.byte	0                               @ 0x0
	.zero	3
	.byte	0                               @ 0x0
	.asciz	"just for test Hang cpu\000\000\000\000\000\000\000\000\000\000\000\000\000\000\000\000\000"
	.asciz	"cpu[0-3]\000\000\000\000\000\000\000\000\000\000\000\000\000\000\000\000\000\000\000\000\000\000\000\000\000\000\000\000\000\000\000"
	.asciz	"hangcpu\000\000\000\000\000\000\000\000\000\000\000\000\000\000\000\000\000\000\000\000\000\000"
	.zero	1
	.long	cli_hangcpu
	.byte	0                               @ 0x0
	.zero	3
	.size	cmdList, 1800

	.hidden	cmdListDepth                    @ @cmdListDepth
	.type	cmdListDepth,%object
	.section	.data.cmdListDepth,"aw",%progbits
	.globl	cmdListDepth
cmdListDepth:
	.byte	15                              @ 0xf
	.size	cmdListDepth, 1

	.hidden	com0_count                      @ @com0_count
	.type	com0_count,%object
	.section	.bss.com0_count,"aw",%nobits
	.globl	com0_count
	.p2align	1, 0x0
com0_count:
	.short	0                               @ 0x0
	.size	com0_count, 2

	.hidden	com1_count                      @ @com1_count
	.type	com1_count,%object
	.section	.bss.com1_count,"aw",%nobits
	.globl	com1_count
	.p2align	1, 0x0
com1_count:
	.short	0                               @ 0x0
	.size	com1_count, 2

	.hidden	testprint                       @ @testprint
	.type	testprint,%object
	.section	.bss.testprint,"aw",%nobits
	.globl	testprint
testprint:
	.byte	0                               @ 0x0
	.size	testprint, 1

	.hidden	interlock_mode                  @ @interlock_mode
	.type	interlock_mode,%object
	.section	.bss.interlock_mode,"aw",%nobits
	.globl	interlock_mode
interlock_mode:
	.byte	0                               @ 0x0
	.size	interlock_mode, 1

	.hidden	buf                             @ @buf
	.type	buf,%object
	.section	.bss.buf,"aw",%nobits
	.globl	buf
buf:
	.zero	80
	.size	buf, 80

	.hidden	tod                             @ @tod
	.type	tod,%object
	.section	.bss.tod,"aw",%nobits
	.globl	tod
tod:
	.zero	6
	.size	tod, 6

	.type	.L.str,%object                  @ @.str
	.section	.rodata.str1.1,"aMS",%progbits,1
.L.str:
	.asciz	"Wrong Parameter"
	.size	.L.str, 16

	.type	.L.str.1,%object                @ @.str.1
.L.str.1:
	.asciz	"HW Version: %s\r\n"
	.size	.L.str.1, 17

	.type	.L.str.2,%object                @ @.str.2
.L.str.2:
	.asciz	"CPU0-HW_00"
	.size	.L.str.2, 11

	.type	.L.str.3,%object                @ @.str.3
.L.str.3:
	.asciz	"FW Version: %s %s %s"
	.size	.L.str.3, 21

	.type	.L.str.4,%object                @ @.str.4
.L.str.4:
	.asciz	"V1.0"
	.size	.L.str.4, 5

	.type	.L.str.5,%object                @ @.str.5
.L.str.5:
	.asciz	"Jun 12 2026"
	.size	.L.str.5, 12

	.type	.L.str.6,%object                @ @.str.6
.L.str.6:
	.asciz	"16:29:43"
	.size	.L.str.6, 9

	.type	.L.str.7,%object                @ @.str.7
.L.str.7:
	.asciz	"Local Side Vital Input \r\n"
	.size	.L.str.7, 26

	.type	.L.str.8,%object                @ @.str.8
.L.str.8:
	.asciz	"   "
	.size	.L.str.8, 4

	.type	.L.str.9,%object                @ @.str.9
.L.str.9:
	.asciz	" %2d"
	.size	.L.str.9, 5

	.type	.L.str.10,%object               @ @.str.10
.L.str.10:
	.asciz	"\r\n"
	.size	.L.str.10, 3

	.type	.L.str.11,%object               @ @.str.11
.L.str.11:
	.asciz	"Local Side Vital Output\r\n"
	.size	.L.str.11, 26

	.type	.L.str.12,%object               @ @.str.12
.L.str.12:
	.asciz	"Vital Output Feedback\r\n"
	.size	.L.str.12, 24

	.type	.L.str.13,%object               @ @.str.13
.L.str.13:
	.asciz	"Non Vital Output\r\n"
	.size	.L.str.13, 19

	.type	.L.str.14,%object               @ @.str.14
.L.str.14:
	.asciz	"Logical Relays \r\n"
	.size	.L.str.14, 18

	.type	.L.str.15,%object               @ @.str.15
.L.str.15:
	.asciz	"1:TGTXR 2:TGTYR 3:TCFRY 4:TGTZR 5:TCFXR 6:ASGNCPR 7:TGTYP 8:UNR 9:EGNR 10:TCFRY_1 11:CAR \r\n"
	.size	.L.str.15, 92

	.type	.L.str.16,%object               @ @.str.16
.L.str.16:
	.asciz	"12:BTSR 13:FR1 14:FR2 15:TAR2 16:TAR1 17:EJ120 18:JPR120 19:TCFZR 20:TGTPR 21:TCFCR \r\n \r\n"
	.size	.L.str.16, 90

	.type	.L.str.17,%object               @ @.str.17
.L.str.17:
	.asciz	"Remote Side Vital Input\r\n"
	.size	.L.str.17, 26

	.type	.L.str.18,%object               @ @.str.18
.L.str.18:
	.asciz	"Remote Side Logical Relay\r\n"
	.size	.L.str.18, 28

	.type	.L.str.19,%object               @ @.str.19
.L.str.19:
	.asciz	"Remote Side Vital Output\r\n"
	.size	.L.str.19, 27

	.type	.L.str.20,%object               @ @.str.20
.L.str.20:
	.asciz	"\r\nInput Card Plugged:"
	.size	.L.str.20, 22

	.type	.L.str.21,%object               @ @.str.21
.L.str.21:
	.asciz	" -- #%d  %s"
	.size	.L.str.21, 12

	.type	.L.str.22,%object               @ @.str.22
.L.str.22:
	.asciz	"Yes"
	.size	.L.str.22, 4

	.type	.L.str.23,%object               @ @.str.23
.L.str.23:
	.asciz	"No"
	.size	.L.str.23, 3

	.type	.L.str.24,%object               @ @.str.24
.L.str.24:
	.asciz	"\r\nOutput Card Plugged:"
	.size	.L.str.24, 23

	.type	.L.str.25,%object               @ @.str.25
.L.str.25:
	.asciz	"\r\nNON VITAL Card Plugged:"
	.size	.L.str.25, 26

	.type	.L.str.26,%object               @ @.str.26
.L.str.26:
	.asciz	" -- #%d  %s\r\n"
	.size	.L.str.26, 14

	.type	.L.str.27,%object               @ @.str.27
.L.str.27:
	.asciz	"COM0 UP!  "
	.size	.L.str.27, 11

	.type	.L.str.28,%object               @ @.str.28
.L.str.28:
	.asciz	"COM0 DOWN!  "
	.size	.L.str.28, 13

	.type	.L.str.29,%object               @ @.str.29
.L.str.29:
	.asciz	"COM1 UP!\r\n"
	.size	.L.str.29, 11

	.type	.L.str.30,%object               @ @.str.30
.L.str.30:
	.asciz	"COM1 DOWN!\r\n"
	.size	.L.str.30, 13

	.type	.L.str.31,%object               @ @.str.31
.L.str.31:
	.asciz	"com0 down counting-> %d  com1 down counting-> %d \r\n"
	.size	.L.str.31, 52

	.type	.L.str.32,%object               @ @.str.32
.L.str.32:
	.asciz	"FLASH CHECKSUM: Expected(LAST READ)\r\n"
	.size	.L.str.32, 38

	.type	.L.str.33,%object               @ @.str.33
.L.str.33:
	.asciz	" CPU0: 0x%08x (0x%08x)\r\n"
	.size	.L.str.33, 25

	.type	.L.str.34,%object               @ @.str.34
.L.str.34:
	.asciz	" CPU%d: 0x"
	.size	.L.str.34, 11

	.type	.L.str.35,%object               @ @.str.35
.L.str.35:
	.asciz	"%02x"
	.size	.L.str.35, 5

	.type	.L.str.36,%object               @ @.str.36
.L.str.36:
	.asciz	" (0x"
	.size	.L.str.36, 5

	.type	.L.str.37,%object               @ @.str.37
.L.str.37:
	.asciz	")\r\n"
	.size	.L.str.37, 4

	.type	.L.str.38,%object               @ @.str.38
.L.str.38:
	.asciz	"F: "
	.size	.L.str.38, 4

	.type	.L.str.39,%object               @ @.str.39
.L.str.39:
	.asciz	"C%d:"
	.size	.L.str.39, 5

	.type	.L.str.40,%object               @ @.str.40
.L.str.40:
	.asciz	"%s"
	.size	.L.str.40, 3

	.type	.L.str.41,%object               @ @.str.41
.L.str.41:
	.asciz	"  P"
	.size	.L.str.41, 4

	.type	.L.str.42,%object               @ @.str.42
.L.str.42:
	.asciz	"  D"
	.size	.L.str.42, 4

	.type	.L.str.43,%object               @ @.str.43
.L.str.43:
	.asciz	"  E"
	.size	.L.str.43, 4

	.type	.L.str.44,%object               @ @.str.44
.L.str.44:
	.asciz	"%s\r\n"
	.size	.L.str.44, 5

	.type	.L.str.45,%object               @ @.str.45
.L.str.45:
	.asciz	"  H"
	.size	.L.str.45, 4

	.type	.L.str.46,%object               @ @.str.46
.L.str.46:
	.asciz	"  L"
	.size	.L.str.46, 4

	.type	.L.str.47,%object               @ @.str.47
.L.str.47:
	.asciz	"{\n"
	.size	.L.str.47, 3

	.type	.L.str.48,%object               @ @.str.48
.L.str.48:
	.asciz	"vi:{\n"
	.size	.L.str.48, 6

	.type	.L.str.49,%object               @ @.str.49
.L.str.49:
	.asciz	"},\n"
	.size	.L.str.49, 4

	.type	.L.str.50,%object               @ @.str.50
.L.str.50:
	.asciz	"vo:{\n"
	.size	.L.str.50, 6

	.type	.L.str.51,%object               @ @.str.51
.L.str.51:
	.asciz	"vo_fdbk:{\n"
	.size	.L.str.51, 11

	.type	.L.str.52,%object               @ @.str.52
.L.str.52:
	.asciz	"nvo:{\n"
	.size	.L.str.52, 7

	.type	.L.str.53,%object               @ @.str.53
.L.str.53:
	.asciz	"lo:{\n"
	.size	.L.str.53, 6

	.type	.L.str.54,%object               @ @.str.54
.L.str.54:
	.asciz	"oe_vi:{\n"
	.size	.L.str.54, 9

	.type	.L.str.55,%object               @ @.str.55
.L.str.55:
	.asciz	"oe_lo:{\n"
	.size	.L.str.55, 9

	.type	.L.str.56,%object               @ @.str.56
.L.str.56:
	.asciz	"oe_vo:{\n"
	.size	.L.str.56, 9

	.type	.L.str.57,%object               @ @.str.57
.L.str.57:
	.asciz	"card_status:{\n"
	.size	.L.str.57, 15

	.type	.L.str.58,%object               @ @.str.58
.L.str.58:
	.asciz	"IC1:%d,\n"
	.size	.L.str.58, 9

	.type	.L.str.59,%object               @ @.str.59
.L.str.59:
	.asciz	"IC2:%d,\n"
	.size	.L.str.59, 9

	.type	.L.str.60,%object               @ @.str.60
.L.str.60:
	.asciz	"IC3:%d,\n"
	.size	.L.str.60, 9

	.type	.L.str.61,%object               @ @.str.61
.L.str.61:
	.asciz	"OC:%d,\n"
	.size	.L.str.61, 8

	.type	.L.str.62,%object               @ @.str.62
.L.str.62:
	.asciz	"NVC:%d,\n"
	.size	.L.str.62, 9

	.type	.L.str.63,%object               @ @.str.63
.L.str.63:
	.asciz	"COM:{\n"
	.size	.L.str.63, 7

	.type	.L.str.64,%object               @ @.str.64
.L.str.64:
	.asciz	"1:%d,\n"
	.size	.L.str.64, 7

	.type	.L.str.65,%object               @ @.str.65
.L.str.65:
	.asciz	"2:%d\n"
	.size	.L.str.65, 6

	.type	.L.str.66,%object               @ @.str.66
.L.str.66:
	.asciz	"stored_chksum:{\n"
	.size	.L.str.66, 17

	.type	.L.str.67,%object               @ @.str.67
.L.str.67:
	.asciz	"CPU%d: 0x"
	.size	.L.str.67, 10

	.type	.L.str.68,%object               @ @.str.68
.L.str.68:
	.asciz	",\n"
	.size	.L.str.68, 3

	.type	.L.str.69,%object               @ @.str.69
.L.str.69:
	.asciz	"CPU0: 0x"
	.size	.L.str.69, 9

	.type	.L.str.70,%object               @ @.str.70
.L.str.70:
	.asciz	"%02x,\n"
	.size	.L.str.70, 7

	.type	.L.str.71,%object               @ @.str.71
.L.str.71:
	.asciz	"last_chksum:{\n"
	.size	.L.str.71, 15

	.type	.L.str.72,%object               @ @.str.72
.L.str.72:
	.asciz	"CPU0:0x"
	.size	.L.str.72, 8

	.type	.L.str.73,%object               @ @.str.73
.L.str.73:
	.asciz	"}\n"
	.size	.L.str.73, 3

	.type	.L.str.74,%object               @ @.str.74
.L.str.74:
	.asciz	"F:{\n"
	.size	.L.str.74, 5

	.type	.L.str.75,%object               @ @.str.75
.L.str.75:
	.asciz	"C%d:{\n"
	.size	.L.str.75, 7

	.type	.L.str.76,%object               @ @.str.76
.L.str.76:
	.asciz	"%d:%d,\n"
	.size	.L.str.76, 8

	.type	.L.str.77,%object               @ @.str.77
.L.str.77:
	.asciz	"%s},\n"
	.size	.L.str.77, 6

	.type	.L.str.78,%object               @ @.str.78
.L.str.78:
	.asciz	"local"
	.size	.L.str.78, 6

	.type	.L.str.79,%object               @ @.str.79
.L.str.79:
	.asciz	"Station ID should be 1-16 characters\r\n"
	.size	.L.str.79, 39

	.type	.L.str.80,%object               @ @.str.80
.L.str.80:
	.asciz	"remote"
	.size	.L.str.80, 7

	.type	.L.str.81,%object               @ @.str.81
.L.str.81:
	.asciz	"Invalid Parameter\r\n"
	.size	.L.str.81, 20

	.type	.L.str.82,%object               @ @.str.82
.L.str.82:
	.asciz	"DOUBLE_LINE\r\n"
	.size	.L.str.82, 14

	.type	.L.str.83,%object               @ @.str.83
.L.str.83:
	.asciz	"SINGLE_LINE\r\n"
	.size	.L.str.83, 14

	.type	.L.str.84,%object               @ @.str.84
.L.str.84:
	.asciz	"MUX\r\n"
	.size	.L.str.84, 6

	.type	.L.str.85,%object               @ @.str.85
.L.str.85:
	.asciz	"INVALID MODE\r\n"
	.size	.L.str.85, 15

	.type	.L.str.86,%object               @ @.str.86
.L.str.86:
	.asciz	"Unit Address should be 1-4 characters\r\n"
	.size	.L.str.86, 40

	.type	.L__const.cli_settime.str,%object @ @__const.cli_settime.str
.L__const.cli_settime.str:
	.asciz	"SETTIME "
	.size	.L__const.cli_settime.str, 9

	.type	.L.str.87,%object               @ @.str.87
.L.str.87:
	.asciz	"Time format error"
	.size	.L.str.87, 18

	.type	.L.str.88,%object               @ @.str.88
.L.str.88:
	.asciz	"%02d:"
	.size	.L.str.88, 6

	.type	.L.str.89,%object               @ @.str.89
.L.str.89:
	.asciz	"%02d"
	.size	.L.str.89, 5

	.type	.L__const.cli_setdate.str,%object @ @__const.cli_setdate.str
.L__const.cli_setdate.str:
	.asciz	"SETDATE "
	.size	.L__const.cli_setdate.str, 9

	.type	.L.str.90,%object               @ @.str.90
.L.str.90:
	.asciz	"Date format error"
	.size	.L.str.90, 18

	.type	.L.str.91,%object               @ @.str.91
.L.str.91:
	.asciz	"%02d/%02d/%02d %02d:%02d:%02d"
	.size	.L.str.91, 30

	.type	.L.str.92,%object               @ @.str.92
.L.str.92:
	.asciz	"cpu0"
	.size	.L.str.92, 5

	.type	.L.str.93,%object               @ @.str.93
.L.str.93:
	.asciz	"cpu1"
	.size	.L.str.93, 5

	.type	.L.str.94,%object               @ @.str.94
.L.str.94:
	.asciz	"cpu2"
	.size	.L.str.94, 5

	.type	.L.str.95,%object               @ @.str.95
.L.str.95:
	.asciz	"cpu3"
	.size	.L.str.95, 5

	.type	.L.str.96,%object               @ @.str.96
.L.str.96:
	.asciz	"should be cpu0|cpu123"
	.size	.L.str.96, 22

	.type	.L.str.97,%object               @ @.str.97
.L.str.97:
	.asciz	"\r\nVO FEEDBACK\r\n"
	.size	.L.str.97, 16

	.type	.L.str.98,%object               @ @.str.98
.L.str.98:
	.asciz	" %02x"
	.size	.L.str.98, 6

	.type	.L.str.99,%object               @ @.str.99
.L.str.99:
	.asciz	"\r\nSWITCH SETTINGS\r\n"
	.size	.L.str.99, 20

	.type	.L.str.100,%object              @ @.str.100
.L.str.100:
	.asciz	" -- ASCR FDBK: %d\r\n"
	.size	.L.str.100, 20

	.type	.L.str.101,%object              @ @.str.101
.L.str.101:
	.asciz	" -- TGTR_P FDBK: %d\r\n"
	.size	.L.str.101, 22

	.type	.L.str.102,%object              @ @.str.102
.L.str.102:
	.asciz	" -- TGTR_D FDBK: %d\r\n"
	.size	.L.str.102, 22

	.type	.L.str.103,%object              @ @.str.103
.L.str.103:
	.asciz	" -- TCFR_P FDBK: %d\r\n"
	.size	.L.str.103, 22

	.type	.L.str.104,%object              @ @.str.104
.L.str.104:
	.asciz	" -- TCFR_D FDBK: %d\r\n"
	.size	.L.str.104, 22

	.type	.L.str.105,%object              @ @.str.105
.L.str.105:
	.asciz	" -- IC1 Present :%c\r\n"
	.size	.L.str.105, 22

	.type	.L.str.106,%object              @ @.str.106
.L.str.106:
	.asciz	" -- IC2 Present :%c\r\n"
	.size	.L.str.106, 22

	.type	.L.str.107,%object              @ @.str.107
.L.str.107:
	.asciz	" -- IC3 Present :%c\r\n"
	.size	.L.str.107, 22

	.type	.L.str.108,%object              @ @.str.108
.L.str.108:
	.asciz	" -- OC  Present :%c\r\n"
	.size	.L.str.108, 22

	.type	.L.str.109,%object              @ @.str.109
.L.str.109:
	.asciz	" -- NVC Present :%c\r\n"
	.size	.L.str.109, 22

	.type	.L.str.110,%object              @ @.str.110
.L.str.110:
	.asciz	" -- INTERLOCK :%d\r\n"
	.size	.L.str.110, 20

	.type	.L.str.111,%object              @ @.str.111
.L.str.111:
	.asciz	" -- RemoteID  :0x%02x\r\n"
	.size	.L.str.111, 24

	.type	.L.str.112,%object              @ @.str.112
.L.str.112:
	.asciz	" -- LocalID   :0x%02x\r\n"
	.size	.L.str.112, 24

	.type	.L.str.113,%object              @ @.str.113
.L.str.113:
	.asciz	"COM0:%d"
	.size	.L.str.113, 8

	.type	.L.str.114,%object              @ @.str.114
.L.str.114:
	.asciz	"COM1:%d"
	.size	.L.str.114, 8

	.type	.L.str.115,%object              @ @.str.115
.L.str.115:
	.asciz	"HANG:%d"
	.size	.L.str.115, 8

	.type	.L.str.116,%object              @ @.str.116
.L.str.116:
	.asciz	"INTERLOCK:%d"
	.size	.L.str.116, 13

	.type	.L.str.117,%object              @ @.str.117
.L.str.117:
	.asciz	"FLASH_CHECK:%d"
	.size	.L.str.117, 15

	.type	.L.str.118,%object              @ @.str.118
.L.str.118:
	.asciz	"FAIL:%d"
	.size	.L.str.118, 8

	.type	.L.str.119,%object              @ @.str.119
.L.str.119:
	.asciz	"OK:%d\r\n"
	.size	.L.str.119, 8

	.type	.L.str.120,%object              @ @.str.120
.L.str.120:
	.asciz	"CHECKSUM COUNT : %d\r\n"
	.size	.L.str.120, 22

	.type	.L.str.121,%object              @ @.str.121
.L.str.121:
	.asciz	"MISMATCH COUNT : %d\r\n"
	.size	.L.str.121, 22

	.type	.L.str.122,%object              @ @.str.122
.L.str.122:
	.asciz	"INCOM PKT COUNT : %d\r\n"
	.size	.L.str.122, 23

	.section	".note.GNU-stack","",%progbits
	.eabi_attribute	30, 6	@ Tag_ABI_optimization_goals
	.ARM_attribute	16, 1	@ Tag_AV_eba