	.text
	.syntax unified
	.eabi_attribute	67, "2.09"	@ Tag_conformance
	.cpu	cortex-m23
	.eabi_attribute	6, 16	@ Tag_CPU_arch
	.eabi_attribute	7, 77	@ Tag_CPU_arch_profile
	.eabi_attribute	8, 0	@ Tag_ARM_ISA_use
	.eabi_attribute	9, 3	@ Tag_THUMB_ISA_use
	.eabi_attribute	34, 0	@ Tag_CPU_unaligned_access
	.eabi_attribute	17, 1	@ Tag_ABI_PCS_GOT_use
	.eabi_attribute	20, 2	@ Tag_ABI_FP_denormal
	.eabi_attribute	21, 0	@ Tag_ABI_FP_exceptions
	.eabi_attribute	23, 1	@ Tag_ABI_FP_number_model
	.eabi_attribute	24, 1	@ Tag_ABI_align_needed
	.eabi_attribute	25, 1	@ Tag_ABI_align_preserved
	.eabi_attribute	38, 1	@ Tag_ABI_FP_16bit_format
	.eabi_attribute	18, 4	@ Tag_ABI_PCS_wchar_t
	.eabi_attribute	26, 2	@ Tag_ABI_enum_size
	.eabi_attribute	14, 0	@ Tag_ABI_PCS_R9_use
	.file	"drvr_iic.c"
	.file	1 "D:\\work\\dheeraj\\local\\CEL\\CCC\\CCC_CPU0\\Code" "../../CCC_common/Library/Device/Nuvoton/M261/Include\\M261.h"
	.file	2 "C:\\Users\\Anaya\\AppData\\Local\\Keil_v5\\ARM\\ARMCLANG\\bin\\..\\include" "stdint.h"
	.file	3 "D:\\work\\dheeraj\\local\\CEL\\CCC\\CCC_CPU0\\Code" "../../CCC_common/Library/Device/Nuvoton/M261/Include\\sys_reg.h"
	.file	4 "D:\\work\\dheeraj\\local\\CEL\\CCC\\CCC_CPU0\\Code" "source/driver/include\\drvr_iic.h"
	.file	5 "D:\\work\\dheeraj\\local\\CEL\\CCC\\CCC_CPU0\\Code" "../../CCC_common/Library/Device/Nuvoton/M261/Include\\i2c_reg.h"
	.file	6 "D:\\work\\dheeraj\\local\\CEL\\CCC\\CCC_CPU0\\Code" "../../CCC_common/Library/CMSIS/Include\\core_armv8mbl.h"
	.section	.text.i2c_ctor,"ax",%progbits
	.hidden	i2c_ctor                        @ -- Begin function i2c_ctor
	.globl	i2c_ctor
	.p2align	2
	.type	i2c_ctor,%function
	.code	16                              @ @i2c_ctor
	.thumb_func
i2c_ctor:
.Lfunc_begin0:
	.file	7 "D:\\work\\dheeraj\\local\\CEL\\CCC\\CCC_CPU0\\Code" "source/driver/drvr_iic.c"
	.loc	7 11 0                          @ source/driver/drvr_iic.c:11:0
	.fnstart
	.cfi_sections .debug_frame
	.cfi_startproc
@ %bb.0:
	.save	{r7, lr}
	push	{r7, lr}
	.cfi_def_cfa_offset 8
	.cfi_offset lr, -4
	.cfi_offset r7, -8
	.pad	#8
	sub	sp, #8
	.cfi_def_cfa_offset 16
	str	r0, [sp, #4]
	ldr	r0, __arm_cp.0_0
.Ltmp0:
	.loc	7 13 2 prologue_end             @ source/driver/drvr_iic.c:13:2
	bl	CLK_EnableModuleClock
	ldr	r1, __arm_cp.0_1
	.loc	7 15 16                         @ source/driver/drvr_iic.c:15:16
	ldr	r0, [r1]
	movs	r2, #255
	lsls	r2, r2, #16
	bics	r0, r2
	str	r0, [r1]
	.loc	7 16 16                         @ source/driver/drvr_iic.c:16:16
	ldr	r0, [r1]
	movs	r2, #51
	lsls	r2, r2, #17
	orrs	r0, r2
	str	r0, [r1]
	.loc	7 18 11                         @ source/driver/drvr_iic.c:18:11
	ldr	r0, [sp, #4]
	.loc	7 18 16 is_stmt 0               @ source/driver/drvr_iic.c:18:16
	ldr	r0, [r0, #4]
	ldr	r1, __arm_cp.0_2
	.loc	7 18 2                          @ source/driver/drvr_iic.c:18:2
	bl	I2C_Open
	.loc	7 20 16 is_stmt 1               @ source/driver/drvr_iic.c:20:16
	ldr	r0, [sp, #4]
	.loc	7 20 21 is_stmt 0               @ source/driver/drvr_iic.c:20:21
	ldr	r0, [r0, #4]
	.loc	7 20 2                          @ source/driver/drvr_iic.c:20:2
	bl	I2C_EnableInt
	movs	r0, #38
	.loc	7 21 2 is_stmt 1                @ source/driver/drvr_iic.c:21:2
	bl	__NVIC_EnableIRQ
	.loc	7 22 23                         @ source/driver/drvr_iic.c:22:23
	ldr	r0, [sp, #4]
	.loc	7 22 28 is_stmt 0               @ source/driver/drvr_iic.c:22:28
	ldr	r0, [r0, #4]
	movs	r1, #0
	.loc	7 22 5                          @ source/driver/drvr_iic.c:22:5
	bl	I2C_EnableTimeout
	.loc	7 24 1 epilogue_begin is_stmt 1 @ source/driver/drvr_iic.c:24:1
	add	sp, #8
	pop	{r7, pc}
.Ltmp1:
	.loc	7 0 1 is_stmt 0                 @ :0:1
.Ltmp2:
	.p2align	2
@ %bb.1:
__arm_cp.0_0:
	.long	1073741832                      @ 0x40000008
.Lcpi_end0:
	.size	__arm_cp.0_0, .Lcpi_end0-__arm_cp.0_0
__arm_cp.0_1:
	.long	1073741880                      @ 0x40000038
.Lcpi_end1:
	.size	__arm_cp.0_1, .Lcpi_end1-__arm_cp.0_1
__arm_cp.0_2:
	.long	100000                          @ 0x186a0
.Lcpi_end2:
	.size	__arm_cp.0_2, .Lcpi_end2-__arm_cp.0_2
.Lfunc_end0:
	.size	i2c_ctor, .Lfunc_end0-i2c_ctor
	.cfi_endproc
	.cantunwind
	.fnend
                                        @ -- End function
	.section	.text.__NVIC_EnableIRQ,"ax",%progbits
	.p2align	2                               @ -- Begin function __NVIC_EnableIRQ
	.type	__NVIC_EnableIRQ,%function
	.code	16                              @ @__NVIC_EnableIRQ
	.thumb_func
__NVIC_EnableIRQ:
.Lfunc_begin1:
	.loc	6 1276 0 is_stmt 1              @ ../../CCC_common/Library/CMSIS/Include\core_armv8mbl.h:1276:0
	.fnstart
	.cfi_startproc
@ %bb.0:
	.pad	#4
	sub	sp, #4
	.cfi_def_cfa_offset 4
	str	r0, [sp]
.Ltmp3:
	.loc	6 1277 17 prologue_end          @ ../../CCC_common/Library/CMSIS/Include\core_armv8mbl.h:1277:17
	ldr	r0, [sp]
.Ltmp4:
	.loc	6 1277 7 is_stmt 0              @ ../../CCC_common/Library/CMSIS/Include\core_armv8mbl.h:1277:7
	cmp	r0, #0
	bmi	.LBB1_2
	b	.LBB1_1
.LBB1_1:
.Ltmp5:
	.loc	6 1279 93 is_stmt 1             @ ../../CCC_common/Library/CMSIS/Include\core_armv8mbl.h:1279:93
	ldr	r1, [sp]
	movs	r0, #31
	.loc	6 1279 99 is_stmt 0             @ ../../CCC_common/Library/CMSIS/Include\core_armv8mbl.h:1279:99
	mov	r2, r1
	ands	r2, r0
	movs	r0, #1
	.loc	6 1279 69                       @ ../../CCC_common/Library/CMSIS/Include\core_armv8mbl.h:1279:69
	lsls	r0, r2
	.loc	6 1279 5                        @ ../../CCC_common/Library/CMSIS/Include\core_armv8mbl.h:1279:5
	lsrs	r1, r1, #5
	lsls	r1, r1, #2
	ldr	r2, __arm_cp.1_0
	.loc	6 1279 52                       @ ../../CCC_common/Library/CMSIS/Include\core_armv8mbl.h:1279:52
	str	r0, [r1, r2]
	.loc	6 1280 3 is_stmt 1              @ ../../CCC_common/Library/CMSIS/Include\core_armv8mbl.h:1280:3
	b	.LBB1_2
.Ltmp6:
.LBB1_2:
	.loc	6 1281 1 epilogue_begin         @ ../../CCC_common/Library/CMSIS/Include\core_armv8mbl.h:1281:1
	add	sp, #4
	bx	lr
.Ltmp7:
	.loc	6 0 1 is_stmt 0                 @ :0:1
.Ltmp8:
	.p2align	2
@ %bb.3:
__arm_cp.1_0:
	.long	3758153984                      @ 0xe000e100
.Lcpi_end3:
	.size	__arm_cp.1_0, .Lcpi_end3-__arm_cp.1_0
.Lfunc_end1:
	.size	__NVIC_EnableIRQ, .Lfunc_end1-__NVIC_EnableIRQ
	.cfi_endproc
	.cantunwind
	.fnend
                                        @ -- End function
	.section	.text.i2c_write,"ax",%progbits
	.hidden	i2c_write                       @ -- Begin function i2c_write
	.globl	i2c_write
	.p2align	2
	.type	i2c_write,%function
	.code	16                              @ @i2c_write
	.thumb_func
i2c_write:
.Lfunc_begin2:
	.loc	7 26 0 is_stmt 1                @ source/driver/drvr_iic.c:26:0
	.fnstart
	.cfi_startproc
@ %bb.0:
	.pad	#16
	sub	sp, #16
	.cfi_def_cfa_offset 16
                                        @ kill: def $r3 killed $r2
	str	r0, [sp, #8]
	str	r1, [sp, #4]
	mov	r0, sp
	strh	r2, [r0]
.Ltmp9:
	.loc	7 27 5 prologue_end             @ source/driver/drvr_iic.c:27:5
	ldr	r0, [sp, #8]
	.loc	7 27 10 is_stmt 0               @ source/driver/drvr_iic.c:27:10
	ldrb	r0, [r0]
.Ltmp10:
	.loc	7 27 5                          @ source/driver/drvr_iic.c:27:5
	cbz	r0, .LBB2_2
	b	.LBB2_1
.LBB2_1:
	.loc	7 0 5                           @ source/driver/drvr_iic.c:0:5
	add	r1, sp, #12
	movs	r0, #1
.Ltmp11:
	.loc	7 27 19                         @ source/driver/drvr_iic.c:27:19
	strb	r0, [r1]
	b	.LBB2_3
.Ltmp12:
.LBB2_2:
	.loc	7 28 19 is_stmt 1               @ source/driver/drvr_iic.c:28:19
	ldr	r1, __arm_cp.2_0
	movs	r0, #0
	str	r0, [r1]
	.loc	7 29 17                         @ source/driver/drvr_iic.c:29:17
	ldr	r1, __arm_cp.2_1
	ldr	r1, [r1]
	.loc	7 29 2 is_stmt 0                @ source/driver/drvr_iic.c:29:2
	ldr	r2, [sp, #8]
	.loc	7 29 15                         @ source/driver/drvr_iic.c:29:15
	str	r1, [r2, #28]
	.loc	7 30 2 is_stmt 1                @ source/driver/drvr_iic.c:30:2
	ldr	r2, [sp, #8]
	movs	r1, #1
	.loc	7 30 15 is_stmt 0               @ source/driver/drvr_iic.c:30:15
	strb	r1, [r2]
	.loc	7 31 2 is_stmt 1                @ source/driver/drvr_iic.c:31:2
	ldr	r2, [sp, #8]
	.loc	7 31 12 is_stmt 0               @ source/driver/drvr_iic.c:31:12
	strb	r1, [r2, #26]
	.loc	7 32 2 is_stmt 1                @ source/driver/drvr_iic.c:32:2
	ldr	r1, [sp, #8]
	movs	r2, #32
	.loc	7 32 12 is_stmt 0               @ source/driver/drvr_iic.c:32:12
	strb	r0, [r1, r2]
	.loc	7 33 17 is_stmt 1               @ source/driver/drvr_iic.c:33:17
	ldr	r1, [sp, #4]
	.loc	7 33 2 is_stmt 0                @ source/driver/drvr_iic.c:33:2
	ldr	r2, [sp, #8]
	.loc	7 33 15                         @ source/driver/drvr_iic.c:33:15
	str	r1, [r2, #12]
	.loc	7 34 19 is_stmt 1               @ source/driver/drvr_iic.c:34:19
	ldr	r1, [sp]
	.loc	7 34 2 is_stmt 0                @ source/driver/drvr_iic.c:34:2
	ldr	r2, [sp, #8]
	.loc	7 34 17                         @ source/driver/drvr_iic.c:34:17
	strh	r1, [r2, #16]
	.loc	7 35 2 is_stmt 1                @ source/driver/drvr_iic.c:35:2
	ldr	r1, [sp, #8]
	.loc	7 35 15 is_stmt 0               @ source/driver/drvr_iic.c:35:15
	str	r0, [r1, #20]
	.loc	7 36 2 is_stmt 1                @ source/driver/drvr_iic.c:36:2
	ldr	r1, [sp, #8]
	.loc	7 36 17 is_stmt 0               @ source/driver/drvr_iic.c:36:17
	strh	r0, [r1, #24]
	.loc	7 37 18 is_stmt 1               @ source/driver/drvr_iic.c:37:18
	ldr	r2, __arm_cp.2_2
	ldr	r1, __arm_cp.2_3
	str	r1, [r2]
	.loc	7 39 2                          @ source/driver/drvr_iic.c:39:2
	ldr	r1, [sp, #8]
	ldr	r1, [r1, #4]
	ldr	r1, [r1]
	movs	r2, #40
	orrs	r1, r2
	ldr	r2, [sp, #8]
	ldr	r2, [r2, #4]
	str	r1, [r2]
	add	r1, sp, #12
	.loc	7 40 2                          @ source/driver/drvr_iic.c:40:2
	strb	r0, [r1]
	b	.LBB2_3
.LBB2_3:
	.loc	7 0 2 is_stmt 0                 @ source/driver/drvr_iic.c:0:2
	add	r0, sp, #12
	.loc	7 41 1 is_stmt 1                @ source/driver/drvr_iic.c:41:1
	ldrb	r0, [r0]
	.loc	7 41 1 epilogue_begin is_stmt 0 @ source/driver/drvr_iic.c:41:1
	add	sp, #16
	bx	lr
.Ltmp13:
	.loc	7 0 1                           @ :0:1
.Ltmp14:
	.p2align	2
@ %bb.4:
__arm_cp.2_0:
	.long	g_I2C_i32ErrCode
.Lcpi_end4:
	.size	__arm_cp.2_0, .Lcpi_end4-__arm_cp.2_0
__arm_cp.2_1:
	.long	SystemCoreClock
.Lcpi_end5:
	.size	__arm_cp.2_1, .Lcpi_end5-__arm_cp.2_1
__arm_cp.2_2:
	.long	s_I2C0HandlerFn
.Lcpi_end6:
	.size	__arm_cp.2_2, .Lcpi_end6-__arm_cp.2_2
__arm_cp.2_3:
	.long	i2c_isr_write
.Lcpi_end7:
	.size	__arm_cp.2_3, .Lcpi_end7-__arm_cp.2_3
.Lfunc_end2:
	.size	i2c_write, .Lfunc_end2-i2c_write
	.cfi_endproc
	.cantunwind
	.fnend
                                        @ -- End function
	.section	.text.i2c_isr_write,"ax",%progbits
	.p2align	2                               @ -- Begin function i2c_isr_write
	.type	i2c_isr_write,%function
	.code	16                              @ @i2c_isr_write
	.thumb_func
i2c_isr_write:
.Lfunc_begin3:
	.loc	7 78 0 is_stmt 1                @ source/driver/drvr_iic.c:78:0
	.fnstart
	.cfi_startproc
@ %bb.0:
	.pad	#12
	sub	sp, #12
	.cfi_def_cfa_offset 12
	str	r0, [sp, #8]
	str	r1, [sp, #4]
.Ltmp15:
	.loc	7 79 9 prologue_end             @ source/driver/drvr_iic.c:79:9
	ldr	r0, [sp, #4]
	.loc	7 79 2 is_stmt 0                @ source/driver/drvr_iic.c:79:2
	subs	r0, #8
	str	r0, [sp]                        @ 4-byte Spill
	cmp	r0, #48
	bls	.LBB3_1
	b	.LBB3_10
.LBB3_1:
	ldr	r1, [sp]                        @ 4-byte Reload
	lsls	r2, r1, #2
	adr	r0, .LJTI3_0
	adds	r0, r0, r2
	mov	pc, r0
@ %bb.2:
	.loc	7 0 2                           @ source/driver/drvr_iic.c:0:2
	.p2align	2
.LJTI3_0:
	b.w	.LBB3_3
	b.w	.LBB3_10
	b.w	.LBB3_10
	b.w	.LBB3_10
	b.w	.LBB3_10
	b.w	.LBB3_10
	b.w	.LBB3_10
	b.w	.LBB3_10
	b.w	.LBB3_10
	b.w	.LBB3_10
	b.w	.LBB3_10
	b.w	.LBB3_10
	b.w	.LBB3_10
	b.w	.LBB3_10
	b.w	.LBB3_10
	b.w	.LBB3_10
	b.w	.LBB3_4
	b.w	.LBB3_10
	b.w	.LBB3_10
	b.w	.LBB3_10
	b.w	.LBB3_10
	b.w	.LBB3_10
	b.w	.LBB3_10
	b.w	.LBB3_10
	b.w	.LBB3_8
	b.w	.LBB3_10
	b.w	.LBB3_10
	b.w	.LBB3_10
	b.w	.LBB3_10
	b.w	.LBB3_10
	b.w	.LBB3_10
	b.w	.LBB3_10
	b.w	.LBB3_4
	b.w	.LBB3_10
	b.w	.LBB3_10
	b.w	.LBB3_10
	b.w	.LBB3_10
	b.w	.LBB3_10
	b.w	.LBB3_10
	b.w	.LBB3_10
	b.w	.LBB3_8
	b.w	.LBB3_10
	b.w	.LBB3_10
	b.w	.LBB3_10
	b.w	.LBB3_10
	b.w	.LBB3_10
	b.w	.LBB3_10
	b.w	.LBB3_10
	b.w	.LBB3_9
.LBB3_3:
.Ltmp16:
	.loc	7 82 4 is_stmt 1                @ source/driver/drvr_iic.c:82:4
	ldr	r1, [sp, #8]
	ldrb	r0, [r1, #8]
	lsls	r0, r0, #1
	uxtb	r0, r0
	ldr	r1, [r1, #4]
	str	r0, [r1, #8]
	.loc	7 83 4                          @ source/driver/drvr_iic.c:83:4
	ldr	r0, [sp, #8]
	ldr	r0, [r0, #4]
	ldr	r0, [r0]
	movs	r1, #8
	orrs	r0, r1
	movs	r1, #52
	bics	r0, r1
	ldr	r1, [sp, #8]
	ldr	r1, [r1, #4]
	str	r0, [r1]
	.loc	7 84 4                          @ source/driver/drvr_iic.c:84:4
	b	.LBB3_11
.LBB3_4:
.Ltmp17:
	.loc	7 87 7                          @ source/driver/drvr_iic.c:87:7
	ldr	r0, [sp, #8]
	.loc	7 87 12 is_stmt 0               @ source/driver/drvr_iic.c:87:12
	ldrh	r0, [r0, #16]
.Ltmp18:
	.loc	7 87 7                          @ source/driver/drvr_iic.c:87:7
	cbz	r0, .LBB3_6
	b	.LBB3_5
.LBB3_5:
.Ltmp19:
	.loc	7 88 5 is_stmt 1                @ source/driver/drvr_iic.c:88:5
	ldr	r1, [sp, #8]
	ldr	r0, [r1, #12]
	movs	r2, #32
	ldrb	r3, [r1, r2]
	ldrb	r0, [r0, r3]
	ldr	r1, [r1, #4]
	str	r0, [r1, #8]
	.loc	7 89 5                          @ source/driver/drvr_iic.c:89:5
	ldr	r1, [sp, #8]
	.loc	7 89 19 is_stmt 0               @ source/driver/drvr_iic.c:89:19
	ldrh	r0, [r1, #16]
	subs	r0, r0, #1
	strh	r0, [r1, #16]
	.loc	7 90 5 is_stmt 1                @ source/driver/drvr_iic.c:90:5
	ldr	r1, [sp, #8]
	.loc	7 90 14 is_stmt 0               @ source/driver/drvr_iic.c:90:14
	ldrb	r0, [r1, r2]
	adds	r0, r0, #1
	strb	r0, [r1, r2]
	.loc	7 91 5 is_stmt 1                @ source/driver/drvr_iic.c:91:5
	ldr	r0, [sp, #8]
	ldr	r0, [r0, #4]
	ldr	r0, [r0]
	movs	r1, #8
	orrs	r0, r1
	movs	r1, #52
	bics	r0, r1
	ldr	r1, [sp, #8]
	ldr	r1, [r1, #4]
	str	r0, [r1]
	.loc	7 92 4                          @ source/driver/drvr_iic.c:92:4
	b	.LBB3_7
.Ltmp20:
.LBB3_6:
	.loc	7 94 5                          @ source/driver/drvr_iic.c:94:5
	ldr	r1, [sp, #8]
	movs	r0, #0
	.loc	7 94 18 is_stmt 0               @ source/driver/drvr_iic.c:94:18
	strb	r0, [r1]
	.loc	7 95 5 is_stmt 1                @ source/driver/drvr_iic.c:95:5
	ldr	r1, [sp, #8]
	.loc	7 95 17 is_stmt 0               @ source/driver/drvr_iic.c:95:17
	strb	r0, [r1, #1]
	.loc	7 96 5 is_stmt 1                @ source/driver/drvr_iic.c:96:5
	ldr	r0, [sp, #8]
	ldr	r0, [r0, #4]
	ldr	r0, [r0]
	movs	r1, #24
	orrs	r0, r1
	movs	r1, #36
	bics	r0, r1
	ldr	r1, [sp, #8]
	ldr	r1, [r1, #4]
	str	r0, [r1]
	b	.LBB3_7
.Ltmp21:
.LBB3_7:
	.loc	7 98 4                          @ source/driver/drvr_iic.c:98:4
	b	.LBB3_11
.LBB3_8:
	.loc	7 101 4                         @ source/driver/drvr_iic.c:101:4
	ldr	r0, [sp, #8]
	ldr	r0, [r0, #4]
	ldr	r0, [r0]
	movs	r1, #24
	orrs	r0, r1
	movs	r1, #36
	bics	r0, r1
	ldr	r1, [sp, #8]
	ldr	r1, [r1, #4]
	str	r0, [r1]
	.loc	7 102 4                         @ source/driver/drvr_iic.c:102:4
	ldr	r1, [sp, #8]
	movs	r0, #0
	.loc	7 102 17 is_stmt 0              @ source/driver/drvr_iic.c:102:17
	strb	r0, [r1]
	.loc	7 103 4 is_stmt 1               @ source/driver/drvr_iic.c:103:4
	ldr	r1, [sp, #8]
	movs	r0, #1
	.loc	7 103 16 is_stmt 0              @ source/driver/drvr_iic.c:103:16
	strb	r0, [r1, #1]
	.loc	7 104 4 is_stmt 1               @ source/driver/drvr_iic.c:104:4
	b	.LBB3_11
.LBB3_9:
	.loc	7 105 3                         @ source/driver/drvr_iic.c:105:3
	b	.LBB3_10
.LBB3_10:
	.loc	7 107 4                         @ source/driver/drvr_iic.c:107:4
	ldr	r0, [sp, #8]
	ldr	r0, [r0, #4]
	ldr	r0, [r0]
	movs	r1, #24
	orrs	r0, r1
	movs	r1, #36
	bics	r0, r1
	ldr	r1, [sp, #8]
	ldr	r1, [r1, #4]
	str	r0, [r1]
	.loc	7 108 4                         @ source/driver/drvr_iic.c:108:4
	ldr	r1, [sp, #8]
	movs	r0, #0
	.loc	7 108 17 is_stmt 0              @ source/driver/drvr_iic.c:108:17
	strb	r0, [r1]
	.loc	7 109 4 is_stmt 1               @ source/driver/drvr_iic.c:109:4
	ldr	r1, [sp, #8]
	movs	r0, #1
	.loc	7 109 16 is_stmt 0              @ source/driver/drvr_iic.c:109:16
	strb	r0, [r1, #1]
	.loc	7 110 4 is_stmt 1               @ source/driver/drvr_iic.c:110:4
	b	.LBB3_11
.Ltmp22:
.LBB3_11:
	.loc	7 112 1 epilogue_begin          @ source/driver/drvr_iic.c:112:1
	add	sp, #12
	bx	lr
.Ltmp23:
.Lfunc_end3:
	.size	i2c_isr_write, .Lfunc_end3-i2c_isr_write
	.cfi_endproc
	.cantunwind
	.fnend
                                        @ -- End function
	.section	.text.i2c_read,"ax",%progbits
	.hidden	i2c_read                        @ -- Begin function i2c_read
	.globl	i2c_read
	.p2align	2
	.type	i2c_read,%function
	.code	16                              @ @i2c_read
	.thumb_func
i2c_read:
.Lfunc_begin4:
	.loc	7 43 0                          @ source/driver/drvr_iic.c:43:0
	.fnstart
	.cfi_startproc
@ %bb.0:
	.pad	#16
	sub	sp, #16
	.cfi_def_cfa_offset 16
                                        @ kill: def $r3 killed $r2
	str	r0, [sp, #8]
	str	r1, [sp, #4]
	mov	r0, sp
	strh	r2, [r0]
.Ltmp24:
	.loc	7 44 5 prologue_end             @ source/driver/drvr_iic.c:44:5
	ldr	r0, [sp, #8]
	.loc	7 44 10 is_stmt 0               @ source/driver/drvr_iic.c:44:10
	ldrb	r0, [r0]
.Ltmp25:
	.loc	7 44 5                          @ source/driver/drvr_iic.c:44:5
	cbz	r0, .LBB4_2
	b	.LBB4_1
.LBB4_1:
	.loc	7 0 5                           @ source/driver/drvr_iic.c:0:5
	add	r1, sp, #12
	movs	r0, #1
.Ltmp26:
	.loc	7 44 19                         @ source/driver/drvr_iic.c:44:19
	strb	r0, [r1]
	b	.LBB4_3
.Ltmp27:
.LBB4_2:
	.loc	7 45 19 is_stmt 1               @ source/driver/drvr_iic.c:45:19
	ldr	r1, __arm_cp.4_0
	movs	r0, #0
	str	r0, [r1]
	.loc	7 46 17                         @ source/driver/drvr_iic.c:46:17
	ldr	r1, __arm_cp.4_1
	ldr	r1, [r1]
	.loc	7 46 2 is_stmt 0                @ source/driver/drvr_iic.c:46:2
	ldr	r2, [sp, #8]
	.loc	7 46 15                         @ source/driver/drvr_iic.c:46:15
	str	r1, [r2, #28]
	.loc	7 47 2 is_stmt 1                @ source/driver/drvr_iic.c:47:2
	ldr	r2, [sp, #8]
	movs	r1, #1
	.loc	7 47 15 is_stmt 0               @ source/driver/drvr_iic.c:47:15
	strb	r1, [r2]
	.loc	7 48 2 is_stmt 1                @ source/driver/drvr_iic.c:48:2
	ldr	r2, [sp, #8]
	movs	r1, #2
	.loc	7 48 12 is_stmt 0               @ source/driver/drvr_iic.c:48:12
	strb	r1, [r2, #26]
	.loc	7 49 2 is_stmt 1                @ source/driver/drvr_iic.c:49:2
	ldr	r1, [sp, #8]
	movs	r2, #32
	.loc	7 49 12 is_stmt 0               @ source/driver/drvr_iic.c:49:12
	strb	r0, [r1, r2]
	.loc	7 50 2 is_stmt 1                @ source/driver/drvr_iic.c:50:2
	ldr	r1, [sp, #8]
	.loc	7 50 15 is_stmt 0               @ source/driver/drvr_iic.c:50:15
	str	r0, [r1, #12]
	.loc	7 51 2 is_stmt 1                @ source/driver/drvr_iic.c:51:2
	ldr	r1, [sp, #8]
	.loc	7 51 17 is_stmt 0               @ source/driver/drvr_iic.c:51:17
	strh	r0, [r1, #16]
	.loc	7 52 17 is_stmt 1               @ source/driver/drvr_iic.c:52:17
	ldr	r1, [sp, #4]
	.loc	7 52 2 is_stmt 0                @ source/driver/drvr_iic.c:52:2
	ldr	r2, [sp, #8]
	.loc	7 52 15                         @ source/driver/drvr_iic.c:52:15
	str	r1, [r2, #20]
	.loc	7 53 19 is_stmt 1               @ source/driver/drvr_iic.c:53:19
	ldr	r1, [sp]
	.loc	7 53 2 is_stmt 0                @ source/driver/drvr_iic.c:53:2
	ldr	r2, [sp, #8]
	.loc	7 53 17                         @ source/driver/drvr_iic.c:53:17
	strh	r1, [r2, #24]
	.loc	7 54 18 is_stmt 1               @ source/driver/drvr_iic.c:54:18
	ldr	r2, __arm_cp.4_2
	ldr	r1, __arm_cp.4_3
	str	r1, [r2]
	.loc	7 56 2                          @ source/driver/drvr_iic.c:56:2
	ldr	r1, [sp, #8]
	ldr	r1, [r1, #4]
	ldr	r1, [r1]
	movs	r2, #40
	orrs	r1, r2
	ldr	r2, [sp, #8]
	ldr	r2, [r2, #4]
	str	r1, [r2]
	add	r1, sp, #12
	.loc	7 57 2                          @ source/driver/drvr_iic.c:57:2
	strb	r0, [r1]
	b	.LBB4_3
.LBB4_3:
	.loc	7 0 2 is_stmt 0                 @ source/driver/drvr_iic.c:0:2
	add	r0, sp, #12
	.loc	7 58 1 is_stmt 1                @ source/driver/drvr_iic.c:58:1
	ldrb	r0, [r0]
	.loc	7 58 1 epilogue_begin is_stmt 0 @ source/driver/drvr_iic.c:58:1
	add	sp, #16
	bx	lr
.Ltmp28:
	.loc	7 0 1                           @ :0:1
.Ltmp29:
	.p2align	2
@ %bb.4:
__arm_cp.4_0:
	.long	g_I2C_i32ErrCode
.Lcpi_end8:
	.size	__arm_cp.4_0, .Lcpi_end8-__arm_cp.4_0
__arm_cp.4_1:
	.long	SystemCoreClock
.Lcpi_end9:
	.size	__arm_cp.4_1, .Lcpi_end9-__arm_cp.4_1
__arm_cp.4_2:
	.long	s_I2C0HandlerFn
.Lcpi_end10:
	.size	__arm_cp.4_2, .Lcpi_end10-__arm_cp.4_2
__arm_cp.4_3:
	.long	i2c_isr_read
.Lcpi_end11:
	.size	__arm_cp.4_3, .Lcpi_end11-__arm_cp.4_3
.Lfunc_end4:
	.size	i2c_read, .Lfunc_end4-i2c_read
	.cfi_endproc
	.cantunwind
	.fnend
                                        @ -- End function
	.section	.text.i2c_isr_read,"ax",%progbits
	.p2align	1                               @ -- Begin function i2c_isr_read
	.type	i2c_isr_read,%function
	.code	16                              @ @i2c_isr_read
	.thumb_func
i2c_isr_read:
.Lfunc_begin5:
	.loc	7 114 0 is_stmt 1               @ source/driver/drvr_iic.c:114:0
	.fnstart
	.cfi_startproc
@ %bb.0:
	.pad	#12
	sub	sp, #12
	.cfi_def_cfa_offset 12
	str	r0, [sp, #8]
	str	r1, [sp, #4]
.Ltmp30:
	.loc	7 115 9 prologue_end            @ source/driver/drvr_iic.c:115:9
	ldr	r0, [sp, #4]
	.loc	7 115 2 is_stmt 0               @ source/driver/drvr_iic.c:115:2
	str	r0, [sp]                        @ 4-byte Spill
	cmp	r0, #8
	beq	.LBB5_6
	b	.LBB5_1
.LBB5_1:
	ldr	r0, [sp]                        @ 4-byte Reload
	cmp	r0, #56
	bne	.LBB5_2
	b	.LBB5_14
.LBB5_2:
	ldr	r0, [sp]                        @ 4-byte Reload
	cmp	r0, #64
	beq	.LBB5_7
	b	.LBB5_3
.LBB5_3:
	ldr	r0, [sp]                        @ 4-byte Reload
	cmp	r0, #72
	beq	.LBB5_8
	b	.LBB5_4
.LBB5_4:
	ldr	r0, [sp]                        @ 4-byte Reload
	cmp	r0, #80
	beq	.LBB5_9
	b	.LBB5_5
.LBB5_5:
	ldr	r0, [sp]                        @ 4-byte Reload
	cmp	r0, #88
	beq	.LBB5_13
	b	.LBB5_15
.LBB5_6:
.Ltmp31:
	.loc	7 118 4 is_stmt 1               @ source/driver/drvr_iic.c:118:4
	ldr	r1, [sp, #8]
	ldrb	r0, [r1, #8]
	lsls	r0, r0, #1
	adds	r0, r0, #1
	uxtb	r0, r0
	ldr	r1, [r1, #4]
	str	r0, [r1, #8]
	.loc	7 119 4                         @ source/driver/drvr_iic.c:119:4
	ldr	r0, [sp, #8]
	ldr	r0, [r0, #4]
	ldr	r0, [r0]
	movs	r1, #8
	orrs	r0, r1
	movs	r1, #52
	bics	r0, r1
	ldr	r1, [sp, #8]
	ldr	r1, [r1, #4]
	str	r0, [r1]
	.loc	7 120 4                         @ source/driver/drvr_iic.c:120:4
	b	.LBB5_16
.LBB5_7:
	.loc	7 122 4                         @ source/driver/drvr_iic.c:122:4
	ldr	r0, [sp, #8]
	ldr	r0, [r0, #4]
	ldr	r0, [r0]
	movs	r1, #12
	orrs	r0, r1
	movs	r1, #48
	bics	r0, r1
	ldr	r1, [sp, #8]
	ldr	r1, [r1, #4]
	str	r0, [r1]
	.loc	7 123 4                         @ source/driver/drvr_iic.c:123:4
	b	.LBB5_16
.LBB5_8:
	.loc	7 125 4                         @ source/driver/drvr_iic.c:125:4
	ldr	r0, [sp, #8]
	ldr	r0, [r0, #4]
	ldr	r0, [r0]
	movs	r1, #24
	orrs	r0, r1
	movs	r1, #36
	bics	r0, r1
	ldr	r1, [sp, #8]
	ldr	r1, [r1, #4]
	str	r0, [r1]
	.loc	7 126 4                         @ source/driver/drvr_iic.c:126:4
	ldr	r1, [sp, #8]
	movs	r0, #1
	.loc	7 126 16 is_stmt 0              @ source/driver/drvr_iic.c:126:16
	strb	r0, [r1, #1]
	.loc	7 127 4 is_stmt 1               @ source/driver/drvr_iic.c:127:4
	ldr	r1, [sp, #8]
	movs	r0, #0
	.loc	7 127 17 is_stmt 0              @ source/driver/drvr_iic.c:127:17
	strb	r0, [r1]
	.loc	7 128 4 is_stmt 1               @ source/driver/drvr_iic.c:128:4
	b	.LBB5_16
.LBB5_9:
	.loc	7 130 46                        @ source/driver/drvr_iic.c:130:46
	ldr	r0, [sp, #8]
	ldr	r0, [r0, #4]
	ldr	r0, [r0, #8]
	.loc	7 130 4 is_stmt 0               @ source/driver/drvr_iic.c:130:4
	ldr	r3, [sp, #8]
	.loc	7 130 9                         @ source/driver/drvr_iic.c:130:9
	ldr	r1, [r3, #20]
	movs	r2, #32
	.loc	7 130 22                        @ source/driver/drvr_iic.c:130:22
	ldrb	r3, [r3, r2]
	.loc	7 130 28                        @ source/driver/drvr_iic.c:130:28
	strb	r0, [r1, r3]
	.loc	7 131 4 is_stmt 1               @ source/driver/drvr_iic.c:131:4
	ldr	r1, [sp, #8]
	.loc	7 131 18 is_stmt 0              @ source/driver/drvr_iic.c:131:18
	ldrh	r0, [r1, #24]
	subs	r0, r0, #1
	strh	r0, [r1, #24]
	.loc	7 132 4 is_stmt 1               @ source/driver/drvr_iic.c:132:4
	ldr	r1, [sp, #8]
	.loc	7 132 13 is_stmt 0              @ source/driver/drvr_iic.c:132:13
	ldrb	r0, [r1, r2]
	adds	r0, r0, #1
	strb	r0, [r1, r2]
.Ltmp32:
	.loc	7 133 7 is_stmt 1               @ source/driver/drvr_iic.c:133:7
	ldr	r0, [sp, #8]
	.loc	7 133 12 is_stmt 0              @ source/driver/drvr_iic.c:133:12
	ldrh	r0, [r0, #24]
.Ltmp33:
	.loc	7 133 7                         @ source/driver/drvr_iic.c:133:7
	cmp	r0, #2
	blt	.LBB5_11
	b	.LBB5_10
.LBB5_10:
.Ltmp34:
	.loc	7 134 5 is_stmt 1               @ source/driver/drvr_iic.c:134:5
	ldr	r0, [sp, #8]
	ldr	r0, [r0, #4]
	ldr	r0, [r0]
	movs	r1, #12
	orrs	r0, r1
	movs	r1, #48
	bics	r0, r1
	ldr	r1, [sp, #8]
	ldr	r1, [r1, #4]
	str	r0, [r1]
	b	.LBB5_12
.LBB5_11:
	.loc	7 136 5                         @ source/driver/drvr_iic.c:136:5
	ldr	r0, [sp, #8]
	ldr	r0, [r0, #4]
	ldr	r0, [r0]
	movs	r1, #8
	orrs	r0, r1
	movs	r1, #52
	bics	r0, r1
	ldr	r1, [sp, #8]
	ldr	r1, [r1, #4]
	str	r0, [r1]
	b	.LBB5_12
.Ltmp35:
.LBB5_12:
	.loc	7 137 4                         @ source/driver/drvr_iic.c:137:4
	b	.LBB5_16
.LBB5_13:
	.loc	7 139 46                        @ source/driver/drvr_iic.c:139:46
	ldr	r0, [sp, #8]
	ldr	r0, [r0, #4]
	ldr	r0, [r0, #8]
	.loc	7 139 4 is_stmt 0               @ source/driver/drvr_iic.c:139:4
	ldr	r2, [sp, #8]
	.loc	7 139 9                         @ source/driver/drvr_iic.c:139:9
	ldr	r1, [r2, #20]
	movs	r3, #32
	.loc	7 139 22                        @ source/driver/drvr_iic.c:139:22
	ldrb	r2, [r2, r3]
	.loc	7 139 28                        @ source/driver/drvr_iic.c:139:28
	strb	r0, [r1, r2]
	.loc	7 140 4 is_stmt 1               @ source/driver/drvr_iic.c:140:4
	ldr	r1, [sp, #8]
	movs	r0, #0
	.loc	7 140 17 is_stmt 0              @ source/driver/drvr_iic.c:140:17
	strb	r0, [r1]
	.loc	7 141 4 is_stmt 1               @ source/driver/drvr_iic.c:141:4
	ldr	r0, [sp, #8]
	ldr	r0, [r0, #4]
	ldr	r0, [r0]
	movs	r1, #24
	orrs	r0, r1
	movs	r1, #36
	bics	r0, r1
	ldr	r1, [sp, #8]
	ldr	r1, [r1, #4]
	str	r0, [r1]
	.loc	7 142 4                         @ source/driver/drvr_iic.c:142:4
	b	.LBB5_16
.LBB5_14:
	.loc	7 143 3                         @ source/driver/drvr_iic.c:143:3
	b	.LBB5_15
.LBB5_15:
	.loc	7 145 4                         @ source/driver/drvr_iic.c:145:4
	ldr	r0, [sp, #8]
	ldr	r0, [r0, #4]
	ldr	r0, [r0]
	movs	r1, #24
	orrs	r0, r1
	movs	r1, #36
	bics	r0, r1
	ldr	r1, [sp, #8]
	ldr	r1, [r1, #4]
	str	r0, [r1]
	.loc	7 146 4                         @ source/driver/drvr_iic.c:146:4
	ldr	r1, [sp, #8]
	movs	r0, #1
	.loc	7 146 16 is_stmt 0              @ source/driver/drvr_iic.c:146:16
	strb	r0, [r1, #1]
	.loc	7 147 4 is_stmt 1               @ source/driver/drvr_iic.c:147:4
	ldr	r1, [sp, #8]
	movs	r0, #0
	.loc	7 147 17 is_stmt 0              @ source/driver/drvr_iic.c:147:17
	strb	r0, [r1]
	.loc	7 148 4 is_stmt 1               @ source/driver/drvr_iic.c:148:4
	b	.LBB5_16
.Ltmp36:
.LBB5_16:
	.loc	7 150 1 epilogue_begin          @ source/driver/drvr_iic.c:150:1
	add	sp, #12
	bx	lr
.Ltmp37:
.Lfunc_end5:
	.size	i2c_isr_read, .Lfunc_end5-i2c_isr_read
	.cfi_endproc
	.cantunwind
	.fnend
                                        @ -- End function
	.section	.text.i2c_write_read,"ax",%progbits
	.hidden	i2c_write_read                  @ -- Begin function i2c_write_read
	.globl	i2c_write_read
	.p2align	2
	.type	i2c_write_read,%function
	.code	16                              @ @i2c_write_read
	.thumb_func
i2c_write_read:
.Lfunc_begin6:
	.loc	7 60 0                          @ source/driver/drvr_iic.c:60:0
	.fnstart
	.cfi_startproc
@ %bb.0:
	.save	{r4, r5, r7, lr}
	push	{r4, r5, r7, lr}
	.cfi_def_cfa_offset 16
	.cfi_offset lr, -4
	.cfi_offset r7, -8
	.cfi_offset r5, -12
	.cfi_offset r4, -16
	.pad	#24
	sub	sp, #24
	.cfi_def_cfa_offset 40
	mov	r4, r0
	ldr	r0, [sp, #40]
                                        @ kill: def $r5 killed $r2
	str	r4, [sp, #16]
	str	r1, [sp, #12]
	add	r1, sp, #8
	strh	r2, [r1]
	str	r3, [sp, #4]
	mov	r1, sp
	strh	r0, [r1]
.Ltmp38:
	.loc	7 61 5 prologue_end             @ source/driver/drvr_iic.c:61:5
	ldr	r0, [sp, #16]
	.loc	7 61 10 is_stmt 0               @ source/driver/drvr_iic.c:61:10
	ldrb	r0, [r0]
.Ltmp39:
	.loc	7 61 5                          @ source/driver/drvr_iic.c:61:5
	cbz	r0, .LBB6_2
	b	.LBB6_1
.LBB6_1:
	.loc	7 0 5                           @ source/driver/drvr_iic.c:0:5
	add	r1, sp, #20
	movs	r0, #1
.Ltmp40:
	.loc	7 61 19                         @ source/driver/drvr_iic.c:61:19
	strb	r0, [r1]
	b	.LBB6_3
.Ltmp41:
.LBB6_2:
	.loc	7 62 19 is_stmt 1               @ source/driver/drvr_iic.c:62:19
	ldr	r1, __arm_cp.6_0
	movs	r0, #0
	str	r0, [r1]
	.loc	7 63 17                         @ source/driver/drvr_iic.c:63:17
	ldr	r1, __arm_cp.6_1
	ldr	r1, [r1]
	.loc	7 63 2 is_stmt 0                @ source/driver/drvr_iic.c:63:2
	ldr	r2, [sp, #16]
	.loc	7 63 15                         @ source/driver/drvr_iic.c:63:15
	str	r1, [r2, #28]
	.loc	7 64 2 is_stmt 1                @ source/driver/drvr_iic.c:64:2
	ldr	r2, [sp, #16]
	movs	r1, #1
	.loc	7 64 15 is_stmt 0               @ source/driver/drvr_iic.c:64:15
	strb	r1, [r2]
	.loc	7 65 2 is_stmt 1                @ source/driver/drvr_iic.c:65:2
	ldr	r2, [sp, #16]
	movs	r1, #3
	.loc	7 65 12 is_stmt 0               @ source/driver/drvr_iic.c:65:12
	strb	r1, [r2, #26]
	.loc	7 66 2 is_stmt 1                @ source/driver/drvr_iic.c:66:2
	ldr	r1, [sp, #16]
	movs	r2, #32
	.loc	7 66 12 is_stmt 0               @ source/driver/drvr_iic.c:66:12
	strb	r0, [r1, r2]
	.loc	7 67 17 is_stmt 1               @ source/driver/drvr_iic.c:67:17
	ldr	r1, [sp, #12]
	.loc	7 67 2 is_stmt 0                @ source/driver/drvr_iic.c:67:2
	ldr	r2, [sp, #16]
	.loc	7 67 15                         @ source/driver/drvr_iic.c:67:15
	str	r1, [r2, #12]
	.loc	7 68 19 is_stmt 1               @ source/driver/drvr_iic.c:68:19
	ldr	r1, [sp, #8]
	.loc	7 68 2 is_stmt 0                @ source/driver/drvr_iic.c:68:2
	ldr	r2, [sp, #16]
	.loc	7 68 17                         @ source/driver/drvr_iic.c:68:17
	strh	r1, [r2, #16]
	.loc	7 69 17 is_stmt 1               @ source/driver/drvr_iic.c:69:17
	ldr	r1, [sp, #4]
	.loc	7 69 2 is_stmt 0                @ source/driver/drvr_iic.c:69:2
	ldr	r2, [sp, #16]
	.loc	7 69 15                         @ source/driver/drvr_iic.c:69:15
	str	r1, [r2, #20]
	.loc	7 70 19 is_stmt 1               @ source/driver/drvr_iic.c:70:19
	ldr	r1, [sp]
	.loc	7 70 2 is_stmt 0                @ source/driver/drvr_iic.c:70:2
	ldr	r2, [sp, #16]
	.loc	7 70 17                         @ source/driver/drvr_iic.c:70:17
	strh	r1, [r2, #24]
	.loc	7 71 18 is_stmt 1               @ source/driver/drvr_iic.c:71:18
	ldr	r2, __arm_cp.6_2
	ldr	r1, __arm_cp.6_3
	str	r1, [r2]
	.loc	7 73 2                          @ source/driver/drvr_iic.c:73:2
	ldr	r1, [sp, #16]
	ldr	r1, [r1, #4]
	ldr	r1, [r1]
	movs	r2, #40
	orrs	r1, r2
	ldr	r2, [sp, #16]
	ldr	r2, [r2, #4]
	str	r1, [r2]
	add	r1, sp, #20
	.loc	7 74 2                          @ source/driver/drvr_iic.c:74:2
	strb	r0, [r1]
	b	.LBB6_3
.LBB6_3:
	.loc	7 0 2 is_stmt 0                 @ source/driver/drvr_iic.c:0:2
	add	r0, sp, #20
	.loc	7 75 1 is_stmt 1                @ source/driver/drvr_iic.c:75:1
	ldrb	r0, [r0]
	.loc	7 75 1 epilogue_begin is_stmt 0 @ source/driver/drvr_iic.c:75:1
	add	sp, #24
	pop	{r4, r5, r7, pc}
.Ltmp42:
	.loc	7 0 1                           @ :0:1
.Ltmp43:
	.p2align	2
@ %bb.4:
__arm_cp.6_0:
	.long	g_I2C_i32ErrCode
.Lcpi_end12:
	.size	__arm_cp.6_0, .Lcpi_end12-__arm_cp.6_0
__arm_cp.6_1:
	.long	SystemCoreClock
.Lcpi_end13:
	.size	__arm_cp.6_1, .Lcpi_end13-__arm_cp.6_1
__arm_cp.6_2:
	.long	s_I2C0HandlerFn
.Lcpi_end14:
	.size	__arm_cp.6_2, .Lcpi_end14-__arm_cp.6_2
__arm_cp.6_3:
	.long	i2c_isr_write_read
.Lcpi_end15:
	.size	__arm_cp.6_3, .Lcpi_end15-__arm_cp.6_3
.Lfunc_end6:
	.size	i2c_write_read, .Lfunc_end6-i2c_write_read
	.cfi_endproc
	.cantunwind
	.fnend
                                        @ -- End function
	.section	.text.i2c_isr_write_read,"ax",%progbits
	.p2align	2                               @ -- Begin function i2c_isr_write_read
	.type	i2c_isr_write_read,%function
	.code	16                              @ @i2c_isr_write_read
	.thumb_func
i2c_isr_write_read:
.Lfunc_begin7:
	.loc	7 152 0 is_stmt 1               @ source/driver/drvr_iic.c:152:0
	.fnstart
	.cfi_startproc
@ %bb.0:
	.pad	#12
	sub	sp, #12
	.cfi_def_cfa_offset 12
	str	r0, [sp, #8]
	str	r1, [sp, #4]
.Ltmp44:
	.loc	7 153 9 prologue_end            @ source/driver/drvr_iic.c:153:9
	ldr	r0, [sp, #4]
	.loc	7 153 2 is_stmt 0               @ source/driver/drvr_iic.c:153:2
	subs	r0, #8
	str	r0, [sp]                        @ 4-byte Spill
	cmp	r0, #80
	bls	.LBB7_1
	b	.LBB7_17
.LBB7_1:
	ldr	r1, [sp]                        @ 4-byte Reload
	lsls	r2, r1, #2
	adr	r0, .LJTI7_0
	adds	r0, r0, r2
	mov	pc, r0
@ %bb.2:
	.loc	7 0 2                           @ source/driver/drvr_iic.c:0:2
	.p2align	2
.LJTI7_0:
	b.w	.LBB7_3
	b.w	.LBB7_17
	b.w	.LBB7_17
	b.w	.LBB7_17
	b.w	.LBB7_17
	b.w	.LBB7_17
	b.w	.LBB7_17
	b.w	.LBB7_17
	b.w	.LBB7_17
	b.w	.LBB7_17
	b.w	.LBB7_17
	b.w	.LBB7_17
	b.w	.LBB7_17
	b.w	.LBB7_17
	b.w	.LBB7_17
	b.w	.LBB7_17
	b.w	.LBB7_4
	b.w	.LBB7_17
	b.w	.LBB7_17
	b.w	.LBB7_17
	b.w	.LBB7_17
	b.w	.LBB7_17
	b.w	.LBB7_17
	b.w	.LBB7_17
	b.w	.LBB7_8
	b.w	.LBB7_17
	b.w	.LBB7_17
	b.w	.LBB7_17
	b.w	.LBB7_17
	b.w	.LBB7_17
	b.w	.LBB7_17
	b.w	.LBB7_17
	b.w	.LBB7_4
	b.w	.LBB7_17
	b.w	.LBB7_17
	b.w	.LBB7_17
	b.w	.LBB7_17
	b.w	.LBB7_17
	b.w	.LBB7_17
	b.w	.LBB7_17
	b.w	.LBB7_8
	b.w	.LBB7_17
	b.w	.LBB7_17
	b.w	.LBB7_17
	b.w	.LBB7_17
	b.w	.LBB7_17
	b.w	.LBB7_17
	b.w	.LBB7_17
	b.w	.LBB7_16
	b.w	.LBB7_17
	b.w	.LBB7_17
	b.w	.LBB7_17
	b.w	.LBB7_17
	b.w	.LBB7_17
	b.w	.LBB7_17
	b.w	.LBB7_17
	b.w	.LBB7_9
	b.w	.LBB7_17
	b.w	.LBB7_17
	b.w	.LBB7_17
	b.w	.LBB7_17
	b.w	.LBB7_17
	b.w	.LBB7_17
	b.w	.LBB7_17
	b.w	.LBB7_10
	b.w	.LBB7_17
	b.w	.LBB7_17
	b.w	.LBB7_17
	b.w	.LBB7_17
	b.w	.LBB7_17
	b.w	.LBB7_17
	b.w	.LBB7_17
	b.w	.LBB7_11
	b.w	.LBB7_17
	b.w	.LBB7_17
	b.w	.LBB7_17
	b.w	.LBB7_17
	b.w	.LBB7_17
	b.w	.LBB7_17
	b.w	.LBB7_17
	b.w	.LBB7_15
.LBB7_3:
.Ltmp45:
	.loc	7 156 4 is_stmt 1               @ source/driver/drvr_iic.c:156:4
	ldr	r1, [sp, #8]
	ldrb	r0, [r1, #8]
	lsls	r0, r0, #1
	uxtb	r0, r0
	ldr	r1, [r1, #4]
	str	r0, [r1, #8]
	.loc	7 157 4                         @ source/driver/drvr_iic.c:157:4
	ldr	r0, [sp, #8]
	ldr	r0, [r0, #4]
	ldr	r0, [r0]
	movs	r1, #8
	orrs	r0, r1
	movs	r1, #52
	bics	r0, r1
	ldr	r1, [sp, #8]
	ldr	r1, [r1, #4]
	str	r0, [r1]
	.loc	7 158 4                         @ source/driver/drvr_iic.c:158:4
	b	.LBB7_18
.LBB7_4:
.Ltmp46:
	.loc	7 161 7                         @ source/driver/drvr_iic.c:161:7
	ldr	r0, [sp, #8]
	.loc	7 161 12 is_stmt 0              @ source/driver/drvr_iic.c:161:12
	ldrh	r0, [r0, #16]
.Ltmp47:
	.loc	7 161 7                         @ source/driver/drvr_iic.c:161:7
	cbz	r0, .LBB7_6
	b	.LBB7_5
.LBB7_5:
.Ltmp48:
	.loc	7 162 5 is_stmt 1               @ source/driver/drvr_iic.c:162:5
	ldr	r1, [sp, #8]
	ldr	r0, [r1, #12]
	movs	r2, #32
	ldrb	r3, [r1, r2]
	ldrb	r0, [r0, r3]
	ldr	r1, [r1, #4]
	str	r0, [r1, #8]
	.loc	7 163 5                         @ source/driver/drvr_iic.c:163:5
	ldr	r1, [sp, #8]
	.loc	7 163 19 is_stmt 0              @ source/driver/drvr_iic.c:163:19
	ldrh	r0, [r1, #16]
	subs	r0, r0, #1
	strh	r0, [r1, #16]
	.loc	7 164 5 is_stmt 1               @ source/driver/drvr_iic.c:164:5
	ldr	r1, [sp, #8]
	.loc	7 164 14 is_stmt 0              @ source/driver/drvr_iic.c:164:14
	ldrb	r0, [r1, r2]
	adds	r0, r0, #1
	strb	r0, [r1, r2]
	.loc	7 165 5 is_stmt 1               @ source/driver/drvr_iic.c:165:5
	ldr	r0, [sp, #8]
	ldr	r0, [r0, #4]
	ldr	r0, [r0]
	movs	r1, #8
	orrs	r0, r1
	movs	r1, #52
	bics	r0, r1
	ldr	r1, [sp, #8]
	ldr	r1, [r1, #4]
	str	r0, [r1]
	.loc	7 166 4                         @ source/driver/drvr_iic.c:166:4
	b	.LBB7_7
.Ltmp49:
.LBB7_6:
	.loc	7 168 5                         @ source/driver/drvr_iic.c:168:5
	ldr	r0, [sp, #8]
	ldr	r0, [r0, #4]
	ldr	r0, [r0]
	movs	r1, #40
	orrs	r0, r1
	movs	r1, #20
	bics	r0, r1
	ldr	r1, [sp, #8]
	ldr	r1, [r1, #4]
	str	r0, [r1]
	.loc	7 169 5                         @ source/driver/drvr_iic.c:169:5
	ldr	r1, [sp, #8]
	movs	r2, #32
	movs	r0, #0
	.loc	7 169 15 is_stmt 0              @ source/driver/drvr_iic.c:169:15
	strb	r0, [r1, r2]
	b	.LBB7_7
.Ltmp50:
.LBB7_7:
	.loc	7 171 4 is_stmt 1               @ source/driver/drvr_iic.c:171:4
	b	.LBB7_18
.LBB7_8:
	.loc	7 174 4                         @ source/driver/drvr_iic.c:174:4
	ldr	r0, [sp, #8]
	ldr	r0, [r0, #4]
	ldr	r0, [r0]
	movs	r1, #24
	orrs	r0, r1
	movs	r1, #36
	bics	r0, r1
	ldr	r1, [sp, #8]
	ldr	r1, [r1, #4]
	str	r0, [r1]
	.loc	7 175 4                         @ source/driver/drvr_iic.c:175:4
	ldr	r1, [sp, #8]
	movs	r0, #1
	.loc	7 175 16 is_stmt 0              @ source/driver/drvr_iic.c:175:16
	strb	r0, [r1, #1]
	.loc	7 176 4 is_stmt 1               @ source/driver/drvr_iic.c:176:4
	b	.LBB7_18
.LBB7_9:
	.loc	7 178 5                         @ source/driver/drvr_iic.c:178:5
	ldr	r0, [sp, #8]
	ldr	r0, [r0, #4]
	ldr	r0, [r0]
	movs	r1, #12
	orrs	r0, r1
	movs	r1, #48
	bics	r0, r1
	ldr	r1, [sp, #8]
	ldr	r1, [r1, #4]
	str	r0, [r1]
	.loc	7 179 4                         @ source/driver/drvr_iic.c:179:4
	b	.LBB7_18
.LBB7_10:
	.loc	7 181 4                         @ source/driver/drvr_iic.c:181:4
	ldr	r0, [sp, #8]
	ldr	r0, [r0, #4]
	ldr	r0, [r0]
	movs	r1, #24
	orrs	r0, r1
	movs	r1, #36
	bics	r0, r1
	ldr	r1, [sp, #8]
	ldr	r1, [r1, #4]
	str	r0, [r1]
	.loc	7 182 4                         @ source/driver/drvr_iic.c:182:4
	ldr	r1, [sp, #8]
	movs	r0, #1
	.loc	7 182 16 is_stmt 0              @ source/driver/drvr_iic.c:182:16
	strb	r0, [r1, #1]
	.loc	7 183 4 is_stmt 1               @ source/driver/drvr_iic.c:183:4
	ldr	r1, [sp, #8]
	movs	r0, #0
	.loc	7 183 17 is_stmt 0              @ source/driver/drvr_iic.c:183:17
	strb	r0, [r1]
	.loc	7 184 4 is_stmt 1               @ source/driver/drvr_iic.c:184:4
	b	.LBB7_18
.LBB7_11:
	.loc	7 186 46                        @ source/driver/drvr_iic.c:186:46
	ldr	r0, [sp, #8]
	ldr	r0, [r0, #4]
	ldr	r0, [r0, #8]
	.loc	7 186 4 is_stmt 0               @ source/driver/drvr_iic.c:186:4
	ldr	r3, [sp, #8]
	.loc	7 186 9                         @ source/driver/drvr_iic.c:186:9
	ldr	r1, [r3, #20]
	movs	r2, #32
	.loc	7 186 22                        @ source/driver/drvr_iic.c:186:22
	ldrb	r3, [r3, r2]
	.loc	7 186 28                        @ source/driver/drvr_iic.c:186:28
	strb	r0, [r1, r3]
	.loc	7 187 4 is_stmt 1               @ source/driver/drvr_iic.c:187:4
	ldr	r1, [sp, #8]
	.loc	7 187 18 is_stmt 0              @ source/driver/drvr_iic.c:187:18
	ldrh	r0, [r1, #24]
	subs	r0, r0, #1
	strh	r0, [r1, #24]
	.loc	7 188 4 is_stmt 1               @ source/driver/drvr_iic.c:188:4
	ldr	r1, [sp, #8]
	.loc	7 188 13 is_stmt 0              @ source/driver/drvr_iic.c:188:13
	ldrb	r0, [r1, r2]
	adds	r0, r0, #1
	strb	r0, [r1, r2]
.Ltmp51:
	.loc	7 189 7 is_stmt 1               @ source/driver/drvr_iic.c:189:7
	ldr	r0, [sp, #8]
	.loc	7 189 12 is_stmt 0              @ source/driver/drvr_iic.c:189:12
	ldrh	r0, [r0, #24]
.Ltmp52:
	.loc	7 189 7                         @ source/driver/drvr_iic.c:189:7
	cmp	r0, #2
	blt	.LBB7_13
	b	.LBB7_12
.LBB7_12:
.Ltmp53:
	.loc	7 190 5 is_stmt 1               @ source/driver/drvr_iic.c:190:5
	ldr	r0, [sp, #8]
	ldr	r0, [r0, #4]
	ldr	r0, [r0]
	movs	r1, #12
	orrs	r0, r1
	movs	r1, #48
	bics	r0, r1
	ldr	r1, [sp, #8]
	ldr	r1, [r1, #4]
	str	r0, [r1]
	b	.LBB7_14
.LBB7_13:
	.loc	7 192 5                         @ source/driver/drvr_iic.c:192:5
	ldr	r0, [sp, #8]
	ldr	r0, [r0, #4]
	ldr	r0, [r0]
	movs	r1, #8
	orrs	r0, r1
	movs	r1, #52
	bics	r0, r1
	ldr	r1, [sp, #8]
	ldr	r1, [r1, #4]
	str	r0, [r1]
	b	.LBB7_14
.Ltmp54:
.LBB7_14:
	.loc	7 193 4                         @ source/driver/drvr_iic.c:193:4
	b	.LBB7_18
.LBB7_15:
	.loc	7 195 46                        @ source/driver/drvr_iic.c:195:46
	ldr	r0, [sp, #8]
	ldr	r0, [r0, #4]
	ldr	r0, [r0, #8]
	.loc	7 195 4 is_stmt 0               @ source/driver/drvr_iic.c:195:4
	ldr	r2, [sp, #8]
	.loc	7 195 9                         @ source/driver/drvr_iic.c:195:9
	ldr	r1, [r2, #20]
	movs	r3, #32
	.loc	7 195 22                        @ source/driver/drvr_iic.c:195:22
	ldrb	r2, [r2, r3]
	.loc	7 195 28                        @ source/driver/drvr_iic.c:195:28
	strb	r0, [r1, r2]
	.loc	7 196 4 is_stmt 1               @ source/driver/drvr_iic.c:196:4
	ldr	r0, [sp, #8]
	ldr	r0, [r0, #4]
	ldr	r0, [r0]
	movs	r1, #24
	orrs	r0, r1
	movs	r1, #36
	bics	r0, r1
	ldr	r1, [sp, #8]
	ldr	r1, [r1, #4]
	str	r0, [r1]
	.loc	7 197 4                         @ source/driver/drvr_iic.c:197:4
	ldr	r1, [sp, #8]
	movs	r0, #0
	.loc	7 197 17 is_stmt 0              @ source/driver/drvr_iic.c:197:17
	strb	r0, [r1]
	.loc	7 198 4 is_stmt 1               @ source/driver/drvr_iic.c:198:4
	b	.LBB7_18
.LBB7_16:
	.loc	7 199 3                         @ source/driver/drvr_iic.c:199:3
	b	.LBB7_17
.LBB7_17:
	.loc	7 201 4                         @ source/driver/drvr_iic.c:201:4
	ldr	r0, [sp, #8]
	ldr	r0, [r0, #4]
	ldr	r0, [r0]
	movs	r1, #24
	orrs	r0, r1
	movs	r1, #36
	bics	r0, r1
	ldr	r1, [sp, #8]
	ldr	r1, [r1, #4]
	str	r0, [r1]
	.loc	7 202 4                         @ source/driver/drvr_iic.c:202:4
	ldr	r1, [sp, #8]
	movs	r0, #1
	.loc	7 202 16 is_stmt 0              @ source/driver/drvr_iic.c:202:16
	strb	r0, [r1, #1]
	.loc	7 203 4 is_stmt 1               @ source/driver/drvr_iic.c:203:4
	ldr	r1, [sp, #8]
	movs	r0, #0
	.loc	7 203 17 is_stmt 0              @ source/driver/drvr_iic.c:203:17
	strb	r0, [r1]
	.loc	7 204 4 is_stmt 1               @ source/driver/drvr_iic.c:204:4
	b	.LBB7_18
.Ltmp55:
.LBB7_18:
	.loc	7 206 1 epilogue_begin          @ source/driver/drvr_iic.c:206:1
	add	sp, #12
	bx	lr
.Ltmp56:
.Lfunc_end7:
	.size	i2c_isr_write_read, .Lfunc_end7-i2c_isr_write_read
	.cfi_endproc
	.cantunwind
	.fnend
                                        @ -- End function
	.section	".note.GNU-stack","",%progbits
	.eabi_attribute	30, 6	@ Tag_ABI_optimization_goals
	.ARM_attribute	16, 1	@ Tag_AV_eba