	.text
	.syntax unified
	.eabi_attribute	67, "2.09"	@ Tag_conformance
	.cpu	cortex-m23
	.eabi_attribute	6, 16	@ Tag_CPU_arch
	.eabi_attribute	7, 77	@ Tag_CPU_arch_profile
	.eabi_attribute	8, 0	@ Tag_ARM_ISA_use
	.eabi_attribute	9, 3	@ Tag_THUMB_ISA_use
	.eabi_attribute	34, 0	@ Tag_CPU_unaligned_access
	.eabi_attribute	17, 1	@ Tag_ABI_PCS_GOT_use
	.eabi_attribute	20, 2	@ Tag_ABI_FP_denormal
	.eabi_attribute	21, 0	@ Tag_ABI_FP_exceptions
	.eabi_attribute	23, 1	@ Tag_ABI_FP_number_model
	.eabi_attribute	24, 1	@ Tag_ABI_align_needed
	.eabi_attribute	25, 1	@ Tag_ABI_align_preserved
	.eabi_attribute	38, 1	@ Tag_ABI_FP_16bit_format
	.eabi_attribute	18, 4	@ Tag_ABI_PCS_wchar_t
	.eabi_attribute	26, 2	@ Tag_ABI_enum_size
	.eabi_attribute	14, 0	@ Tag_ABI_PCS_R9_use
	.file	"drvr_uart.c"
	.file	1 "D:\\work\\dheeraj\\local\\CEL\\CCC\\CCC_CPU0\\Code" "../../CCC_common/Library/Device/Nuvoton/M261/Include\\M261.h"
	.file	2 "C:\\Users\\Anaya\\AppData\\Local\\Keil_v5\\ARM\\ARMCLANG\\bin\\..\\include" "stdint.h"
	.file	3 "D:\\work\\dheeraj\\local\\CEL\\CCC\\CCC_CPU0\\Code" "../../CCC_common/Library/Device/Nuvoton/M261/Include\\uart_reg.h"
	.file	4 "D:\\work\\dheeraj\\local\\CEL\\CCC\\CCC_CPU0\\Code" "../../CCC_common/Library/Device/Nuvoton/M261/Include\\sys_reg.h"
	.file	5 "D:\\work\\dheeraj\\local\\CEL\\CCC\\CCC_CPU0\\Code" "../../CCC_common/Library/CMSIS/Include\\core_armv8mbl.h"
	.section	.text.uart_ctor,"ax",%progbits
	.hidden	uart_ctor                       @ -- Begin function uart_ctor
	.globl	uart_ctor
	.p2align	2
	.type	uart_ctor,%function
	.code	16                              @ @uart_ctor
	.thumb_func
uart_ctor:
.Lfunc_begin0:
	.file	6 "D:\\work\\dheeraj\\local\\CEL\\CCC\\CCC_CPU0\\Code" "source/driver/drvr_uart.c"
	.loc	6 5 0                           @ source/driver/drvr_uart.c:5:0
	.fnstart
	.cfi_sections .debug_frame
	.cfi_startproc
@ %bb.0:
	.save	{r7, lr}
	push	{r7, lr}
	.cfi_def_cfa_offset 8
	.cfi_offset lr, -4
	.cfi_offset r7, -8
	.pad	#48
	sub	sp, #48
	.cfi_def_cfa_offset 56
	str	r0, [sp, #44]
.Ltmp0:
	.loc	6 10 9 prologue_end             @ source/driver/drvr_uart.c:10:9
	ldr	r0, [sp, #44]
	.loc	6 10 17 is_stmt 0               @ source/driver/drvr_uart.c:10:17
	ldrb	r0, [r0, #13]
	.loc	6 10 2                          @ source/driver/drvr_uart.c:10:2
	str	r0, [sp, #32]                   @ 4-byte Spill
	cmp	r0, #5
	bls	.LBB0_1
	b	.LBB0_9
.LBB0_1:
	ldr	r1, [sp, #32]                   @ 4-byte Reload
	lsls	r2, r1, #2
	adr	r0, .LJTI0_0
	adds	r0, r0, r2
	mov	pc, r0
@ %bb.2:
	.loc	6 0 2                           @ source/driver/drvr_uart.c:0:2
	.p2align	2
.LJTI0_0:
	b.w	.LBB0_3
	b.w	.LBB0_4
	b.w	.LBB0_5
	b.w	.LBB0_6
	b.w	.LBB0_7
	b.w	.LBB0_8
.LBB0_3:
	ldr	r0, __arm_cp.0_13
.Ltmp1:
	.loc	6 12 10 is_stmt 1               @ source/driver/drvr_uart.c:12:10
	str	r0, [sp, #40]
	movs	r0, #3
	lsls	r1, r0, #24
	ldr	r0, __arm_cp.0_14
	str	r0, [sp, #28]                   @ 4-byte Spill
	movs	r2, #0
	.loc	6 14 4                          @ source/driver/drvr_uart.c:14:4
	bl	CLK_SetModuleClock
	ldr	r0, [sp, #28]                   @ 4-byte Reload
	.loc	6 16 4                          @ source/driver/drvr_uart.c:16:4
	bl	CLK_EnableModuleClock
	add	r1, sp, #36
	movs	r0, #36
	.loc	6 17 15                         @ source/driver/drvr_uart.c:17:15
	strb	r0, [r1]
	ldr	r1, __arm_cp.0_15
	.loc	6 23 18                         @ source/driver/drvr_uart.c:23:18
	ldr	r0, [r1]
	movs	r2, #255
	lsls	r2, r2, #16
	bics	r0, r2
	str	r0, [r1]
	.loc	6 24 18                         @ source/driver/drvr_uart.c:24:18
	ldr	r0, [r1]
	movs	r2, #51
	lsls	r2, r2, #17
	orrs	r0, r2
	str	r0, [r1]
	.loc	6 25 4                          @ source/driver/drvr_uart.c:25:4
	b	.LBB0_9
.LBB0_4:
	.loc	6 0 4 is_stmt 0                 @ source/driver/drvr_uart.c:0:4
	ldr	r0, __arm_cp.0_11
	.loc	6 27 10 is_stmt 1               @ source/driver/drvr_uart.c:27:10
	str	r0, [sp, #40]
	movs	r0, #3
	lsls	r1, r0, #26
	ldr	r0, __arm_cp.0_12
	str	r0, [sp, #24]                   @ 4-byte Spill
	movs	r2, #0
	.loc	6 29 4                          @ source/driver/drvr_uart.c:29:4
	bl	CLK_SetModuleClock
	ldr	r0, [sp, #24]                   @ 4-byte Reload
	.loc	6 31 4                          @ source/driver/drvr_uart.c:31:4
	bl	CLK_EnableModuleClock
	add	r1, sp, #36
	movs	r0, #37
	.loc	6 32 15                         @ source/driver/drvr_uart.c:32:15
	strb	r0, [r1]
	ldr	r1, __arm_cp.0_10
	.loc	6 37 18                         @ source/driver/drvr_uart.c:37:18
	ldr	r0, [r1]
	movw	r2, #65280
	bics	r0, r2
	str	r0, [r1]
	.loc	6 38 18                         @ source/driver/drvr_uart.c:38:18
	ldr	r0, [r1]
	movw	r2, #26112
	orrs	r0, r2
	str	r0, [r1]
	.loc	6 40 4                          @ source/driver/drvr_uart.c:40:4
	b	.LBB0_9
.LBB0_5:
	.loc	6 0 4 is_stmt 0                 @ source/driver/drvr_uart.c:0:4
	ldr	r0, __arm_cp.0_8
	.loc	6 42 10 is_stmt 1               @ source/driver/drvr_uart.c:42:10
	str	r0, [sp, #40]
	movs	r0, #3
	lsls	r1, r0, #24
	ldr	r0, __arm_cp.0_9
	str	r0, [sp, #20]                   @ 4-byte Spill
	movs	r2, #0
	.loc	6 44 4                          @ source/driver/drvr_uart.c:44:4
	bl	CLK_SetModuleClock
	ldr	r0, [sp, #20]                   @ 4-byte Reload
	.loc	6 46 4                          @ source/driver/drvr_uart.c:46:4
	bl	CLK_EnableModuleClock
	add	r1, sp, #36
	movs	r0, #48
	.loc	6 47 15                         @ source/driver/drvr_uart.c:47:15
	strb	r0, [r1]
	ldr	r1, __arm_cp.0_10
	.loc	6 52 18                         @ source/driver/drvr_uart.c:52:18
	ldr	r0, [r1]
	movs	r2, #255
	bics	r0, r2
	str	r0, [r1]
	.loc	6 53 18                         @ source/driver/drvr_uart.c:53:18
	ldr	r0, [r1]
	movs	r2, #119
	orrs	r0, r2
	str	r0, [r1]
	.loc	6 54 4                          @ source/driver/drvr_uart.c:54:4
	b	.LBB0_9
.LBB0_6:
	.loc	6 0 4 is_stmt 0                 @ source/driver/drvr_uart.c:0:4
	ldr	r0, __arm_cp.0_5
	.loc	6 56 10 is_stmt 1               @ source/driver/drvr_uart.c:56:10
	str	r0, [sp, #40]
	movs	r0, #3
	lsls	r1, r0, #26
	ldr	r0, __arm_cp.0_6
	str	r0, [sp, #16]                   @ 4-byte Spill
	movs	r2, #0
	.loc	6 58 4                          @ source/driver/drvr_uart.c:58:4
	bl	CLK_SetModuleClock
	ldr	r0, [sp, #16]                   @ 4-byte Reload
	.loc	6 60 4                          @ source/driver/drvr_uart.c:60:4
	bl	CLK_EnableModuleClock
	add	r1, sp, #36
	movs	r0, #49
	.loc	6 61 15                         @ source/driver/drvr_uart.c:61:15
	strb	r0, [r1]
	ldr	r1, __arm_cp.0_7
	.loc	6 66 18                         @ source/driver/drvr_uart.c:66:18
	ldr	r0, [r1]
	movw	r2, #65280
	bics	r0, r2
	str	r0, [r1]
	.loc	6 67 18                         @ source/driver/drvr_uart.c:67:18
	ldr	r0, [r1]
	movw	r2, #47872
	orrs	r0, r2
	str	r0, [r1]
	.loc	6 68 4                          @ source/driver/drvr_uart.c:68:4
	b	.LBB0_9
.LBB0_7:
	.loc	6 0 4 is_stmt 0                 @ source/driver/drvr_uart.c:0:4
	ldr	r0, __arm_cp.0_3
	.loc	6 70 10 is_stmt 1               @ source/driver/drvr_uart.c:70:10
	str	r0, [sp, #40]
	movs	r0, #3
	lsls	r1, r0, #28
	ldr	r0, __arm_cp.0_4
	str	r0, [sp, #12]                   @ 4-byte Spill
	movs	r2, #0
	.loc	6 72 4                          @ source/driver/drvr_uart.c:72:4
	bl	CLK_SetModuleClock
	ldr	r0, [sp, #12]                   @ 4-byte Reload
	.loc	6 74 4                          @ source/driver/drvr_uart.c:74:4
	bl	CLK_EnableModuleClock
	add	r1, sp, #36
	movs	r0, #74
	.loc	6 75 15                         @ source/driver/drvr_uart.c:75:15
	strb	r0, [r1]
	ldr	r1, __arm_cp.0_2
	.loc	6 80 18                         @ source/driver/drvr_uart.c:80:18
	ldr	r0, [r1]
	movw	r2, #65280
	bics	r0, r2
	str	r0, [r1]
	.loc	6 81 18                         @ source/driver/drvr_uart.c:81:18
	ldr	r0, [r1]
	movw	r2, #30464
	orrs	r0, r2
	str	r0, [r1]
	.loc	6 83 4                          @ source/driver/drvr_uart.c:83:4
	b	.LBB0_9
.LBB0_8:
	.loc	6 0 4 is_stmt 0                 @ source/driver/drvr_uart.c:0:4
	ldr	r0, __arm_cp.0_0
	.loc	6 85 10 is_stmt 1               @ source/driver/drvr_uart.c:85:10
	str	r0, [sp, #40]
	movs	r0, #3
	lsls	r1, r0, #30
	ldr	r0, __arm_cp.0_1
	str	r0, [sp, #8]                    @ 4-byte Spill
	movs	r2, #0
	.loc	6 87 4                          @ source/driver/drvr_uart.c:87:4
	bl	CLK_SetModuleClock
	ldr	r0, [sp, #8]                    @ 4-byte Reload
	.loc	6 89 4                          @ source/driver/drvr_uart.c:89:4
	bl	CLK_EnableModuleClock
	add	r1, sp, #36
	movs	r0, #75
	.loc	6 90 15                         @ source/driver/drvr_uart.c:90:15
	strb	r0, [r1]
	ldr	r1, __arm_cp.0_2
	.loc	6 95 18                         @ source/driver/drvr_uart.c:95:18
	ldr	r0, [r1]
	movs	r2, #255
	lsls	r2, r2, #16
	bics	r0, r2
	str	r0, [r1]
	.loc	6 96 18                         @ source/driver/drvr_uart.c:96:18
	ldr	r0, [r1]
	movs	r2, #17
	lsls	r2, r2, #19
	orrs	r0, r2
	str	r0, [r1]
	.loc	6 98 4                          @ source/driver/drvr_uart.c:98:4
	b	.LBB0_9
.Ltmp2:
.LBB0_9:
	.loc	6 101 12                        @ source/driver/drvr_uart.c:101:12
	ldr	r0, [sp, #40]
	.loc	6 101 18 is_stmt 0              @ source/driver/drvr_uart.c:101:18
	ldr	r1, [sp, #44]
	.loc	6 101 26                        @ source/driver/drvr_uart.c:101:26
	ldr	r1, [r1]
	.loc	6 101 2                         @ source/driver/drvr_uart.c:101:2
	bl	UART_Open
.Ltmp3:
	.loc	6 103 5 is_stmt 1               @ source/driver/drvr_uart.c:103:5
	ldr	r0, [sp, #44]
	.loc	6 103 13 is_stmt 0              @ source/driver/drvr_uart.c:103:13
	ldrb	r0, [r0, #12]
.Ltmp4:
	.loc	6 103 5                         @ source/driver/drvr_uart.c:103:5
	cbz	r0, .LBB0_11
	b	.LBB0_10
.LBB0_10:
	.loc	6 0 5                           @ source/driver/drvr_uart.c:0:5
	add	r0, sp, #36
.Ltmp5:
	.loc	6 104 20 is_stmt 1              @ source/driver/drvr_uart.c:104:20
	str	r0, [sp, #4]                    @ 4-byte Spill
	ldrb	r0, [r0]
	movs	r1, #2
	.loc	6 104 3 is_stmt 0               @ source/driver/drvr_uart.c:104:3
	bl	__NVIC_SetPriority
	ldr	r0, [sp, #4]                    @ 4-byte Reload
	.loc	6 105 18 is_stmt 1              @ source/driver/drvr_uart.c:105:18
	ldrb	r0, [r0]
	.loc	6 105 3 is_stmt 0               @ source/driver/drvr_uart.c:105:3
	bl	__NVIC_EnableIRQ
	.loc	6 107 3 is_stmt 1               @ source/driver/drvr_uart.c:107:3
	ldr	r1, [sp, #40]
	ldr	r0, __arm_cp.0_16
	.loc	6 107 16 is_stmt 0              @ source/driver/drvr_uart.c:107:16
	str	r0, [r1, #4]
	.loc	6 108 2 is_stmt 1               @ source/driver/drvr_uart.c:108:2
	b	.LBB0_12
.Ltmp6:
.LBB0_11:
	.loc	6 0 2 is_stmt 0                 @ source/driver/drvr_uart.c:0:2
	add	r0, sp, #36
	.loc	6 110 19 is_stmt 1              @ source/driver/drvr_uart.c:110:19
	ldrb	r0, [r0]
	.loc	6 110 3 is_stmt 0               @ source/driver/drvr_uart.c:110:3
	bl	__NVIC_DisableIRQ
	b	.LBB0_12
.Ltmp7:
.LBB0_12:
	.loc	6 112 18 is_stmt 1              @ source/driver/drvr_uart.c:112:18
	ldr	r0, [sp, #40]
	.loc	6 112 2 is_stmt 0               @ source/driver/drvr_uart.c:112:2
	ldr	r1, [sp, #44]
	.loc	6 112 16                        @ source/driver/drvr_uart.c:112:16
	str	r0, [r1, #16]
	.loc	6 113 1 epilogue_begin is_stmt 1 @ source/driver/drvr_uart.c:113:1
	add	sp, #48
	pop	{r7, pc}
.Ltmp8:
	.loc	6 0 1 is_stmt 0                 @ :0:1
.Ltmp9:
	.p2align	2
@ %bb.13:
__arm_cp.0_0:
	.long	1074221056                      @ 0x40075000
.Lcpi_end0:
	.size	__arm_cp.0_0, .Lcpi_end0-__arm_cp.0_0
__arm_cp.0_1:
	.long	2011970965                      @ 0x77ec3d95
.Lcpi_end1:
	.size	__arm_cp.0_1, .Lcpi_end1-__arm_cp.0_1
__arm_cp.0_2:
	.long	1073741872                      @ 0x40000030
.Lcpi_end2:
	.size	__arm_cp.0_2, .Lcpi_end2-__arm_cp.0_2
__arm_cp.0_3:
	.long	1074216960                      @ 0x40074000
.Lcpi_end3:
	.size	__arm_cp.0_3, .Lcpi_end3-__arm_cp.0_3
__arm_cp.0_4:
	.long	2009873684                      @ 0x77cc3d14
.Lcpi_end4:
	.size	__arm_cp.0_4, .Lcpi_end4-__arm_cp.0_4
__arm_cp.0_5:
	.long	1074212864                      @ 0x40073000
.Lcpi_end5:
	.size	__arm_cp.0_5, .Lcpi_end5-__arm_cp.0_5
__arm_cp.0_6:
	.long	2007776403                      @ 0x77ac3c93
.Lcpi_end6:
	.size	__arm_cp.0_6, .Lcpi_end6-__arm_cp.0_6
__arm_cp.0_7:
	.long	1073741888                      @ 0x40000040
.Lcpi_end7:
	.size	__arm_cp.0_7, .Lcpi_end7-__arm_cp.0_7
__arm_cp.0_8:
	.long	1074208768                      @ 0x40072000
.Lcpi_end8:
	.size	__arm_cp.0_8, .Lcpi_end8-__arm_cp.0_8
__arm_cp.0_9:
	.long	2005679122                      @ 0x778c3c12
.Lcpi_end9:
	.size	__arm_cp.0_9, .Lcpi_end9-__arm_cp.0_9
__arm_cp.0_10:
	.long	1073741880                      @ 0x40000038
.Lcpi_end10:
	.size	__arm_cp.0_10, .Lcpi_end10-__arm_cp.0_10
__arm_cp.0_11:
	.long	1074204672                      @ 0x40071000
.Lcpi_end11:
	.size	__arm_cp.0_11, .Lcpi_end11-__arm_cp.0_11
__arm_cp.0_12:
	.long	1470119313                      @ 0x57a03d91
.Lcpi_end12:
	.size	__arm_cp.0_12, .Lcpi_end12-__arm_cp.0_12
__arm_cp.0_13:
	.long	1074200576                      @ 0x40070000
.Lcpi_end13:
	.size	__arm_cp.0_13, .Lcpi_end13-__arm_cp.0_13
__arm_cp.0_14:
	.long	1468022032                      @ 0x57803d10
.Lcpi_end14:
	.size	__arm_cp.0_14, .Lcpi_end14-__arm_cp.0_14
__arm_cp.0_15:
	.long	1073741884                      @ 0x4000003c
.Lcpi_end15:
	.size	__arm_cp.0_15, .Lcpi_end15-__arm_cp.0_15
__arm_cp.0_16:
	.long	2065                            @ 0x811
.Lcpi_end16:
	.size	__arm_cp.0_16, .Lcpi_end16-__arm_cp.0_16
.Lfunc_end0:
	.size	uart_ctor, .Lfunc_end0-uart_ctor
	.cfi_endproc
	.cantunwind
	.fnend
                                        @ -- End function
	.section	.text.__NVIC_SetPriority,"ax",%progbits
	.p2align	2                               @ -- Begin function __NVIC_SetPriority
	.type	__NVIC_SetPriority,%function
	.code	16                              @ @__NVIC_SetPriority
	.thumb_func
__NVIC_SetPriority:
.Lfunc_begin1:
	.loc	5 1471 0 is_stmt 1              @ ../../CCC_common/Library/CMSIS/Include\core_armv8mbl.h:1471:0
	.fnstart
	.cfi_startproc
@ %bb.0:
	.save	{r4, r5, r6, lr}
	push	{r4, r5, r6, lr}
	.cfi_def_cfa_offset 16
	.cfi_offset lr, -4
	.cfi_offset r6, -8
	.cfi_offset r5, -12
	.cfi_offset r4, -16
	.pad	#8
	sub	sp, #8
	.cfi_def_cfa_offset 24
	str	r0, [sp, #4]
	str	r1, [sp]
.Ltmp10:
	.loc	5 1472 17 prologue_end          @ ../../CCC_common/Library/CMSIS/Include\core_armv8mbl.h:1472:17
	ldr	r0, [sp, #4]
.Ltmp11:
	.loc	5 1472 7 is_stmt 0              @ ../../CCC_common/Library/CMSIS/Include\core_armv8mbl.h:1472:7
	cmp	r0, #0
	bmi	.LBB1_2
	b	.LBB1_1
.LBB1_1:
.Ltmp12:
	.loc	5 1474 55 is_stmt 1             @ ../../CCC_common/Library/CMSIS/Include\core_armv8mbl.h:1474:55
	ldr	r0, [sp, #4]
	movs	r1, #3
	mvns	r3, r1
	.loc	5 1474 45 is_stmt 0             @ ../../CCC_common/Library/CMSIS/Include\core_armv8mbl.h:1474:45
	ands	r0, r3
	ldr	r2, __arm_cp.1_1
	ldr	r0, [r0, r2]
	.loc	5 1474 85                       @ ../../CCC_common/Library/CMSIS/Include\core_armv8mbl.h:1474:85
	ldr	r1, [sp, #4]
	lsls	r4, r1, #30
	lsrs	r5, r4, #27
	movs	r4, #255
	.loc	5 1474 82                       @ ../../CCC_common/Library/CMSIS/Include\core_armv8mbl.h:1474:82
	lsls	r4, r5
	.loc	5 1474 71                       @ ../../CCC_common/Library/CMSIS/Include\core_armv8mbl.h:1474:71
	bics	r0, r4
	.loc	5 1475 11 is_stmt 1             @ ../../CCC_common/Library/CMSIS/Include\core_armv8mbl.h:1475:11
	ldr	r4, [sp]
	.loc	5 1475 20 is_stmt 0             @ ../../CCC_common/Library/CMSIS/Include\core_armv8mbl.h:1475:20
	lsls	r4, r4, #6
	.loc	5 1475 48                       @ ../../CCC_common/Library/CMSIS/Include\core_armv8mbl.h:1475:48
	uxtb	r4, r4
	.loc	5 1475 68                       @ ../../CCC_common/Library/CMSIS/Include\core_armv8mbl.h:1475:68
	lsls	r4, r5
	.loc	5 1474 104 is_stmt 1            @ ../../CCC_common/Library/CMSIS/Include\core_armv8mbl.h:1474:104
	orrs	r0, r4
	.loc	5 1474 5 is_stmt 0              @ ../../CCC_common/Library/CMSIS/Include\core_armv8mbl.h:1474:5
	ands	r1, r3
	.loc	5 1474 31                       @ ../../CCC_common/Library/CMSIS/Include\core_armv8mbl.h:1474:31
	str	r0, [r1, r2]
	.loc	5 1476 3 is_stmt 1              @ ../../CCC_common/Library/CMSIS/Include\core_armv8mbl.h:1476:3
	b	.LBB1_3
.Ltmp13:
.LBB1_2:
	.loc	5 1479 55                       @ ../../CCC_common/Library/CMSIS/Include\core_armv8mbl.h:1479:55
	ldr	r0, [sp, #4]
	movs	r4, #15
	ands	r0, r4
	subs	r0, #8
	movs	r1, #3
	mvns	r3, r1
	.loc	5 1479 45 is_stmt 0             @ ../../CCC_common/Library/CMSIS/Include\core_armv8mbl.h:1479:45
	ands	r0, r3
	ldr	r2, __arm_cp.1_0
	ldr	r0, [r0, r2]
	.loc	5 1479 85                       @ ../../CCC_common/Library/CMSIS/Include\core_armv8mbl.h:1479:85
	ldr	r1, [sp, #4]
	lsls	r5, r1, #30
	lsrs	r6, r5, #27
	movs	r5, #255
	.loc	5 1479 82                       @ ../../CCC_common/Library/CMSIS/Include\core_armv8mbl.h:1479:82
	lsls	r5, r6
	.loc	5 1479 71                       @ ../../CCC_common/Library/CMSIS/Include\core_armv8mbl.h:1479:71
	bics	r0, r5
	.loc	5 1480 11 is_stmt 1             @ ../../CCC_common/Library/CMSIS/Include\core_armv8mbl.h:1480:11
	ldr	r5, [sp]
	.loc	5 1480 20 is_stmt 0             @ ../../CCC_common/Library/CMSIS/Include\core_armv8mbl.h:1480:20
	lsls	r5, r5, #6
	.loc	5 1480 48                       @ ../../CCC_common/Library/CMSIS/Include\core_armv8mbl.h:1480:48
	uxtb	r5, r5
	.loc	5 1480 68                       @ ../../CCC_common/Library/CMSIS/Include\core_armv8mbl.h:1480:68
	lsls	r5, r6
	.loc	5 1479 104 is_stmt 1            @ ../../CCC_common/Library/CMSIS/Include\core_armv8mbl.h:1479:104
	orrs	r0, r5
	.loc	5 1479 15 is_stmt 0             @ ../../CCC_common/Library/CMSIS/Include\core_armv8mbl.h:1479:15
	ands	r1, r4
	subs	r1, #8
	.loc	5 1479 5                        @ ../../CCC_common/Library/CMSIS/Include\core_armv8mbl.h:1479:5
	ands	r1, r3
	.loc	5 1479 31                       @ ../../CCC_common/Library/CMSIS/Include\core_armv8mbl.h:1479:31
	str	r0, [r1, r2]
	b	.LBB1_3
.Ltmp14:
.LBB1_3:
	.loc	5 1482 1 epilogue_begin is_stmt 1 @ ../../CCC_common/Library/CMSIS/Include\core_armv8mbl.h:1482:1
	add	sp, #8
	pop	{r4, r5, r6, pc}
.Ltmp15:
	.loc	5 0 1 is_stmt 0                 @ :0:1
.Ltmp16:
	.p2align	2
@ %bb.4:
__arm_cp.1_0:
	.long	3758157084                      @ 0xe000ed1c
.Lcpi_end17:
	.size	__arm_cp.1_0, .Lcpi_end17-__arm_cp.1_0
__arm_cp.1_1:
	.long	3758154752                      @ 0xe000e400
.Lcpi_end18:
	.size	__arm_cp.1_1, .Lcpi_end18-__arm_cp.1_1
.Lfunc_end1:
	.size	__NVIC_SetPriority, .Lfunc_end1-__NVIC_SetPriority
	.cfi_endproc
	.cantunwind
	.fnend
                                        @ -- End function
	.section	.text.__NVIC_EnableIRQ,"ax",%progbits
	.p2align	2                               @ -- Begin function __NVIC_EnableIRQ
	.type	__NVIC_EnableIRQ,%function
	.code	16                              @ @__NVIC_EnableIRQ
	.thumb_func
__NVIC_EnableIRQ:
.Lfunc_begin2:
	.loc	5 1276 0 is_stmt 1              @ ../../CCC_common/Library/CMSIS/Include\core_armv8mbl.h:1276:0
	.fnstart
	.cfi_startproc
@ %bb.0:
	.pad	#4
	sub	sp, #4
	.cfi_def_cfa_offset 4
	str	r0, [sp]
.Ltmp17:
	.loc	5 1277 17 prologue_end          @ ../../CCC_common/Library/CMSIS/Include\core_armv8mbl.h:1277:17
	ldr	r0, [sp]
.Ltmp18:
	.loc	5 1277 7 is_stmt 0              @ ../../CCC_common/Library/CMSIS/Include\core_armv8mbl.h:1277:7
	cmp	r0, #0
	bmi	.LBB2_2
	b	.LBB2_1
.LBB2_1:
.Ltmp19:
	.loc	5 1279 93 is_stmt 1             @ ../../CCC_common/Library/CMSIS/Include\core_armv8mbl.h:1279:93
	ldr	r1, [sp]
	movs	r0, #31
	.loc	5 1279 99 is_stmt 0             @ ../../CCC_common/Library/CMSIS/Include\core_armv8mbl.h:1279:99
	mov	r2, r1
	ands	r2, r0
	movs	r0, #1
	.loc	5 1279 69                       @ ../../CCC_common/Library/CMSIS/Include\core_armv8mbl.h:1279:69
	lsls	r0, r2
	.loc	5 1279 5                        @ ../../CCC_common/Library/CMSIS/Include\core_armv8mbl.h:1279:5
	lsrs	r1, r1, #5
	lsls	r1, r1, #2
	ldr	r2, __arm_cp.2_0
	.loc	5 1279 52                       @ ../../CCC_common/Library/CMSIS/Include\core_armv8mbl.h:1279:52
	str	r0, [r1, r2]
	.loc	5 1280 3 is_stmt 1              @ ../../CCC_common/Library/CMSIS/Include\core_armv8mbl.h:1280:3
	b	.LBB2_2
.Ltmp20:
.LBB2_2:
	.loc	5 1281 1 epilogue_begin         @ ../../CCC_common/Library/CMSIS/Include\core_armv8mbl.h:1281:1
	add	sp, #4
	bx	lr
.Ltmp21:
	.loc	5 0 1 is_stmt 0                 @ :0:1
.Ltmp22:
	.p2align	2
@ %bb.3:
__arm_cp.2_0:
	.long	3758153984                      @ 0xe000e100
.Lcpi_end19:
	.size	__arm_cp.2_0, .Lcpi_end19-__arm_cp.2_0
.Lfunc_end2:
	.size	__NVIC_EnableIRQ, .Lfunc_end2-__NVIC_EnableIRQ
	.cfi_endproc
	.cantunwind
	.fnend
                                        @ -- End function
	.section	.text.__NVIC_DisableIRQ,"ax",%progbits
	.p2align	2                               @ -- Begin function __NVIC_DisableIRQ
	.type	__NVIC_DisableIRQ,%function
	.code	16                              @ @__NVIC_DisableIRQ
	.thumb_func
__NVIC_DisableIRQ:
.Lfunc_begin3:
	.loc	5 1312 0 is_stmt 1              @ ../../CCC_common/Library/CMSIS/Include\core_armv8mbl.h:1312:0
	.fnstart
	.cfi_startproc
@ %bb.0:
	.pad	#4
	sub	sp, #4
	.cfi_def_cfa_offset 4
	str	r0, [sp]
.Ltmp23:
	.loc	5 1313 17 prologue_end          @ ../../CCC_common/Library/CMSIS/Include\core_armv8mbl.h:1313:17
	ldr	r0, [sp]
.Ltmp24:
	.loc	5 1313 7 is_stmt 0              @ ../../CCC_common/Library/CMSIS/Include\core_armv8mbl.h:1313:7
	cmp	r0, #0
	bmi	.LBB3_2
	b	.LBB3_1
.LBB3_1:
.Ltmp25:
	.loc	5 1315 93 is_stmt 1             @ ../../CCC_common/Library/CMSIS/Include\core_armv8mbl.h:1315:93
	ldr	r1, [sp]
	movs	r0, #31
	.loc	5 1315 99 is_stmt 0             @ ../../CCC_common/Library/CMSIS/Include\core_armv8mbl.h:1315:99
	mov	r2, r1
	ands	r2, r0
	movs	r0, #1
	.loc	5 1315 69                       @ ../../CCC_common/Library/CMSIS/Include\core_armv8mbl.h:1315:69
	lsls	r0, r2
	.loc	5 1315 5                        @ ../../CCC_common/Library/CMSIS/Include\core_armv8mbl.h:1315:5
	lsrs	r1, r1, #5
	lsls	r1, r1, #2
	ldr	r2, __arm_cp.3_0
	.loc	5 1315 52                       @ ../../CCC_common/Library/CMSIS/Include\core_armv8mbl.h:1315:52
	str	r0, [r1, r2]
	.loc	5 1316 5 is_stmt 1              @ ../../CCC_common/Library/CMSIS/Include\core_armv8mbl.h:1316:5
	dsb	sy
	.loc	5 1317 5                        @ ../../CCC_common/Library/CMSIS/Include\core_armv8mbl.h:1317:5
	isb	sy
	.loc	5 1318 3                        @ ../../CCC_common/Library/CMSIS/Include\core_armv8mbl.h:1318:3
	b	.LBB3_2
.Ltmp26:
.LBB3_2:
	.loc	5 1319 1 epilogue_begin         @ ../../CCC_common/Library/CMSIS/Include\core_armv8mbl.h:1319:1
	add	sp, #4
	bx	lr
.Ltmp27:
	.loc	5 0 1 is_stmt 0                 @ :0:1
.Ltmp28:
	.p2align	2
@ %bb.3:
__arm_cp.3_0:
	.long	3758154112                      @ 0xe000e180
.Lcpi_end20:
	.size	__arm_cp.3_0, .Lcpi_end20-__arm_cp.3_0
.Lfunc_end3:
	.size	__NVIC_DisableIRQ, .Lfunc_end3-__NVIC_DisableIRQ
	.cfi_endproc
	.cantunwind
	.fnend
                                        @ -- End function
	.section	.text.uart_write,"ax",%progbits
	.hidden	uart_write                      @ -- Begin function uart_write
	.globl	uart_write
	.p2align	1
	.type	uart_write,%function
	.code	16                              @ @uart_write
	.thumb_func
uart_write:
.Lfunc_begin4:
	.loc	6 115 0 is_stmt 1               @ source/driver/drvr_uart.c:115:0
	.fnstart
	.cfi_startproc
@ %bb.0:
	.save	{r7, lr}
	push	{r7, lr}
	.cfi_def_cfa_offset 8
	.cfi_offset lr, -4
	.cfi_offset r7, -8
	.pad	#24
	sub	sp, #24
	.cfi_def_cfa_offset 32
	str	r0, [sp, #16]
.Ltmp29:
	.loc	6 116 18 prologue_end           @ source/driver/drvr_uart.c:116:18
	ldr	r0, [sp, #16]
	.loc	6 116 26 is_stmt 0              @ source/driver/drvr_uart.c:116:26
	ldr	r0, [r0, #16]
	.loc	6 116 10                        @ source/driver/drvr_uart.c:116:10
	str	r0, [sp, #12]
.Ltmp30:
	.loc	6 119 5 is_stmt 1               @ source/driver/drvr_uart.c:119:5
	ldr	r0, [sp, #16]
	.loc	6 119 13 is_stmt 0              @ source/driver/drvr_uart.c:119:13
	ldr	r0, [r0, #8]
.Ltmp31:
	.loc	6 119 5                         @ source/driver/drvr_uart.c:119:5
	cbnz	r0, .LBB4_2
	b	.LBB4_1
.LBB4_1:
	.loc	6 0 5                           @ source/driver/drvr_uart.c:0:5
	add	r1, sp, #20
	movs	r0, #1
.Ltmp32:
	.loc	6 119 26                        @ source/driver/drvr_uart.c:119:26
	strb	r0, [r1]
	b	.LBB4_8
.Ltmp33:
.LBB4_2:
	.loc	6 121 2 is_stmt 1               @ source/driver/drvr_uart.c:121:2
	b	.LBB4_3
.LBB4_3:                                @ =>This Inner Loop Header: Depth=1
	.loc	6 121 8 is_stmt 0               @ source/driver/drvr_uart.c:121:8
	ldr	r0, [sp, #12]
	ldr	r0, [r0, #24]
	movs	r1, #1
	lsls	r1, r1, #23
	ands	r0, r1
	lsrs	r1, r0, #23
	movs	r0, #0
	.loc	6 121 36                        @ source/driver/drvr_uart.c:121:36
	str	r0, [sp, #4]                    @ 4-byte Spill
	cbnz	r1, .LBB4_5
	b	.LBB4_4
.LBB4_4:                                @   in Loop: Header=BB4_3 Depth=1
	.loc	6 121 39                        @ source/driver/drvr_uart.c:121:39
	ldr	r0, [sp, #16]
	.loc	6 121 47                        @ source/driver/drvr_uart.c:121:47
	ldr	r0, [r0, #8]
	.loc	6 121 52                        @ source/driver/drvr_uart.c:121:52
	ldrb	r0, [r0, #12]
	.loc	6 121 61                        @ source/driver/drvr_uart.c:121:61
	rsbs	r1, r0, #0
	adcs	r0, r1
	str	r0, [sp, #4]                    @ 4-byte Spill
	b	.LBB4_5
.LBB4_5:                                @   in Loop: Header=BB4_3 Depth=1
	.loc	6 0 0                           @ source/driver/drvr_uart.c:0:0
	ldr	r0, [sp, #4]                    @ 4-byte Reload
	.loc	6 121 2                         @ source/driver/drvr_uart.c:121:2
	lsls	r0, r0, #31
	cbz	r0, .LBB4_7
	b	.LBB4_6
.LBB4_6:                                @   in Loop: Header=BB4_3 Depth=1
.Ltmp34:
	.loc	6 122 13 is_stmt 1              @ source/driver/drvr_uart.c:122:13
	ldr	r0, [sp, #16]
	.loc	6 122 21 is_stmt 0              @ source/driver/drvr_uart.c:122:21
	ldr	r0, [r0, #8]
	add	r1, sp, #8
	.loc	6 122 3                         @ source/driver/drvr_uart.c:122:3
	str	r1, [sp]                        @ 4-byte Spill
	bl	fifo_read
	ldr	r1, [sp]                        @ 4-byte Reload
	.loc	6 123 14 is_stmt 1              @ source/driver/drvr_uart.c:123:14
	ldr	r0, [sp, #12]
	movs	r2, #1
	.loc	6 123 3 is_stmt 0               @ source/driver/drvr_uart.c:123:3
	bl	UART_Write
.Ltmp35:
	.loc	6 121 2 is_stmt 1               @ source/driver/drvr_uart.c:121:2
	b	.LBB4_3
.LBB4_7:
	.loc	6 0 2 is_stmt 0                 @ source/driver/drvr_uart.c:0:2
	add	r1, sp, #20
	movs	r0, #0
	.loc	6 125 2 is_stmt 1               @ source/driver/drvr_uart.c:125:2
	strb	r0, [r1]
	b	.LBB4_8
.LBB4_8:
	.loc	6 0 2 is_stmt 0                 @ source/driver/drvr_uart.c:0:2
	add	r0, sp, #20
	.loc	6 126 1 is_stmt 1               @ source/driver/drvr_uart.c:126:1
	ldrb	r0, [r0]
	.loc	6 126 1 epilogue_begin is_stmt 0 @ source/driver/drvr_uart.c:126:1
	add	sp, #24
	pop	{r7, pc}
.Ltmp36:
.Lfunc_end4:
	.size	uart_write, .Lfunc_end4-uart_write
	.cfi_endproc
	.cantunwind
	.fnend
                                        @ -- End function
	.section	.text.uart_read,"ax",%progbits
	.hidden	uart_read                       @ -- Begin function uart_read
	.globl	uart_read
	.p2align	1
	.type	uart_read,%function
	.code	16                              @ @uart_read
	.thumb_func
uart_read:
.Lfunc_begin5:
	.loc	6 128 0 is_stmt 1               @ source/driver/drvr_uart.c:128:0
	.fnstart
	.cfi_startproc
@ %bb.0:
	.save	{r7, lr}
	push	{r7, lr}
	.cfi_def_cfa_offset 8
	.cfi_offset lr, -4
	.cfi_offset r7, -8
	.pad	#24
	sub	sp, #24
	.cfi_def_cfa_offset 32
	str	r0, [sp, #16]
.Ltmp37:
	.loc	6 129 18 prologue_end           @ source/driver/drvr_uart.c:129:18
	ldr	r0, [sp, #16]
	.loc	6 129 26 is_stmt 0              @ source/driver/drvr_uart.c:129:26
	ldr	r0, [r0, #16]
	.loc	6 129 10                        @ source/driver/drvr_uart.c:129:10
	str	r0, [sp, #12]
.Ltmp38:
	.loc	6 132 5 is_stmt 1               @ source/driver/drvr_uart.c:132:5
	ldr	r0, [sp, #16]
	.loc	6 132 13 is_stmt 0              @ source/driver/drvr_uart.c:132:13
	ldr	r0, [r0, #4]
.Ltmp39:
	.loc	6 132 5                         @ source/driver/drvr_uart.c:132:5
	cbnz	r0, .LBB5_2
	b	.LBB5_1
.LBB5_1:
	.loc	6 0 5                           @ source/driver/drvr_uart.c:0:5
	add	r1, sp, #20
	movs	r0, #1
.Ltmp40:
	.loc	6 132 26                        @ source/driver/drvr_uart.c:132:26
	strb	r0, [r1]
	b	.LBB5_8
.Ltmp41:
.LBB5_2:
	.loc	6 134 2 is_stmt 1               @ source/driver/drvr_uart.c:134:2
	b	.LBB5_3
.LBB5_3:                                @ =>This Inner Loop Header: Depth=1
	.loc	6 134 8 is_stmt 0               @ source/driver/drvr_uart.c:134:8
	ldr	r0, [sp, #12]
	ldr	r1, [r0, #24]
	movs	r0, #0
	.loc	6 134 38                        @ source/driver/drvr_uart.c:134:38
	lsls	r1, r1, #17
	cmp	r1, #0
	str	r0, [sp, #4]                    @ 4-byte Spill
	bmi	.LBB5_5
	b	.LBB5_4
.LBB5_4:                                @   in Loop: Header=BB5_3 Depth=1
	.loc	6 134 41                        @ source/driver/drvr_uart.c:134:41
	ldr	r0, [sp, #16]
	.loc	6 134 49                        @ source/driver/drvr_uart.c:134:49
	ldr	r0, [r0, #4]
	.loc	6 134 54                        @ source/driver/drvr_uart.c:134:54
	ldrb	r0, [r0, #13]
	.loc	6 134 62                        @ source/driver/drvr_uart.c:134:62
	rsbs	r1, r0, #0
	adcs	r0, r1
	str	r0, [sp, #4]                    @ 4-byte Spill
	b	.LBB5_5
.LBB5_5:                                @   in Loop: Header=BB5_3 Depth=1
	.loc	6 0 0                           @ source/driver/drvr_uart.c:0:0
	ldr	r0, [sp, #4]                    @ 4-byte Reload
	.loc	6 134 2                         @ source/driver/drvr_uart.c:134:2
	lsls	r0, r0, #31
	cbz	r0, .LBB5_7
	b	.LBB5_6
.LBB5_6:                                @   in Loop: Header=BB5_3 Depth=1
.Ltmp42:
	.loc	6 135 13 is_stmt 1              @ source/driver/drvr_uart.c:135:13
	ldr	r0, [sp, #12]
	add	r1, sp, #8
	str	r1, [sp]                        @ 4-byte Spill
	movs	r2, #1
	.loc	6 135 3 is_stmt 0               @ source/driver/drvr_uart.c:135:3
	bl	UART_Read
	ldr	r1, [sp]                        @ 4-byte Reload
	.loc	6 136 14 is_stmt 1              @ source/driver/drvr_uart.c:136:14
	ldr	r0, [sp, #16]
	.loc	6 136 22 is_stmt 0              @ source/driver/drvr_uart.c:136:22
	ldr	r0, [r0, #4]
	.loc	6 136 26                        @ source/driver/drvr_uart.c:136:26
	ldrb	r1, [r1]
	.loc	6 136 3                         @ source/driver/drvr_uart.c:136:3
	bl	fifo_write
.Ltmp43:
	.loc	6 134 2 is_stmt 1               @ source/driver/drvr_uart.c:134:2
	b	.LBB5_3
.LBB5_7:
	.loc	6 0 2 is_stmt 0                 @ source/driver/drvr_uart.c:0:2
	add	r1, sp, #20
	movs	r0, #0
	.loc	6 138 2 is_stmt 1               @ source/driver/drvr_uart.c:138:2
	strb	r0, [r1]
	b	.LBB5_8
.LBB5_8:
	.loc	6 0 2 is_stmt 0                 @ source/driver/drvr_uart.c:0:2
	add	r0, sp, #20
	.loc	6 139 1 is_stmt 1               @ source/driver/drvr_uart.c:139:1
	ldrb	r0, [r0]
	.loc	6 139 1 epilogue_begin is_stmt 0 @ source/driver/drvr_uart.c:139:1
	add	sp, #24
	pop	{r7, pc}
.Ltmp44:
.Lfunc_end5:
	.size	uart_read, .Lfunc_end5-uart_read
	.cfi_endproc
	.cantunwind
	.fnend
                                        @ -- End function
	.section	.text.uart_write_isr,"ax",%progbits
	.hidden	uart_write_isr                  @ -- Begin function uart_write_isr
	.globl	uart_write_isr
	.p2align	1
	.type	uart_write_isr,%function
	.code	16                              @ @uart_write_isr
	.thumb_func
uart_write_isr:
.Lfunc_begin6:
	.loc	6 141 0 is_stmt 1               @ source/driver/drvr_uart.c:141:0
	.fnstart
	.cfi_startproc
@ %bb.0:
	.save	{r7, lr}
	push	{r7, lr}
	.cfi_def_cfa_offset 8
	.cfi_offset lr, -4
	.cfi_offset r7, -8
	.pad	#24
	sub	sp, #24
	.cfi_def_cfa_offset 32
	str	r0, [sp, #16]
.Ltmp45:
	.loc	6 142 18 prologue_end           @ source/driver/drvr_uart.c:142:18
	ldr	r0, [sp, #16]
	.loc	6 142 26 is_stmt 0              @ source/driver/drvr_uart.c:142:26
	ldr	r0, [r0, #16]
	.loc	6 142 10                        @ source/driver/drvr_uart.c:142:10
	str	r0, [sp, #12]
.Ltmp46:
	.loc	6 145 5 is_stmt 1               @ source/driver/drvr_uart.c:145:5
	ldr	r0, [sp, #16]
	.loc	6 145 13 is_stmt 0              @ source/driver/drvr_uart.c:145:13
	ldr	r0, [r0, #8]
.Ltmp47:
	.loc	6 145 5                         @ source/driver/drvr_uart.c:145:5
	cbnz	r0, .LBB6_2
	b	.LBB6_1
.LBB6_1:
	.loc	6 0 5                           @ source/driver/drvr_uart.c:0:5
	add	r1, sp, #20
	movs	r0, #1
.Ltmp48:
	.loc	6 145 26                        @ source/driver/drvr_uart.c:145:26
	strb	r0, [r1]
	b	.LBB6_8
.Ltmp49:
.LBB6_2:
	.loc	6 147 2 is_stmt 1               @ source/driver/drvr_uart.c:147:2
	b	.LBB6_3
.LBB6_3:                                @ =>This Inner Loop Header: Depth=1
	.loc	6 147 8 is_stmt 0               @ source/driver/drvr_uart.c:147:8
	ldr	r0, [sp, #12]
	ldr	r0, [r0, #24]
	movs	r1, #1
	lsls	r1, r1, #23
	ands	r0, r1
	lsrs	r1, r0, #23
	movs	r0, #0
	.loc	6 147 36                        @ source/driver/drvr_uart.c:147:36
	str	r0, [sp, #4]                    @ 4-byte Spill
	cbnz	r1, .LBB6_5
	b	.LBB6_4
.LBB6_4:                                @   in Loop: Header=BB6_3 Depth=1
	.loc	6 147 39                        @ source/driver/drvr_uart.c:147:39
	ldr	r0, [sp, #16]
	.loc	6 147 47                        @ source/driver/drvr_uart.c:147:47
	ldr	r0, [r0, #8]
	.loc	6 147 52                        @ source/driver/drvr_uart.c:147:52
	ldrb	r0, [r0, #12]
	.loc	6 147 61                        @ source/driver/drvr_uart.c:147:61
	rsbs	r1, r0, #0
	adcs	r0, r1
	str	r0, [sp, #4]                    @ 4-byte Spill
	b	.LBB6_5
.LBB6_5:                                @   in Loop: Header=BB6_3 Depth=1
	.loc	6 0 0                           @ source/driver/drvr_uart.c:0:0
	ldr	r0, [sp, #4]                    @ 4-byte Reload
	.loc	6 147 2                         @ source/driver/drvr_uart.c:147:2
	lsls	r0, r0, #31
	cbz	r0, .LBB6_7
	b	.LBB6_6
.LBB6_6:                                @   in Loop: Header=BB6_3 Depth=1
.Ltmp50:
	.loc	6 148 17 is_stmt 1              @ source/driver/drvr_uart.c:148:17
	ldr	r0, [sp, #16]
	.loc	6 148 25 is_stmt 0              @ source/driver/drvr_uart.c:148:25
	ldr	r0, [r0, #8]
	add	r1, sp, #8
	.loc	6 148 3                         @ source/driver/drvr_uart.c:148:3
	str	r1, [sp]                        @ 4-byte Spill
	bl	fifo_read_isr
	ldr	r1, [sp]                        @ 4-byte Reload
	.loc	6 149 14 is_stmt 1              @ source/driver/drvr_uart.c:149:14
	ldr	r0, [sp, #12]
	movs	r2, #1
	.loc	6 149 3 is_stmt 0               @ source/driver/drvr_uart.c:149:3
	bl	UART_Write
.Ltmp51:
	.loc	6 147 2 is_stmt 1               @ source/driver/drvr_uart.c:147:2
	b	.LBB6_3
.LBB6_7:
	.loc	6 0 2 is_stmt 0                 @ source/driver/drvr_uart.c:0:2
	add	r1, sp, #20
	movs	r0, #0
	.loc	6 151 2 is_stmt 1               @ source/driver/drvr_uart.c:151:2
	strb	r0, [r1]
	b	.LBB6_8
.LBB6_8:
	.loc	6 0 2 is_stmt 0                 @ source/driver/drvr_uart.c:0:2
	add	r0, sp, #20
	.loc	6 152 1 is_stmt 1               @ source/driver/drvr_uart.c:152:1
	ldrb	r0, [r0]
	.loc	6 152 1 epilogue_begin is_stmt 0 @ source/driver/drvr_uart.c:152:1
	add	sp, #24
	pop	{r7, pc}
.Ltmp52:
.Lfunc_end6:
	.size	uart_write_isr, .Lfunc_end6-uart_write_isr
	.cfi_endproc
	.cantunwind
	.fnend
                                        @ -- End function
	.section	.text.uart_read_isr,"ax",%progbits
	.hidden	uart_read_isr                   @ -- Begin function uart_read_isr
	.globl	uart_read_isr
	.p2align	1
	.type	uart_read_isr,%function
	.code	16                              @ @uart_read_isr
	.thumb_func
uart_read_isr:
.Lfunc_begin7:
	.loc	6 154 0 is_stmt 1               @ source/driver/drvr_uart.c:154:0
	.fnstart
	.cfi_startproc
@ %bb.0:
	.save	{r7, lr}
	push	{r7, lr}
	.cfi_def_cfa_offset 8
	.cfi_offset lr, -4
	.cfi_offset r7, -8
	.pad	#24
	sub	sp, #24
	.cfi_def_cfa_offset 32
	str	r0, [sp, #16]
.Ltmp53:
	.loc	6 155 18 prologue_end           @ source/driver/drvr_uart.c:155:18
	ldr	r0, [sp, #16]
	.loc	6 155 26 is_stmt 0              @ source/driver/drvr_uart.c:155:26
	ldr	r0, [r0, #16]
	.loc	6 155 10                        @ source/driver/drvr_uart.c:155:10
	str	r0, [sp, #12]
.Ltmp54:
	.loc	6 158 5 is_stmt 1               @ source/driver/drvr_uart.c:158:5
	ldr	r0, [sp, #16]
	.loc	6 158 13 is_stmt 0              @ source/driver/drvr_uart.c:158:13
	ldr	r0, [r0, #4]
.Ltmp55:
	.loc	6 158 5                         @ source/driver/drvr_uart.c:158:5
	cbnz	r0, .LBB7_2
	b	.LBB7_1
.LBB7_1:
	.loc	6 0 5                           @ source/driver/drvr_uart.c:0:5
	add	r1, sp, #20
	movs	r0, #1
.Ltmp56:
	.loc	6 158 26                        @ source/driver/drvr_uart.c:158:26
	strb	r0, [r1]
	b	.LBB7_8
.Ltmp57:
.LBB7_2:
	.loc	6 160 2 is_stmt 1               @ source/driver/drvr_uart.c:160:2
	b	.LBB7_3
.LBB7_3:                                @ =>This Inner Loop Header: Depth=1
	.loc	6 160 8 is_stmt 0               @ source/driver/drvr_uart.c:160:8
	ldr	r0, [sp, #12]
	ldr	r1, [r0, #24]
	movs	r0, #0
	.loc	6 160 38                        @ source/driver/drvr_uart.c:160:38
	lsls	r1, r1, #17
	cmp	r1, #0
	str	r0, [sp, #4]                    @ 4-byte Spill
	bmi	.LBB7_5
	b	.LBB7_4
.LBB7_4:                                @   in Loop: Header=BB7_3 Depth=1
	.loc	6 160 41                        @ source/driver/drvr_uart.c:160:41
	ldr	r0, [sp, #16]
	.loc	6 160 49                        @ source/driver/drvr_uart.c:160:49
	ldr	r0, [r0, #4]
	.loc	6 160 54                        @ source/driver/drvr_uart.c:160:54
	ldrb	r0, [r0, #13]
	.loc	6 160 62                        @ source/driver/drvr_uart.c:160:62
	rsbs	r1, r0, #0
	adcs	r0, r1
	str	r0, [sp, #4]                    @ 4-byte Spill
	b	.LBB7_5
.LBB7_5:                                @   in Loop: Header=BB7_3 Depth=1
	.loc	6 0 0                           @ source/driver/drvr_uart.c:0:0
	ldr	r0, [sp, #4]                    @ 4-byte Reload
	.loc	6 160 2                         @ source/driver/drvr_uart.c:160:2
	lsls	r0, r0, #31
	cbz	r0, .LBB7_7
	b	.LBB7_6
.LBB7_6:                                @   in Loop: Header=BB7_3 Depth=1
.Ltmp58:
	.loc	6 161 13 is_stmt 1              @ source/driver/drvr_uart.c:161:13
	ldr	r0, [sp, #12]
	add	r1, sp, #8
	str	r1, [sp]                        @ 4-byte Spill
	movs	r2, #1
	.loc	6 161 3 is_stmt 0               @ source/driver/drvr_uart.c:161:3
	bl	UART_Read
	ldr	r1, [sp]                        @ 4-byte Reload
	.loc	6 162 18 is_stmt 1              @ source/driver/drvr_uart.c:162:18
	ldr	r0, [sp, #16]
	.loc	6 162 26 is_stmt 0              @ source/driver/drvr_uart.c:162:26
	ldr	r0, [r0, #4]
	.loc	6 162 30                        @ source/driver/drvr_uart.c:162:30
	ldrb	r1, [r1]
	.loc	6 162 3                         @ source/driver/drvr_uart.c:162:3
	bl	fifo_write_isr
.Ltmp59:
	.loc	6 160 2 is_stmt 1               @ source/driver/drvr_uart.c:160:2
	b	.LBB7_3
.LBB7_7:
	.loc	6 0 2 is_stmt 0                 @ source/driver/drvr_uart.c:0:2
	add	r1, sp, #20
	movs	r0, #0
	.loc	6 164 2 is_stmt 1               @ source/driver/drvr_uart.c:164:2
	strb	r0, [r1]
	b	.LBB7_8
.LBB7_8:
	.loc	6 0 2 is_stmt 0                 @ source/driver/drvr_uart.c:0:2
	add	r0, sp, #20
	.loc	6 165 1 is_stmt 1               @ source/driver/drvr_uart.c:165:1
	ldrb	r0, [r0]
	.loc	6 165 1 epilogue_begin is_stmt 0 @ source/driver/drvr_uart.c:165:1
	add	sp, #24
	pop	{r7, pc}
.Ltmp60:
.Lfunc_end7:
	.size	uart_read_isr, .Lfunc_end7-uart_read_isr
	.cfi_endproc
	.cantunwind
	.fnend
                                        @ -- End function
	.file	7 "D:\\work\\dheeraj\\local\\CEL\\CCC\\CCC_CPU0\\Code" "source/driver/include\\drvr_uart.h"
	.file	8 "D:\\work\\dheeraj\\local\\CEL\\CCC\\CCC_CPU0\\Code" "source/Include\\fifo.h"
	.section	".note.GNU-stack","",%progbits
	.eabi_attribute	30, 6	@ Tag_ABI_optimization_goals
	.ARM_attribute	16, 1	@ Tag_AV_eba