	.text
	.syntax unified
	.eabi_attribute	67, "2.09"	@ Tag_conformance
	.cpu	cortex-m23
	.eabi_attribute	6, 16	@ Tag_CPU_arch
	.eabi_attribute	7, 77	@ Tag_CPU_arch_profile
	.eabi_attribute	8, 0	@ Tag_ARM_ISA_use
	.eabi_attribute	9, 3	@ Tag_THUMB_ISA_use
	.eabi_attribute	34, 0	@ Tag_CPU_unaligned_access
	.eabi_attribute	17, 1	@ Tag_ABI_PCS_GOT_use
	.eabi_attribute	20, 2	@ Tag_ABI_FP_denormal
	.eabi_attribute	21, 0	@ Tag_ABI_FP_exceptions
	.eabi_attribute	23, 1	@ Tag_ABI_FP_number_model
	.eabi_attribute	24, 1	@ Tag_ABI_align_needed
	.eabi_attribute	25, 1	@ Tag_ABI_align_preserved
	.eabi_attribute	38, 1	@ Tag_ABI_FP_16bit_format
	.eabi_attribute	18, 4	@ Tag_ABI_PCS_wchar_t
	.eabi_attribute	26, 2	@ Tag_ABI_enum_size
	.eabi_attribute	14, 0	@ Tag_ABI_PCS_R9_use
	.file	"drvr_spi.c"
	.file	1 "D:\\work\\dheeraj\\local\\CEL\\CCC\\CCC_CPU0\\Code" "source/driver/include\\drvr_spi.h"
	.file	2 "D:\\work\\dheeraj\\local\\CEL\\CCC\\CCC_CPU0\\Code" "../../CCC_common/Library/Device/Nuvoton/M261/Include\\M261.h"
	.file	3 "C:\\Users\\Anaya\\AppData\\Local\\Keil_v5\\ARM\\ARMCLANG\\bin\\..\\include" "stdint.h"
	.file	4 "D:\\work\\dheeraj\\local\\CEL\\CCC\\CCC_CPU0\\Code" "../../CCC_common/Library/Device/Nuvoton/M261/Include\\spi_reg.h"
	.file	5 "D:\\work\\dheeraj\\local\\CEL\\CCC\\CCC_CPU0\\Code" "../../CCC_common/Library/Device/Nuvoton/M261/Include\\sys_reg.h"
	.file	6 "D:\\work\\dheeraj\\local\\CEL\\CCC\\CCC_CPU0\\Code" "../../CCC_common/Library/Device/Nuvoton/M261/Include\\gpio_reg.h"
	.file	7 "D:\\work\\dheeraj\\local\\CEL\\CCC\\CCC_CPU0\\Code" "../../CCC_common/Library/CMSIS/Include\\core_armv8mbl.h"
	.section	.text.spi_ctor,"ax",%progbits
	.hidden	spi_ctor                        @ -- Begin function spi_ctor
	.globl	spi_ctor
	.p2align	2
	.type	spi_ctor,%function
	.code	16                              @ @spi_ctor
	.thumb_func
spi_ctor:
.Lfunc_begin0:
	.file	8 "D:\\work\\dheeraj\\local\\CEL\\CCC\\CCC_CPU0\\Code" "source/driver/drvr_spi.c"
	.loc	8 12 0                          @ source/driver/drvr_spi.c:12:0
	.fnstart
	.cfi_sections .debug_frame
	.cfi_startproc
@ %bb.0:
	.save	{r4, lr}
	push	{r4, lr}
	.cfi_def_cfa_offset 8
	.cfi_offset lr, -4
	.cfi_offset r4, -8
	.pad	#40
	sub	sp, #40
	.cfi_def_cfa_offset 48
	str	r0, [sp, #36]
.Ltmp0:
	.loc	8 16 2 prologue_end             @ source/driver/drvr_spi.c:16:2
	ldr	r1, [sp, #36]
	movs	r0, #3
	.loc	8 16 15 is_stmt 0               @ source/driver/drvr_spi.c:16:15
	strb	r0, [r1, #16]
	.loc	8 17 2 is_stmt 1                @ source/driver/drvr_spi.c:17:2
	ldr	r1, [sp, #36]
	movs	r0, #1
	.loc	8 17 19 is_stmt 0               @ source/driver/drvr_spi.c:17:19
	strb	r0, [r1, #29]
	.loc	8 18 2 is_stmt 1                @ source/driver/drvr_spi.c:18:2
	ldr	r1, [sp, #36]
	movs	r0, #0
	.loc	8 18 16 is_stmt 0               @ source/driver/drvr_spi.c:18:16
	str	r0, [r1, #20]
	.loc	8 20 10 is_stmt 1               @ source/driver/drvr_spi.c:20:10
	ldr	r0, [sp, #36]
	.loc	8 20 18 is_stmt 0               @ source/driver/drvr_spi.c:20:18
	ldrb	r0, [r0, #9]
	.loc	8 20 2                          @ source/driver/drvr_spi.c:20:2
	str	r0, [sp, #24]                   @ 4-byte Spill
	cmp	r0, #1
	beq	.LBB0_5
	b	.LBB0_1
.LBB0_1:
	ldr	r0, [sp, #24]                   @ 4-byte Reload
	cmp	r0, #2
	bne	.LBB0_8
	b	.LBB0_2
.LBB0_2:
	.loc	8 0 2                           @ source/driver/drvr_spi.c:0:2
	ldr	r0, __arm_cp.0_8
.Ltmp1:
	.loc	8 22 8 is_stmt 1                @ source/driver/drvr_spi.c:22:8
	str	r0, [sp, #32]
	ldr	r0, __arm_cp.0_9
	str	r0, [sp, #20]                   @ 4-byte Spill
	movw	r1, #2048
	movs	r2, #0
	.loc	8 25 6                          @ source/driver/drvr_spi.c:25:6
	bl	CLK_SetModuleClock
	ldr	r0, [sp, #20]                   @ 4-byte Reload
	.loc	8 27 6                          @ source/driver/drvr_spi.c:27:6
	bl	CLK_EnableModuleClock
	ldr	r1, __arm_cp.0_10
	.loc	8 33 20                         @ source/driver/drvr_spi.c:33:20
	ldr	r0, [r1]
	uxth	r0, r0
	str	r0, [r1]
	.loc	8 34 20                         @ source/driver/drvr_spi.c:34:20
	ldr	r0, [r1]
	ldr	r2, __arm_cp.0_11
	orrs	r0, r2
	str	r0, [r1]
	ldr	r1, __arm_cp.0_5
	.loc	8 36 16                         @ source/driver/drvr_spi.c:36:16
	ldr	r0, [r1]
	movw	r2, #8192
	orrs	r0, r2
	str	r0, [r1]
.Ltmp2:
	.loc	8 38 6                          @ source/driver/drvr_spi.c:38:6
	ldr	r0, [sp, #36]
	.loc	8 38 14 is_stmt 0               @ source/driver/drvr_spi.c:38:14
	ldrb	r0, [r0, #10]
.Ltmp3:
	.loc	8 38 6                          @ source/driver/drvr_spi.c:38:6
	cbz	r0, .LBB0_4
	b	.LBB0_3
.LBB0_3:
	.loc	8 0 6                           @ source/driver/drvr_spi.c:0:6
	ldr	r0, __arm_cp.0_6
	movs	r1, #32
	movs	r2, #1
.Ltmp4:
	.loc	8 40 4 is_stmt 1                @ source/driver/drvr_spi.c:40:4
	str	r2, [sp, #16]                   @ 4-byte Spill
	bl	GPIO_SetMode
	ldr	r0, [sp, #16]                   @ 4-byte Reload
	ldr	r1, __arm_cp.0_12
	.loc	8 41 4                          @ source/driver/drvr_spi.c:41:4
	str	r0, [r1]
	.loc	8 42 3                          @ source/driver/drvr_spi.c:42:3
	b	.LBB0_4
.Ltmp5:
.LBB0_4:
	.loc	8 0 3 is_stmt 0                 @ source/driver/drvr_spi.c:0:3
	add	r1, sp, #28
	movs	r0, #52
	.loc	8 43 13 is_stmt 1               @ source/driver/drvr_spi.c:43:13
	strb	r0, [r1]
	.loc	8 44 3                          @ source/driver/drvr_spi.c:44:3
	b	.LBB0_8
.LBB0_5:
	.loc	8 0 3 is_stmt 0                 @ source/driver/drvr_spi.c:0:3
	ldr	r0, __arm_cp.0_0
	.loc	8 46 8 is_stmt 1                @ source/driver/drvr_spi.c:46:8
	str	r0, [sp, #32]
	ldr	r0, __arm_cp.0_1
	str	r0, [sp, #8]                    @ 4-byte Spill
	movs	r1, #128
	str	r1, [sp, #12]                   @ 4-byte Spill
	movs	r2, #0
	.loc	8 49 6                          @ source/driver/drvr_spi.c:49:6
	bl	CLK_SetModuleClock
	ldr	r0, [sp, #8]                    @ 4-byte Reload
	.loc	8 51 6                          @ source/driver/drvr_spi.c:51:6
	bl	CLK_EnableModuleClock
	ldr	r2, [sp, #12]                   @ 4-byte Reload
	ldr	r1, __arm_cp.0_2
	.loc	8 57 20                         @ source/driver/drvr_spi.c:57:20
	ldr	r0, [r1]
	ldr	r4, __arm_cp.0_3
	ands	r0, r4
	str	r0, [r1]
	.loc	8 58 20                         @ source/driver/drvr_spi.c:58:20
	ldr	r0, [r1]
	movs	r3, #17
	lsls	r3, r3, #26
	orrs	r0, r3
	str	r0, [r1]
	ldr	r1, __arm_cp.0_4
	.loc	8 59 20                         @ source/driver/drvr_spi.c:59:20
	ldr	r0, [r1]
	ands	r0, r4
	str	r0, [r1]
	.loc	8 60 20                         @ source/driver/drvr_spi.c:60:20
	ldr	r0, [r1]
	orrs	r0, r3
	str	r0, [r1]
	ldr	r1, __arm_cp.0_5
	.loc	8 62 16                         @ source/driver/drvr_spi.c:62:16
	ldr	r0, [r1]
	orrs	r0, r2
	str	r0, [r1]
.Ltmp6:
	.loc	8 64 6                          @ source/driver/drvr_spi.c:64:6
	ldr	r0, [sp, #36]
	.loc	8 64 14 is_stmt 0               @ source/driver/drvr_spi.c:64:14
	ldrb	r0, [r0, #10]
.Ltmp7:
	.loc	8 64 6                          @ source/driver/drvr_spi.c:64:6
	cbz	r0, .LBB0_7
	b	.LBB0_6
.LBB0_6:
	.loc	8 0 6                           @ source/driver/drvr_spi.c:0:6
	ldr	r0, __arm_cp.0_6
	movs	r1, #16
	movs	r2, #1
.Ltmp8:
	.loc	8 65 4 is_stmt 1                @ source/driver/drvr_spi.c:65:4
	str	r2, [sp, #4]                    @ 4-byte Spill
	bl	GPIO_SetMode
	ldr	r0, [sp, #4]                    @ 4-byte Reload
	ldr	r1, __arm_cp.0_7
	.loc	8 66 4                          @ source/driver/drvr_spi.c:66:4
	str	r0, [r1]
	.loc	8 67 3                          @ source/driver/drvr_spi.c:67:3
	b	.LBB0_7
.Ltmp9:
.LBB0_7:
	.loc	8 0 3 is_stmt 0                 @ source/driver/drvr_spi.c:0:3
	add	r1, sp, #28
	movs	r0, #51
	.loc	8 68 13 is_stmt 1               @ source/driver/drvr_spi.c:68:13
	strb	r0, [r1]
	.loc	8 69 2                          @ source/driver/drvr_spi.c:69:2
	b	.LBB0_8
.Ltmp10:
.LBB0_8:
	.loc	8 71 5                          @ source/driver/drvr_spi.c:71:5
	ldr	r0, [sp, #36]
	.loc	8 71 13 is_stmt 0               @ source/driver/drvr_spi.c:71:13
	ldrb	r0, [r0, #8]
.Ltmp11:
	.loc	8 71 5                          @ source/driver/drvr_spi.c:71:5
	cbz	r0, .LBB0_10
	b	.LBB0_9
.LBB0_9:
	.loc	8 0 5                           @ source/driver/drvr_spi.c:0:5
	add	r0, sp, #28
.Ltmp12:
	.loc	8 72 21 is_stmt 1               @ source/driver/drvr_spi.c:72:21
	ldrb	r0, [r0]
	.loc	8 72 6 is_stmt 0                @ source/driver/drvr_spi.c:72:6
	bl	__NVIC_EnableIRQ
	b	.LBB0_11
.LBB0_10:
	.loc	8 0 6                           @ source/driver/drvr_spi.c:0:6
	add	r0, sp, #28
	.loc	8 74 22 is_stmt 1               @ source/driver/drvr_spi.c:74:22
	ldrb	r0, [r0]
	.loc	8 74 6 is_stmt 0                @ source/driver/drvr_spi.c:74:6
	bl	__NVIC_DisableIRQ
	b	.LBB0_11
.Ltmp13:
.LBB0_11:
	.loc	8 77 14 is_stmt 1               @ source/driver/drvr_spi.c:77:14
	ldr	r0, [sp, #32]
	movs	r2, #4
	.loc	8 77 2 is_stmt 0                @ source/driver/drvr_spi.c:77:2
	mov	r1, r2
	bl	SPI_SetFIFO
.Ltmp14:
	.loc	8 81 8 is_stmt 1                @ source/driver/drvr_spi.c:81:8
	ldr	r0, [sp, #36]
	.loc	8 81 16 is_stmt 0               @ source/driver/drvr_spi.c:81:16
	ldrb	r0, [r0, #10]
.Ltmp15:
	.loc	8 81 8                          @ source/driver/drvr_spi.c:81:8
	cbz	r0, .LBB0_13
	b	.LBB0_12
.LBB0_12:
.Ltmp16:
	.loc	8 82 15 is_stmt 1               @ source/driver/drvr_spi.c:82:15
	ldr	r0, [sp, #32]
	ldr	r1, __arm_cp.0_14
	.loc	8 82 6 is_stmt 0                @ source/driver/drvr_spi.c:82:6
	str	r1, [sp]
	movs	r1, #0
	movs	r2, #4
	movs	r3, #8
	bl	SPI_Open
	.loc	8 84 24 is_stmt 1               @ source/driver/drvr_spi.c:84:24
	ldr	r0, [sp, #32]
	.loc	8 84 6 is_stmt 0                @ source/driver/drvr_spi.c:84:6
	bl	SPI_DisableAutoSS
	.loc	8 85 4 is_stmt 1                @ source/driver/drvr_spi.c:85:4
	b	.LBB0_14
.Ltmp17:
.LBB0_13:
	.loc	8 87 15                         @ source/driver/drvr_spi.c:87:15
	ldr	r0, [sp, #32]
	ldr	r1, __arm_cp.0_13
	.loc	8 87 6 is_stmt 0                @ source/driver/drvr_spi.c:87:6
	str	r1, [sp]
	movs	r1, #1
	lsls	r1, r1, #18
	movs	r2, #4
	movs	r3, #8
	bl	SPI_Open
	b	.LBB0_14
.Ltmp18:
.LBB0_14:
	.loc	8 89 17 is_stmt 1               @ source/driver/drvr_spi.c:89:17
	ldr	r0, [sp, #32]
	.loc	8 89 2 is_stmt 0                @ source/driver/drvr_spi.c:89:2
	ldr	r1, [sp, #36]
	.loc	8 89 15                         @ source/driver/drvr_spi.c:89:15
	str	r0, [r1, #24]
	movs	r0, #0
	.loc	8 90 2 epilogue_begin is_stmt 1 @ source/driver/drvr_spi.c:90:2
	add	sp, #40
	pop	{r4, pc}
.Ltmp19:
	.loc	8 0 2 is_stmt 0                 @ :0:2
.Ltmp20:
	.p2align	2
@ %bb.15:
__arm_cp.0_0:
	.long	1074143232                      @ 0x40062000
.Lcpi_end0:
	.size	__arm_cp.0_0, .Lcpi_end0-__arm_cp.0_0
__arm_cp.0_1:
	.long	1717567502                      @ 0x6660000e
.Lcpi_end1:
	.size	__arm_cp.0_1, .Lcpi_end1-__arm_cp.0_1
__arm_cp.0_2:
	.long	1073741872                      @ 0x40000030
.Lcpi_end2:
	.size	__arm_cp.0_2, .Lcpi_end2-__arm_cp.0_2
__arm_cp.0_3:
	.long	16777215                        @ 0xffffff
.Lcpi_end3:
	.size	__arm_cp.0_3, .Lcpi_end3-__arm_cp.0_3
__arm_cp.0_4:
	.long	1073741888                      @ 0x40000040
.Lcpi_end4:
	.size	__arm_cp.0_4, .Lcpi_end4-__arm_cp.0_4
__arm_cp.0_5:
	.long	1073758244                      @ 0x40004024
.Lcpi_end5:
	.size	__arm_cp.0_5, .Lcpi_end5-__arm_cp.0_5
__arm_cp.0_6:
	.long	1073758336                      @ 0x40004080
.Lcpi_end6:
	.size	__arm_cp.0_6, .Lcpi_end6-__arm_cp.0_6
__arm_cp.0_7:
	.long	1073760400                      @ 0x40004890
.Lcpi_end7:
	.size	__arm_cp.0_7, .Lcpi_end7-__arm_cp.0_7
__arm_cp.0_8:
	.long	1074147328                      @ 0x40063000
.Lcpi_end8:
	.size	__arm_cp.0_8, .Lcpi_end8-__arm_cp.0_8
__arm_cp.0_9:
	.long	1721761807                      @ 0x66a0000f
.Lcpi_end9:
	.size	__arm_cp.0_9, .Lcpi_end9-__arm_cp.0_9
__arm_cp.0_10:
	.long	1073741876                      @ 0x40000034
.Lcpi_end10:
	.size	__arm_cp.0_10, .Lcpi_end10-__arm_cp.0_10
__arm_cp.0_11:
	.long	1431633920                      @ 0x55550000
.Lcpi_end11:
	.size	__arm_cp.0_11, .Lcpi_end11-__arm_cp.0_11
__arm_cp.0_12:
	.long	1073760404                      @ 0x40004894
.Lcpi_end12:
	.size	__arm_cp.0_12, .Lcpi_end12-__arm_cp.0_12
__arm_cp.0_13:
	.long	12000000                        @ 0xb71b00
.Lcpi_end13:
	.size	__arm_cp.0_13, .Lcpi_end13-__arm_cp.0_13
__arm_cp.0_14:
	.long	1200000                         @ 0x124f80
.Lcpi_end14:
	.size	__arm_cp.0_14, .Lcpi_end14-__arm_cp.0_14
.Lfunc_end0:
	.size	spi_ctor, .Lfunc_end0-spi_ctor
	.cfi_endproc
	.cantunwind
	.fnend
                                        @ -- End function
	.section	.text.__NVIC_EnableIRQ,"ax",%progbits
	.p2align	2                               @ -- Begin function __NVIC_EnableIRQ
	.type	__NVIC_EnableIRQ,%function
	.code	16                              @ @__NVIC_EnableIRQ
	.thumb_func
__NVIC_EnableIRQ:
.Lfunc_begin1:
	.loc	7 1276 0 is_stmt 1              @ ../../CCC_common/Library/CMSIS/Include\core_armv8mbl.h:1276:0
	.fnstart
	.cfi_startproc
@ %bb.0:
	.pad	#4
	sub	sp, #4
	.cfi_def_cfa_offset 4
	str	r0, [sp]
.Ltmp21:
	.loc	7 1277 17 prologue_end          @ ../../CCC_common/Library/CMSIS/Include\core_armv8mbl.h:1277:17
	ldr	r0, [sp]
.Ltmp22:
	.loc	7 1277 7 is_stmt 0              @ ../../CCC_common/Library/CMSIS/Include\core_armv8mbl.h:1277:7
	cmp	r0, #0
	bmi	.LBB1_2
	b	.LBB1_1
.LBB1_1:
.Ltmp23:
	.loc	7 1279 93 is_stmt 1             @ ../../CCC_common/Library/CMSIS/Include\core_armv8mbl.h:1279:93
	ldr	r1, [sp]
	movs	r0, #31
	.loc	7 1279 99 is_stmt 0             @ ../../CCC_common/Library/CMSIS/Include\core_armv8mbl.h:1279:99
	mov	r2, r1
	ands	r2, r0
	movs	r0, #1
	.loc	7 1279 69                       @ ../../CCC_common/Library/CMSIS/Include\core_armv8mbl.h:1279:69
	lsls	r0, r2
	.loc	7 1279 5                        @ ../../CCC_common/Library/CMSIS/Include\core_armv8mbl.h:1279:5
	lsrs	r1, r1, #5
	lsls	r1, r1, #2
	ldr	r2, __arm_cp.1_0
	.loc	7 1279 52                       @ ../../CCC_common/Library/CMSIS/Include\core_armv8mbl.h:1279:52
	str	r0, [r1, r2]
	.loc	7 1280 3 is_stmt 1              @ ../../CCC_common/Library/CMSIS/Include\core_armv8mbl.h:1280:3
	b	.LBB1_2
.Ltmp24:
.LBB1_2:
	.loc	7 1281 1 epilogue_begin         @ ../../CCC_common/Library/CMSIS/Include\core_armv8mbl.h:1281:1
	add	sp, #4
	bx	lr
.Ltmp25:
	.loc	7 0 1 is_stmt 0                 @ :0:1
.Ltmp26:
	.p2align	2
@ %bb.3:
__arm_cp.1_0:
	.long	3758153984                      @ 0xe000e100
.Lcpi_end15:
	.size	__arm_cp.1_0, .Lcpi_end15-__arm_cp.1_0
.Lfunc_end1:
	.size	__NVIC_EnableIRQ, .Lfunc_end1-__NVIC_EnableIRQ
	.cfi_endproc
	.cantunwind
	.fnend
                                        @ -- End function
	.section	.text.__NVIC_DisableIRQ,"ax",%progbits
	.p2align	2                               @ -- Begin function __NVIC_DisableIRQ
	.type	__NVIC_DisableIRQ,%function
	.code	16                              @ @__NVIC_DisableIRQ
	.thumb_func
__NVIC_DisableIRQ:
.Lfunc_begin2:
	.loc	7 1312 0 is_stmt 1              @ ../../CCC_common/Library/CMSIS/Include\core_armv8mbl.h:1312:0
	.fnstart
	.cfi_startproc
@ %bb.0:
	.pad	#4
	sub	sp, #4
	.cfi_def_cfa_offset 4
	str	r0, [sp]
.Ltmp27:
	.loc	7 1313 17 prologue_end          @ ../../CCC_common/Library/CMSIS/Include\core_armv8mbl.h:1313:17
	ldr	r0, [sp]
.Ltmp28:
	.loc	7 1313 7 is_stmt 0              @ ../../CCC_common/Library/CMSIS/Include\core_armv8mbl.h:1313:7
	cmp	r0, #0
	bmi	.LBB2_2
	b	.LBB2_1
.LBB2_1:
.Ltmp29:
	.loc	7 1315 93 is_stmt 1             @ ../../CCC_common/Library/CMSIS/Include\core_armv8mbl.h:1315:93
	ldr	r1, [sp]
	movs	r0, #31
	.loc	7 1315 99 is_stmt 0             @ ../../CCC_common/Library/CMSIS/Include\core_armv8mbl.h:1315:99
	mov	r2, r1
	ands	r2, r0
	movs	r0, #1
	.loc	7 1315 69                       @ ../../CCC_common/Library/CMSIS/Include\core_armv8mbl.h:1315:69
	lsls	r0, r2
	.loc	7 1315 5                        @ ../../CCC_common/Library/CMSIS/Include\core_armv8mbl.h:1315:5
	lsrs	r1, r1, #5
	lsls	r1, r1, #2
	ldr	r2, __arm_cp.2_0
	.loc	7 1315 52                       @ ../../CCC_common/Library/CMSIS/Include\core_armv8mbl.h:1315:52
	str	r0, [r1, r2]
	.loc	7 1316 5 is_stmt 1              @ ../../CCC_common/Library/CMSIS/Include\core_armv8mbl.h:1316:5
	dsb	sy
	.loc	7 1317 5                        @ ../../CCC_common/Library/CMSIS/Include\core_armv8mbl.h:1317:5
	isb	sy
	.loc	7 1318 3                        @ ../../CCC_common/Library/CMSIS/Include\core_armv8mbl.h:1318:3
	b	.LBB2_2
.Ltmp30:
.LBB2_2:
	.loc	7 1319 1 epilogue_begin         @ ../../CCC_common/Library/CMSIS/Include\core_armv8mbl.h:1319:1
	add	sp, #4
	bx	lr
.Ltmp31:
	.loc	7 0 1 is_stmt 0                 @ :0:1
.Ltmp32:
	.p2align	2
@ %bb.3:
__arm_cp.2_0:
	.long	3758154112                      @ 0xe000e180
.Lcpi_end16:
	.size	__arm_cp.2_0, .Lcpi_end16-__arm_cp.2_0
.Lfunc_end2:
	.size	__NVIC_DisableIRQ, .Lfunc_end2-__NVIC_DisableIRQ
	.cfi_endproc
	.cantunwind
	.fnend
                                        @ -- End function
	.section	.text.spi_master_sm,"ax",%progbits
	.hidden	spi_master_sm                   @ -- Begin function spi_master_sm
	.globl	spi_master_sm
	.p2align	2
	.type	spi_master_sm,%function
	.code	16                              @ @spi_master_sm
	.thumb_func
spi_master_sm:
.Lfunc_begin3:
	.loc	8 98 0 is_stmt 1                @ source/driver/drvr_spi.c:98:0
	.fnstart
	.cfi_startproc
@ %bb.0:
	.save	{r7, lr}
	push	{r7, lr}
	.cfi_def_cfa_offset 8
	.cfi_offset lr, -4
	.cfi_offset r7, -8
	.pad	#24
	sub	sp, #24
	.cfi_def_cfa_offset 32
	str	r0, [sp, #20]
.Ltmp33:
	.loc	8 101 10 prologue_end           @ source/driver/drvr_spi.c:101:10
	ldr	r0, [sp, #20]
	.loc	8 101 18 is_stmt 0              @ source/driver/drvr_spi.c:101:18
	ldr	r0, [r0, #20]
	.loc	8 101 2                         @ source/driver/drvr_spi.c:101:2
	str	r0, [sp, #12]                   @ 4-byte Spill
	cmp	r0, #3
	bls	.LBB3_1
	b	.LBB3_38
.LBB3_1:
	ldr	r1, [sp, #12]                   @ 4-byte Reload
	lsls	r2, r1, #2
	adr	r0, .LJTI3_0
	adds	r0, r0, r2
	mov	pc, r0
@ %bb.2:
	.loc	8 0 2                           @ source/driver/drvr_spi.c:0:2
	.p2align	2
.LJTI3_0:
	b.w	.LBB3_3
	b.w	.LBB3_33
	b.w	.LBB3_13
	b.w	.LBB3_37
.LBB3_3:
.Ltmp34:
	.loc	8 104 9 is_stmt 1               @ source/driver/drvr_spi.c:104:9
	ldr	r0, [sp, #20]
	.loc	8 104 17 is_stmt 0              @ source/driver/drvr_spi.c:104:17
	ldrb	r0, [r0, #16]
	.loc	8 104 35                        @ source/driver/drvr_spi.c:104:35
	cbz	r0, .LBB3_6
	b	.LBB3_4
.LBB3_4:
	.loc	8 104 38                        @ source/driver/drvr_spi.c:104:38
	ldr	r0, [sp, #20]
	.loc	8 104 46                        @ source/driver/drvr_spi.c:104:46
	ldrb	r0, [r0, #16]
.Ltmp35:
	.loc	8 104 7                         @ source/driver/drvr_spi.c:104:7
	cmp	r0, #1
	beq	.LBB3_6
	b	.LBB3_5
.LBB3_5:
.Ltmp36:
	.loc	8 105 5 is_stmt 1               @ source/driver/drvr_spi.c:105:5
	b	.LBB3_39
.Ltmp37:
.LBB3_6:
	.loc	8 106 4                         @ source/driver/drvr_spi.c:106:4
	ldr	r1, [sp, #20]
	movs	r0, #0
	.loc	8 106 21 is_stmt 0              @ source/driver/drvr_spi.c:106:21
	strb	r0, [r1, #29]
	.loc	8 108 12 is_stmt 1              @ source/driver/drvr_spi.c:108:12
	ldr	r0, [sp, #20]
	.loc	8 108 20 is_stmt 0              @ source/driver/drvr_spi.c:108:20
	ldrb	r0, [r0, #28]
	.loc	8 108 4                         @ source/driver/drvr_spi.c:108:4
	str	r0, [sp, #8]                    @ 4-byte Spill
	cbz	r0, .LBB3_9
	b	.LBB3_7
.LBB3_7:
	ldr	r0, [sp, #8]                    @ 4-byte Reload
	cmp	r0, #1
	beq	.LBB3_10
	b	.LBB3_8
.LBB3_8:
	ldr	r0, [sp, #8]                    @ 4-byte Reload
	cmp	r0, #2
	beq	.LBB3_11
	b	.LBB3_12
.LBB3_9:
.Ltmp38:
	.loc	8 110 6 is_stmt 1               @ source/driver/drvr_spi.c:110:6
	ldr	r0, [sp, #20]
	ldr	r0, [r0, #24]
	ldr	r0, [r0, #8]
	movs	r1, #1
	orrs	r0, r1
	movs	r1, #12
	bics	r0, r1
	ldr	r1, [sp, #20]
	ldr	r1, [r1, #24]
	str	r0, [r1, #8]
	.loc	8 111 6                         @ source/driver/drvr_spi.c:111:6
	b	.LBB3_12
.LBB3_10:
	.loc	8 0 6 is_stmt 0                 @ source/driver/drvr_spi.c:0:6
	ldr	r1, __arm_cp.3_1
	movs	r0, #0
	.loc	8 113 6 is_stmt 1               @ source/driver/drvr_spi.c:113:6
	str	r0, [r1]
	.loc	8 114 6                         @ source/driver/drvr_spi.c:114:6
	b	.LBB3_12
.LBB3_11:
	.loc	8 0 6 is_stmt 0                 @ source/driver/drvr_spi.c:0:6
	ldr	r1, __arm_cp.3_0
	movs	r0, #0
	.loc	8 116 6 is_stmt 1               @ source/driver/drvr_spi.c:116:6
	str	r0, [r1]
	.loc	8 117 6                         @ source/driver/drvr_spi.c:117:6
	b	.LBB3_12
.Ltmp39:
.LBB3_12:
	.loc	8 120 4                         @ source/driver/drvr_spi.c:120:4
	ldr	r0, [sp, #20]
	ldr	r0, [r0, #24]
	ldr	r0, [r0]
	movw	r1, #7936
	bics	r0, r1
	movw	r1, #2048
	adds	r0, r0, r1
	ldr	r1, [sp, #20]
	ldr	r1, [r1, #24]
	str	r0, [r1]
	.loc	8 121 4                         @ source/driver/drvr_spi.c:121:4
	ldr	r1, [sp, #20]
	movs	r0, #2
	.loc	8 121 18 is_stmt 0              @ source/driver/drvr_spi.c:121:18
	str	r0, [r1, #20]
	.loc	8 122 4 is_stmt 1               @ source/driver/drvr_spi.c:122:4
	b	.LBB3_39
.LBB3_13:
.Ltmp40:
	.loc	8 125 8                         @ source/driver/drvr_spi.c:125:8
	ldr	r0, [sp, #20]
	ldr	r0, [r0, #24]
	ldr	r0, [r0, #20]
.Ltmp41:
	.loc	8 125 8 is_stmt 0               @ source/driver/drvr_spi.c:125:8
	lsls	r0, r0, #31
	cbz	r0, .LBB3_15
	b	.LBB3_14
.LBB3_14:
.Ltmp42:
	.loc	8 125 35                        @ source/driver/drvr_spi.c:125:35
	b	.LBB3_39
.Ltmp43:
.LBB3_15:
	.loc	8 126 7 is_stmt 1               @ source/driver/drvr_spi.c:126:7
	ldr	r0, [sp, #20]
	.loc	8 126 15 is_stmt 0              @ source/driver/drvr_spi.c:126:15
	ldr	r0, [r0]
	.loc	8 126 20                        @ source/driver/drvr_spi.c:126:20
	ldrb	r0, [r0, #12]
.Ltmp44:
	.loc	8 126 7                         @ source/driver/drvr_spi.c:126:7
	cbz	r0, .LBB3_23
	b	.LBB3_16
.LBB3_16:
.Ltmp45:
	.loc	8 127 5 is_stmt 1               @ source/driver/drvr_spi.c:127:5
	ldr	r1, [sp, #20]
	movs	r0, #0
	.loc	8 127 19 is_stmt 0              @ source/driver/drvr_spi.c:127:19
	str	r0, [r1, #20]
	.loc	8 128 5 is_stmt 1               @ source/driver/drvr_spi.c:128:5
	ldr	r1, [sp, #20]
	movs	r0, #1
	.loc	8 128 22 is_stmt 0              @ source/driver/drvr_spi.c:128:22
	strb	r0, [r1, #29]
	.loc	8 129 5 is_stmt 1               @ source/driver/drvr_spi.c:129:5
	ldr	r1, [sp, #20]
	movs	r0, #3
	.loc	8 129 18 is_stmt 0              @ source/driver/drvr_spi.c:129:18
	strb	r0, [r1, #16]
	.loc	8 130 13 is_stmt 1              @ source/driver/drvr_spi.c:130:13
	ldr	r0, [sp, #20]
	.loc	8 130 21 is_stmt 0              @ source/driver/drvr_spi.c:130:21
	ldrb	r0, [r0, #28]
	.loc	8 130 5                         @ source/driver/drvr_spi.c:130:5
	str	r0, [sp, #4]                    @ 4-byte Spill
	cbz	r0, .LBB3_19
	b	.LBB3_17
.LBB3_17:
	ldr	r0, [sp, #4]                    @ 4-byte Reload
	cmp	r0, #1
	beq	.LBB3_20
	b	.LBB3_18
.LBB3_18:
	ldr	r0, [sp, #4]                    @ 4-byte Reload
	cmp	r0, #2
	beq	.LBB3_21
	b	.LBB3_22
.LBB3_19:
.Ltmp46:
	.loc	8 132 7 is_stmt 1               @ source/driver/drvr_spi.c:132:7
	ldr	r0, [sp, #20]
	ldr	r0, [r0, #24]
	ldr	r0, [r0, #8]
	movs	r1, #5
	orrs	r0, r1
	movs	r1, #8
	bics	r0, r1
	ldr	r1, [sp, #20]
	ldr	r1, [r1, #24]
	str	r0, [r1, #8]
	.loc	8 133 7                         @ source/driver/drvr_spi.c:133:7
	b	.LBB3_22
.LBB3_20:
	.loc	8 0 7 is_stmt 0                 @ source/driver/drvr_spi.c:0:7
	ldr	r1, __arm_cp.3_1
	movs	r0, #1
	.loc	8 135 7 is_stmt 1               @ source/driver/drvr_spi.c:135:7
	str	r0, [r1]
	.loc	8 136 7                         @ source/driver/drvr_spi.c:136:7
	b	.LBB3_22
.LBB3_21:
	.loc	8 0 7 is_stmt 0                 @ source/driver/drvr_spi.c:0:7
	ldr	r1, __arm_cp.3_0
	movs	r0, #1
	.loc	8 138 7 is_stmt 1               @ source/driver/drvr_spi.c:138:7
	str	r0, [r1]
	.loc	8 139 7                         @ source/driver/drvr_spi.c:139:7
	b	.LBB3_22
.Ltmp47:
.LBB3_22:
	.loc	8 141 4                         @ source/driver/drvr_spi.c:141:4
	b	.LBB3_32
.Ltmp48:
.LBB3_23:
	.loc	8 143 8                         @ source/driver/drvr_spi.c:143:8
	ldr	r0, [sp, #20]
	.loc	8 143 16 is_stmt 0              @ source/driver/drvr_spi.c:143:16
	ldrb	r0, [r0, #16]
.Ltmp49:
	.loc	8 143 8                         @ source/driver/drvr_spi.c:143:8
	cbnz	r0, .LBB3_28
	b	.LBB3_24
.LBB3_24:
.Ltmp50:
	.loc	8 144 20 is_stmt 1              @ source/driver/drvr_spi.c:144:20
	ldr	r0, [sp, #20]
	.loc	8 144 28 is_stmt 0              @ source/driver/drvr_spi.c:144:28
	ldr	r0, [r0]
	add	r1, sp, #16
	.loc	8 144 6                         @ source/driver/drvr_spi.c:144:6
	bl	fifo_read_isr
	.loc	8 145 6 is_stmt 1               @ source/driver/drvr_spi.c:145:6
	b	.LBB3_25
.LBB3_25:                               @ =>This Inner Loop Header: Depth=1
	.loc	8 145 12 is_stmt 0              @ source/driver/drvr_spi.c:145:12
	ldr	r0, [sp, #20]
	ldr	r0, [r0, #24]
	ldr	r0, [r0, #20]
	movw	r1, #256
	ands	r0, r1
	lsrs	r0, r0, #8
	.loc	8 145 6                         @ source/driver/drvr_spi.c:145:6
	cbnz	r0, .LBB3_27
	b	.LBB3_26
.LBB3_26:                               @   in Loop: Header=BB3_25 Depth=1
	.loc	8 146 7 is_stmt 1               @ source/driver/drvr_spi.c:146:7
	ldr	r0, [sp, #20]
	ldr	r0, [r0, #24]
	ldr	r0, [r0, #48]
	.loc	8 145 6                         @ source/driver/drvr_spi.c:145:6
	b	.LBB3_25
.LBB3_27:
	.loc	8 0 6 is_stmt 0                 @ source/driver/drvr_spi.c:0:6
	add	r0, sp, #16
	.loc	8 148 6 is_stmt 1               @ source/driver/drvr_spi.c:148:6
	ldrb	r0, [r0]
	ldr	r1, [sp, #20]
	ldr	r1, [r1, #24]
	str	r0, [r1, #32]
	.loc	8 149 5                         @ source/driver/drvr_spi.c:149:5
	b	.LBB3_31
.Ltmp51:
.LBB3_28:
	.loc	8 150 13                        @ source/driver/drvr_spi.c:150:13
	ldr	r0, [sp, #20]
	.loc	8 150 21 is_stmt 0              @ source/driver/drvr_spi.c:150:21
	ldrb	r0, [r0, #16]
.Ltmp52:
	.loc	8 150 13                        @ source/driver/drvr_spi.c:150:13
	cmp	r0, #1
	bne	.LBB3_30
	b	.LBB3_29
.LBB3_29:
.Ltmp53:
	.loc	8 151 20 is_stmt 1              @ source/driver/drvr_spi.c:151:20
	ldr	r0, [sp, #20]
	.loc	8 151 28 is_stmt 0              @ source/driver/drvr_spi.c:151:28
	ldr	r0, [r0]
	add	r1, sp, #16
	.loc	8 151 6                         @ source/driver/drvr_spi.c:151:6
	str	r1, [sp]                        @ 4-byte Spill
	bl	fifo_read_isr
                                        @ kill: def $r1 killed $r0
	.loc	8 152 6 is_stmt 1               @ source/driver/drvr_spi.c:152:6
	ldr	r0, [sp]                        @ 4-byte Reload
	ldrb	r0, [r0]
	ldr	r1, [sp, #20]
	ldr	r1, [r1, #24]
	str	r0, [r1, #32]
	.loc	8 153 5                         @ source/driver/drvr_spi.c:153:5
	b	.LBB3_30
.Ltmp54:
.LBB3_30:
	.loc	8 0 5 is_stmt 0                 @ source/driver/drvr_spi.c:0:5
	b	.LBB3_31
.LBB3_31:
	.loc	8 154 5 is_stmt 1               @ source/driver/drvr_spi.c:154:5
	ldr	r1, [sp, #20]
	movs	r0, #1
	.loc	8 154 19 is_stmt 0              @ source/driver/drvr_spi.c:154:19
	str	r0, [r1, #20]
	b	.LBB3_32
.Ltmp55:
.LBB3_32:
	.loc	8 156 4 is_stmt 1               @ source/driver/drvr_spi.c:156:4
	b	.LBB3_39
.LBB3_33:
.Ltmp56:
	.loc	8 160 7                         @ source/driver/drvr_spi.c:160:7
	ldr	r0, [sp, #20]
	.loc	8 160 15 is_stmt 0              @ source/driver/drvr_spi.c:160:15
	ldr	r0, [r0, #4]
	.loc	8 160 20                        @ source/driver/drvr_spi.c:160:20
	ldrb	r0, [r0, #13]
	.loc	8 160 33                        @ source/driver/drvr_spi.c:160:33
	cbnz	r0, .LBB3_36
	b	.LBB3_34
.LBB3_34:
	.loc	8 160 36                        @ source/driver/drvr_spi.c:160:36
	ldr	r0, [sp, #20]
	ldr	r0, [r0, #24]
	ldr	r0, [r0, #20]
	movw	r1, #256
	ands	r0, r1
	lsrs	r0, r0, #8
.Ltmp57:
	.loc	8 160 7                         @ source/driver/drvr_spi.c:160:7
	cbnz	r0, .LBB3_36
	b	.LBB3_35
.LBB3_35:
.Ltmp58:
	.loc	8 161 10 is_stmt 1              @ source/driver/drvr_spi.c:161:10
	ldr	r0, [sp, #20]
	ldr	r0, [r0, #24]
	ldr	r0, [r0, #48]
	add	r1, sp, #16
	.loc	8 161 8 is_stmt 0               @ source/driver/drvr_spi.c:161:8
	strb	r0, [r1]
	.loc	8 162 20 is_stmt 1              @ source/driver/drvr_spi.c:162:20
	ldr	r0, [sp, #20]
	.loc	8 162 28 is_stmt 0              @ source/driver/drvr_spi.c:162:28
	ldr	r0, [r0, #4]
	.loc	8 162 32                        @ source/driver/drvr_spi.c:162:32
	ldrb	r1, [r1]
	.loc	8 162 5                         @ source/driver/drvr_spi.c:162:5
	bl	fifo_write_isr
	.loc	8 163 5 is_stmt 1               @ source/driver/drvr_spi.c:163:5
	ldr	r1, [sp, #20]
	movs	r0, #2
	.loc	8 163 19 is_stmt 0              @ source/driver/drvr_spi.c:163:19
	str	r0, [r1, #20]
	.loc	8 164 4 is_stmt 1               @ source/driver/drvr_spi.c:164:4
	b	.LBB3_36
.Ltmp59:
.LBB3_36:
	.loc	8 165 4                         @ source/driver/drvr_spi.c:165:4
	b	.LBB3_39
.LBB3_37:
	.loc	8 168 4                         @ source/driver/drvr_spi.c:168:4
	b	.LBB3_39
.LBB3_38:
	.loc	8 171 2                         @ source/driver/drvr_spi.c:171:2
	b	.LBB3_39
.Ltmp60:
.LBB3_39:
	.loc	8 172 1 epilogue_begin          @ source/driver/drvr_spi.c:172:1
	add	sp, #24
	pop	{r7, pc}
.Ltmp61:
	.loc	8 0 1 is_stmt 0                 @ :0:1
.Ltmp62:
	.p2align	2
@ %bb.40:
__arm_cp.3_0:
	.long	1073760404                      @ 0x40004894
.Lcpi_end17:
	.size	__arm_cp.3_0, .Lcpi_end17-__arm_cp.3_0
__arm_cp.3_1:
	.long	1073760400                      @ 0x40004890
.Lcpi_end18:
	.size	__arm_cp.3_1, .Lcpi_end18-__arm_cp.3_1
.Lfunc_end3:
	.size	spi_master_sm, .Lfunc_end3-spi_master_sm
	.cfi_endproc
	.cantunwind
	.fnend
                                        @ -- End function
	.section	.text.spi_agent_sm,"ax",%progbits
	.hidden	spi_agent_sm                    @ -- Begin function spi_agent_sm
	.globl	spi_agent_sm
	.p2align	2
	.type	spi_agent_sm,%function
	.code	16                              @ @spi_agent_sm
	.thumb_func
spi_agent_sm:
.Lfunc_begin4:
	.loc	8 177 0 is_stmt 1               @ source/driver/drvr_spi.c:177:0
	.fnstart
	.cfi_startproc
@ %bb.0:
	.save	{r7, lr}
	push	{r7, lr}
	.cfi_def_cfa_offset 8
	.cfi_offset lr, -4
	.cfi_offset r7, -8
	.pad	#24
	sub	sp, #24
	.cfi_def_cfa_offset 32
	str	r0, [sp, #20]
.Ltmp63:
	.loc	8 178 16 prologue_end           @ source/driver/drvr_spi.c:178:16
	ldr	r0, [sp, #20]
	.loc	8 178 24 is_stmt 0              @ source/driver/drvr_spi.c:178:24
	ldr	r0, [r0, #24]
	.loc	8 178 9                         @ source/driver/drvr_spi.c:178:9
	str	r0, [sp, #16]
	.loc	8 181 10 is_stmt 1              @ source/driver/drvr_spi.c:181:10
	ldr	r0, [sp, #20]
	.loc	8 181 18 is_stmt 0              @ source/driver/drvr_spi.c:181:18
	ldr	r0, [r0, #20]
	.loc	8 181 2                         @ source/driver/drvr_spi.c:181:2
	str	r0, [sp, #8]                    @ 4-byte Spill
	cmp	r0, #5
	bhi	.LBB4_22
@ %bb.1:
	ldr	r1, [sp, #8]                    @ 4-byte Reload
	lsls	r2, r1, #2
	adr	r0, .LJTI4_0
	adds	r0, r0, r2
	mov	pc, r0
@ %bb.2:
	.loc	8 0 2                           @ source/driver/drvr_spi.c:0:2
	.p2align	2
.LJTI4_0:
	b.w	.LBB4_3
	b.w	.LBB4_22
	b.w	.LBB4_22
	b.w	.LBB4_21
	b.w	.LBB4_7
	b.w	.LBB4_14
.LBB4_3:
.Ltmp64:
	.loc	8 184 7 is_stmt 1               @ source/driver/drvr_spi.c:184:7
	ldr	r0, [sp, #16]
	.loc	8 184 13 is_stmt 0              @ source/driver/drvr_spi.c:184:13
	ldr	r0, [r0, #20]
.Ltmp65:
	.loc	8 184 7                         @ source/driver/drvr_spi.c:184:7
	lsls	r0, r0, #29
	cmp	r0, #0
	bpl	.LBB4_5
	b	.LBB4_4
.LBB4_4:
.Ltmp66:
	.loc	8 186 5 is_stmt 1               @ source/driver/drvr_spi.c:186:5
	ldr	r2, [sp, #16]
	.loc	8 186 18 is_stmt 0              @ source/driver/drvr_spi.c:186:18
	ldr	r1, [r2, #20]
	movs	r0, #4
	orrs	r1, r0
	str	r1, [r2, #20]
	.loc	8 187 5 is_stmt 1               @ source/driver/drvr_spi.c:187:5
	ldr	r1, [sp, #20]
	.loc	8 187 19 is_stmt 0              @ source/driver/drvr_spi.c:187:19
	str	r0, [r1, #20]
	.loc	8 188 4 is_stmt 1               @ source/driver/drvr_spi.c:188:4
	b	.LBB4_6
.Ltmp67:
.LBB4_5:
	.loc	8 189 9                         @ source/driver/drvr_spi.c:189:9
	b	.LBB4_23
.LBB4_6:
	.loc	8 184 22                        @ source/driver/drvr_spi.c:184:22
	b	.LBB4_7
.Ltmp68:
.LBB4_7:
	.loc	8 192 4                         @ source/driver/drvr_spi.c:192:4
	b	.LBB4_8
.LBB4_8:                                @ =>This Inner Loop Header: Depth=1
	.loc	8 192 10 is_stmt 0              @ source/driver/drvr_spi.c:192:10
	ldr	r0, [sp, #16]
	ldr	r0, [r0, #20]
	movw	r1, #256
	ands	r0, r1
	lsrs	r0, r0, #8
	.loc	8 192 4                         @ source/driver/drvr_spi.c:192:4
	cbnz	r0, .LBB4_10
	b	.LBB4_9
.LBB4_9:                                @   in Loop: Header=BB4_8 Depth=1
.Ltmp69:
	.loc	8 193 10 is_stmt 1              @ source/driver/drvr_spi.c:193:10
	ldr	r0, [sp, #20]
	ldr	r0, [r0, #24]
	ldr	r0, [r0, #48]
	add	r1, sp, #12
	.loc	8 193 8 is_stmt 0               @ source/driver/drvr_spi.c:193:8
	strb	r0, [r1]
	.loc	8 194 16 is_stmt 1              @ source/driver/drvr_spi.c:194:16
	ldr	r0, [sp, #20]
	.loc	8 194 24 is_stmt 0              @ source/driver/drvr_spi.c:194:24
	ldr	r0, [r0, #4]
	.loc	8 194 28                        @ source/driver/drvr_spi.c:194:28
	ldrb	r1, [r1]
	.loc	8 194 5                         @ source/driver/drvr_spi.c:194:5
	bl	fifo_write
.Ltmp70:
	.loc	8 192 4 is_stmt 1               @ source/driver/drvr_spi.c:192:4
	b	.LBB4_8
.LBB4_10:
.Ltmp71:
	.loc	8 196 7                         @ source/driver/drvr_spi.c:196:7
	ldr	r0, [sp, #16]
	.loc	8 196 13 is_stmt 0              @ source/driver/drvr_spi.c:196:13
	ldr	r0, [r0, #20]
.Ltmp72:
	.loc	8 196 7                         @ source/driver/drvr_spi.c:196:7
	lsls	r0, r0, #28
	cmp	r0, #0
	bpl	.LBB4_12
	b	.LBB4_11
.LBB4_11:
.Ltmp73:
	.loc	8 198 5 is_stmt 1               @ source/driver/drvr_spi.c:198:5
	ldr	r1, [sp, #16]
	.loc	8 198 18 is_stmt 0              @ source/driver/drvr_spi.c:198:18
	ldr	r0, [r1, #20]
	movs	r2, #8
	orrs	r0, r2
	str	r0, [r1, #20]
	.loc	8 200 5 is_stmt 1               @ source/driver/drvr_spi.c:200:5
	ldr	r0, [sp, #20]
	.loc	8 200 13 is_stmt 0              @ source/driver/drvr_spi.c:200:13
	ldr	r1, [r0, #12]
	.loc	8 200 5                         @ source/driver/drvr_spi.c:200:5
	blx	r1
	.loc	8 202 5 is_stmt 1               @ source/driver/drvr_spi.c:202:5
	ldr	r1, [sp, #16]
	.loc	8 202 19 is_stmt 0              @ source/driver/drvr_spi.c:202:19
	ldr	r0, [r1, #16]
	movw	r2, #768
	orrs	r0, r2
	str	r0, [r1, #16]
	.loc	8 203 5 is_stmt 1               @ source/driver/drvr_spi.c:203:5
	ldr	r1, [sp, #20]
	movs	r0, #5
	.loc	8 203 19 is_stmt 0              @ source/driver/drvr_spi.c:203:19
	str	r0, [r1, #20]
	.loc	8 204 4 is_stmt 1               @ source/driver/drvr_spi.c:204:4
	b	.LBB4_13
.Ltmp74:
.LBB4_12:
	.loc	8 205 9                         @ source/driver/drvr_spi.c:205:9
	b	.LBB4_23
.LBB4_13:
	.loc	8 196 22                        @ source/driver/drvr_spi.c:196:22
	b	.LBB4_14
.Ltmp75:
.LBB4_14:
	.loc	8 208 4                         @ source/driver/drvr_spi.c:208:4
	b	.LBB4_15
.LBB4_15:                               @ =>This Inner Loop Header: Depth=1
	.loc	8 208 10 is_stmt 0              @ source/driver/drvr_spi.c:208:10
	ldr	r0, [sp, #20]
	.loc	8 208 18                        @ source/driver/drvr_spi.c:208:18
	ldr	r0, [r0]
	.loc	8 208 23                        @ source/driver/drvr_spi.c:208:23
	ldrb	r0, [r0, #12]
	.loc	8 208 4                         @ source/driver/drvr_spi.c:208:4
	cbnz	r0, .LBB4_20
	b	.LBB4_16
.LBB4_16:                               @   in Loop: Header=BB4_15 Depth=1
.Ltmp76:
	.loc	8 209 8 is_stmt 1               @ source/driver/drvr_spi.c:209:8
	ldr	r0, [sp, #20]
	ldr	r0, [r0, #24]
	ldr	r0, [r0, #20]
	movs	r1, #1
	lsls	r1, r1, #17
	ands	r0, r1
	lsrs	r0, r0, #17
.Ltmp77:
	.loc	8 209 8 is_stmt 0               @ source/driver/drvr_spi.c:209:8
	cbnz	r0, .LBB4_18
	b	.LBB4_17
.LBB4_17:                               @   in Loop: Header=BB4_15 Depth=1
.Ltmp78:
	.loc	8 210 16 is_stmt 1              @ source/driver/drvr_spi.c:210:16
	ldr	r0, [sp, #20]
	.loc	8 210 24 is_stmt 0              @ source/driver/drvr_spi.c:210:24
	ldr	r0, [r0]
	add	r1, sp, #12
	.loc	8 210 6                         @ source/driver/drvr_spi.c:210:6
	str	r1, [sp, #4]                    @ 4-byte Spill
	bl	fifo_read
                                        @ kill: def $r1 killed $r0
	.loc	8 211 6 is_stmt 1               @ source/driver/drvr_spi.c:211:6
	ldr	r0, [sp, #4]                    @ 4-byte Reload
	ldrb	r0, [r0]
	ldr	r1, [sp, #20]
	ldr	r1, [r1, #24]
	str	r0, [r1, #32]
	.loc	8 212 5                         @ source/driver/drvr_spi.c:212:5
	b	.LBB4_19
.Ltmp79:
.LBB4_18:
	.loc	8 213 10                        @ source/driver/drvr_spi.c:213:10
	b	.LBB4_23
.Ltmp80:
.LBB4_19:                               @   in Loop: Header=BB4_15 Depth=1
	.loc	8 208 4                         @ source/driver/drvr_spi.c:208:4
	b	.LBB4_15
.LBB4_20:
	.loc	8 215 4                         @ source/driver/drvr_spi.c:215:4
	ldr	r1, [sp, #20]
	movs	r0, #0
	.loc	8 215 18 is_stmt 0              @ source/driver/drvr_spi.c:215:18
	str	r0, [r1, #20]
	.loc	8 216 4 is_stmt 1               @ source/driver/drvr_spi.c:216:4
	b	.LBB4_23
.LBB4_21:
	.loc	8 218 4                         @ source/driver/drvr_spi.c:218:4
	b	.LBB4_23
.LBB4_22:
	.loc	8 221 2                         @ source/driver/drvr_spi.c:221:2
	b	.LBB4_23
.Ltmp81:
.LBB4_23:
	.loc	8 222 1 epilogue_begin          @ source/driver/drvr_spi.c:222:1
	add	sp, #24
	pop	{r7, pc}
.Ltmp82:
.Lfunc_end4:
	.size	spi_agent_sm, .Lfunc_end4-spi_agent_sm
	.cfi_endproc
	.cantunwind
	.fnend
                                        @ -- End function
	.section	.text.spi_master_read,"ax",%progbits
	.hidden	spi_master_read                 @ -- Begin function spi_master_read
	.globl	spi_master_read
	.p2align	1
	.type	spi_master_read,%function
	.code	16                              @ @spi_master_read
	.thumb_func
spi_master_read:
.Lfunc_begin5:
	.loc	8 224 0                         @ source/driver/drvr_spi.c:224:0
	.fnstart
	.cfi_startproc
@ %bb.0:
	.pad	#8
	sub	sp, #8
	.cfi_def_cfa_offset 8
                                        @ kill: def $r2 killed $r1
	str	r0, [sp, #4]
	mov	r0, sp
	strb	r1, [r0]
.Ltmp83:
	.loc	8 225 2 prologue_end            @ source/driver/drvr_spi.c:225:2
	ldr	r1, [sp, #4]
	movs	r0, #0
	.loc	8 225 19 is_stmt 0              @ source/driver/drvr_spi.c:225:19
	strb	r0, [r1, #29]
	.loc	8 226 21 is_stmt 1              @ source/driver/drvr_spi.c:226:21
	ldr	r0, [sp]
	.loc	8 226 2 is_stmt 0               @ source/driver/drvr_spi.c:226:2
	ldr	r1, [sp, #4]
	.loc	8 226 19                        @ source/driver/drvr_spi.c:226:19
	strb	r0, [r1, #28]
	.loc	8 227 2 is_stmt 1               @ source/driver/drvr_spi.c:227:2
	ldr	r1, [sp, #4]
	movs	r0, #1
	.loc	8 227 15 is_stmt 0              @ source/driver/drvr_spi.c:227:15
	strb	r0, [r1, #16]
	.loc	8 228 1 epilogue_begin is_stmt 1 @ source/driver/drvr_spi.c:228:1
	add	sp, #8
	bx	lr
.Ltmp84:
.Lfunc_end5:
	.size	spi_master_read, .Lfunc_end5-spi_master_read
	.cfi_endproc
	.cantunwind
	.fnend
                                        @ -- End function
	.section	.text.spi_master_write,"ax",%progbits
	.hidden	spi_master_write                @ -- Begin function spi_master_write
	.globl	spi_master_write
	.p2align	1
	.type	spi_master_write,%function
	.code	16                              @ @spi_master_write
	.thumb_func
spi_master_write:
.Lfunc_begin6:
	.loc	8 230 0                         @ source/driver/drvr_spi.c:230:0
	.fnstart
	.cfi_startproc
@ %bb.0:
	.pad	#8
	sub	sp, #8
	.cfi_def_cfa_offset 8
                                        @ kill: def $r2 killed $r1
	str	r0, [sp, #4]
	mov	r0, sp
	strb	r1, [r0]
.Ltmp85:
	.loc	8 231 2 prologue_end            @ source/driver/drvr_spi.c:231:2
	ldr	r1, [sp, #4]
	movs	r0, #0
	.loc	8 231 19 is_stmt 0              @ source/driver/drvr_spi.c:231:19
	strb	r0, [r1, #29]
	.loc	8 232 21 is_stmt 1              @ source/driver/drvr_spi.c:232:21
	ldr	r1, [sp]
	.loc	8 232 2 is_stmt 0               @ source/driver/drvr_spi.c:232:2
	ldr	r2, [sp, #4]
	.loc	8 232 19                        @ source/driver/drvr_spi.c:232:19
	strb	r1, [r2, #28]
	.loc	8 233 2 is_stmt 1               @ source/driver/drvr_spi.c:233:2
	ldr	r1, [sp, #4]
	.loc	8 233 15 is_stmt 0              @ source/driver/drvr_spi.c:233:15
	strb	r0, [r1, #16]
	.loc	8 234 1 epilogue_begin is_stmt 1 @ source/driver/drvr_spi.c:234:1
	add	sp, #8
	bx	lr
.Ltmp86:
.Lfunc_end6:
	.size	spi_master_write, .Lfunc_end6-spi_master_write
	.cfi_endproc
	.cantunwind
	.fnend
                                        @ -- End function
	.file	9 "D:\\work\\dheeraj\\local\\CEL\\CCC\\CCC_CPU0\\Code" "source/Include\\fifo.h"
	.section	".note.GNU-stack","",%progbits
	.eabi_attribute	30, 6	@ Tag_ABI_optimization_goals
	.ARM_attribute	16, 1	@ Tag_AV_eba