	.text
	.syntax unified
	.eabi_attribute	67, "2.09"	@ Tag_conformance
	.cpu	cortex-m23
	.eabi_attribute	6, 16	@ Tag_CPU_arch
	.eabi_attribute	7, 77	@ Tag_CPU_arch_profile
	.eabi_attribute	8, 0	@ Tag_ARM_ISA_use
	.eabi_attribute	9, 3	@ Tag_THUMB_ISA_use
	.eabi_attribute	34, 0	@ Tag_CPU_unaligned_access
	.eabi_attribute	17, 1	@ Tag_ABI_PCS_GOT_use
	.eabi_attribute	20, 2	@ Tag_ABI_FP_denormal
	.eabi_attribute	21, 0	@ Tag_ABI_FP_exceptions
	.eabi_attribute	23, 1	@ Tag_ABI_FP_number_model
	.eabi_attribute	24, 1	@ Tag_ABI_align_needed
	.eabi_attribute	25, 1	@ Tag_ABI_align_preserved
	.eabi_attribute	38, 1	@ Tag_ABI_FP_16bit_format
	.eabi_attribute	18, 4	@ Tag_ABI_PCS_wchar_t
	.eabi_attribute	26, 2	@ Tag_ABI_enum_size
	.eabi_attribute	14, 0	@ Tag_ABI_PCS_R9_use
	.file	"event_log.c"
	.file	1 "D:\\work\\dheeraj\\local\\CEL\\CCC\\CCC_CPU0\\Code" "source/event_log.c"
	.file	2 "C:\\Users\\Anaya\\AppData\\Local\\Keil_v5\\ARM\\ARMCLANG\\bin\\..\\include" "stdint.h"
	.file	3 "D:\\work\\dheeraj\\local\\CEL\\CCC\\CCC_CPU0\\Code" "./source/oled/include\\SH1106.h"
	.file	4 "D:\\work\\dheeraj\\local\\CEL\\CCC\\CCC_CPU0\\Code" "source/Include\\interlock.h"
	.section	.text.send_el_pkt,"ax",%progbits
	.hidden	send_el_pkt                     @ -- Begin function send_el_pkt
	.globl	send_el_pkt
	.p2align	2
	.type	send_el_pkt,%function
	.code	16                              @ @send_el_pkt
	.thumb_func
send_el_pkt:
.Lfunc_begin0:
	.loc	1 80 0                          @ source/event_log.c:80:0
	.fnstart
	.cfi_sections .debug_frame
	.cfi_startproc
@ %bb.0:
	.save	{r7, lr}
	push	{r7, lr}
	.cfi_def_cfa_offset 8
	.cfi_offset lr, -4
	.cfi_offset r7, -8
	.pad	#72
	sub	sp, #72
	.cfi_def_cfa_offset 80
	add	r1, sp, #68
	movs	r0, #0
.Ltmp0:
	.loc	1 94 7 prologue_end             @ source/event_log.c:94:7
	strb	r0, [r1]
	.loc	1 94 6 is_stmt 0                @ source/event_log.c:94:6
	b	.LBB0_1
.LBB0_1:                                @ =>This Inner Loop Header: Depth=1
	.loc	1 0 6                           @ source/event_log.c:0:6
	add	r0, sp, #68
.Ltmp1:
	.loc	1 94 11                         @ source/event_log.c:94:11
	ldrb	r0, [r0]
.Ltmp2:
	.loc	1 94 2                          @ source/event_log.c:94:2
	cmp	r0, #3
	bhi	.LBB0_4
	b	.LBB0_2
.LBB0_2:                                @   in Loop: Header=BB0_1 Depth=1
	.loc	1 0 2                           @ source/event_log.c:0:2
	add	r0, sp, #68
.Ltmp3:
	.loc	1 95 41 is_stmt 1               @ source/event_log.c:95:41
	ldrb	r0, [r0]
	ldr	r1, .LCPI0_25
	.loc	1 95 38 is_stmt 0               @ source/event_log.c:95:38
	muls	r1, r0, r1
	ldr	r0, .LCPI0_26
	adds	r2, r0, r1
	.loc	1 95 44                         @ source/event_log.c:95:44
	mov	r1, r2
	adds	r1, #19
	.loc	1 95 59                         @ source/event_log.c:95:59
	adds	r2, #94
	movs	r0, #5
	.loc	1 95 3                          @ source/event_log.c:95:3
	bl	conv_byte2event
	.loc	1 96 2 is_stmt 1                @ source/event_log.c:96:2
	b	.LBB0_3
.Ltmp4:
.LBB0_3:                                @   in Loop: Header=BB0_1 Depth=1
	.loc	1 94 17                         @ source/event_log.c:94:17
	ldr	r0, [sp, #68]
	adds	r0, r0, #1
	add	r1, sp, #68
	strb	r0, [r1]
	.loc	1 94 2 is_stmt 0                @ source/event_log.c:94:2
	b	.LBB0_1
.Ltmp5:
.LBB0_4:
	.loc	1 0 2                           @ source/event_log.c:0:2
	add	r1, sp, #68
	movs	r0, #0
.Ltmp6:
	.loc	1 99 7 is_stmt 1                @ source/event_log.c:99:7
	strb	r0, [r1]
	.loc	1 99 6 is_stmt 0                @ source/event_log.c:99:6
	b	.LBB0_5
.LBB0_5:                                @ =>This Inner Loop Header: Depth=1
	.loc	1 0 6                           @ source/event_log.c:0:6
	add	r0, sp, #68
.Ltmp7:
	.loc	1 99 11                         @ source/event_log.c:99:11
	ldrb	r0, [r0]
.Ltmp8:
	.loc	1 99 2                          @ source/event_log.c:99:2
	cmp	r0, #3
	bhi	.LBB0_8
	b	.LBB0_6
.LBB0_6:                                @   in Loop: Header=BB0_5 Depth=1
	.loc	1 0 2                           @ source/event_log.c:0:2
	add	r0, sp, #68
.Ltmp9:
	.loc	1 100 42 is_stmt 1              @ source/event_log.c:100:42
	ldrb	r0, [r0]
	ldr	r1, .LCPI0_25
	.loc	1 100 39 is_stmt 0              @ source/event_log.c:100:39
	muls	r1, r0, r1
	ldr	r0, .LCPI0_26
	adds	r2, r0, r1
	.loc	1 100 45                        @ source/event_log.c:100:45
	mov	r1, r2
	adds	r1, #24
	.loc	1 100 60                        @ source/event_log.c:100:60
	adds	r2, #214
	movs	r0, #2
	.loc	1 100 3                         @ source/event_log.c:100:3
	bl	conv_byte2event
	.loc	1 101 2 is_stmt 1               @ source/event_log.c:101:2
	b	.LBB0_7
.Ltmp10:
.LBB0_7:                                @   in Loop: Header=BB0_5 Depth=1
	.loc	1 99 17                         @ source/event_log.c:99:17
	ldr	r0, [sp, #68]
	adds	r0, r0, #1
	add	r1, sp, #68
	strb	r0, [r1]
	.loc	1 99 2 is_stmt 0                @ source/event_log.c:99:2
	b	.LBB0_5
.Ltmp11:
.LBB0_8:
	.loc	1 0 2                           @ source/event_log.c:0:2
	add	r1, sp, #68
	movs	r0, #0
.Ltmp12:
	.loc	1 104 7 is_stmt 1               @ source/event_log.c:104:7
	strb	r0, [r1]
	.loc	1 104 6 is_stmt 0               @ source/event_log.c:104:6
	b	.LBB0_9
.LBB0_9:                                @ =>This Inner Loop Header: Depth=1
	.loc	1 0 6                           @ source/event_log.c:0:6
	add	r0, sp, #68
.Ltmp13:
	.loc	1 104 11                        @ source/event_log.c:104:11
	ldrb	r0, [r0]
.Ltmp14:
	.loc	1 104 2                         @ source/event_log.c:104:2
	cmp	r0, #3
	bhi	.LBB0_12
	b	.LBB0_10
.LBB0_10:                               @   in Loop: Header=BB0_9 Depth=1
	.loc	1 0 2                           @ source/event_log.c:0:2
	add	r0, sp, #68
.Ltmp15:
	.loc	1 105 42 is_stmt 1              @ source/event_log.c:105:42
	ldrb	r0, [r0]
	ldr	r1, .LCPI0_25
	.loc	1 105 39 is_stmt 0              @ source/event_log.c:105:39
	muls	r1, r0, r1
	ldr	r0, .LCPI0_26
	adds	r0, r0, r1
	.loc	1 105 45                        @ source/event_log.c:105:45
	mov	r1, r0
	adds	r1, #26
	movw	r2, #262
	.loc	1 105 60                        @ source/event_log.c:105:60
	adds	r2, r0, r2
	movs	r0, #6
	.loc	1 105 3                         @ source/event_log.c:105:3
	bl	conv_byte2event
	.loc	1 106 2 is_stmt 1               @ source/event_log.c:106:2
	b	.LBB0_11
.Ltmp16:
.LBB0_11:                               @   in Loop: Header=BB0_9 Depth=1
	.loc	1 104 17                        @ source/event_log.c:104:17
	ldr	r0, [sp, #68]
	adds	r0, r0, #1
	add	r1, sp, #68
	strb	r0, [r1]
	.loc	1 104 2 is_stmt 0               @ source/event_log.c:104:2
	b	.LBB0_9
.Ltmp17:
.LBB0_12:
	.loc	1 108 2 is_stmt 1               @ source/event_log.c:108:2
	ldr	r0, .LCPI0_26
	str	r0, [sp, #44]                   @ 4-byte Spill
	ldr	r1, __arm_cp.0_27
	adds	r1, r0, r1
	ldr	r2, __arm_cp.0_28
	adds	r2, r0, r2
	movs	r0, #5
	bl	conv_byte2event_nvo
	ldr	r0, [sp, #44]                   @ 4-byte Reload
	ldr	r1, __arm_cp.0_29
	.loc	1 111 2                         @ source/event_log.c:111:2
	adds	r1, r0, r1
	ldr	r2, __arm_cp.0_30
	adds	r2, r0, r2
	movs	r0, #2
	str	r0, [sp, #48]                   @ 4-byte Spill
	bl	conv_byte2event
	ldr	r2, [sp, #44]                   @ 4-byte Reload
	ldr	r0, [sp, #48]                   @ 4-byte Reload
	ldr	r1, __arm_cp.0_31
	.loc	1 112 2                         @ source/event_log.c:112:2
	adds	r1, r2, r1
	ldr	r3, __arm_cp.0_32
	adds	r2, r2, r3
	bl	conv_byte2event
	add	r1, sp, #68
	movs	r0, #0
.Ltmp18:
	.loc	1 115 7                         @ source/event_log.c:115:7
	strb	r0, [r1]
	.loc	1 115 6 is_stmt 0               @ source/event_log.c:115:6
	b	.LBB0_13
.LBB0_13:                               @ =>This Inner Loop Header: Depth=1
	.loc	1 0 6                           @ source/event_log.c:0:6
	add	r0, sp, #68
.Ltmp19:
	.loc	1 115 11                        @ source/event_log.c:115:11
	ldrb	r0, [r0]
.Ltmp20:
	.loc	1 115 2                         @ source/event_log.c:115:2
	cmp	r0, #2
	bhi	.LBB0_16
	b	.LBB0_14
.LBB0_14:                               @   in Loop: Header=BB0_13 Depth=1
	.loc	1 0 2                           @ source/event_log.c:0:2
	add	r0, sp, #68
.Ltmp21:
	.loc	1 116 41 is_stmt 1              @ source/event_log.c:116:41
	ldrb	r0, [r0]
	ldr	r1, .LCPI0_25
	.loc	1 116 38 is_stmt 0              @ source/event_log.c:116:38
	muls	r1, r0, r1
	ldr	r0, .LCPI0_26
	adds	r0, r0, r1
	.loc	1 116 44                        @ source/event_log.c:116:44
	mov	r1, r0
	adds	r1, #50
	ldr	r2, __arm_cp.0_33
	.loc	1 116 62                        @ source/event_log.c:116:62
	adds	r2, r0, r2
	movs	r0, #5
	.loc	1 116 3                         @ source/event_log.c:116:3
	bl	conv_byte2event
	.loc	1 117 2 is_stmt 1               @ source/event_log.c:117:2
	b	.LBB0_15
.Ltmp22:
.LBB0_15:                               @   in Loop: Header=BB0_13 Depth=1
	.loc	1 115 17                        @ source/event_log.c:115:17
	ldr	r0, [sp, #68]
	adds	r0, r0, #1
	add	r1, sp, #68
	strb	r0, [r1]
	.loc	1 115 2 is_stmt 0               @ source/event_log.c:115:2
	b	.LBB0_13
.Ltmp23:
.LBB0_16:
	.loc	1 0 2                           @ source/event_log.c:0:2
	add	r1, sp, #68
	movs	r0, #0
.Ltmp24:
	.loc	1 119 7 is_stmt 1               @ source/event_log.c:119:7
	strb	r0, [r1]
	.loc	1 119 6 is_stmt 0               @ source/event_log.c:119:6
	b	.LBB0_17
.LBB0_17:                               @ =>This Inner Loop Header: Depth=1
	.loc	1 0 6                           @ source/event_log.c:0:6
	add	r0, sp, #68
.Ltmp25:
	.loc	1 119 11                        @ source/event_log.c:119:11
	ldrb	r0, [r0]
.Ltmp26:
	.loc	1 119 2                         @ source/event_log.c:119:2
	cmp	r0, #2
	bhi	.LBB0_20
	b	.LBB0_18
.LBB0_18:                               @   in Loop: Header=BB0_17 Depth=1
	.loc	1 0 2                           @ source/event_log.c:0:2
	add	r0, sp, #68
.Ltmp27:
	.loc	1 120 42 is_stmt 1              @ source/event_log.c:120:42
	ldrb	r0, [r0]
	ldr	r1, .LCPI0_25
	.loc	1 120 39 is_stmt 0              @ source/event_log.c:120:39
	muls	r1, r0, r1
	ldr	r0, .LCPI0_26
	adds	r0, r0, r1
	.loc	1 120 45                        @ source/event_log.c:120:45
	mov	r1, r0
	adds	r1, #55
	ldr	r2, __arm_cp.0_34
	.loc	1 120 63                        @ source/event_log.c:120:63
	adds	r2, r0, r2
	movs	r0, #2
	.loc	1 120 3                         @ source/event_log.c:120:3
	bl	conv_byte2event
	.loc	1 121 2 is_stmt 1               @ source/event_log.c:121:2
	b	.LBB0_19
.Ltmp28:
.LBB0_19:                               @   in Loop: Header=BB0_17 Depth=1
	.loc	1 119 17                        @ source/event_log.c:119:17
	ldr	r0, [sp, #68]
	adds	r0, r0, #1
	add	r1, sp, #68
	strb	r0, [r1]
	.loc	1 119 2 is_stmt 0               @ source/event_log.c:119:2
	b	.LBB0_17
.Ltmp29:
.LBB0_20:
	.loc	1 0 2                           @ source/event_log.c:0:2
	add	r1, sp, #68
	movs	r0, #0
.Ltmp30:
	.loc	1 123 7 is_stmt 1               @ source/event_log.c:123:7
	strb	r0, [r1]
	.loc	1 123 6 is_stmt 0               @ source/event_log.c:123:6
	b	.LBB0_21
.LBB0_21:                               @ =>This Inner Loop Header: Depth=1
	.loc	1 0 6                           @ source/event_log.c:0:6
	add	r0, sp, #68
.Ltmp31:
	.loc	1 123 11                        @ source/event_log.c:123:11
	ldrb	r0, [r0]
.Ltmp32:
	.loc	1 123 2                         @ source/event_log.c:123:2
	cmp	r0, #2
	bhi	.LBB0_24
	b	.LBB0_22
.LBB0_22:                               @   in Loop: Header=BB0_21 Depth=1
	.loc	1 0 2                           @ source/event_log.c:0:2
	add	r0, sp, #68
.Ltmp33:
	.loc	1 124 42 is_stmt 1              @ source/event_log.c:124:42
	ldrb	r0, [r0]
	ldr	r1, .LCPI0_25
	.loc	1 124 39 is_stmt 0              @ source/event_log.c:124:39
	muls	r1, r0, r1
	ldr	r0, .LCPI0_26
	adds	r0, r0, r1
	.loc	1 124 45                        @ source/event_log.c:124:45
	mov	r1, r0
	adds	r1, #57
	ldr	r2, __arm_cp.0_35
	.loc	1 124 63                        @ source/event_log.c:124:63
	adds	r2, r0, r2
	movs	r0, #6
	.loc	1 124 3                         @ source/event_log.c:124:3
	bl	conv_byte2event
	.loc	1 125 2 is_stmt 1               @ source/event_log.c:125:2
	b	.LBB0_23
.Ltmp34:
.LBB0_23:                               @   in Loop: Header=BB0_21 Depth=1
	.loc	1 123 17                        @ source/event_log.c:123:17
	ldr	r0, [sp, #68]
	adds	r0, r0, #1
	add	r1, sp, #68
	strb	r0, [r1]
	.loc	1 123 2 is_stmt 0               @ source/event_log.c:123:2
	b	.LBB0_21
.Ltmp35:
.LBB0_24:
	.loc	1 0 2                           @ source/event_log.c:0:2
	add	r1, sp, #68
	movs	r0, #0
.Ltmp36:
	.loc	1 128 7 is_stmt 1               @ source/event_log.c:128:7
	strb	r0, [r1]
	.loc	1 128 6 is_stmt 0               @ source/event_log.c:128:6
	b	.LBB0_25
.LBB0_25:                               @ =>This Inner Loop Header: Depth=1
	.loc	1 0 6                           @ source/event_log.c:0:6
	add	r0, sp, #68
.Ltmp37:
	.loc	1 128 11                        @ source/event_log.c:128:11
	ldrb	r0, [r0]
.Ltmp38:
	.loc	1 128 2                         @ source/event_log.c:128:2
	cmp	r0, #3
	bhi	.LBB0_28
	b	.LBB0_26
.LBB0_26:                               @   in Loop: Header=BB0_25 Depth=1
	.loc	1 0 2                           @ source/event_log.c:0:2
	add	r0, sp, #68
.Ltmp39:
	.loc	1 129 41 is_stmt 1              @ source/event_log.c:129:41
	ldrb	r0, [r0]
	ldr	r1, .LCPI0_25
	.loc	1 129 38 is_stmt 0              @ source/event_log.c:129:38
	muls	r1, r0, r1
	ldr	r0, .LCPI0_26
	adds	r0, r0, r1
	.loc	1 129 44                        @ source/event_log.c:129:44
	mov	r1, r0
	adds	r1, #41
	ldr	r2, __arm_cp.0_36
	.loc	1 129 68                        @ source/event_log.c:129:68
	adds	r2, r0, r2
	movs	r0, #5
	.loc	1 129 3                         @ source/event_log.c:129:3
	bl	conv_byte2event
	.loc	1 130 2 is_stmt 1               @ source/event_log.c:130:2
	b	.LBB0_27
.Ltmp40:
.LBB0_27:                               @   in Loop: Header=BB0_25 Depth=1
	.loc	1 128 17                        @ source/event_log.c:128:17
	ldr	r0, [sp, #68]
	adds	r0, r0, #1
	add	r1, sp, #68
	strb	r0, [r1]
	.loc	1 128 2 is_stmt 0               @ source/event_log.c:128:2
	b	.LBB0_25
.Ltmp41:
.LBB0_28:
	.loc	1 0 2                           @ source/event_log.c:0:2
	add	r1, sp, #68
	movs	r0, #0
.Ltmp42:
	.loc	1 132 7 is_stmt 1               @ source/event_log.c:132:7
	strb	r0, [r1]
	.loc	1 132 6 is_stmt 0               @ source/event_log.c:132:6
	b	.LBB0_29
.LBB0_29:                               @ =>This Inner Loop Header: Depth=1
	.loc	1 0 6                           @ source/event_log.c:0:6
	add	r0, sp, #68
.Ltmp43:
	.loc	1 132 11                        @ source/event_log.c:132:11
	ldrb	r0, [r0]
.Ltmp44:
	.loc	1 132 2                         @ source/event_log.c:132:2
	cmp	r0, #2
	bhi	.LBB0_34
	b	.LBB0_30
.LBB0_30:                               @   in Loop: Header=BB0_29 Depth=1
	.loc	1 0 2                           @ source/event_log.c:0:2
	add	r1, sp, #68
.Ltmp45:
	.loc	1 135 6 is_stmt 1               @ source/event_log.c:135:6
	ldrb	r2, [r1]
	ldr	r0, .LCPI0_25
	.loc	1 135 3 is_stmt 0               @ source/event_log.c:135:3
	mov	r3, r0
	muls	r3, r2, r3
	ldr	r2, .LCPI0_26
	adds	r3, r2, r3
	movs	r2, #0
	.loc	1 135 25                        @ source/event_log.c:135:25
	strb	r2, [r3, #7]
.Ltmp46:
	.loc	1 136 9 is_stmt 1               @ source/event_log.c:136:9
	ldrb	r1, [r1]
	.loc	1 136 6 is_stmt 0               @ source/event_log.c:136:6
	muls	r0, r1, r0
	ldr	r1, __arm_cp.0_37
.Ltmp47:
	.loc	1 136 6                         @ source/event_log.c:136:6
	cmp	r0, r1
	beq	.LBB0_32
	b	.LBB0_31
.LBB0_31:
	.loc	1 0 6                           @ source/event_log.c:0:6
	add	r0, sp, #68
.Ltmp48:
	.loc	1 137 7 is_stmt 1               @ source/event_log.c:137:7
	ldrb	r0, [r0]
	ldr	r1, .LCPI0_25
	.loc	1 137 4 is_stmt 0               @ source/event_log.c:137:4
	muls	r1, r0, r1
	ldr	r0, .LCPI0_26
	adds	r1, r0, r1
	movs	r0, #1
	.loc	1 137 26                        @ source/event_log.c:137:26
	strb	r0, [r1, #7]
	.loc	1 138 4 is_stmt 1               @ source/event_log.c:138:4
	b	.LBB0_34
.Ltmp49:
.LBB0_32:                               @   in Loop: Header=BB0_29 Depth=1
	.loc	1 140 2                         @ source/event_log.c:140:2
	b	.LBB0_33
.Ltmp50:
.LBB0_33:                               @   in Loop: Header=BB0_29 Depth=1
	.loc	1 132 17                        @ source/event_log.c:132:17
	ldr	r0, [sp, #68]
	adds	r0, r0, #1
	add	r1, sp, #68
	strb	r0, [r1]
	.loc	1 132 2 is_stmt 0               @ source/event_log.c:132:2
	b	.LBB0_29
.Ltmp51:
.LBB0_34:
	.loc	1 0 2                           @ source/event_log.c:0:2
	add	r1, sp, #68
	movs	r0, #0
.Ltmp52:
	.loc	1 142 7 is_stmt 1               @ source/event_log.c:142:7
	strb	r0, [r1]
	.loc	1 142 6 is_stmt 0               @ source/event_log.c:142:6
	b	.LBB0_35
.LBB0_35:                               @ =>This Inner Loop Header: Depth=1
	.loc	1 0 6                           @ source/event_log.c:0:6
	add	r0, sp, #68
.Ltmp53:
	.loc	1 142 11                        @ source/event_log.c:142:11
	ldrb	r0, [r0]
.Ltmp54:
	.loc	1 142 2                         @ source/event_log.c:142:2
	cmp	r0, #2
	bhi	.LBB0_40
	b	.LBB0_36
.LBB0_36:                               @   in Loop: Header=BB0_35 Depth=1
	.loc	1 0 2                           @ source/event_log.c:0:2
	add	r1, sp, #68
.Ltmp55:
	.loc	1 145 6 is_stmt 1               @ source/event_log.c:145:6
	ldrb	r2, [r1]
	ldr	r0, .LCPI0_25
	.loc	1 145 3 is_stmt 0               @ source/event_log.c:145:3
	mov	r3, r0
	muls	r3, r2, r3
	ldr	r2, .LCPI0_26
	adds	r3, r2, r3
	movs	r2, #0
	.loc	1 145 25                        @ source/event_log.c:145:25
	strb	r2, [r3, #8]
.Ltmp56:
	.loc	1 146 9 is_stmt 1               @ source/event_log.c:146:9
	ldrb	r1, [r1]
	.loc	1 146 6 is_stmt 0               @ source/event_log.c:146:6
	muls	r0, r1, r0
	ldr	r1, __arm_cp.0_37
.Ltmp57:
	.loc	1 146 6                         @ source/event_log.c:146:6
	cmp	r0, r1
	beq	.LBB0_38
	b	.LBB0_37
.LBB0_37:
	.loc	1 0 6                           @ source/event_log.c:0:6
	add	r0, sp, #68
.Ltmp58:
	.loc	1 147 7 is_stmt 1               @ source/event_log.c:147:7
	ldrb	r0, [r0]
	ldr	r1, .LCPI0_25
	.loc	1 147 4 is_stmt 0               @ source/event_log.c:147:4
	muls	r1, r0, r1
	ldr	r0, .LCPI0_26
	adds	r1, r0, r1
	movs	r0, #1
	.loc	1 147 26                        @ source/event_log.c:147:26
	strb	r0, [r1, #8]
	.loc	1 148 4 is_stmt 1               @ source/event_log.c:148:4
	b	.LBB0_40
.Ltmp59:
.LBB0_38:                               @   in Loop: Header=BB0_35 Depth=1
	.loc	1 150 2                         @ source/event_log.c:150:2
	b	.LBB0_39
.Ltmp60:
.LBB0_39:                               @   in Loop: Header=BB0_35 Depth=1
	.loc	1 142 17                        @ source/event_log.c:142:17
	ldr	r0, [sp, #68]
	adds	r0, r0, #1
	add	r1, sp, #68
	strb	r0, [r1]
	.loc	1 142 2 is_stmt 0               @ source/event_log.c:142:2
	b	.LBB0_35
.Ltmp61:
.LBB0_40:
	.loc	1 0 2                           @ source/event_log.c:0:2
	add	r1, sp, #68
	movs	r0, #0
.Ltmp62:
	.loc	1 152 7 is_stmt 1               @ source/event_log.c:152:7
	strb	r0, [r1]
	.loc	1 152 6 is_stmt 0               @ source/event_log.c:152:6
	b	.LBB0_41
.LBB0_41:                               @ =>This Loop Header: Depth=1
                                        @     Child Loop BB0_43 Depth 2
	.loc	1 0 6                           @ source/event_log.c:0:6
	add	r0, sp, #68
.Ltmp63:
	.loc	1 152 11                        @ source/event_log.c:152:11
	ldrb	r0, [r0]
.Ltmp64:
	.loc	1 152 2                         @ source/event_log.c:152:2
	cmp	r0, #2
	bhi	.LBB0_50
	b	.LBB0_42
.LBB0_42:                               @   in Loop: Header=BB0_41 Depth=1
	.loc	1 0 2                           @ source/event_log.c:0:2
	add	r0, sp, #68
.Ltmp65:
	.loc	1 154 6 is_stmt 1               @ source/event_log.c:154:6
	ldrb	r0, [r0]
	ldr	r1, .LCPI0_25
	.loc	1 154 3 is_stmt 0               @ source/event_log.c:154:3
	muls	r1, r0, r1
	ldr	r0, .LCPI0_26
	adds	r1, r0, r1
	movs	r0, #0
	.loc	1 154 34                        @ source/event_log.c:154:34
	strb	r0, [r1, #10]
	add	r1, sp, #64
.Ltmp66:
	.loc	1 155 8 is_stmt 1               @ source/event_log.c:155:8
	strb	r0, [r1]
	.loc	1 155 7 is_stmt 0               @ source/event_log.c:155:7
	b	.LBB0_43
.LBB0_43:                               @   Parent Loop BB0_41 Depth=1
                                        @ =>  This Inner Loop Header: Depth=2
	.loc	1 0 7                           @ source/event_log.c:0:7
	add	r0, sp, #64
.Ltmp67:
	.loc	1 155 12                        @ source/event_log.c:155:12
	ldrb	r0, [r0]
.Ltmp68:
	.loc	1 155 3                         @ source/event_log.c:155:3
	cmp	r0, #19
	bhi	.LBB0_48
	b	.LBB0_44
.LBB0_44:                               @   in Loop: Header=BB0_43 Depth=2
	.loc	1 0 3                           @ source/event_log.c:0:3
	add	r0, sp, #68
.Ltmp69:
	.loc	1 156 10 is_stmt 1              @ source/event_log.c:156:10
	ldrb	r0, [r0]
	ldr	r1, .LCPI0_25
	.loc	1 156 7 is_stmt 0               @ source/event_log.c:156:7
	muls	r1, r0, r1
	ldr	r0, .LCPI0_26
	adds	r0, r0, r1
	add	r1, sp, #64
	.loc	1 156 16                        @ source/event_log.c:156:16
	ldrb	r2, [r1]
	movs	r1, #6
	.loc	1 156 7                         @ source/event_log.c:156:7
	muls	r1, r2, r1
	.loc	1 156 13                        @ source/event_log.c:156:13
	adds	r0, r0, r1
	movs	r1, #98
	.loc	1 156 19                        @ source/event_log.c:156:19
	ldrh	r0, [r0, r1]
.Ltmp70:
	.loc	1 156 7                         @ source/event_log.c:156:7
	cmp	r0, #1
	bne	.LBB0_46
	b	.LBB0_45
.LBB0_45:                               @   in Loop: Header=BB0_41 Depth=1
	.loc	1 0 7                           @ source/event_log.c:0:7
	add	r0, sp, #68
.Ltmp71:
	.loc	1 157 8 is_stmt 1               @ source/event_log.c:157:8
	ldrb	r0, [r0]
	ldr	r1, .LCPI0_25
	.loc	1 157 5 is_stmt 0               @ source/event_log.c:157:5
	muls	r1, r0, r1
	ldr	r0, .LCPI0_26
	adds	r1, r0, r1
	movs	r0, #1
	.loc	1 157 36                        @ source/event_log.c:157:36
	strb	r0, [r1, #10]
	.loc	1 158 5 is_stmt 1               @ source/event_log.c:158:5
	b	.LBB0_48
.Ltmp72:
.LBB0_46:                               @   in Loop: Header=BB0_43 Depth=2
	.loc	1 160 3                         @ source/event_log.c:160:3
	b	.LBB0_47
.Ltmp73:
.LBB0_47:                               @   in Loop: Header=BB0_43 Depth=2
	.loc	1 155 35                        @ source/event_log.c:155:35
	ldr	r0, [sp, #64]
	adds	r0, r0, #1
	add	r1, sp, #64
	strb	r0, [r1]
	.loc	1 155 3 is_stmt 0               @ source/event_log.c:155:3
	b	.LBB0_43
.Ltmp74:
.LBB0_48:                               @   in Loop: Header=BB0_41 Depth=1
	.loc	1 161 2 is_stmt 1               @ source/event_log.c:161:2
	b	.LBB0_49
.Ltmp75:
.LBB0_49:                               @   in Loop: Header=BB0_41 Depth=1
	.loc	1 152 17                        @ source/event_log.c:152:17
	ldr	r0, [sp, #68]
	adds	r0, r0, #1
	add	r1, sp, #68
	strb	r0, [r1]
	.loc	1 152 2 is_stmt 0               @ source/event_log.c:152:2
	b	.LBB0_41
.Ltmp76:
.LBB0_50:
	.loc	1 0 2                           @ source/event_log.c:0:2
	add	r1, sp, #68
	movs	r0, #0
.Ltmp77:
	.loc	1 163 7 is_stmt 1               @ source/event_log.c:163:7
	strb	r0, [r1]
	.loc	1 163 6 is_stmt 0               @ source/event_log.c:163:6
	b	.LBB0_51
.LBB0_51:                               @ =>This Loop Header: Depth=1
                                        @     Child Loop BB0_53 Depth 2
	.loc	1 0 6                           @ source/event_log.c:0:6
	add	r0, sp, #68
.Ltmp78:
	.loc	1 163 11                        @ source/event_log.c:163:11
	ldrb	r0, [r0]
.Ltmp79:
	.loc	1 163 2                         @ source/event_log.c:163:2
	cmp	r0, #2
	bhi	.LBB0_60
	b	.LBB0_52
.LBB0_52:                               @   in Loop: Header=BB0_51 Depth=1
	.loc	1 0 2                           @ source/event_log.c:0:2
	add	r0, sp, #68
.Ltmp80:
	.loc	1 165 6 is_stmt 1               @ source/event_log.c:165:6
	ldrb	r0, [r0]
	ldr	r1, .LCPI0_25
	.loc	1 165 3 is_stmt 0               @ source/event_log.c:165:3
	muls	r1, r0, r1
	ldr	r0, .LCPI0_26
	adds	r1, r0, r1
	movs	r0, #0
	.loc	1 165 25                        @ source/event_log.c:165:25
	strb	r0, [r1, #6]
	add	r1, sp, #64
.Ltmp81:
	.loc	1 166 8 is_stmt 1               @ source/event_log.c:166:8
	strb	r0, [r1]
	.loc	1 166 7 is_stmt 0               @ source/event_log.c:166:7
	b	.LBB0_53
.LBB0_53:                               @   Parent Loop BB0_51 Depth=1
                                        @ =>  This Inner Loop Header: Depth=2
	.loc	1 0 7                           @ source/event_log.c:0:7
	add	r0, sp, #64
.Ltmp82:
	.loc	1 166 12                        @ source/event_log.c:166:12
	ldrb	r0, [r0]
.Ltmp83:
	.loc	1 166 3                         @ source/event_log.c:166:3
	cmp	r0, #19
	bhi	.LBB0_58
	b	.LBB0_54
.LBB0_54:                               @   in Loop: Header=BB0_53 Depth=2
	.loc	1 0 3                           @ source/event_log.c:0:3
	add	r0, sp, #68
.Ltmp84:
	.loc	1 167 10 is_stmt 1              @ source/event_log.c:167:10
	ldrb	r0, [r0]
	ldr	r1, .LCPI0_25
	.loc	1 167 7 is_stmt 0               @ source/event_log.c:167:7
	muls	r1, r0, r1
	ldr	r0, .LCPI0_26
	adds	r0, r0, r1
	add	r1, sp, #64
	.loc	1 167 25                        @ source/event_log.c:167:25
	ldrb	r2, [r1]
	movs	r1, #6
	.loc	1 167 7                         @ source/event_log.c:167:7
	muls	r1, r2, r1
	.loc	1 167 13                        @ source/event_log.c:167:13
	adds	r0, r0, r1
	ldr	r1, __arm_cp.0_36
	.loc	1 167 28                        @ source/event_log.c:167:28
	ldrb	r0, [r0, r1]
.Ltmp85:
	.loc	1 167 7                         @ source/event_log.c:167:7
	cbz	r0, .LBB0_56
	b	.LBB0_55
.LBB0_55:                               @   in Loop: Header=BB0_51 Depth=1
	.loc	1 0 7                           @ source/event_log.c:0:7
	add	r0, sp, #68
.Ltmp86:
	.loc	1 168 8 is_stmt 1               @ source/event_log.c:168:8
	ldrb	r0, [r0]
	ldr	r1, .LCPI0_25
	.loc	1 168 5 is_stmt 0               @ source/event_log.c:168:5
	muls	r1, r0, r1
	ldr	r0, .LCPI0_26
	adds	r1, r0, r1
	movs	r0, #1
	.loc	1 168 27                        @ source/event_log.c:168:27
	strb	r0, [r1, #6]
	.loc	1 169 5 is_stmt 1               @ source/event_log.c:169:5
	b	.LBB0_58
.Ltmp87:
.LBB0_56:                               @   in Loop: Header=BB0_53 Depth=2
	.loc	1 171 3                         @ source/event_log.c:171:3
	b	.LBB0_57
.Ltmp88:
.LBB0_57:                               @   in Loop: Header=BB0_53 Depth=2
	.loc	1 166 35                        @ source/event_log.c:166:35
	ldr	r0, [sp, #64]
	adds	r0, r0, #1
	add	r1, sp, #64
	strb	r0, [r1]
	.loc	1 166 3 is_stmt 0               @ source/event_log.c:166:3
	b	.LBB0_53
.Ltmp89:
.LBB0_58:                               @   in Loop: Header=BB0_51 Depth=1
	.loc	1 172 2 is_stmt 1               @ source/event_log.c:172:2
	b	.LBB0_59
.Ltmp90:
.LBB0_59:                               @   in Loop: Header=BB0_51 Depth=1
	.loc	1 163 17                        @ source/event_log.c:163:17
	ldr	r0, [sp, #68]
	adds	r0, r0, #1
	add	r1, sp, #68
	strb	r0, [r1]
	.loc	1 163 2 is_stmt 0               @ source/event_log.c:163:2
	b	.LBB0_51
.Ltmp91:
.LBB0_60:
	.loc	1 0 2                           @ source/event_log.c:0:2
	add	r1, sp, #68
	movs	r0, #0
.Ltmp92:
	.loc	1 176 7 is_stmt 1               @ source/event_log.c:176:7
	strb	r0, [r1]
	.loc	1 176 6 is_stmt 0               @ source/event_log.c:176:6
	b	.LBB0_61
.LBB0_61:                               @ =>This Inner Loop Header: Depth=1
	.loc	1 0 6                           @ source/event_log.c:0:6
	add	r0, sp, #68
.Ltmp93:
	.loc	1 176 11                        @ source/event_log.c:176:11
	ldrb	r0, [r0]
.Ltmp94:
	.loc	1 176 2                         @ source/event_log.c:176:2
	cmp	r0, #3
	bhi	.LBB0_64
	b	.LBB0_62
.LBB0_62:                               @   in Loop: Header=BB0_61 Depth=1
	.loc	1 0 2                           @ source/event_log.c:0:2
	add	r0, sp, #68
.Ltmp95:
	.loc	1 178 6 is_stmt 1               @ source/event_log.c:178:6
	ldrb	r0, [r0]
	ldr	r1, .LCPI0_25
	.loc	1 178 3 is_stmt 0               @ source/event_log.c:178:3
	muls	r1, r0, r1
	ldr	r0, .LCPI0_26
	adds	r1, r0, r1
	movs	r0, #0
	.loc	1 178 30                        @ source/event_log.c:178:30
	strb	r0, [r1, #9]
	.loc	1 179 2 is_stmt 1               @ source/event_log.c:179:2
	b	.LBB0_63
.Ltmp96:
.LBB0_63:                               @   in Loop: Header=BB0_61 Depth=1
	.loc	1 176 17                        @ source/event_log.c:176:17
	ldr	r0, [sp, #68]
	adds	r0, r0, #1
	add	r1, sp, #68
	strb	r0, [r1]
	.loc	1 176 2 is_stmt 0               @ source/event_log.c:176:2
	b	.LBB0_61
.Ltmp97:
.LBB0_64:
	.loc	1 0 2                           @ source/event_log.c:0:2
	add	r1, sp, #68
	movs	r0, #0
.Ltmp98:
	.loc	1 180 7 is_stmt 1               @ source/event_log.c:180:7
	strb	r0, [r1]
	.loc	1 180 6 is_stmt 0               @ source/event_log.c:180:6
	b	.LBB0_65
.LBB0_65:                               @ =>This Inner Loop Header: Depth=1
	.loc	1 0 6                           @ source/event_log.c:0:6
	add	r0, sp, #68
.Ltmp99:
	.loc	1 180 11                        @ source/event_log.c:180:11
	ldrb	r0, [r0]
.Ltmp100:
	.loc	1 180 2                         @ source/event_log.c:180:2
	cmp	r0, #4
	bhi	.LBB0_70
	b	.LBB0_66
.LBB0_66:                               @   in Loop: Header=BB0_65 Depth=1
	.loc	1 0 2                           @ source/event_log.c:0:2
	add	r0, sp, #68
.Ltmp101:
	.loc	1 181 26 is_stmt 1              @ source/event_log.c:181:26
	ldrb	r0, [r0]
	movs	r1, #6
	.loc	1 181 6 is_stmt 0               @ source/event_log.c:181:6
	muls	r1, r0, r1
	ldr	r0, .LCPI0_26
	adds	r0, r0, r1
	ldr	r1, __arm_cp.0_30
	.loc	1 181 29                        @ source/event_log.c:181:29
	ldrb	r0, [r0, r1]
.Ltmp102:
	.loc	1 181 6                         @ source/event_log.c:181:6
	cbz	r0, .LBB0_68
	b	.LBB0_67
.LBB0_67:
.Ltmp103:
	.loc	1 182 31 is_stmt 1              @ source/event_log.c:182:31
	ldr	r1, .LCPI0_26
	ldr	r2, __arm_cp.0_38
	movs	r0, #1
	strb	r0, [r1, r2]
	.loc	1 183 4                         @ source/event_log.c:183:4
	b	.LBB0_70
.Ltmp104:
.LBB0_68:                               @   in Loop: Header=BB0_65 Depth=1
	.loc	1 185 2                         @ source/event_log.c:185:2
	b	.LBB0_69
.Ltmp105:
.LBB0_69:                               @   in Loop: Header=BB0_65 Depth=1
	.loc	1 180 17                        @ source/event_log.c:180:17
	ldr	r0, [sp, #68]
	adds	r0, r0, #1
	add	r1, sp, #68
	strb	r0, [r1]
	.loc	1 180 2 is_stmt 0               @ source/event_log.c:180:2
	b	.LBB0_65
.Ltmp106:
.LBB0_70:
	.loc	1 0 2                           @ source/event_log.c:0:2
	add	r1, sp, #68
	movs	r0, #0
.Ltmp107:
	.loc	1 188 7 is_stmt 1               @ source/event_log.c:188:7
	strb	r0, [r1]
	.loc	1 188 6 is_stmt 0               @ source/event_log.c:188:6
	b	.LBB0_71
.LBB0_71:                               @ =>This Inner Loop Header: Depth=1
	.loc	1 0 6                           @ source/event_log.c:0:6
	add	r0, sp, #68
.Ltmp108:
	.loc	1 188 11                        @ source/event_log.c:188:11
	ldrb	r0, [r0]
.Ltmp109:
	.loc	1 188 2                         @ source/event_log.c:188:2
	cmp	r0, #3
	bls	.LBB0_72
	b	.LBB0_111
.LBB0_72:                               @   in Loop: Header=BB0_71 Depth=1
	.loc	1 0 2                           @ source/event_log.c:0:2
	add	r0, sp, #68
.Ltmp110:
	.loc	1 189 9 is_stmt 1               @ source/event_log.c:189:9
	ldrb	r0, [r0]
	ldr	r1, .LCPI0_25
	.loc	1 189 6 is_stmt 0               @ source/event_log.c:189:6
	muls	r1, r0, r1
	ldr	r0, .LCPI0_26
	adds	r0, r0, r1
	.loc	1 189 12                        @ source/event_log.c:189:12
	ldrb	r0, [r0, #4]
.Ltmp111:
	.loc	1 189 6                         @ source/event_log.c:189:6
	lsls	r0, r0, #31
	cbz	r0, .LBB0_74
	b	.LBB0_73
.LBB0_73:                               @   in Loop: Header=BB0_71 Depth=1
	.loc	1 0 6                           @ source/event_log.c:0:6
	add	r0, sp, #68
.Ltmp112:
	.loc	1 190 7 is_stmt 1               @ source/event_log.c:190:7
	ldrb	r0, [r0]
	ldr	r1, .LCPI0_25
	.loc	1 190 4 is_stmt 0               @ source/event_log.c:190:4
	muls	r1, r0, r1
	ldr	r0, __arm_cp.0_0
	adds	r1, r0, r1
	movs	r0, #1
	.loc	1 190 19                        @ source/event_log.c:190:19
	strb	r0, [r1, #12]
	.loc	1 191 3 is_stmt 1               @ source/event_log.c:191:3
	b	.LBB0_107
.Ltmp113:
.LBB0_74:                               @   in Loop: Header=BB0_71 Depth=1
	.loc	1 0 3 is_stmt 0                 @ source/event_log.c:0:3
	add	r0, sp, #68
.Ltmp114:
	.loc	1 192 14 is_stmt 1              @ source/event_log.c:192:14
	ldrb	r0, [r0]
	ldr	r1, __arm_cp.0_7
	.loc	1 192 11 is_stmt 0              @ source/event_log.c:192:11
	muls	r1, r0, r1
	ldr	r0, __arm_cp.0_0
	adds	r0, r0, r1
	.loc	1 192 17                        @ source/event_log.c:192:17
	ldrb	r0, [r0, #5]
.Ltmp115:
	.loc	1 192 11                        @ source/event_log.c:192:11
	lsls	r0, r0, #31
	cbz	r0, .LBB0_90
	b	.LBB0_89
	.loc	1 0 11                          @ :0:11
.Ltmp116:
	.p2align	2
@ %bb.75:
.LCPI0_25:
	.long	1702                            @ 0x6a6
	.p2align	2
@ %bb.76:
.LCPI0_26:
	.long	pe
	.p2align	2
@ %bb.77:
__arm_cp.0_27:
	.long	5138                            @ 0x1412
.Lcpi_end0:
	.size	__arm_cp.0_27, .Lcpi_end0-__arm_cp.0_27
	.p2align	2
@ %bb.78:
__arm_cp.0_28:
	.long	5656                            @ 0x1618
.Lcpi_end1:
	.size	__arm_cp.0_28, .Lcpi_end1-__arm_cp.0_28
	.p2align	2
@ %bb.79:
__arm_cp.0_29:
	.long	5143                            @ 0x1417
.Lcpi_end2:
	.size	__arm_cp.0_29, .Lcpi_end2-__arm_cp.0_29
	.p2align	2
@ %bb.80:
__arm_cp.0_30:
	.long	5896                            @ 0x1708
.Lcpi_end3:
	.size	__arm_cp.0_30, .Lcpi_end3-__arm_cp.0_30
	.p2align	2
@ %bb.81:
__arm_cp.0_31:
	.long	5145                            @ 0x1419
.Lcpi_end4:
	.size	__arm_cp.0_31, .Lcpi_end4-__arm_cp.0_31
	.p2align	2
@ %bb.82:
__arm_cp.0_32:
	.long	5944                            @ 0x1738
.Lcpi_end5:
	.size	__arm_cp.0_32, .Lcpi_end5-__arm_cp.0_32
	.p2align	2
@ %bb.83:
__arm_cp.0_33:
	.long	1006                            @ 0x3ee
.Lcpi_end6:
	.size	__arm_cp.0_33, .Lcpi_end6-__arm_cp.0_33
	.p2align	2
@ %bb.84:
__arm_cp.0_34:
	.long	1126                            @ 0x466
.Lcpi_end7:
	.size	__arm_cp.0_34, .Lcpi_end7-__arm_cp.0_34
	.p2align	2
@ %bb.85:
__arm_cp.0_35:
	.long	1174                            @ 0x496
.Lcpi_end8:
	.size	__arm_cp.0_35, .Lcpi_end8-__arm_cp.0_35
	.p2align	2
@ %bb.86:
__arm_cp.0_36:
	.long	886                             @ 0x376
.Lcpi_end9:
	.size	__arm_cp.0_36, .Lcpi_end9-__arm_cp.0_36
	.p2align	2
@ %bb.87:
__arm_cp.0_37:
	.long	5106                            @ 0x13f2
.Lcpi_end10:
	.size	__arm_cp.0_37, .Lcpi_end10-__arm_cp.0_37
	.p2align	2
@ %bb.88:
__arm_cp.0_38:
	.long	5115                            @ 0x13fb
.Lcpi_end11:
	.size	__arm_cp.0_38, .Lcpi_end11-__arm_cp.0_38
	.p2align	1
.LBB0_89:                               @   in Loop: Header=BB0_71 Depth=1
	add	r0, sp, #68
.Ltmp117:
	.loc	1 193 7 is_stmt 1               @ source/event_log.c:193:7
	ldrb	r0, [r0]
	ldr	r1, __arm_cp.0_7
	.loc	1 193 4 is_stmt 0               @ source/event_log.c:193:4
	muls	r1, r0, r1
	ldr	r0, __arm_cp.0_0
	adds	r1, r0, r1
	movs	r0, #2
	.loc	1 193 19                        @ source/event_log.c:193:19
	strb	r0, [r1, #12]
	.loc	1 194 3 is_stmt 1               @ source/event_log.c:194:3
	b	.LBB0_106
.Ltmp118:
.LBB0_90:                               @   in Loop: Header=BB0_71 Depth=1
	.loc	1 0 3 is_stmt 0                 @ source/event_log.c:0:3
	add	r0, sp, #68
.Ltmp119:
	.loc	1 195 14 is_stmt 1              @ source/event_log.c:195:14
	ldrb	r0, [r0]
	ldr	r1, __arm_cp.0_7
	.loc	1 195 11 is_stmt 0              @ source/event_log.c:195:11
	muls	r1, r0, r1
	ldr	r0, __arm_cp.0_0
	adds	r0, r0, r1
	.loc	1 195 17                        @ source/event_log.c:195:17
	ldrb	r0, [r0, #6]
.Ltmp120:
	.loc	1 195 11                        @ source/event_log.c:195:11
	lsls	r0, r0, #31
	cbz	r0, .LBB0_92
	b	.LBB0_91
.LBB0_91:                               @   in Loop: Header=BB0_71 Depth=1
	.loc	1 0 11                          @ source/event_log.c:0:11
	add	r0, sp, #68
.Ltmp121:
	.loc	1 196 7 is_stmt 1               @ source/event_log.c:196:7
	ldrb	r0, [r0]
	ldr	r1, __arm_cp.0_7
	.loc	1 196 4 is_stmt 0               @ source/event_log.c:196:4
	muls	r1, r0, r1
	ldr	r0, __arm_cp.0_0
	adds	r1, r0, r1
	movs	r0, #3
	.loc	1 196 19                        @ source/event_log.c:196:19
	strb	r0, [r1, #12]
	.loc	1 197 3 is_stmt 1               @ source/event_log.c:197:3
	b	.LBB0_105
.Ltmp122:
.LBB0_92:                               @   in Loop: Header=BB0_71 Depth=1
	.loc	1 0 3 is_stmt 0                 @ source/event_log.c:0:3
	add	r0, sp, #68
.Ltmp123:
	.loc	1 198 14 is_stmt 1              @ source/event_log.c:198:14
	ldrb	r0, [r0]
	ldr	r1, __arm_cp.0_7
	.loc	1 198 11 is_stmt 0              @ source/event_log.c:198:11
	muls	r1, r0, r1
	ldr	r0, __arm_cp.0_0
	adds	r0, r0, r1
	.loc	1 198 17                        @ source/event_log.c:198:17
	ldrb	r0, [r0, #7]
.Ltmp124:
	.loc	1 198 11                        @ source/event_log.c:198:11
	lsls	r0, r0, #31
	cbz	r0, .LBB0_94
	b	.LBB0_93
.LBB0_93:                               @   in Loop: Header=BB0_71 Depth=1
	.loc	1 0 11                          @ source/event_log.c:0:11
	add	r0, sp, #68
.Ltmp125:
	.loc	1 199 7 is_stmt 1               @ source/event_log.c:199:7
	ldrb	r0, [r0]
	ldr	r1, __arm_cp.0_7
	.loc	1 199 4 is_stmt 0               @ source/event_log.c:199:4
	muls	r1, r0, r1
	ldr	r0, __arm_cp.0_0
	adds	r1, r0, r1
	movs	r0, #4
	.loc	1 199 19                        @ source/event_log.c:199:19
	strb	r0, [r1, #12]
	.loc	1 200 3 is_stmt 1               @ source/event_log.c:200:3
	b	.LBB0_104
.Ltmp126:
.LBB0_94:                               @   in Loop: Header=BB0_71 Depth=1
	.loc	1 0 3 is_stmt 0                 @ source/event_log.c:0:3
	add	r0, sp, #68
.Ltmp127:
	.loc	1 201 14 is_stmt 1              @ source/event_log.c:201:14
	ldrb	r0, [r0]
	ldr	r1, __arm_cp.0_7
	.loc	1 201 11 is_stmt 0              @ source/event_log.c:201:11
	muls	r1, r0, r1
	ldr	r0, __arm_cp.0_0
	adds	r0, r0, r1
	.loc	1 201 17                        @ source/event_log.c:201:17
	ldrb	r0, [r0, #8]
.Ltmp128:
	.loc	1 201 11                        @ source/event_log.c:201:11
	lsls	r0, r0, #31
	cbz	r0, .LBB0_96
	b	.LBB0_95
.LBB0_95:                               @   in Loop: Header=BB0_71 Depth=1
	.loc	1 0 11                          @ source/event_log.c:0:11
	add	r0, sp, #68
.Ltmp129:
	.loc	1 202 7 is_stmt 1               @ source/event_log.c:202:7
	ldrb	r0, [r0]
	ldr	r1, __arm_cp.0_7
	.loc	1 202 4 is_stmt 0               @ source/event_log.c:202:4
	muls	r1, r0, r1
	ldr	r0, __arm_cp.0_0
	adds	r1, r0, r1
	movs	r0, #5
	.loc	1 202 19                        @ source/event_log.c:202:19
	strb	r0, [r1, #12]
	.loc	1 203 3 is_stmt 1               @ source/event_log.c:203:3
	b	.LBB0_103
.Ltmp130:
.LBB0_96:                               @   in Loop: Header=BB0_71 Depth=1
	.loc	1 0 3 is_stmt 0                 @ source/event_log.c:0:3
	add	r0, sp, #68
.Ltmp131:
	.loc	1 204 14 is_stmt 1              @ source/event_log.c:204:14
	ldrb	r0, [r0]
	ldr	r1, __arm_cp.0_7
	.loc	1 204 11 is_stmt 0              @ source/event_log.c:204:11
	muls	r1, r0, r1
	ldr	r0, __arm_cp.0_0
	adds	r0, r0, r1
	.loc	1 204 17                        @ source/event_log.c:204:17
	ldrb	r0, [r0, #10]
.Ltmp132:
	.loc	1 204 11                        @ source/event_log.c:204:11
	lsls	r0, r0, #31
	cbz	r0, .LBB0_98
	b	.LBB0_97
.LBB0_97:                               @   in Loop: Header=BB0_71 Depth=1
	.loc	1 0 11                          @ source/event_log.c:0:11
	add	r0, sp, #68
.Ltmp133:
	.loc	1 205 7 is_stmt 1               @ source/event_log.c:205:7
	ldrb	r0, [r0]
	ldr	r1, __arm_cp.0_7
	.loc	1 205 4 is_stmt 0               @ source/event_log.c:205:4
	muls	r1, r0, r1
	ldr	r0, __arm_cp.0_0
	adds	r1, r0, r1
	movs	r0, #6
	.loc	1 205 19                        @ source/event_log.c:205:19
	strb	r0, [r1, #12]
	.loc	1 206 3 is_stmt 1               @ source/event_log.c:206:3
	b	.LBB0_102
.Ltmp134:
.LBB0_98:                               @   in Loop: Header=BB0_71 Depth=1
	.loc	1 0 3 is_stmt 0                 @ source/event_log.c:0:3
	add	r0, sp, #68
.Ltmp135:
	.loc	1 207 14 is_stmt 1              @ source/event_log.c:207:14
	ldrb	r0, [r0]
	ldr	r1, __arm_cp.0_7
	.loc	1 207 11 is_stmt 0              @ source/event_log.c:207:11
	muls	r1, r0, r1
	ldr	r0, __arm_cp.0_0
	adds	r0, r0, r1
	.loc	1 207 17                        @ source/event_log.c:207:17
	ldrb	r0, [r0, #9]
.Ltmp136:
	.loc	1 207 11                        @ source/event_log.c:207:11
	lsls	r0, r0, #31
	cbz	r0, .LBB0_100
	b	.LBB0_99
.LBB0_99:                               @   in Loop: Header=BB0_71 Depth=1
	.loc	1 0 11                          @ source/event_log.c:0:11
	add	r0, sp, #68
.Ltmp137:
	.loc	1 208 7 is_stmt 1               @ source/event_log.c:208:7
	ldrb	r0, [r0]
	ldr	r1, __arm_cp.0_7
	.loc	1 208 4 is_stmt 0               @ source/event_log.c:208:4
	muls	r1, r0, r1
	ldr	r0, __arm_cp.0_0
	adds	r1, r0, r1
	movs	r0, #7
	.loc	1 208 19                        @ source/event_log.c:208:19
	strb	r0, [r1, #12]
	.loc	1 209 3 is_stmt 1               @ source/event_log.c:209:3
	b	.LBB0_101
.Ltmp138:
.LBB0_100:                              @   in Loop: Header=BB0_71 Depth=1
	.loc	1 0 3 is_stmt 0                 @ source/event_log.c:0:3
	add	r0, sp, #68
.Ltmp139:
	.loc	1 211 7 is_stmt 1               @ source/event_log.c:211:7
	ldrb	r0, [r0]
	ldr	r1, __arm_cp.0_7
	.loc	1 211 4 is_stmt 0               @ source/event_log.c:211:4
	muls	r1, r0, r1
	ldr	r0, __arm_cp.0_0
	adds	r1, r0, r1
	movs	r0, #0
	.loc	1 211 19                        @ source/event_log.c:211:19
	strb	r0, [r1, #12]
	b	.LBB0_101
.Ltmp140:
.LBB0_101:                              @   in Loop: Header=BB0_71 Depth=1
	.loc	1 0 19                          @ source/event_log.c:0:19
	b	.LBB0_102
.LBB0_102:                              @   in Loop: Header=BB0_71 Depth=1
	b	.LBB0_103
.LBB0_103:                              @   in Loop: Header=BB0_71 Depth=1
	b	.LBB0_104
.LBB0_104:                              @   in Loop: Header=BB0_71 Depth=1
	b	.LBB0_105
.LBB0_105:                              @   in Loop: Header=BB0_71 Depth=1
	b	.LBB0_106
.LBB0_106:                              @   in Loop: Header=BB0_71 Depth=1
	b	.LBB0_107
.LBB0_107:                              @   in Loop: Header=BB0_71 Depth=1
	add	r0, sp, #68
.Ltmp141:
	.loc	1 215 9 is_stmt 1               @ source/event_log.c:215:9
	ldrb	r0, [r0]
	ldr	r1, __arm_cp.0_7
	.loc	1 215 6 is_stmt 0               @ source/event_log.c:215:6
	muls	r1, r0, r1
	ldr	r0, __arm_cp.0_0
	adds	r1, r0, r1
	.loc	1 215 12                        @ source/event_log.c:215:12
	ldrb	r0, [r1, #12]
	.loc	1 215 30                        @ source/event_log.c:215:30
	ldrb	r1, [r1, #13]
.Ltmp142:
	.loc	1 215 6                         @ source/event_log.c:215:6
	cmp	r0, r1
	beq	.LBB0_109
	b	.LBB0_108
.LBB0_108:                              @   in Loop: Header=BB0_71 Depth=1
	.loc	1 0 6                           @ source/event_log.c:0:6
	add	r0, sp, #68
.Ltmp143:
	.loc	1 216 7 is_stmt 1               @ source/event_log.c:216:7
	ldrb	r0, [r0]
	ldr	r1, __arm_cp.0_7
	.loc	1 216 4 is_stmt 0               @ source/event_log.c:216:4
	muls	r1, r0, r1
	ldr	r0, __arm_cp.0_0
	adds	r1, r0, r1
	movs	r0, #1
	.loc	1 216 21                        @ source/event_log.c:216:21
	strb	r0, [r1, #11]
	.loc	1 217 3 is_stmt 1               @ source/event_log.c:217:3
	b	.LBB0_109
.Ltmp144:
.LBB0_109:                              @   in Loop: Header=BB0_71 Depth=1
	.loc	1 0 3 is_stmt 0                 @ source/event_log.c:0:3
	add	r0, sp, #68
	.loc	1 218 25 is_stmt 1              @ source/event_log.c:218:25
	ldrb	r0, [r0]
	ldr	r1, __arm_cp.0_7
	.loc	1 218 22 is_stmt 0              @ source/event_log.c:218:22
	muls	r1, r0, r1
	ldr	r0, __arm_cp.0_0
	adds	r1, r0, r1
	.loc	1 218 28                        @ source/event_log.c:218:28
	ldrb	r0, [r1, #12]
	.loc	1 218 20                        @ source/event_log.c:218:20
	strb	r0, [r1, #13]
	.loc	1 219 2 is_stmt 1               @ source/event_log.c:219:2
	b	.LBB0_110
.Ltmp145:
.LBB0_110:                              @   in Loop: Header=BB0_71 Depth=1
	.loc	1 188 17                        @ source/event_log.c:188:17
	ldr	r0, [sp, #68]
	adds	r0, r0, #1
	add	r1, sp, #68
	strb	r0, [r1]
	.loc	1 188 2 is_stmt 0               @ source/event_log.c:188:2
	b	.LBB0_71
.Ltmp146:
.LBB0_111:
	.loc	1 222 19 is_stmt 1              @ source/event_log.c:222:19
	ldr	r0, __arm_cp.0_10
	ldrb	r0, [r0]
	lsls	r0, r0, #26
	lsrs	r0, r0, #30
.Ltmp147:
	.loc	1 222 5 is_stmt 0               @ source/event_log.c:222:5
	cmp	r0, #1
	bne	.LBB0_115
	b	.LBB0_112
.LBB0_112:
.Ltmp148:
	.loc	1 223 3 is_stmt 1               @ source/event_log.c:223:3
	bl	get_line_state_sl
.Ltmp149:
	.loc	1 224 6                         @ source/event_log.c:224:6
	ldr	r1, __arm_cp.0_11
	mov	r0, r1
	adds	r0, #24
	adds	r1, #84
	bl	strcmp
.Ltmp150:
	.loc	1 224 6 is_stmt 0               @ source/event_log.c:224:6
	cbz	r0, .LBB0_114
	b	.LBB0_113
.LBB0_113:
.Ltmp151:
	.loc	1 225 4 is_stmt 1               @ source/event_log.c:225:4
	ldr	r1, __arm_cp.0_11
	str	r1, [sp, #36]                   @ 4-byte Spill
	mov	r0, r1
	adds	r0, #84
	adds	r1, #24
	bl	strcpy
	movs	r0, #0
	str	r0, [sp, #28]                   @ 4-byte Spill
	movs	r1, #16
	.loc	1 227 4                         @ source/event_log.c:227:4
	str	r1, [sp, #24]                   @ 4-byte Spill
	bl	SH1106_GotoXY
	.loc	1 228 4                         @ source/event_log.c:228:4
	ldr	r0, __arm_cp.0_13
	ldr	r1, __arm_cp.0_14
	str	r1, [sp, #32]                   @ 4-byte Spill
	movs	r2, #1
	str	r2, [sp, #40]                   @ 4-byte Spill
	bl	SH1106_Puts
	ldr	r1, [sp, #24]                   @ 4-byte Reload
                                        @ kill: def $r2 killed $r0
	.loc	1 231 4                         @ source/event_log.c:231:4
	ldr	r0, [sp, #28]                   @ 4-byte Reload
	bl	SH1106_GotoXY
	ldr	r1, [sp, #32]                   @ 4-byte Reload
	ldr	r0, [sp, #36]                   @ 4-byte Reload
	ldr	r2, [sp, #40]                   @ 4-byte Reload
	.loc	1 232 4                         @ source/event_log.c:232:4
	adds	r0, #68
	bl	SH1106_Puts
	ldr	r1, [sp, #36]                   @ 4-byte Reload
                                        @ kill: def $r2 killed $r0
	ldr	r0, [sp, #40]                   @ 4-byte Reload
	movs	r2, #120
	.loc	1 234 19                        @ source/event_log.c:234:19
	strb	r0, [r1, r2]
	.loc	1 235 19                        @ source/event_log.c:235:19
	ldr	r1, __arm_cp.0_12
	strb	r0, [r1, #2]
	.loc	1 236 3                         @ source/event_log.c:236:3
	b	.LBB0_114
.Ltmp152:
.LBB0_114:
	.loc	1 237 2                         @ source/event_log.c:237:2
	b	.LBB0_123
.Ltmp153:
.LBB0_115:
	.loc	1 238 24                        @ source/event_log.c:238:24
	ldr	r0, __arm_cp.0_10
	ldrb	r0, [r0]
	lsls	r0, r0, #26
	lsrs	r0, r0, #30
.Ltmp154:
	.loc	1 238 10 is_stmt 0              @ source/event_log.c:238:10
	cmp	r0, #3
	bne	.LBB0_121
	b	.LBB0_116
.LBB0_116:
.Ltmp155:
	.loc	1 239 3 is_stmt 1               @ source/event_log.c:239:3
	bl	get_line_state_dl
.Ltmp156:
	.loc	1 241 7                         @ source/event_log.c:241:7
	ldr	r1, __arm_cp.0_11
	mov	r0, r1
	adds	r0, #24
	adds	r1, #84
	bl	strcmp
.Ltmp157:
	.loc	1 241 7 is_stmt 0               @ source/event_log.c:241:7
	cbz	r0, .LBB0_118
	b	.LBB0_117
.LBB0_117:
.Ltmp158:
	.loc	1 242 4 is_stmt 1               @ source/event_log.c:242:4
	ldr	r1, __arm_cp.0_11
	str	r1, [sp, #20]                   @ 4-byte Spill
	mov	r0, r1
	adds	r0, #84
	adds	r1, #24
	bl	strcpy
	ldr	r1, [sp, #20]                   @ 4-byte Reload
	movs	r2, #120
	movs	r0, #1
	.loc	1 243 19                        @ source/event_log.c:243:19
	strb	r0, [r1, r2]
	.loc	1 244 19                        @ source/event_log.c:244:19
	ldr	r1, __arm_cp.0_12
	strb	r0, [r1, #2]
	.loc	1 245 3                         @ source/event_log.c:245:3
	b	.LBB0_118
.Ltmp159:
.LBB0_118:
	.loc	1 247 6                         @ source/event_log.c:247:6
	ldr	r1, __arm_cp.0_11
	mov	r0, r1
	adds	r0, #28
	adds	r1, #88
	bl	strcmp
.Ltmp160:
	.loc	1 247 6 is_stmt 0               @ source/event_log.c:247:6
	cbz	r0, .LBB0_120
	b	.LBB0_119
.LBB0_119:
.Ltmp161:
	.loc	1 248 4 is_stmt 1               @ source/event_log.c:248:4
	ldr	r1, __arm_cp.0_11
	str	r1, [sp, #16]                   @ 4-byte Spill
	mov	r0, r1
	adds	r0, #88
	adds	r1, #28
	bl	strcpy
	ldr	r1, [sp, #16]                   @ 4-byte Reload
	movs	r2, #120
	movs	r0, #1
	.loc	1 249 19                        @ source/event_log.c:249:19
	strb	r0, [r1, r2]
	.loc	1 250 19                        @ source/event_log.c:250:19
	ldr	r1, __arm_cp.0_12
	strb	r0, [r1, #2]
	.loc	1 251 3                         @ source/event_log.c:251:3
	b	.LBB0_120
.Ltmp162:
.LBB0_120:
	.loc	1 252 2                         @ source/event_log.c:252:2
	b	.LBB0_122
.Ltmp163:
.LBB0_121:
	.loc	1 0 2 is_stmt 0                 @ source/event_log.c:0:2
	b	.LBB0_122
.LBB0_122:
	b	.LBB0_123
.LBB0_123:
.Ltmp164:
	.loc	1 257 9 is_stmt 1               @ source/event_log.c:257:9
	ldr	r1, __arm_cp.0_11
	movs	r0, #32
	ldrb	r0, [r1, r0]
	movs	r2, #92
	.loc	1 257 26 is_stmt 0              @ source/event_log.c:257:26
	ldrb	r1, [r1, r2]
.Ltmp165:
	.loc	1 257 5                         @ source/event_log.c:257:5
	cmp	r0, r1
	beq	.LBB0_125
	b	.LBB0_124
.LBB0_124:
.Ltmp166:
	.loc	1 258 25 is_stmt 1              @ source/event_log.c:258:25
	ldr	r1, __arm_cp.0_11
	movs	r0, #32
	ldrb	r0, [r1, r0]
	movs	r2, #92
	.loc	1 258 19 is_stmt 0              @ source/event_log.c:258:19
	strb	r0, [r1, r2]
	movs	r2, #120
	movs	r0, #1
	.loc	1 259 18 is_stmt 1              @ source/event_log.c:259:18
	strb	r0, [r1, r2]
	.loc	1 260 2                         @ source/event_log.c:260:2
	b	.LBB0_125
.Ltmp167:
.LBB0_125:
	.loc	1 262 14                        @ source/event_log.c:262:14
	bl	get_sys_error
	.loc	1 262 12 is_stmt 0              @ source/event_log.c:262:12
	ldr	r1, __arm_cp.0_11
	strh	r0, [r1, #34]
.Ltmp168:
	.loc	1 263 9 is_stmt 1               @ source/event_log.c:263:9
	ldrh	r0, [r1, #34]
	movs	r2, #94
	.loc	1 263 22 is_stmt 0              @ source/event_log.c:263:22
	ldrh	r1, [r1, r2]
.Ltmp169:
	.loc	1 263 5                         @ source/event_log.c:263:5
	cmp	r0, r1
	beq	.LBB0_127
	b	.LBB0_126
.LBB0_126:
.Ltmp170:
	.loc	1 264 21 is_stmt 1              @ source/event_log.c:264:21
	ldr	r1, __arm_cp.0_11
	ldrh	r0, [r1, #34]
	movs	r2, #94
	.loc	1 264 15 is_stmt 0              @ source/event_log.c:264:15
	strh	r0, [r1, r2]
	movs	r2, #120
	movs	r0, #1
	.loc	1 265 18 is_stmt 1              @ source/event_log.c:265:18
	strb	r0, [r1, r2]
	.loc	1 266 2                         @ source/event_log.c:266:2
	b	.LBB0_127
.Ltmp171:
.LBB0_127:
	.loc	1 269 22                        @ source/event_log.c:269:22
	ldr	r0, __arm_cp.0_15
	ldr	r0, [r0, #8]
	.loc	1 269 10 is_stmt 0              @ source/event_log.c:269:10
	str	r0, [sp, #52]
.Ltmp172:
	.loc	1 274 5 is_stmt 1               @ source/event_log.c:274:5
	ldr	r0, [sp, #52]
	.loc	1 274 8 is_stmt 0               @ source/event_log.c:274:8
	ldrb	r0, [r0, #12]
.Ltmp173:
	.loc	1 274 5                         @ source/event_log.c:274:5
	cmp	r0, #1
	beq	.LBB0_128
	b	.LBB0_149
.LBB0_128:
	.loc	1 0 5                           @ source/event_log.c:0:5
	add	r1, sp, #64
	movs	r0, #0
.Ltmp174:
	.loc	1 275 8 is_stmt 1               @ source/event_log.c:275:8
	strb	r0, [r1]
	.loc	1 275 7 is_stmt 0               @ source/event_log.c:275:7
	b	.LBB0_129
.LBB0_129:                              @ =>This Inner Loop Header: Depth=1
	.loc	1 0 7                           @ source/event_log.c:0:7
	add	r0, sp, #64
.Ltmp175:
	.loc	1 275 12                        @ source/event_log.c:275:12
	ldrb	r0, [r0]
.Ltmp176:
	.loc	1 275 3                         @ source/event_log.c:275:3
	cmp	r0, #19
	bhi	.LBB0_134
	b	.LBB0_130
.LBB0_130:                              @   in Loop: Header=BB0_129 Depth=1
	.loc	1 0 3                           @ source/event_log.c:0:3
	add	r0, sp, #64
.Ltmp177:
	.loc	1 276 16 is_stmt 1              @ source/event_log.c:276:16
	ldrb	r0, [r0]
	movs	r1, #6
	.loc	1 276 7 is_stmt 0               @ source/event_log.c:276:7
	muls	r1, r0, r1
	ldr	r0, __arm_cp.0_0
	adds	r0, r0, r1
	ldr	r1, __arm_cp.0_20
	.loc	1 276 19                        @ source/event_log.c:276:19
	ldrb	r0, [r0, r1]
.Ltmp178:
	.loc	1 276 7                         @ source/event_log.c:276:7
	lsls	r0, r0, #31
	cbz	r0, .LBB0_132
	b	.LBB0_131
.LBB0_131:                              @   in Loop: Header=BB0_129 Depth=1
.Ltmp179:
	.loc	1 277 25 is_stmt 1              @ source/event_log.c:277:25
	ldr	r0, [sp, #52]
	add	r1, sp, #64
	.loc	1 277 39 is_stmt 0              @ source/event_log.c:277:39
	str	r1, [sp, #8]                    @ 4-byte Spill
	ldrb	r2, [r1]
	movs	r1, #0
	.loc	1 277 5                         @ source/event_log.c:277:5
	str	r1, [sp, #12]                   @ 4-byte Spill
	bl	wr_relay_status_pkt
	ldr	r1, [sp, #8]                    @ 4-byte Reload
                                        @ kill: def $r2 killed $r0
	.loc	1 278 14 is_stmt 1              @ source/event_log.c:278:14
	ldr	r0, [sp, #12]                   @ 4-byte Reload
	ldrb	r1, [r1]
	movs	r2, #6
	.loc	1 278 5 is_stmt 0               @ source/event_log.c:278:5
	muls	r2, r1, r2
	ldr	r1, __arm_cp.0_0
	adds	r1, r1, r2
	ldr	r2, __arm_cp.0_20
	.loc	1 278 28                        @ source/event_log.c:278:28
	strb	r0, [r1, r2]
	.loc	1 279 4 is_stmt 1               @ source/event_log.c:279:4
	b	.LBB0_132
.Ltmp180:
.LBB0_132:                              @   in Loop: Header=BB0_129 Depth=1
	.loc	1 280 3                         @ source/event_log.c:280:3
	b	.LBB0_133
.Ltmp181:
.LBB0_133:                              @   in Loop: Header=BB0_129 Depth=1
	.loc	1 275 35                        @ source/event_log.c:275:35
	ldr	r0, [sp, #64]
	adds	r0, r0, #1
	add	r1, sp, #64
	strb	r0, [r1]
	.loc	1 275 3 is_stmt 0               @ source/event_log.c:275:3
	b	.LBB0_129
.Ltmp182:
.LBB0_134:
	.loc	1 0 3                           @ source/event_log.c:0:3
	add	r1, sp, #64
	movs	r0, #0
.Ltmp183:
	.loc	1 282 8 is_stmt 1               @ source/event_log.c:282:8
	strb	r0, [r1]
	.loc	1 282 7 is_stmt 0               @ source/event_log.c:282:7
	b	.LBB0_135
.LBB0_135:                              @ =>This Inner Loop Header: Depth=1
	.loc	1 0 7                           @ source/event_log.c:0:7
	add	r0, sp, #64
.Ltmp184:
	.loc	1 282 12                        @ source/event_log.c:282:12
	ldrb	r0, [r0]
.Ltmp185:
	.loc	1 282 3                         @ source/event_log.c:282:3
	cmp	r0, #7
	bhi	.LBB0_140
	b	.LBB0_136
.LBB0_136:                              @   in Loop: Header=BB0_135 Depth=1
	.loc	1 0 3                           @ source/event_log.c:0:3
	add	r0, sp, #64
.Ltmp186:
	.loc	1 283 16 is_stmt 1              @ source/event_log.c:283:16
	ldrb	r0, [r0]
	movs	r1, #6
	.loc	1 283 7 is_stmt 0               @ source/event_log.c:283:7
	muls	r1, r0, r1
	ldr	r0, __arm_cp.0_0
	adds	r0, r0, r1
	ldr	r1, __arm_cp.0_19
	.loc	1 283 19                        @ source/event_log.c:283:19
	ldrb	r0, [r0, r1]
.Ltmp187:
	.loc	1 283 7                         @ source/event_log.c:283:7
	lsls	r0, r0, #31
	cbz	r0, .LBB0_138
	b	.LBB0_137
.LBB0_137:                              @   in Loop: Header=BB0_135 Depth=1
.Ltmp188:
	.loc	1 284 25 is_stmt 1              @ source/event_log.c:284:25
	ldr	r0, [sp, #52]
	add	r1, sp, #64
	.loc	1 284 40 is_stmt 0              @ source/event_log.c:284:40
	str	r1, [sp, #4]                    @ 4-byte Spill
	ldrb	r2, [r1]
	movs	r1, #3
	.loc	1 284 5                         @ source/event_log.c:284:5
	bl	wr_relay_status_pkt
                                        @ kill: def $r1 killed $r0
	.loc	1 285 14 is_stmt 1              @ source/event_log.c:285:14
	ldr	r0, [sp, #4]                    @ 4-byte Reload
	ldrb	r0, [r0]
	movs	r1, #6
	.loc	1 285 5 is_stmt 0               @ source/event_log.c:285:5
	muls	r1, r0, r1
	ldr	r0, __arm_cp.0_0
	adds	r1, r0, r1
	ldr	r2, __arm_cp.0_19
	movs	r0, #0
	.loc	1 285 28                        @ source/event_log.c:285:28
	strb	r0, [r1, r2]
	.loc	1 286 4 is_stmt 1               @ source/event_log.c:286:4
	b	.LBB0_138
.Ltmp189:
.LBB0_138:                              @   in Loop: Header=BB0_135 Depth=1
	.loc	1 287 3                         @ source/event_log.c:287:3
	b	.LBB0_139
.Ltmp190:
.LBB0_139:                              @   in Loop: Header=BB0_135 Depth=1
	.loc	1 282 36                        @ source/event_log.c:282:36
	ldr	r0, [sp, #64]
	adds	r0, r0, #1
	add	r1, sp, #64
	strb	r0, [r1]
	.loc	1 282 3 is_stmt 0               @ source/event_log.c:282:3
	b	.LBB0_135
.Ltmp191:
.LBB0_140:
	.loc	1 0 3                           @ source/event_log.c:0:3
	add	r1, sp, #64
	movs	r0, #0
.Ltmp192:
	.loc	1 290 8 is_stmt 1               @ source/event_log.c:290:8
	strb	r0, [r1]
	.loc	1 290 7 is_stmt 0               @ source/event_log.c:290:7
	b	.LBB0_141
.LBB0_141:                              @ =>This Inner Loop Header: Depth=1
	.loc	1 0 7                           @ source/event_log.c:0:7
	add	r0, sp, #64
.Ltmp193:
	.loc	1 290 12                        @ source/event_log.c:290:12
	ldrb	r0, [r0]
.Ltmp194:
	.loc	1 290 3                         @ source/event_log.c:290:3
	cmp	r0, #3
	bhi	.LBB0_146
	b	.LBB0_142
.LBB0_142:                              @   in Loop: Header=BB0_141 Depth=1
	.loc	1 0 3                           @ source/event_log.c:0:3
	add	r0, sp, #64
.Ltmp195:
	.loc	1 291 10 is_stmt 1              @ source/event_log.c:291:10
	ldrb	r0, [r0]
	ldr	r1, __arm_cp.0_7
	.loc	1 291 7 is_stmt 0               @ source/event_log.c:291:7
	muls	r1, r0, r1
	ldr	r0, __arm_cp.0_0
	adds	r0, r0, r1
	.loc	1 291 13                        @ source/event_log.c:291:13
	ldrb	r0, [r0, #11]
.Ltmp196:
	.loc	1 291 7                         @ source/event_log.c:291:7
	lsls	r0, r0, #31
	cbz	r0, .LBB0_144
	b	.LBB0_143
.LBB0_143:
.Ltmp197:
	.loc	1 292 24 is_stmt 1              @ source/event_log.c:292:24
	ldr	r0, [sp, #52]
	.loc	1 292 5 is_stmt 0               @ source/event_log.c:292:5
	bl	wr_card_status_pkt
	.loc	1 293 22 is_stmt 1              @ source/event_log.c:293:22
	ldr	r1, __arm_cp.0_0
	movs	r0, #0
	strb	r0, [r1, #11]
	ldr	r2, __arm_cp.0_16
	.loc	1 294 22                        @ source/event_log.c:294:22
	strb	r0, [r1, r2]
	ldr	r2, __arm_cp.0_17
	.loc	1 295 22                        @ source/event_log.c:295:22
	strb	r0, [r1, r2]
	ldr	r2, __arm_cp.0_18
	.loc	1 296 22                        @ source/event_log.c:296:22
	strb	r0, [r1, r2]
	.loc	1 297 5                         @ source/event_log.c:297:5
	b	.LBB0_146
.Ltmp198:
.LBB0_144:                              @   in Loop: Header=BB0_141 Depth=1
	.loc	1 299 3                         @ source/event_log.c:299:3
	b	.LBB0_145
.Ltmp199:
.LBB0_145:                              @   in Loop: Header=BB0_141 Depth=1
	.loc	1 290 18                        @ source/event_log.c:290:18
	ldr	r0, [sp, #64]
	adds	r0, r0, #1
	add	r1, sp, #64
	strb	r0, [r1]
	.loc	1 290 3 is_stmt 0               @ source/event_log.c:290:3
	b	.LBB0_141
.Ltmp200:
.LBB0_146:
	.loc	1 302 10 is_stmt 1              @ source/event_log.c:302:10
	ldr	r0, __arm_cp.0_11
	movs	r1, #120
	ldrb	r0, [r0, r1]
.Ltmp201:
	.loc	1 302 6 is_stmt 0               @ source/event_log.c:302:6
	lsls	r0, r0, #31
	cbz	r0, .LBB0_148
	b	.LBB0_147
.LBB0_147:
.Ltmp202:
	.loc	1 303 22 is_stmt 1              @ source/event_log.c:303:22
	ldr	r0, [sp, #52]
	.loc	1 303 4 is_stmt 0               @ source/event_log.c:303:4
	bl	wr_sys_status_pkt
	.loc	1 304 19 is_stmt 1              @ source/event_log.c:304:19
	ldr	r1, __arm_cp.0_11
	movs	r2, #120
	movs	r0, #0
	strb	r0, [r1, r2]
	.loc	1 305 3                         @ source/event_log.c:305:3
	b	.LBB0_148
.Ltmp203:
.LBB0_148:
	.loc	1 306 2                         @ source/event_log.c:306:2
	b	.LBB0_149
.Ltmp204:
.LBB0_149:
	.loc	1 307 1 epilogue_begin          @ source/event_log.c:307:1
	add	sp, #72
	pop	{r7, pc}
.Ltmp205:
	.loc	1 0 1 is_stmt 0                 @ :0:1
.Ltmp206:
	.p2align	2
@ %bb.150:
__arm_cp.0_0:
	.long	pe
.Lcpi_end12:
	.size	__arm_cp.0_0, .Lcpi_end12-__arm_cp.0_0
__arm_cp.0_7:
	.long	1702                            @ 0x6a6
.Lcpi_end13:
	.size	__arm_cp.0_7, .Lcpi_end13-__arm_cp.0_7
__arm_cp.0_10:
	.long	cpu_ctrls_u
.Lcpi_end14:
	.size	__arm_cp.0_10, .Lcpi_end14-__arm_cp.0_10
__arm_cp.0_11:
	.long	sys
.Lcpi_end15:
	.size	__arm_cp.0_11, .Lcpi_end15-__arm_cp.0_11
__arm_cp.0_12:
	.long	ev
.Lcpi_end16:
	.size	__arm_cp.0_12, .Lcpi_end16-__arm_cp.0_12
__arm_cp.0_13:
	.long	.L.str
.Lcpi_end17:
	.size	__arm_cp.0_13, .Lcpi_end17-__arm_cp.0_13
__arm_cp.0_14:
	.long	Font_7x10
.Lcpi_end18:
	.size	__arm_cp.0_14, .Lcpi_end18-__arm_cp.0_14
__arm_cp.0_15:
	.long	uart_el
.Lcpi_end19:
	.size	__arm_cp.0_15, .Lcpi_end19-__arm_cp.0_15
__arm_cp.0_16:
	.long	1713                            @ 0x6b1
.Lcpi_end20:
	.size	__arm_cp.0_16, .Lcpi_end20-__arm_cp.0_16
__arm_cp.0_17:
	.long	3415                            @ 0xd57
.Lcpi_end21:
	.size	__arm_cp.0_17, .Lcpi_end21-__arm_cp.0_17
__arm_cp.0_18:
	.long	5117                            @ 0x13fd
.Lcpi_end22:
	.size	__arm_cp.0_18, .Lcpi_end22-__arm_cp.0_18
__arm_cp.0_19:
	.long	5322                            @ 0x14ca
.Lcpi_end23:
	.size	__arm_cp.0_19, .Lcpi_end23-__arm_cp.0_19
__arm_cp.0_20:
	.long	5202                            @ 0x1452
.Lcpi_end24:
	.size	__arm_cp.0_20, .Lcpi_end24-__arm_cp.0_20
.Lfunc_end0:
	.size	send_el_pkt, .Lfunc_end0-send_el_pkt
	.cfi_endproc
	.cantunwind
	.fnend
                                        @ -- End function
	.section	.text.conv_byte2event,"ax",%progbits
	.p2align	2                               @ -- Begin function conv_byte2event
	.type	conv_byte2event,%function
	.code	16                              @ @conv_byte2event
	.thumb_func
conv_byte2event:
.Lfunc_begin1:
	.loc	1 614 0 is_stmt 1               @ source/event_log.c:614:0
	.fnstart
	.cfi_startproc
@ %bb.0:
	.pad	#40
	sub	sp, #40
	.cfi_def_cfa_offset 40
                                        @ kill: def $r3 killed $r0
	add	r3, sp, #36
	strb	r0, [r3]
	str	r1, [sp, #32]
	str	r2, [sp, #28]
	add	r1, sp, #24
	movs	r0, #0
.Ltmp207:
	.loc	1 618 7 prologue_end            @ source/event_log.c:618:7
	strb	r0, [r1]
	.loc	1 618 6 is_stmt 0               @ source/event_log.c:618:6
	b	.LBB1_1
.LBB1_1:                                @ =>This Loop Header: Depth=1
                                        @     Child Loop BB1_3 Depth 2
	.loc	1 0 6                           @ source/event_log.c:0:6
	add	r0, sp, #24
.Ltmp208:
	.loc	1 618 10                        @ source/event_log.c:618:10
	ldrb	r0, [r0]
	add	r1, sp, #36
	.loc	1 618 12                        @ source/event_log.c:618:12
	ldrb	r1, [r1]
.Ltmp209:
	.loc	1 618 2                         @ source/event_log.c:618:2
	cmp	r0, r1
	bge	.LBB1_18
	b	.LBB1_2
.LBB1_2:                                @   in Loop: Header=BB1_1 Depth=1
.Ltmp210:
	.loc	1 619 7 is_stmt 1               @ source/event_log.c:619:7
	ldr	r0, [sp, #32]
	add	r1, sp, #24
	.loc	1 619 14 is_stmt 0              @ source/event_log.c:619:14
	ldrb	r1, [r1]
	.loc	1 619 7                         @ source/event_log.c:619:7
	ldrb	r0, [r0, r1]
	add	r1, sp, #20
	.loc	1 619 5                         @ source/event_log.c:619:5
	strb	r0, [r1]
	add	r1, sp, #12
	movs	r0, #0
.Ltmp211:
	.loc	1 620 8 is_stmt 1               @ source/event_log.c:620:8
	strb	r0, [r1]
	.loc	1 620 7 is_stmt 0               @ source/event_log.c:620:7
	b	.LBB1_3
.LBB1_3:                                @   Parent Loop BB1_1 Depth=1
                                        @ =>  This Inner Loop Header: Depth=2
	.loc	1 0 7                           @ source/event_log.c:0:7
	add	r0, sp, #12
.Ltmp212:
	.loc	1 620 12                        @ source/event_log.c:620:12
	ldrb	r0, [r0]
.Ltmp213:
	.loc	1 620 3                         @ source/event_log.c:620:3
	cmp	r0, #3
	bhi	.LBB1_16
	b	.LBB1_4
.LBB1_4:                                @   in Loop: Header=BB1_3 Depth=2
	.loc	1 0 3                           @ source/event_log.c:0:3
	add	r2, sp, #20
.Ltmp214:
	.loc	1 622 8 is_stmt 1               @ source/event_log.c:622:8
	ldrb	r1, [r2]
	movs	r0, #3
	.loc	1 622 10 is_stmt 0              @ source/event_log.c:622:10
	ands	r1, r0
	add	r0, sp, #16
	.loc	1 622 6                         @ source/event_log.c:622:6
	strb	r1, [r0]
	.loc	1 623 6 is_stmt 1               @ source/event_log.c:623:6
	ldrb	r1, [r2]
	lsrs	r1, r1, #2
	strb	r1, [r2]
	.loc	1 625 9                         @ source/event_log.c:625:9
	ldr	r1, [sp, #24]
	.loc	1 625 10 is_stmt 0              @ source/event_log.c:625:10
	lsls	r1, r1, #2
	.loc	1 625 15                        @ source/event_log.c:625:15
	ldr	r2, [sp, #12]
	.loc	1 625 14                        @ source/event_log.c:625:14
	adds	r1, r1, r2
	add	r2, sp, #8
	.loc	1 625 6                         @ source/event_log.c:625:6
	strb	r1, [r2]
	.loc	1 626 9 is_stmt 1               @ source/event_log.c:626:9
	ldr	r1, [sp, #28]
	.loc	1 626 17 is_stmt 0              @ source/event_log.c:626:17
	ldrb	r3, [r2]
	movs	r2, #6
	.loc	1 626 9                         @ source/event_log.c:626:9
	muls	r2, r3, r2
	adds	r1, r1, r2
	.loc	1 626 6                         @ source/event_log.c:626:6
	str	r1, [sp, #4]
	.loc	1 628 11 is_stmt 1              @ source/event_log.c:628:11
	ldrb	r0, [r0]
	.loc	1 628 4 is_stmt 0               @ source/event_log.c:628:4
	str	r0, [sp]                        @ 4-byte Spill
	cmp	r0, #3
	bhi	.LBB1_11
@ %bb.5:                                @   in Loop: Header=BB1_3 Depth=2
	ldr	r1, [sp]                        @ 4-byte Reload
	lsls	r2, r1, #2
	adr	r0, .LJTI1_0
	adds	r0, r0, r2
	mov	pc, r0
@ %bb.6:
	.loc	1 0 4                           @ source/event_log.c:0:4
	.p2align	2
.LJTI1_0:
	b.w	.LBB1_9
	b.w	.LBB1_7
	b.w	.LBB1_8
	b.w	.LBB1_10
.LBB1_7:                                @   in Loop: Header=BB1_3 Depth=2
.Ltmp215:
	.loc	1 630 6 is_stmt 1               @ source/event_log.c:630:6
	ldr	r1, [sp, #4]
	movs	r0, #0
	.loc	1 630 15 is_stmt 0              @ source/event_log.c:630:15
	strb	r0, [r1]
	.loc	1 631 6 is_stmt 1               @ source/event_log.c:631:6
	ldr	r1, [sp, #4]
	.loc	1 631 18 is_stmt 0              @ source/event_log.c:631:18
	strh	r0, [r1, #4]
	.loc	1 632 6 is_stmt 1               @ source/event_log.c:632:6
	b	.LBB1_12
.LBB1_8:                                @   in Loop: Header=BB1_3 Depth=2
	.loc	1 634 6                         @ source/event_log.c:634:6
	ldr	r1, [sp, #4]
	movs	r0, #1
	.loc	1 634 15 is_stmt 0              @ source/event_log.c:634:15
	strb	r0, [r1]
	.loc	1 635 6 is_stmt 1               @ source/event_log.c:635:6
	ldr	r1, [sp, #4]
	movs	r0, #0
	.loc	1 635 18 is_stmt 0              @ source/event_log.c:635:18
	strh	r0, [r1, #4]
	.loc	1 636 6 is_stmt 1               @ source/event_log.c:636:6
	b	.LBB1_12
.LBB1_9:                                @   in Loop: Header=BB1_3 Depth=2
	.loc	1 638 6                         @ source/event_log.c:638:6
	ldr	r1, [sp, #4]
	movs	r0, #3
	.loc	1 638 15 is_stmt 0              @ source/event_log.c:638:15
	strb	r0, [r1]
	.loc	1 639 6 is_stmt 1               @ source/event_log.c:639:6
	ldr	r1, [sp, #4]
	movs	r0, #1
	.loc	1 639 18 is_stmt 0              @ source/event_log.c:639:18
	strh	r0, [r1, #4]
	.loc	1 640 6 is_stmt 1               @ source/event_log.c:640:6
	b	.LBB1_12
.LBB1_10:                               @   in Loop: Header=BB1_3 Depth=2
	.loc	1 642 6                         @ source/event_log.c:642:6
	ldr	r1, [sp, #4]
	movs	r0, #3
	.loc	1 642 15 is_stmt 0              @ source/event_log.c:642:15
	strb	r0, [r1]
	.loc	1 643 6 is_stmt 1               @ source/event_log.c:643:6
	ldr	r1, [sp, #4]
	movs	r0, #1
	.loc	1 643 18 is_stmt 0              @ source/event_log.c:643:18
	strh	r0, [r1, #4]
	.loc	1 644 6 is_stmt 1               @ source/event_log.c:644:6
	b	.LBB1_12
.LBB1_11:                               @   in Loop: Header=BB1_3 Depth=2
	.loc	1 647 6                         @ source/event_log.c:647:6
	b	.LBB1_12
.Ltmp216:
.LBB1_12:                               @   in Loop: Header=BB1_3 Depth=2
	.loc	1 650 8                         @ source/event_log.c:650:8
	ldr	r1, [sp, #4]
	.loc	1 650 11 is_stmt 0              @ source/event_log.c:650:11
	ldrb	r0, [r1]
	.loc	1 650 23                        @ source/event_log.c:650:23
	ldrb	r1, [r1, #1]
.Ltmp217:
	.loc	1 650 8                         @ source/event_log.c:650:8
	cmp	r0, r1
	beq	.LBB1_14
	b	.LBB1_13
.LBB1_13:                               @   in Loop: Header=BB1_3 Depth=2
.Ltmp218:
	.loc	1 651 5 is_stmt 1               @ source/event_log.c:651:5
	ldr	r1, [sp, #4]
	movs	r0, #1
	.loc	1 651 19 is_stmt 0              @ source/event_log.c:651:19
	strb	r0, [r1, #2]
	.loc	1 652 21 is_stmt 1              @ source/event_log.c:652:21
	ldr	r1, [sp, #4]
	.loc	1 652 24 is_stmt 0              @ source/event_log.c:652:24
	ldrb	r0, [r1]
	.loc	1 652 19                        @ source/event_log.c:652:19
	strb	r0, [r1, #1]
	.loc	1 653 4 is_stmt 1               @ source/event_log.c:653:4
	b	.LBB1_14
.Ltmp219:
.LBB1_14:                               @   in Loop: Header=BB1_3 Depth=2
	.loc	1 654 3                         @ source/event_log.c:654:3
	b	.LBB1_15
.Ltmp220:
.LBB1_15:                               @   in Loop: Header=BB1_3 Depth=2
	.loc	1 620 18                        @ source/event_log.c:620:18
	ldr	r0, [sp, #12]
	adds	r0, r0, #1
	add	r1, sp, #12
	strb	r0, [r1]
	.loc	1 620 3 is_stmt 0               @ source/event_log.c:620:3
	b	.LBB1_3
.Ltmp221:
.LBB1_16:                               @   in Loop: Header=BB1_1 Depth=1
	.loc	1 655 2 is_stmt 1               @ source/event_log.c:655:2
	b	.LBB1_17
.Ltmp222:
.LBB1_17:                               @   in Loop: Header=BB1_1 Depth=1
	.loc	1 618 22                        @ source/event_log.c:618:22
	ldr	r0, [sp, #24]
	adds	r0, r0, #1
	add	r1, sp, #24
	strb	r0, [r1]
	.loc	1 618 2 is_stmt 0               @ source/event_log.c:618:2
	b	.LBB1_1
.Ltmp223:
.LBB1_18:
	.loc	1 656 1 epilogue_begin is_stmt 1 @ source/event_log.c:656:1
	add	sp, #40
	bx	lr
.Ltmp224:
.Lfunc_end1:
	.size	conv_byte2event, .Lfunc_end1-conv_byte2event
	.cfi_endproc
	.cantunwind
	.fnend
                                        @ -- End function
	.section	.text.conv_byte2event_nvo,"ax",%progbits
	.p2align	1                               @ -- Begin function conv_byte2event_nvo
	.type	conv_byte2event_nvo,%function
	.code	16                              @ @conv_byte2event_nvo
	.thumb_func
conv_byte2event_nvo:
.Lfunc_begin2:
	.loc	1 682 0                         @ source/event_log.c:682:0
	.fnstart
	.cfi_startproc
@ %bb.0:
	.pad	#36
	sub	sp, #36
	.cfi_def_cfa_offset 36
                                        @ kill: def $r3 killed $r0
	add	r3, sp, #32
	strb	r0, [r3]
	str	r1, [sp, #28]
	str	r2, [sp, #24]
	add	r1, sp, #20
	movs	r0, #0
.Ltmp225:
	.loc	1 686 7 prologue_end            @ source/event_log.c:686:7
	strb	r0, [r1]
	.loc	1 686 6 is_stmt 0               @ source/event_log.c:686:6
	b	.LBB2_1
.LBB2_1:                                @ =>This Loop Header: Depth=1
                                        @     Child Loop BB2_3 Depth 2
	.loc	1 0 6                           @ source/event_log.c:0:6
	add	r0, sp, #20
.Ltmp226:
	.loc	1 686 10                        @ source/event_log.c:686:10
	ldrb	r0, [r0]
	add	r1, sp, #32
	.loc	1 686 12                        @ source/event_log.c:686:12
	ldrb	r1, [r1]
.Ltmp227:
	.loc	1 686 2                         @ source/event_log.c:686:2
	cmp	r0, r1
	bge	.LBB2_8
	b	.LBB2_2
.LBB2_2:                                @   in Loop: Header=BB2_1 Depth=1
.Ltmp228:
	.loc	1 687 7 is_stmt 1               @ source/event_log.c:687:7
	ldr	r0, [sp, #28]
	add	r1, sp, #20
	.loc	1 687 14 is_stmt 0              @ source/event_log.c:687:14
	ldrb	r1, [r1]
	.loc	1 687 7                         @ source/event_log.c:687:7
	ldrb	r0, [r0, r1]
	add	r1, sp, #16
	.loc	1 687 5                         @ source/event_log.c:687:5
	strb	r0, [r1]
	add	r1, sp, #8
	movs	r0, #0
.Ltmp229:
	.loc	1 688 8 is_stmt 1               @ source/event_log.c:688:8
	strb	r0, [r1]
	.loc	1 688 7 is_stmt 0               @ source/event_log.c:688:7
	b	.LBB2_3
.LBB2_3:                                @   Parent Loop BB2_1 Depth=1
                                        @ =>  This Inner Loop Header: Depth=2
	.loc	1 0 7                           @ source/event_log.c:0:7
	add	r0, sp, #8
.Ltmp230:
	.loc	1 688 12                        @ source/event_log.c:688:12
	ldrb	r0, [r0]
.Ltmp231:
	.loc	1 688 3                         @ source/event_log.c:688:3
	cmp	r0, #7
	bhi	.LBB2_6
	b	.LBB2_4
.LBB2_4:                                @   in Loop: Header=BB2_3 Depth=2
	.loc	1 0 3                           @ source/event_log.c:0:3
	add	r1, sp, #16
.Ltmp232:
	.loc	1 689 8 is_stmt 1               @ source/event_log.c:689:8
	ldrb	r0, [r1]
	movs	r2, #1
	.loc	1 689 10 is_stmt 0              @ source/event_log.c:689:10
	ands	r0, r2
	add	r2, sp, #12
	.loc	1 689 6                         @ source/event_log.c:689:6
	strb	r0, [r2]
	.loc	1 690 6 is_stmt 1               @ source/event_log.c:690:6
	ldrb	r0, [r1]
	lsrs	r0, r0, #1
	strb	r0, [r1]
	.loc	1 692 9                         @ source/event_log.c:692:9
	ldr	r0, [sp, #20]
	.loc	1 692 10 is_stmt 0              @ source/event_log.c:692:10
	lsls	r0, r0, #3
	.loc	1 692 15                        @ source/event_log.c:692:15
	ldr	r1, [sp, #8]
	.loc	1 692 14                        @ source/event_log.c:692:14
	adds	r0, r0, r1
	add	r1, sp, #4
	.loc	1 692 6                         @ source/event_log.c:692:6
	strb	r0, [r1]
	.loc	1 693 9 is_stmt 1               @ source/event_log.c:693:9
	ldr	r0, [sp, #24]
	.loc	1 693 17 is_stmt 0              @ source/event_log.c:693:17
	ldrb	r2, [r1]
	movs	r1, #6
	.loc	1 693 9                         @ source/event_log.c:693:9
	muls	r1, r2, r1
	adds	r0, r0, r1
	.loc	1 693 6                         @ source/event_log.c:693:6
	str	r0, [sp]
	.loc	1 694 15 is_stmt 1              @ source/event_log.c:694:15
	ldr	r0, [sp, #12]
	.loc	1 694 4 is_stmt 0               @ source/event_log.c:694:4
	ldr	r1, [sp]
	.loc	1 694 13                        @ source/event_log.c:694:13
	strb	r0, [r1]
	.loc	1 695 3 is_stmt 1               @ source/event_log.c:695:3
	b	.LBB2_5
.Ltmp233:
.LBB2_5:                                @   in Loop: Header=BB2_3 Depth=2
	.loc	1 688 18                        @ source/event_log.c:688:18
	ldr	r0, [sp, #8]
	adds	r0, r0, #1
	add	r1, sp, #8
	strb	r0, [r1]
	.loc	1 688 3 is_stmt 0               @ source/event_log.c:688:3
	b	.LBB2_3
.Ltmp234:
.LBB2_6:                                @   in Loop: Header=BB2_1 Depth=1
	.loc	1 696 2 is_stmt 1               @ source/event_log.c:696:2
	b	.LBB2_7
.Ltmp235:
.LBB2_7:                                @   in Loop: Header=BB2_1 Depth=1
	.loc	1 686 22                        @ source/event_log.c:686:22
	ldr	r0, [sp, #20]
	adds	r0, r0, #1
	add	r1, sp, #20
	strb	r0, [r1]
	.loc	1 686 2 is_stmt 0               @ source/event_log.c:686:2
	b	.LBB2_1
.Ltmp236:
.LBB2_8:
	.loc	1 697 1 epilogue_begin is_stmt 1 @ source/event_log.c:697:1
	add	sp, #36
	bx	lr
.Ltmp237:
.Lfunc_end2:
	.size	conv_byte2event_nvo, .Lfunc_end2-conv_byte2event_nvo
	.cfi_endproc
	.cantunwind
	.fnend
                                        @ -- End function
	.section	.text.get_line_state_sl,"ax",%progbits
	.p2align	2                               @ -- Begin function get_line_state_sl
	.type	get_line_state_sl,%function
	.code	16                              @ @get_line_state_sl
	.thumb_func
get_line_state_sl:
.Lfunc_begin3:
	.loc	1 453 0                         @ source/event_log.c:453:0
	.fnstart
	.cfi_startproc
@ %bb.0:
	.save	{r7, lr}
	push	{r7, lr}
	.cfi_def_cfa_offset 8
	.cfi_offset lr, -4
	.cfi_offset r7, -8
	.pad	#32
	sub	sp, #32
	.cfi_def_cfa_offset 40
.Ltmp238:
	.loc	1 454 15 prologue_end           @ source/event_log.c:454:15
	ldr	r0, __arm_cp.3_0
	ldr	r1, __arm_cp.3_1
	adds	r0, r0, r1
	str	r0, [sp, #28]
.Ltmp239:
	.loc	1 455 5                         @ source/event_log.c:455:5
	ldr	r0, [sp, #28]
	.loc	1 455 16 is_stmt 0              @ source/event_log.c:455:16
	ldrb	r0, [r0, #1]
	lsls	r0, r0, #25
	lsrs	r0, r0, #31
.Ltmp240:
	.loc	1 455 5                         @ source/event_log.c:455:5
	cbz	r0, .LBB3_2
	b	.LBB3_1
.LBB3_1:
.Ltmp241:
	.loc	1 456 4 is_stmt 1               @ source/event_log.c:456:4
	ldr	r0, __arm_cp.3_2
	str	r0, [sp, #24]                   @ 4-byte Spill
	adds	r0, #24
	ldr	r1, __arm_cp.3_13
	bl	strcpy
                                        @ kill: def $r1 killed $r0
	.loc	1 457 4                         @ source/event_log.c:457:4
	ldr	r0, [sp, #24]                   @ 4-byte Reload
	adds	r0, #68
	ldr	r1, __arm_cp.3_14
	bl	strcpy
	.loc	1 458 3                         @ source/event_log.c:458:3
	b	.LBB3_15
.Ltmp242:
.LBB3_2:
	.loc	1 459 11                        @ source/event_log.c:459:11
	ldr	r0, [sp, #28]
	.loc	1 459 22 is_stmt 0              @ source/event_log.c:459:22
	ldrb	r0, [r0]
	lsls	r0, r0, #30
	lsrs	r0, r0, #31
.Ltmp243:
	.loc	1 459 11                        @ source/event_log.c:459:11
	cbz	r0, .LBB3_4
	b	.LBB3_3
.LBB3_3:
.Ltmp244:
	.loc	1 460 4 is_stmt 1               @ source/event_log.c:460:4
	ldr	r0, __arm_cp.3_2
	str	r0, [sp, #20]                   @ 4-byte Spill
	adds	r0, #24
	ldr	r1, __arm_cp.3_11
	bl	strcpy
                                        @ kill: def $r1 killed $r0
	.loc	1 461 4                         @ source/event_log.c:461:4
	ldr	r0, [sp, #20]                   @ 4-byte Reload
	adds	r0, #68
	ldr	r1, __arm_cp.3_12
	bl	strcpy
	.loc	1 462 3                         @ source/event_log.c:462:3
	b	.LBB3_14
.Ltmp245:
.LBB3_4:
	.loc	1 463 11                        @ source/event_log.c:463:11
	ldr	r0, [sp, #28]
	.loc	1 463 22 is_stmt 0              @ source/event_log.c:463:22
	ldrb	r0, [r0, #4]
	lsrs	r0, r0, #6
.Ltmp246:
	.loc	1 463 11                        @ source/event_log.c:463:11
	cmp	r0, #1
	bne	.LBB3_6
	b	.LBB3_5
.LBB3_5:
.Ltmp247:
	.loc	1 464 4 is_stmt 1               @ source/event_log.c:464:4
	ldr	r0, __arm_cp.3_2
	str	r0, [sp, #16]                   @ 4-byte Spill
	adds	r0, #24
	ldr	r1, __arm_cp.3_9
	bl	strcpy
                                        @ kill: def $r1 killed $r0
	.loc	1 465 4                         @ source/event_log.c:465:4
	ldr	r0, [sp, #16]                   @ 4-byte Reload
	adds	r0, #68
	ldr	r1, __arm_cp.3_10
	bl	strcpy
	.loc	1 466 3                         @ source/event_log.c:466:3
	b	.LBB3_13
.Ltmp248:
.LBB3_6:
	.loc	1 467 11                        @ source/event_log.c:467:11
	ldr	r0, [sp, #28]
	.loc	1 467 22 is_stmt 0              @ source/event_log.c:467:22
	ldrb	r0, [r0, #4]
	lsrs	r0, r0, #6
.Ltmp249:
	.loc	1 467 11                        @ source/event_log.c:467:11
	cmp	r0, #2
	bne	.LBB3_8
	b	.LBB3_7
.LBB3_7:
.Ltmp250:
	.loc	1 468 4 is_stmt 1               @ source/event_log.c:468:4
	ldr	r0, __arm_cp.3_2
	str	r0, [sp, #12]                   @ 4-byte Spill
	adds	r0, #24
	ldr	r1, __arm_cp.3_7
	bl	strcpy
                                        @ kill: def $r1 killed $r0
	.loc	1 469 4                         @ source/event_log.c:469:4
	ldr	r0, [sp, #12]                   @ 4-byte Reload
	adds	r0, #68
	ldr	r1, __arm_cp.3_8
	bl	strcpy
	.loc	1 470 3                         @ source/event_log.c:470:3
	b	.LBB3_12
.Ltmp251:
.LBB3_8:
	.loc	1 471 11                        @ source/event_log.c:471:11
	ldr	r0, [sp, #28]
	.loc	1 471 22 is_stmt 0              @ source/event_log.c:471:22
	ldrb	r0, [r0, #4]
	lsrs	r0, r0, #6
.Ltmp252:
	.loc	1 471 11                        @ source/event_log.c:471:11
	cmp	r0, #3
	bne	.LBB3_10
	b	.LBB3_9
.LBB3_9:
.Ltmp253:
	.loc	1 472 4 is_stmt 1               @ source/event_log.c:472:4
	ldr	r0, __arm_cp.3_2
	str	r0, [sp, #8]                    @ 4-byte Spill
	adds	r0, #24
	ldr	r1, __arm_cp.3_5
	bl	strcpy
                                        @ kill: def $r1 killed $r0
	.loc	1 473 4                         @ source/event_log.c:473:4
	ldr	r0, [sp, #8]                    @ 4-byte Reload
	adds	r0, #68
	ldr	r1, __arm_cp.3_6
	bl	strcpy
	.loc	1 474 3                         @ source/event_log.c:474:3
	b	.LBB3_11
.Ltmp254:
.LBB3_10:
	.loc	1 476 4                         @ source/event_log.c:476:4
	ldr	r0, __arm_cp.3_2
	str	r0, [sp, #4]                    @ 4-byte Spill
	adds	r0, #24
	ldr	r1, __arm_cp.3_3
	bl	strcpy
                                        @ kill: def $r1 killed $r0
	.loc	1 477 4                         @ source/event_log.c:477:4
	ldr	r0, [sp, #4]                    @ 4-byte Reload
	adds	r0, #68
	ldr	r1, __arm_cp.3_4
	bl	strcpy
	b	.LBB3_11
.Ltmp255:
.LBB3_11:
	.loc	1 0 4 is_stmt 0                 @ source/event_log.c:0:4
	b	.LBB3_12
.LBB3_12:
	b	.LBB3_13
.LBB3_13:
	b	.LBB3_14
.LBB3_14:
	b	.LBB3_15
.LBB3_15:
	.loc	1 480 3 is_stmt 1               @ source/event_log.c:480:3
	ldr	r0, __arm_cp.3_2
	adds	r0, #28
	ldr	r1, __arm_cp.3_15
	bl	strcpy
	.loc	1 481 1 epilogue_begin          @ source/event_log.c:481:1
	add	sp, #32
	pop	{r7, pc}
.Ltmp256:
	.loc	1 0 1 is_stmt 0                 @ :0:1
.Ltmp257:
	.p2align	2
@ %bb.16:
__arm_cp.3_0:
	.long	pe
.Lcpi_end25:
	.size	__arm_cp.3_0, .Lcpi_end25-__arm_cp.3_0
__arm_cp.3_1:
	.long	5138                            @ 0x1412
.Lcpi_end26:
	.size	__arm_cp.3_1, .Lcpi_end26-__arm_cp.3_1
__arm_cp.3_2:
	.long	sys
.Lcpi_end27:
	.size	__arm_cp.3_2, .Lcpi_end27-__arm_cp.3_2
__arm_cp.3_3:
	.long	.L.str.11
.Lcpi_end28:
	.size	__arm_cp.3_3, .Lcpi_end28-__arm_cp.3_3
__arm_cp.3_4:
	.long	.L.str.12
.Lcpi_end29:
	.size	__arm_cp.3_4, .Lcpi_end29-__arm_cp.3_4
__arm_cp.3_5:
	.long	.L.str.9
.Lcpi_end30:
	.size	__arm_cp.3_5, .Lcpi_end30-__arm_cp.3_5
__arm_cp.3_6:
	.long	.L.str.10
.Lcpi_end31:
	.size	__arm_cp.3_6, .Lcpi_end31-__arm_cp.3_6
__arm_cp.3_7:
	.long	.L.str.7
.Lcpi_end32:
	.size	__arm_cp.3_7, .Lcpi_end32-__arm_cp.3_7
__arm_cp.3_8:
	.long	.L.str.8
.Lcpi_end33:
	.size	__arm_cp.3_8, .Lcpi_end33-__arm_cp.3_8
__arm_cp.3_9:
	.long	.L.str.5
.Lcpi_end34:
	.size	__arm_cp.3_9, .Lcpi_end34-__arm_cp.3_9
__arm_cp.3_10:
	.long	.L.str.6
.Lcpi_end35:
	.size	__arm_cp.3_10, .Lcpi_end35-__arm_cp.3_10
__arm_cp.3_11:
	.long	.L.str.3
.Lcpi_end36:
	.size	__arm_cp.3_11, .Lcpi_end36-__arm_cp.3_11
__arm_cp.3_12:
	.long	.L.str.4
.Lcpi_end37:
	.size	__arm_cp.3_12, .Lcpi_end37-__arm_cp.3_12
__arm_cp.3_13:
	.long	.L.str.1
.Lcpi_end38:
	.size	__arm_cp.3_13, .Lcpi_end38-__arm_cp.3_13
__arm_cp.3_14:
	.long	.L.str.2
.Lcpi_end39:
	.size	__arm_cp.3_14, .Lcpi_end39-__arm_cp.3_14
__arm_cp.3_15:
	.long	.L.str.13
.Lcpi_end40:
	.size	__arm_cp.3_15, .Lcpi_end40-__arm_cp.3_15
.Lfunc_end3:
	.size	get_line_state_sl, .Lfunc_end3-get_line_state_sl
	.cfi_endproc
	.cantunwind
	.fnend
                                        @ -- End function
	.section	.text.get_line_state_dl,"ax",%progbits
	.p2align	2                               @ -- Begin function get_line_state_dl
	.type	get_line_state_dl,%function
	.code	16                              @ @get_line_state_dl
	.thumb_func
get_line_state_dl:
.Lfunc_begin4:
	.loc	1 527 0 is_stmt 1               @ source/event_log.c:527:0
	.fnstart
	.cfi_startproc
@ %bb.0:
	.save	{r7, lr}
	push	{r7, lr}
	.cfi_def_cfa_offset 8
	.cfi_offset lr, -4
	.cfi_offset r7, -8
	.pad	#56
	sub	sp, #56
	.cfi_def_cfa_offset 64
.Ltmp258:
	.loc	1 529 15 prologue_end           @ source/event_log.c:529:15
	ldr	r0, __arm_cp.4_0
	ldr	r1, __arm_cp.4_1
	adds	r0, r0, r1
	str	r0, [sp, #52]
.Ltmp259:
	.loc	1 532 5                         @ source/event_log.c:532:5
	ldr	r0, [sp, #52]
	.loc	1 532 16 is_stmt 0              @ source/event_log.c:532:16
	ldrb	r0, [r0, #3]
	lsrs	r0, r0, #7
.Ltmp260:
	.loc	1 532 5                         @ source/event_log.c:532:5
	cbz	r0, .LBB4_2
	b	.LBB4_1
.LBB4_1:
.Ltmp261:
	.loc	1 533 3 is_stmt 1               @ source/event_log.c:533:3
	ldr	r0, __arm_cp.4_2
	str	r0, [sp, #48]                   @ 4-byte Spill
	adds	r0, #28
	ldr	r1, __arm_cp.4_13
	bl	strcpy
                                        @ kill: def $r1 killed $r0
	.loc	1 534 3                         @ source/event_log.c:534:3
	ldr	r0, [sp, #48]                   @ 4-byte Reload
	adds	r0, #36
	ldr	r1, __arm_cp.4_14
	bl	strcpy
	.loc	1 535 2                         @ source/event_log.c:535:2
	b	.LBB4_15
.Ltmp262:
.LBB4_2:
	.loc	1 536 10                        @ source/event_log.c:536:10
	ldr	r0, [sp, #52]
	.loc	1 536 21 is_stmt 0              @ source/event_log.c:536:21
	ldrb	r0, [r0]
	lsls	r0, r0, #26
	lsrs	r0, r0, #31
.Ltmp263:
	.loc	1 536 10                        @ source/event_log.c:536:10
	cbz	r0, .LBB4_4
	b	.LBB4_3
.LBB4_3:
.Ltmp264:
	.loc	1 537 3 is_stmt 1               @ source/event_log.c:537:3
	ldr	r0, __arm_cp.4_2
	str	r0, [sp, #44]                   @ 4-byte Spill
	adds	r0, #28
	ldr	r1, __arm_cp.4_11
	bl	strcpy
                                        @ kill: def $r1 killed $r0
	.loc	1 538 3                         @ source/event_log.c:538:3
	ldr	r0, [sp, #44]                   @ 4-byte Reload
	adds	r0, #36
	ldr	r1, __arm_cp.4_12
	bl	strcpy
	.loc	1 539 2                         @ source/event_log.c:539:2
	b	.LBB4_14
.Ltmp265:
.LBB4_4:
	.loc	1 540 10                        @ source/event_log.c:540:10
	ldr	r0, [sp, #52]
	.loc	1 540 21 is_stmt 0              @ source/event_log.c:540:21
	ldrb	r0, [r0, #4]
	lsls	r0, r0, #26
	lsrs	r0, r0, #30
.Ltmp266:
	.loc	1 540 10                        @ source/event_log.c:540:10
	cmp	r0, #1
	bne	.LBB4_6
	b	.LBB4_5
.LBB4_5:
.Ltmp267:
	.loc	1 541 3 is_stmt 1               @ source/event_log.c:541:3
	ldr	r0, __arm_cp.4_2
	str	r0, [sp, #40]                   @ 4-byte Spill
	adds	r0, #28
	ldr	r1, __arm_cp.4_9
	bl	strcpy
                                        @ kill: def $r1 killed $r0
	.loc	1 542 3                         @ source/event_log.c:542:3
	ldr	r0, [sp, #40]                   @ 4-byte Reload
	adds	r0, #36
	ldr	r1, __arm_cp.4_10
	bl	strcpy
	.loc	1 543 2                         @ source/event_log.c:543:2
	b	.LBB4_13
.Ltmp268:
.LBB4_6:
	.loc	1 544 10                        @ source/event_log.c:544:10
	ldr	r0, [sp, #52]
	.loc	1 544 21 is_stmt 0              @ source/event_log.c:544:21
	ldrb	r0, [r0, #4]
	lsls	r0, r0, #26
	lsrs	r0, r0, #30
.Ltmp269:
	.loc	1 544 10                        @ source/event_log.c:544:10
	cmp	r0, #2
	bne	.LBB4_8
	b	.LBB4_7
.LBB4_7:
.Ltmp270:
	.loc	1 545 3 is_stmt 1               @ source/event_log.c:545:3
	ldr	r0, __arm_cp.4_2
	str	r0, [sp, #36]                   @ 4-byte Spill
	adds	r0, #28
	ldr	r1, __arm_cp.4_7
	bl	strcpy
                                        @ kill: def $r1 killed $r0
	.loc	1 546 3                         @ source/event_log.c:546:3
	ldr	r0, [sp, #36]                   @ 4-byte Reload
	adds	r0, #36
	ldr	r1, __arm_cp.4_8
	bl	strcpy
	.loc	1 547 2                         @ source/event_log.c:547:2
	b	.LBB4_12
.Ltmp271:
.LBB4_8:
	.loc	1 548 10                        @ source/event_log.c:548:10
	ldr	r0, [sp, #52]
	.loc	1 548 21 is_stmt 0              @ source/event_log.c:548:21
	ldrb	r0, [r0, #4]
	lsls	r0, r0, #26
	lsrs	r0, r0, #30
.Ltmp272:
	.loc	1 548 10                        @ source/event_log.c:548:10
	cmp	r0, #3
	bne	.LBB4_10
	b	.LBB4_9
.LBB4_9:
.Ltmp273:
	.loc	1 549 3 is_stmt 1               @ source/event_log.c:549:3
	ldr	r0, __arm_cp.4_2
	str	r0, [sp, #32]                   @ 4-byte Spill
	adds	r0, #28
	ldr	r1, __arm_cp.4_5
	bl	strcpy
                                        @ kill: def $r1 killed $r0
	.loc	1 550 3                         @ source/event_log.c:550:3
	ldr	r0, [sp, #32]                   @ 4-byte Reload
	adds	r0, #36
	ldr	r1, __arm_cp.4_6
	bl	strcpy
	.loc	1 551 2                         @ source/event_log.c:551:2
	b	.LBB4_11
.Ltmp274:
.LBB4_10:
	.loc	1 553 3                         @ source/event_log.c:553:3
	ldr	r0, __arm_cp.4_2
	str	r0, [sp, #28]                   @ 4-byte Spill
	adds	r0, #28
	ldr	r1, __arm_cp.4_3
	bl	strcpy
                                        @ kill: def $r1 killed $r0
	.loc	1 554 3                         @ source/event_log.c:554:3
	ldr	r0, [sp, #28]                   @ 4-byte Reload
	adds	r0, #36
	ldr	r1, __arm_cp.4_4
	bl	strcpy
	b	.LBB4_11
.Ltmp275:
.LBB4_11:
	.loc	1 0 3 is_stmt 0                 @ source/event_log.c:0:3
	b	.LBB4_12
.LBB4_12:
	b	.LBB4_13
.LBB4_13:
	b	.LBB4_14
.LBB4_14:
	b	.LBB4_15
.LBB4_15:
.Ltmp276:
	.loc	1 559 5 is_stmt 1               @ source/event_log.c:559:5
	ldr	r0, [sp, #52]
	.loc	1 559 16 is_stmt 0              @ source/event_log.c:559:16
	ldrb	r0, [r0, #1]
	lsls	r0, r0, #25
	lsrs	r0, r0, #31
.Ltmp277:
	.loc	1 559 5                         @ source/event_log.c:559:5
	cbz	r0, .LBB4_17
	b	.LBB4_16
.LBB4_16:
.Ltmp278:
	.loc	1 560 3 is_stmt 1               @ source/event_log.c:560:3
	ldr	r0, __arm_cp.4_2
	str	r0, [sp, #24]                   @ 4-byte Spill
	adds	r0, #24
	ldr	r1, __arm_cp.4_25
	bl	strcpy
                                        @ kill: def $r1 killed $r0
	.loc	1 561 3                         @ source/event_log.c:561:3
	ldr	r0, [sp, #24]                   @ 4-byte Reload
	adds	r0, #52
	ldr	r1, __arm_cp.4_26
	bl	strcpy
	.loc	1 562 2                         @ source/event_log.c:562:2
	b	.LBB4_30
.Ltmp279:
.LBB4_17:
	.loc	1 563 10                        @ source/event_log.c:563:10
	ldr	r0, [sp, #52]
	.loc	1 563 21 is_stmt 0              @ source/event_log.c:563:21
	ldrb	r0, [r0]
	lsls	r0, r0, #30
	lsrs	r0, r0, #31
.Ltmp280:
	.loc	1 563 10                        @ source/event_log.c:563:10
	cbz	r0, .LBB4_19
	b	.LBB4_18
.LBB4_18:
.Ltmp281:
	.loc	1 564 3 is_stmt 1               @ source/event_log.c:564:3
	ldr	r0, __arm_cp.4_2
	str	r0, [sp, #20]                   @ 4-byte Spill
	adds	r0, #24
	ldr	r1, __arm_cp.4_23
	bl	strcpy
                                        @ kill: def $r1 killed $r0
	.loc	1 565 3                         @ source/event_log.c:565:3
	ldr	r0, [sp, #20]                   @ 4-byte Reload
	adds	r0, #52
	ldr	r1, __arm_cp.4_24
	bl	strcpy
	.loc	1 566 2                         @ source/event_log.c:566:2
	b	.LBB4_29
.Ltmp282:
.LBB4_19:
	.loc	1 567 10                        @ source/event_log.c:567:10
	ldr	r0, [sp, #52]
	.loc	1 567 21 is_stmt 0              @ source/event_log.c:567:21
	ldrb	r0, [r0, #4]
	lsrs	r0, r0, #6
.Ltmp283:
	.loc	1 567 10                        @ source/event_log.c:567:10
	cmp	r0, #1
	bne	.LBB4_21
	b	.LBB4_20
.LBB4_20:
.Ltmp284:
	.loc	1 568 3 is_stmt 1               @ source/event_log.c:568:3
	ldr	r0, __arm_cp.4_2
	str	r0, [sp, #16]                   @ 4-byte Spill
	adds	r0, #24
	ldr	r1, __arm_cp.4_21
	bl	strcpy
                                        @ kill: def $r1 killed $r0
	.loc	1 569 3                         @ source/event_log.c:569:3
	ldr	r0, [sp, #16]                   @ 4-byte Reload
	adds	r0, #52
	ldr	r1, __arm_cp.4_22
	bl	strcpy
	.loc	1 570 2                         @ source/event_log.c:570:2
	b	.LBB4_28
.Ltmp285:
.LBB4_21:
	.loc	1 571 10                        @ source/event_log.c:571:10
	ldr	r0, [sp, #52]
	.loc	1 571 21 is_stmt 0              @ source/event_log.c:571:21
	ldrb	r0, [r0, #4]
	lsrs	r0, r0, #6
.Ltmp286:
	.loc	1 571 10                        @ source/event_log.c:571:10
	cmp	r0, #2
	bne	.LBB4_23
	b	.LBB4_22
.LBB4_22:
.Ltmp287:
	.loc	1 572 3 is_stmt 1               @ source/event_log.c:572:3
	ldr	r0, __arm_cp.4_2
	str	r0, [sp, #12]                   @ 4-byte Spill
	adds	r0, #24
	ldr	r1, __arm_cp.4_19
	bl	strcpy
                                        @ kill: def $r1 killed $r0
	.loc	1 573 3                         @ source/event_log.c:573:3
	ldr	r0, [sp, #12]                   @ 4-byte Reload
	adds	r0, #52
	ldr	r1, __arm_cp.4_20
	bl	strcpy
	.loc	1 574 2                         @ source/event_log.c:574:2
	b	.LBB4_27
.Ltmp288:
.LBB4_23:
	.loc	1 575 10                        @ source/event_log.c:575:10
	ldr	r0, [sp, #52]
	.loc	1 575 21 is_stmt 0              @ source/event_log.c:575:21
	ldrb	r0, [r0, #4]
	lsrs	r0, r0, #6
.Ltmp289:
	.loc	1 575 10                        @ source/event_log.c:575:10
	cmp	r0, #3
	bne	.LBB4_25
	b	.LBB4_24
.LBB4_24:
.Ltmp290:
	.loc	1 576 3 is_stmt 1               @ source/event_log.c:576:3
	ldr	r0, __arm_cp.4_2
	str	r0, [sp, #8]                    @ 4-byte Spill
	adds	r0, #24
	ldr	r1, __arm_cp.4_17
	bl	strcpy
                                        @ kill: def $r1 killed $r0
	.loc	1 577 3                         @ source/event_log.c:577:3
	ldr	r0, [sp, #8]                    @ 4-byte Reload
	adds	r0, #52
	ldr	r1, __arm_cp.4_18
	bl	strcpy
	.loc	1 578 2                         @ source/event_log.c:578:2
	b	.LBB4_26
.Ltmp291:
.LBB4_25:
	.loc	1 580 3                         @ source/event_log.c:580:3
	ldr	r0, __arm_cp.4_2
	str	r0, [sp, #4]                    @ 4-byte Spill
	adds	r0, #24
	ldr	r1, __arm_cp.4_15
	bl	strcpy
                                        @ kill: def $r1 killed $r0
	.loc	1 581 3                         @ source/event_log.c:581:3
	ldr	r0, [sp, #4]                    @ 4-byte Reload
	adds	r0, #52
	ldr	r1, __arm_cp.4_16
	bl	strcpy
	b	.LBB4_26
.Ltmp292:
.LBB4_26:
	.loc	1 0 3 is_stmt 0                 @ source/event_log.c:0:3
	b	.LBB4_27
.LBB4_27:
	b	.LBB4_28
.LBB4_28:
	b	.LBB4_29
.LBB4_29:
	b	.LBB4_30
.LBB4_30:
	.loc	1 583 1 epilogue_begin is_stmt 1 @ source/event_log.c:583:1
	add	sp, #56
	pop	{r7, pc}
.Ltmp293:
	.loc	1 0 1 is_stmt 0                 @ :0:1
.Ltmp294:
	.p2align	2
@ %bb.31:
__arm_cp.4_0:
	.long	pe
.Lcpi_end41:
	.size	__arm_cp.4_0, .Lcpi_end41-__arm_cp.4_0
__arm_cp.4_1:
	.long	5138                            @ 0x1412
.Lcpi_end42:
	.size	__arm_cp.4_1, .Lcpi_end42-__arm_cp.4_1
__arm_cp.4_2:
	.long	sys
.Lcpi_end43:
	.size	__arm_cp.4_2, .Lcpi_end43-__arm_cp.4_2
__arm_cp.4_3:
	.long	.L.str.23
.Lcpi_end44:
	.size	__arm_cp.4_3, .Lcpi_end44-__arm_cp.4_3
__arm_cp.4_4:
	.long	.L.str.24
.Lcpi_end45:
	.size	__arm_cp.4_4, .Lcpi_end45-__arm_cp.4_4
__arm_cp.4_5:
	.long	.L.str.21
.Lcpi_end46:
	.size	__arm_cp.4_5, .Lcpi_end46-__arm_cp.4_5
__arm_cp.4_6:
	.long	.L.str.22
.Lcpi_end47:
	.size	__arm_cp.4_6, .Lcpi_end47-__arm_cp.4_6
__arm_cp.4_7:
	.long	.L.str.7
.Lcpi_end48:
	.size	__arm_cp.4_7, .Lcpi_end48-__arm_cp.4_7
__arm_cp.4_8:
	.long	.L.str.20
.Lcpi_end49:
	.size	__arm_cp.4_8, .Lcpi_end49-__arm_cp.4_8
__arm_cp.4_9:
	.long	.L.str.18
.Lcpi_end50:
	.size	__arm_cp.4_9, .Lcpi_end50-__arm_cp.4_9
__arm_cp.4_10:
	.long	.L.str.19
.Lcpi_end51:
	.size	__arm_cp.4_10, .Lcpi_end51-__arm_cp.4_10
__arm_cp.4_11:
	.long	.L.str.16
.Lcpi_end52:
	.size	__arm_cp.4_11, .Lcpi_end52-__arm_cp.4_11
__arm_cp.4_12:
	.long	.L.str.17
.Lcpi_end53:
	.size	__arm_cp.4_12, .Lcpi_end53-__arm_cp.4_12
__arm_cp.4_13:
	.long	.L.str.14
.Lcpi_end54:
	.size	__arm_cp.4_13, .Lcpi_end54-__arm_cp.4_13
__arm_cp.4_14:
	.long	.L.str.15
.Lcpi_end55:
	.size	__arm_cp.4_14, .Lcpi_end55-__arm_cp.4_14
__arm_cp.4_15:
	.long	.L.str.11
.Lcpi_end56:
	.size	__arm_cp.4_15, .Lcpi_end56-__arm_cp.4_15
__arm_cp.4_16:
	.long	.L.str.33
.Lcpi_end57:
	.size	__arm_cp.4_16, .Lcpi_end57-__arm_cp.4_16
__arm_cp.4_17:
	.long	.L.str.9
.Lcpi_end58:
	.size	__arm_cp.4_17, .Lcpi_end58-__arm_cp.4_17
__arm_cp.4_18:
	.long	.L.str.32
.Lcpi_end59:
	.size	__arm_cp.4_18, .Lcpi_end59-__arm_cp.4_18
__arm_cp.4_19:
	.long	.L.str.30
.Lcpi_end60:
	.size	__arm_cp.4_19, .Lcpi_end60-__arm_cp.4_19
__arm_cp.4_20:
	.long	.L.str.31
.Lcpi_end61:
	.size	__arm_cp.4_20, .Lcpi_end61-__arm_cp.4_20
__arm_cp.4_21:
	.long	.L.str.28
.Lcpi_end62:
	.size	__arm_cp.4_21, .Lcpi_end62-__arm_cp.4_21
__arm_cp.4_22:
	.long	.L.str.29
.Lcpi_end63:
	.size	__arm_cp.4_22, .Lcpi_end63-__arm_cp.4_22
__arm_cp.4_23:
	.long	.L.str.3
.Lcpi_end64:
	.size	__arm_cp.4_23, .Lcpi_end64-__arm_cp.4_23
__arm_cp.4_24:
	.long	.L.str.27
.Lcpi_end65:
	.size	__arm_cp.4_24, .Lcpi_end65-__arm_cp.4_24
__arm_cp.4_25:
	.long	.L.str.25
.Lcpi_end66:
	.size	__arm_cp.4_25, .Lcpi_end66-__arm_cp.4_25
__arm_cp.4_26:
	.long	.L.str.26
.Lcpi_end67:
	.size	__arm_cp.4_26, .Lcpi_end67-__arm_cp.4_26
.Lfunc_end4:
	.size	get_line_state_dl, .Lfunc_end4-get_line_state_dl
	.cfi_endproc
	.cantunwind
	.fnend
                                        @ -- End function
	.section	.text.get_sys_error,"ax",%progbits
	.p2align	2                               @ -- Begin function get_sys_error
	.type	get_sys_error,%function
	.code	16                              @ @get_sys_error
	.thumb_func
get_sys_error:
.Lfunc_begin5:
	.loc	1 341 0 is_stmt 1               @ source/event_log.c:341:0
	.fnstart
	.cfi_startproc
@ %bb.0:
	.pad	#16
	sub	sp, #16
	.cfi_def_cfa_offset 16
	add	r1, sp, #8
	ldr	r0, __arm_cp.5_0
.Ltmp295:
	.loc	1 342 11 prologue_end           @ source/event_log.c:342:11
	strh	r0, [r1]
	add	r1, sp, #4
	movs	r0, #0
.Ltmp296:
	.loc	1 346 9                         @ source/event_log.c:346:9
	strb	r0, [r1]
	.loc	1 346 6 is_stmt 0               @ source/event_log.c:346:6
	b	.LBB5_1
.LBB5_1:                                @ =>This Inner Loop Header: Depth=1
	.loc	1 0 6                           @ source/event_log.c:0:6
	add	r0, sp, #4
.Ltmp297:
	.loc	1 346 13                        @ source/event_log.c:346:13
	ldrb	r0, [r0]
.Ltmp298:
	.loc	1 346 2                         @ source/event_log.c:346:2
	cmp	r0, #3
	bhi	.LBB5_6
	b	.LBB5_2
.LBB5_2:                                @   in Loop: Header=BB5_1 Depth=1
.Ltmp299:
	.loc	1 347 11 is_stmt 1              @ source/event_log.c:347:11
	ldr	r0, [sp, #8]
	subs	r0, r0, #1
	add	r1, sp, #8
	strh	r0, [r1]
	add	r0, sp, #4
.Ltmp300:
	.loc	1 348 9                         @ source/event_log.c:348:9
	ldrb	r0, [r0]
	ldr	r1, __arm_cp.5_5
	.loc	1 348 6 is_stmt 0               @ source/event_log.c:348:6
	muls	r1, r0, r1
	ldr	r0, __arm_cp.5_1
	adds	r0, r0, r1
	.loc	1 348 14                        @ source/event_log.c:348:14
	ldrb	r0, [r0, #4]
.Ltmp301:
	.loc	1 348 6                         @ source/event_log.c:348:6
	lsls	r0, r0, #31
	cbz	r0, .LBB5_4
	b	.LBB5_3
.LBB5_3:
.Ltmp302:
	.loc	1 349 11 is_stmt 1              @ source/event_log.c:349:11
	ldr	r0, [sp, #8]
	add	r1, sp, #12
	.loc	1 349 4 is_stmt 0               @ source/event_log.c:349:4
	strh	r0, [r1]
	b	.LBB5_69
.Ltmp303:
.LBB5_4:                                @   in Loop: Header=BB5_1 Depth=1
	.loc	1 351 2 is_stmt 1               @ source/event_log.c:351:2
	b	.LBB5_5
.Ltmp304:
.LBB5_5:                                @   in Loop: Header=BB5_1 Depth=1
	.loc	1 346 23                        @ source/event_log.c:346:23
	ldr	r0, [sp, #4]
	adds	r0, r0, #1
	add	r1, sp, #4
	strb	r0, [r1]
	.loc	1 346 2 is_stmt 0               @ source/event_log.c:346:2
	b	.LBB5_1
.Ltmp305:
.LBB5_6:
	.loc	1 0 2                           @ source/event_log.c:0:2
	add	r1, sp, #4
	movs	r0, #0
.Ltmp306:
	.loc	1 354 9 is_stmt 1               @ source/event_log.c:354:9
	strb	r0, [r1]
	.loc	1 354 6 is_stmt 0               @ source/event_log.c:354:6
	b	.LBB5_7
.LBB5_7:                                @ =>This Inner Loop Header: Depth=1
	.loc	1 0 6                           @ source/event_log.c:0:6
	add	r0, sp, #4
.Ltmp307:
	.loc	1 354 13                        @ source/event_log.c:354:13
	ldrb	r0, [r0]
.Ltmp308:
	.loc	1 354 2                         @ source/event_log.c:354:2
	cmp	r0, #2
	bhi	.LBB5_12
	b	.LBB5_8
.LBB5_8:                                @   in Loop: Header=BB5_7 Depth=1
.Ltmp309:
	.loc	1 355 11 is_stmt 1              @ source/event_log.c:355:11
	ldr	r0, [sp, #8]
	subs	r0, r0, #1
	add	r1, sp, #8
	strh	r0, [r1]
	add	r0, sp, #4
.Ltmp310:
	.loc	1 356 9                         @ source/event_log.c:356:9
	ldrb	r0, [r0]
	ldr	r1, __arm_cp.5_5
	.loc	1 356 6 is_stmt 0               @ source/event_log.c:356:6
	muls	r1, r0, r1
	ldr	r0, __arm_cp.5_1
	adds	r0, r0, r1
	.loc	1 356 14                        @ source/event_log.c:356:14
	ldrb	r0, [r0, #5]
.Ltmp311:
	.loc	1 356 6                         @ source/event_log.c:356:6
	lsls	r0, r0, #31
	cbz	r0, .LBB5_10
	b	.LBB5_9
.LBB5_9:
.Ltmp312:
	.loc	1 357 11 is_stmt 1              @ source/event_log.c:357:11
	ldr	r0, [sp, #8]
	add	r1, sp, #12
	.loc	1 357 4 is_stmt 0               @ source/event_log.c:357:4
	strh	r0, [r1]
	b	.LBB5_69
.Ltmp313:
.LBB5_10:                               @   in Loop: Header=BB5_7 Depth=1
	.loc	1 359 2 is_stmt 1               @ source/event_log.c:359:2
	b	.LBB5_11
.Ltmp314:
.LBB5_11:                               @   in Loop: Header=BB5_7 Depth=1
	.loc	1 354 23                        @ source/event_log.c:354:23
	ldr	r0, [sp, #4]
	adds	r0, r0, #1
	add	r1, sp, #4
	strb	r0, [r1]
	.loc	1 354 2 is_stmt 0               @ source/event_log.c:354:2
	b	.LBB5_7
.Ltmp315:
.LBB5_12:
	.loc	1 0 2                           @ source/event_log.c:0:2
	add	r1, sp, #4
	movs	r0, #0
.Ltmp316:
	.loc	1 362 9 is_stmt 1               @ source/event_log.c:362:9
	strb	r0, [r1]
	.loc	1 362 6 is_stmt 0               @ source/event_log.c:362:6
	b	.LBB5_13
.LBB5_13:                               @ =>This Loop Header: Depth=1
                                        @     Child Loop BB5_15 Depth 2
	.loc	1 0 6                           @ source/event_log.c:0:6
	add	r0, sp, #4
.Ltmp317:
	.loc	1 362 13                        @ source/event_log.c:362:13
	ldrb	r0, [r0]
.Ltmp318:
	.loc	1 362 2                         @ source/event_log.c:362:2
	cmp	r0, #2
	bhi	.LBB5_24
	b	.LBB5_14
.LBB5_14:                               @   in Loop: Header=BB5_13 Depth=1
	.loc	1 0 2                           @ source/event_log.c:0:2
	mov	r1, sp
	movs	r0, #0
.Ltmp319:
	.loc	1 363 8 is_stmt 1               @ source/event_log.c:363:8
	strb	r0, [r1]
	.loc	1 363 7 is_stmt 0               @ source/event_log.c:363:7
	b	.LBB5_15
.LBB5_15:                               @   Parent Loop BB5_13 Depth=1
                                        @ =>  This Inner Loop Header: Depth=2
	.loc	1 0 7                           @ source/event_log.c:0:7
	mov	r0, sp
.Ltmp320:
	.loc	1 363 12                        @ source/event_log.c:363:12
	ldrb	r0, [r0]
.Ltmp321:
	.loc	1 363 3                         @ source/event_log.c:363:3
	cmp	r0, #19
	bhi	.LBB5_22
	b	.LBB5_16
.LBB5_16:                               @   in Loop: Header=BB5_15 Depth=2
.Ltmp322:
	.loc	1 364 12 is_stmt 1              @ source/event_log.c:364:12
	ldr	r0, [sp, #8]
	subs	r0, r0, #1
	add	r1, sp, #8
	strh	r0, [r1]
	add	r0, sp, #4
.Ltmp323:
	.loc	1 365 10                        @ source/event_log.c:365:10
	ldrb	r0, [r0]
	ldr	r1, __arm_cp.5_5
	.loc	1 365 7 is_stmt 0               @ source/event_log.c:365:7
	muls	r1, r0, r1
	ldr	r0, __arm_cp.5_1
	adds	r0, r0, r1
	.loc	1 365 15                        @ source/event_log.c:365:15
	ldrb	r0, [r0, #10]
.Ltmp324:
	.loc	1 365 7                         @ source/event_log.c:365:7
	lsls	r0, r0, #31
	cbz	r0, .LBB5_20
	b	.LBB5_17
.LBB5_17:                               @   in Loop: Header=BB5_15 Depth=2
	.loc	1 0 7                           @ source/event_log.c:0:7
	add	r0, sp, #4
.Ltmp325:
	.loc	1 366 11 is_stmt 1              @ source/event_log.c:366:11
	ldrb	r0, [r0]
	ldr	r1, __arm_cp.5_5
	.loc	1 366 8 is_stmt 0               @ source/event_log.c:366:8
	muls	r1, r0, r1
	ldr	r0, __arm_cp.5_1
	adds	r0, r0, r1
	mov	r1, sp
	.loc	1 366 19                        @ source/event_log.c:366:19
	ldrb	r2, [r1]
	movs	r1, #6
	.loc	1 366 8                         @ source/event_log.c:366:8
	muls	r1, r2, r1
	.loc	1 366 16                        @ source/event_log.c:366:16
	adds	r0, r0, r1
	movs	r1, #98
	.loc	1 366 22                        @ source/event_log.c:366:22
	ldrh	r0, [r0, r1]
.Ltmp326:
	.loc	1 366 8                         @ source/event_log.c:366:8
	cmp	r0, #1
	bne	.LBB5_19
	b	.LBB5_18
.LBB5_18:
.Ltmp327:
	.loc	1 367 13 is_stmt 1              @ source/event_log.c:367:13
	ldr	r0, [sp, #8]
	add	r1, sp, #12
	.loc	1 367 6 is_stmt 0               @ source/event_log.c:367:6
	strh	r0, [r1]
	b	.LBB5_69
.Ltmp328:
.LBB5_19:                               @   in Loop: Header=BB5_15 Depth=2
	.loc	1 369 4 is_stmt 1               @ source/event_log.c:369:4
	b	.LBB5_20
.Ltmp329:
.LBB5_20:                               @   in Loop: Header=BB5_15 Depth=2
	.loc	1 370 3                         @ source/event_log.c:370:3
	b	.LBB5_21
.Ltmp330:
.LBB5_21:                               @   in Loop: Header=BB5_15 Depth=2
	.loc	1 363 35                        @ source/event_log.c:363:35
	ldr	r0, [sp]
	adds	r0, r0, #1
	mov	r1, sp
	strb	r0, [r1]
	.loc	1 363 3 is_stmt 0               @ source/event_log.c:363:3
	b	.LBB5_15
.Ltmp331:
.LBB5_22:                               @   in Loop: Header=BB5_13 Depth=1
	.loc	1 371 2 is_stmt 1               @ source/event_log.c:371:2
	b	.LBB5_23
.Ltmp332:
.LBB5_23:                               @   in Loop: Header=BB5_13 Depth=1
	.loc	1 362 23                        @ source/event_log.c:362:23
	ldr	r0, [sp, #4]
	adds	r0, r0, #1
	add	r1, sp, #4
	strb	r0, [r1]
	.loc	1 362 2 is_stmt 0               @ source/event_log.c:362:2
	b	.LBB5_13
.Ltmp333:
.LBB5_24:
	.loc	1 0 2                           @ source/event_log.c:0:2
	add	r1, sp, #4
	movs	r0, #0
.Ltmp334:
	.loc	1 374 9 is_stmt 1               @ source/event_log.c:374:9
	strb	r0, [r1]
	.loc	1 374 6 is_stmt 0               @ source/event_log.c:374:6
	b	.LBB5_25
.LBB5_25:                               @ =>This Loop Header: Depth=1
                                        @     Child Loop BB5_27 Depth 2
	.loc	1 0 6                           @ source/event_log.c:0:6
	add	r0, sp, #4
.Ltmp335:
	.loc	1 374 13                        @ source/event_log.c:374:13
	ldrb	r0, [r0]
.Ltmp336:
	.loc	1 374 2                         @ source/event_log.c:374:2
	cmp	r0, #2
	bhi	.LBB5_36
	b	.LBB5_26
.LBB5_26:                               @   in Loop: Header=BB5_25 Depth=1
	.loc	1 0 2                           @ source/event_log.c:0:2
	mov	r1, sp
	movs	r0, #0
.Ltmp337:
	.loc	1 375 8 is_stmt 1               @ source/event_log.c:375:8
	strb	r0, [r1]
	.loc	1 375 7 is_stmt 0               @ source/event_log.c:375:7
	b	.LBB5_27
.LBB5_27:                               @   Parent Loop BB5_25 Depth=1
                                        @ =>  This Inner Loop Header: Depth=2
	.loc	1 0 7                           @ source/event_log.c:0:7
	mov	r0, sp
.Ltmp338:
	.loc	1 375 12                        @ source/event_log.c:375:12
	ldrb	r0, [r0]
.Ltmp339:
	.loc	1 375 3                         @ source/event_log.c:375:3
	cmp	r0, #19
	bhi	.LBB5_34
	b	.LBB5_28
.LBB5_28:                               @   in Loop: Header=BB5_27 Depth=2
.Ltmp340:
	.loc	1 376 12 is_stmt 1              @ source/event_log.c:376:12
	ldr	r0, [sp, #8]
	subs	r0, r0, #1
	add	r1, sp, #8
	strh	r0, [r1]
	add	r0, sp, #4
.Ltmp341:
	.loc	1 377 10                        @ source/event_log.c:377:10
	ldrb	r0, [r0]
	ldr	r1, __arm_cp.5_5
	.loc	1 377 7 is_stmt 0               @ source/event_log.c:377:7
	muls	r1, r0, r1
	ldr	r0, __arm_cp.5_1
	adds	r0, r0, r1
	.loc	1 377 15                        @ source/event_log.c:377:15
	ldrb	r0, [r0, #6]
.Ltmp342:
	.loc	1 377 7                         @ source/event_log.c:377:7
	lsls	r0, r0, #31
	cbz	r0, .LBB5_32
	b	.LBB5_29
.LBB5_29:                               @   in Loop: Header=BB5_27 Depth=2
	.loc	1 0 7                           @ source/event_log.c:0:7
	add	r0, sp, #4
.Ltmp343:
	.loc	1 378 11 is_stmt 1              @ source/event_log.c:378:11
	ldrb	r0, [r0]
	ldr	r1, __arm_cp.5_5
	.loc	1 378 8 is_stmt 0               @ source/event_log.c:378:8
	muls	r1, r0, r1
	ldr	r0, __arm_cp.5_1
	adds	r0, r0, r1
	.loc	1 378 16                        @ source/event_log.c:378:16
	ldrb	r0, [r0, #6]
.Ltmp344:
	.loc	1 378 8                         @ source/event_log.c:378:8
	lsls	r0, r0, #31
	cbz	r0, .LBB5_31
	b	.LBB5_30
.LBB5_30:
.Ltmp345:
	.loc	1 379 13 is_stmt 1              @ source/event_log.c:379:13
	ldr	r0, [sp, #8]
	add	r1, sp, #12
	.loc	1 379 6 is_stmt 0               @ source/event_log.c:379:6
	strh	r0, [r1]
	b	.LBB5_69
.Ltmp346:
.LBB5_31:                               @   in Loop: Header=BB5_27 Depth=2
	.loc	1 381 4 is_stmt 1               @ source/event_log.c:381:4
	b	.LBB5_32
.Ltmp347:
.LBB5_32:                               @   in Loop: Header=BB5_27 Depth=2
	.loc	1 382 3                         @ source/event_log.c:382:3
	b	.LBB5_33
.Ltmp348:
.LBB5_33:                               @   in Loop: Header=BB5_27 Depth=2
	.loc	1 375 35                        @ source/event_log.c:375:35
	ldr	r0, [sp]
	adds	r0, r0, #1
	mov	r1, sp
	strb	r0, [r1]
	.loc	1 375 3 is_stmt 0               @ source/event_log.c:375:3
	b	.LBB5_27
.Ltmp349:
.LBB5_34:                               @   in Loop: Header=BB5_25 Depth=1
	.loc	1 383 2 is_stmt 1               @ source/event_log.c:383:2
	b	.LBB5_35
.Ltmp350:
.LBB5_35:                               @   in Loop: Header=BB5_25 Depth=1
	.loc	1 374 23                        @ source/event_log.c:374:23
	ldr	r0, [sp, #4]
	adds	r0, r0, #1
	add	r1, sp, #4
	strb	r0, [r1]
	.loc	1 374 2 is_stmt 0               @ source/event_log.c:374:2
	b	.LBB5_25
.Ltmp351:
.LBB5_36:
	.loc	1 0 2                           @ source/event_log.c:0:2
	add	r1, sp, #4
	movs	r0, #0
.Ltmp352:
	.loc	1 386 9 is_stmt 1               @ source/event_log.c:386:9
	strb	r0, [r1]
	.loc	1 386 6 is_stmt 0               @ source/event_log.c:386:6
	b	.LBB5_37
.LBB5_37:                               @ =>This Loop Header: Depth=1
                                        @     Child Loop BB5_39 Depth 2
	.loc	1 0 6                           @ source/event_log.c:0:6
	add	r0, sp, #4
.Ltmp353:
	.loc	1 386 13                        @ source/event_log.c:386:13
	ldrb	r0, [r0]
.Ltmp354:
	.loc	1 386 2                         @ source/event_log.c:386:2
	cmp	r0, #2
	bhi	.LBB5_48
	b	.LBB5_38
.LBB5_38:                               @   in Loop: Header=BB5_37 Depth=1
	.loc	1 0 2                           @ source/event_log.c:0:2
	mov	r1, sp
	movs	r0, #0
.Ltmp355:
	.loc	1 387 8 is_stmt 1               @ source/event_log.c:387:8
	strb	r0, [r1]
	.loc	1 387 7 is_stmt 0               @ source/event_log.c:387:7
	b	.LBB5_39
.LBB5_39:                               @   Parent Loop BB5_37 Depth=1
                                        @ =>  This Inner Loop Header: Depth=2
	.loc	1 0 7                           @ source/event_log.c:0:7
	mov	r0, sp
.Ltmp356:
	.loc	1 387 12                        @ source/event_log.c:387:12
	ldrb	r0, [r0]
.Ltmp357:
	.loc	1 387 3                         @ source/event_log.c:387:3
	cmp	r0, #19
	bhi	.LBB5_46
	b	.LBB5_40
.LBB5_40:                               @   in Loop: Header=BB5_39 Depth=2
.Ltmp358:
	.loc	1 388 12 is_stmt 1              @ source/event_log.c:388:12
	ldr	r0, [sp, #8]
	subs	r0, r0, #1
	add	r1, sp, #8
	strh	r0, [r1]
	add	r0, sp, #4
.Ltmp359:
	.loc	1 389 10                        @ source/event_log.c:389:10
	ldrb	r0, [r0]
	ldr	r1, __arm_cp.5_5
	.loc	1 389 7 is_stmt 0               @ source/event_log.c:389:7
	muls	r1, r0, r1
	ldr	r0, __arm_cp.5_1
	adds	r0, r0, r1
	.loc	1 389 15                        @ source/event_log.c:389:15
	ldrb	r0, [r0, #7]
.Ltmp360:
	.loc	1 389 7                         @ source/event_log.c:389:7
	lsls	r0, r0, #31
	cbz	r0, .LBB5_44
	b	.LBB5_41
.LBB5_41:                               @   in Loop: Header=BB5_39 Depth=2
	.loc	1 0 7                           @ source/event_log.c:0:7
	add	r0, sp, #4
.Ltmp361:
	.loc	1 390 11 is_stmt 1              @ source/event_log.c:390:11
	ldrb	r1, [r0]
	ldr	r0, __arm_cp.5_5
	.loc	1 390 8 is_stmt 0               @ source/event_log.c:390:8
	muls	r0, r1, r0
	ldr	r1, __arm_cp.5_1
	mov	r2, sp
	.loc	1 390 19                        @ source/event_log.c:390:19
	ldrb	r3, [r2]
	movs	r2, #6
	.loc	1 390 8                         @ source/event_log.c:390:8
	muls	r2, r3, r2
	.loc	1 390 31                        @ source/event_log.c:390:31
	adds	r1, r1, r2
	.loc	1 390 16                        @ source/event_log.c:390:16
	adds	r0, r1, r0
	movs	r2, #94
	.loc	1 390 22                        @ source/event_log.c:390:22
	ldrb	r0, [r0, r2]
	ldr	r2, __arm_cp.5_6
	.loc	1 390 43                        @ source/event_log.c:390:43
	ldrb	r1, [r1, r2]
.Ltmp362:
	.loc	1 390 8                         @ source/event_log.c:390:8
	cmp	r0, r1
	beq	.LBB5_43
	b	.LBB5_42
.LBB5_42:
.Ltmp363:
	.loc	1 391 13 is_stmt 1              @ source/event_log.c:391:13
	ldr	r0, [sp, #8]
	add	r1, sp, #12
	.loc	1 391 6 is_stmt 0               @ source/event_log.c:391:6
	strh	r0, [r1]
	b	.LBB5_69
.Ltmp364:
.LBB5_43:                               @   in Loop: Header=BB5_39 Depth=2
	.loc	1 393 4 is_stmt 1               @ source/event_log.c:393:4
	b	.LBB5_44
.Ltmp365:
.LBB5_44:                               @   in Loop: Header=BB5_39 Depth=2
	.loc	1 394 3                         @ source/event_log.c:394:3
	b	.LBB5_45
.Ltmp366:
.LBB5_45:                               @   in Loop: Header=BB5_39 Depth=2
	.loc	1 387 35                        @ source/event_log.c:387:35
	ldr	r0, [sp]
	adds	r0, r0, #1
	mov	r1, sp
	strb	r0, [r1]
	.loc	1 387 3 is_stmt 0               @ source/event_log.c:387:3
	b	.LBB5_39
.Ltmp367:
.LBB5_46:                               @   in Loop: Header=BB5_37 Depth=1
	.loc	1 395 2 is_stmt 1               @ source/event_log.c:395:2
	b	.LBB5_47
.Ltmp368:
.LBB5_47:                               @   in Loop: Header=BB5_37 Depth=1
	.loc	1 386 23                        @ source/event_log.c:386:23
	ldr	r0, [sp, #4]
	adds	r0, r0, #1
	add	r1, sp, #4
	strb	r0, [r1]
	.loc	1 386 2 is_stmt 0               @ source/event_log.c:386:2
	b	.LBB5_37
.Ltmp369:
.LBB5_48:
	.loc	1 0 2                           @ source/event_log.c:0:2
	add	r1, sp, #4
	movs	r0, #0
.Ltmp370:
	.loc	1 398 9 is_stmt 1               @ source/event_log.c:398:9
	strb	r0, [r1]
	.loc	1 398 6 is_stmt 0               @ source/event_log.c:398:6
	b	.LBB5_49
.LBB5_49:                               @ =>This Loop Header: Depth=1
                                        @     Child Loop BB5_51 Depth 2
	.loc	1 0 6                           @ source/event_log.c:0:6
	add	r0, sp, #4
.Ltmp371:
	.loc	1 398 13                        @ source/event_log.c:398:13
	ldrb	r0, [r0]
.Ltmp372:
	.loc	1 398 2                         @ source/event_log.c:398:2
	cmp	r0, #2
	bhi	.LBB5_60
	b	.LBB5_50
.LBB5_50:                               @   in Loop: Header=BB5_49 Depth=1
	.loc	1 0 2                           @ source/event_log.c:0:2
	mov	r1, sp
	movs	r0, #0
.Ltmp373:
	.loc	1 399 8 is_stmt 1               @ source/event_log.c:399:8
	strb	r0, [r1]
	.loc	1 399 7 is_stmt 0               @ source/event_log.c:399:7
	b	.LBB5_51
.LBB5_51:                               @   Parent Loop BB5_49 Depth=1
                                        @ =>  This Inner Loop Header: Depth=2
	.loc	1 0 7                           @ source/event_log.c:0:7
	mov	r0, sp
.Ltmp374:
	.loc	1 399 12                        @ source/event_log.c:399:12
	ldrb	r0, [r0]
.Ltmp375:
	.loc	1 399 3                         @ source/event_log.c:399:3
	cmp	r0, #7
	bhi	.LBB5_58
	b	.LBB5_52
.LBB5_52:                               @   in Loop: Header=BB5_51 Depth=2
.Ltmp376:
	.loc	1 400 12 is_stmt 1              @ source/event_log.c:400:12
	ldr	r0, [sp, #8]
	subs	r0, r0, #1
	add	r1, sp, #8
	strh	r0, [r1]
	add	r0, sp, #4
.Ltmp377:
	.loc	1 401 10                        @ source/event_log.c:401:10
	ldrb	r0, [r0]
	ldr	r1, __arm_cp.5_5
	.loc	1 401 7 is_stmt 0               @ source/event_log.c:401:7
	muls	r1, r0, r1
	ldr	r0, __arm_cp.5_1
	adds	r0, r0, r1
	.loc	1 401 15                        @ source/event_log.c:401:15
	ldrb	r0, [r0, #8]
.Ltmp378:
	.loc	1 401 7                         @ source/event_log.c:401:7
	lsls	r0, r0, #31
	cbz	r0, .LBB5_56
	b	.LBB5_53
.LBB5_53:                               @   in Loop: Header=BB5_51 Depth=2
	.loc	1 0 7                           @ source/event_log.c:0:7
	add	r0, sp, #4
.Ltmp379:
	.loc	1 402 11 is_stmt 1              @ source/event_log.c:402:11
	ldrb	r1, [r0]
	ldr	r0, __arm_cp.5_5
	.loc	1 402 8 is_stmt 0               @ source/event_log.c:402:8
	muls	r0, r1, r0
	ldr	r1, __arm_cp.5_1
	mov	r2, sp
	.loc	1 402 19                        @ source/event_log.c:402:19
	ldrb	r3, [r2]
	movs	r2, #6
	.loc	1 402 8                         @ source/event_log.c:402:8
	muls	r2, r3, r2
	.loc	1 402 31                        @ source/event_log.c:402:31
	adds	r1, r1, r2
	.loc	1 402 16                        @ source/event_log.c:402:16
	adds	r0, r1, r0
	movs	r2, #214
	.loc	1 402 22                        @ source/event_log.c:402:22
	ldrb	r0, [r0, r2]
	ldr	r2, __arm_cp.5_3
	.loc	1 402 43                        @ source/event_log.c:402:43
	ldrb	r1, [r1, r2]
.Ltmp380:
	.loc	1 402 8                         @ source/event_log.c:402:8
	cmp	r0, r1
	beq	.LBB5_55
	b	.LBB5_54
.LBB5_54:
.Ltmp381:
	.loc	1 403 13 is_stmt 1              @ source/event_log.c:403:13
	ldr	r0, [sp, #8]
	add	r1, sp, #12
	.loc	1 403 6 is_stmt 0               @ source/event_log.c:403:6
	strh	r0, [r1]
	b	.LBB5_69
.Ltmp382:
.LBB5_55:                               @   in Loop: Header=BB5_51 Depth=2
	.loc	1 405 4 is_stmt 1               @ source/event_log.c:405:4
	b	.LBB5_56
.Ltmp383:
.LBB5_56:                               @   in Loop: Header=BB5_51 Depth=2
	.loc	1 406 3                         @ source/event_log.c:406:3
	b	.LBB5_57
.Ltmp384:
.LBB5_57:                               @   in Loop: Header=BB5_51 Depth=2
	.loc	1 399 36                        @ source/event_log.c:399:36
	ldr	r0, [sp]
	adds	r0, r0, #1
	mov	r1, sp
	strb	r0, [r1]
	.loc	1 399 3 is_stmt 0               @ source/event_log.c:399:3
	b	.LBB5_51
.Ltmp385:
.LBB5_58:                               @   in Loop: Header=BB5_49 Depth=1
	.loc	1 407 2 is_stmt 1               @ source/event_log.c:407:2
	b	.LBB5_59
.Ltmp386:
.LBB5_59:                               @   in Loop: Header=BB5_49 Depth=1
	.loc	1 398 23                        @ source/event_log.c:398:23
	ldr	r0, [sp, #4]
	adds	r0, r0, #1
	add	r1, sp, #4
	strb	r0, [r1]
	.loc	1 398 2 is_stmt 0               @ source/event_log.c:398:2
	b	.LBB5_49
.Ltmp387:
.LBB5_60:
	.loc	1 0 2                           @ source/event_log.c:0:2
	mov	r1, sp
	movs	r0, #0
.Ltmp388:
	.loc	1 411 7 is_stmt 1               @ source/event_log.c:411:7
	strb	r0, [r1]
	.loc	1 411 6 is_stmt 0               @ source/event_log.c:411:6
	b	.LBB5_61
.LBB5_61:                               @ =>This Inner Loop Header: Depth=1
	.loc	1 0 6                           @ source/event_log.c:0:6
	mov	r0, sp
.Ltmp389:
	.loc	1 411 11                        @ source/event_log.c:411:11
	ldrb	r0, [r0]
.Ltmp390:
	.loc	1 411 2                         @ source/event_log.c:411:2
	cmp	r0, #3
	bhi	.LBB5_68
	b	.LBB5_62
.LBB5_62:                               @   in Loop: Header=BB5_61 Depth=1
.Ltmp391:
	.loc	1 412 11 is_stmt 1              @ source/event_log.c:412:11
	ldr	r0, [sp, #8]
	subs	r0, r0, #1
	add	r1, sp, #8
	strh	r0, [r1]
.Ltmp392:
	.loc	1 413 12                        @ source/event_log.c:413:12
	ldr	r0, __arm_cp.5_1
	ldr	r1, __arm_cp.5_2
	ldrb	r0, [r0, r1]
.Ltmp393:
	.loc	1 413 6 is_stmt 0               @ source/event_log.c:413:6
	lsls	r0, r0, #31
	cbz	r0, .LBB5_66
	b	.LBB5_63
.LBB5_63:                               @   in Loop: Header=BB5_61 Depth=1
	.loc	1 0 6                           @ source/event_log.c:0:6
	mov	r0, sp
.Ltmp394:
	.loc	1 414 16 is_stmt 1              @ source/event_log.c:414:16
	ldrb	r0, [r0]
	movs	r1, #6
	.loc	1 414 7 is_stmt 0               @ source/event_log.c:414:7
	muls	r1, r0, r1
	ldr	r0, __arm_cp.5_1
	adds	r1, r0, r1
	ldr	r0, __arm_cp.5_3
	.loc	1 414 19                        @ source/event_log.c:414:19
	ldrb	r0, [r1, r0]
	ldr	r2, __arm_cp.5_4
	.loc	1 414 45                        @ source/event_log.c:414:45
	ldrb	r1, [r1, r2]
.Ltmp395:
	.loc	1 414 7                         @ source/event_log.c:414:7
	cmp	r0, r1
	beq	.LBB5_65
	b	.LBB5_64
.LBB5_64:
.Ltmp396:
	.loc	1 415 12 is_stmt 1              @ source/event_log.c:415:12
	ldr	r0, [sp, #8]
	add	r1, sp, #12
	.loc	1 415 5 is_stmt 0               @ source/event_log.c:415:5
	strh	r0, [r1]
	b	.LBB5_69
.Ltmp397:
.LBB5_65:                               @   in Loop: Header=BB5_61 Depth=1
	.loc	1 417 3 is_stmt 1               @ source/event_log.c:417:3
	b	.LBB5_66
.Ltmp398:
.LBB5_66:                               @   in Loop: Header=BB5_61 Depth=1
	.loc	1 418 2                         @ source/event_log.c:418:2
	b	.LBB5_67
.Ltmp399:
.LBB5_67:                               @   in Loop: Header=BB5_61 Depth=1
	.loc	1 411 17                        @ source/event_log.c:411:17
	ldr	r0, [sp]
	adds	r0, r0, #1
	mov	r1, sp
	strb	r0, [r1]
	.loc	1 411 2 is_stmt 0               @ source/event_log.c:411:2
	b	.LBB5_61
.Ltmp400:
.LBB5_68:
	.loc	1 0 2                           @ source/event_log.c:0:2
	add	r1, sp, #12
	movs	r0, #0
	.loc	1 420 2 is_stmt 1               @ source/event_log.c:420:2
	strh	r0, [r1]
	b	.LBB5_69
.LBB5_69:
	.loc	1 0 2 is_stmt 0                 @ source/event_log.c:0:2
	add	r0, sp, #12
	.loc	1 421 1 is_stmt 1               @ source/event_log.c:421:1
	ldrh	r0, [r0]
	.loc	1 421 1 epilogue_begin is_stmt 0 @ source/event_log.c:421:1
	add	sp, #16
	bx	lr
.Ltmp401:
	.loc	1 0 1                           @ :0:1
.Ltmp402:
	.p2align	2
@ %bb.70:
__arm_cp.5_0:
	.long	9999                            @ 0x270f
.Lcpi_end68:
	.size	__arm_cp.5_0, .Lcpi_end68-__arm_cp.5_0
__arm_cp.5_1:
	.long	pe
.Lcpi_end69:
	.size	__arm_cp.5_1, .Lcpi_end69-__arm_cp.5_1
__arm_cp.5_2:
	.long	5115                            @ 0x13fb
.Lcpi_end70:
	.size	__arm_cp.5_2, .Lcpi_end70-__arm_cp.5_2
__arm_cp.5_3:
	.long	5320                            @ 0x14c8
.Lcpi_end71:
	.size	__arm_cp.5_3, .Lcpi_end71-__arm_cp.5_3
__arm_cp.5_4:
	.long	5944                            @ 0x1738
.Lcpi_end72:
	.size	__arm_cp.5_4, .Lcpi_end72-__arm_cp.5_4
__arm_cp.5_5:
	.long	1702                            @ 0x6a6
.Lcpi_end73:
	.size	__arm_cp.5_5, .Lcpi_end73-__arm_cp.5_5
__arm_cp.5_6:
	.long	5200                            @ 0x1450
.Lcpi_end74:
	.size	__arm_cp.5_6, .Lcpi_end74-__arm_cp.5_6
.Lfunc_end5:
	.size	get_sys_error, .Lfunc_end5-get_sys_error
	.cfi_endproc
	.cantunwind
	.fnend
                                        @ -- End function
	.type	.L.str,%object                  @ @.str
	.section	.rodata.str1.1,"aMS",%progbits,1
.L.str:
	.asciz	"                "
	.size	.L.str, 17

	.hidden	oe_relay_state                  @ @oe_relay_state
	.type	oe_relay_state,%object
	.section	.bss.oe_relay_state,"aw",%nobits
	.globl	oe_relay_state
oe_relay_state:
	.zero	13
	.size	oe_relay_state, 13

	.type	.L.str.1,%object                @ @.str.1
	.section	.rodata.str1.1,"aMS",%progbits,1
.L.str.1:
	.asciz	"LC"
	.size	.L.str.1, 3

	.type	.L.str.2,%object                @ @.str.2
.L.str.2:
	.asciz	"Line Close"
	.size	.L.str.2, 11

	.type	.L.str.3,%object                @ @.str.3
.L.str.3:
	.asciz	"OU"
	.size	.L.str.3, 3

	.type	.L.str.4,%object                @ @.str.4
.L.str.4:
	.asciz	"Train On Line"
	.size	.L.str.4, 14

	.type	.L.str.5,%object                @ @.str.5
.L.str.5:
	.asciz	"CC"
	.size	.L.str.5, 3

	.type	.L.str.6,%object                @ @.str.6
.L.str.6:
	.asciz	"Line Clear"
	.size	.L.str.6, 11

	.type	.L.str.7,%object                @ @.str.7
.L.str.7:
	.asciz	"TG"
	.size	.L.str.7, 3

	.type	.L.str.8,%object                @ @.str.8
.L.str.8:
	.asciz	"Going To"
	.size	.L.str.8, 9

	.type	.L.str.9,%object                @ @.str.9
.L.str.9:
	.asciz	"EU"
	.size	.L.str.9, 3

	.type	.L.str.10,%object               @ @.str.10
.L.str.10:
	.asciz	"Train Exit"
	.size	.L.str.10, 11

	.type	.L.str.11,%object               @ @.str.11
.L.str.11:
	.asciz	"RU"
	.size	.L.str.11, 3

	.type	.L.str.12,%object               @ @.str.12
.L.str.12:
	.asciz	"Line Error"
	.size	.L.str.12, 11

	.type	.L.str.13,%object               @ @.str.13
.L.str.13:
	.asciz	"NV"
	.size	.L.str.13, 3

	.type	.L.str.14,%object               @ @.str.14
.L.str.14:
	.asciz	"LD"
	.size	.L.str.14, 3

	.type	.L.str.15,%object               @ @.str.15
.L.str.15:
	.asciz	"TC: Line Close"
	.size	.L.str.15, 15

	.type	.L.str.16,%object               @ @.str.16
.L.str.16:
	.asciz	"OD"
	.size	.L.str.16, 3

	.type	.L.str.17,%object               @ @.str.17
.L.str.17:
	.asciz	"TC: On Line"
	.size	.L.str.17, 12

	.type	.L.str.18,%object               @ @.str.18
.L.str.18:
	.asciz	"CD"
	.size	.L.str.18, 3

	.type	.L.str.19,%object               @ @.str.19
.L.str.19:
	.asciz	"TC: Line Clear"
	.size	.L.str.19, 15

	.type	.L.str.20,%object               @ @.str.20
.L.str.20:
	.asciz	"TC: Coming From"
	.size	.L.str.20, 16

	.type	.L.str.21,%object               @ @.str.21
.L.str.21:
	.asciz	"ED"
	.size	.L.str.21, 3

	.type	.L.str.22,%object               @ @.str.22
.L.str.22:
	.asciz	"TC: Train Exit"
	.size	.L.str.22, 15

	.type	.L.str.23,%object               @ @.str.23
.L.str.23:
	.asciz	"RD"
	.size	.L.str.23, 3

	.type	.L.str.24,%object               @ @.str.24
.L.str.24:
	.asciz	"TC: Line Error"
	.size	.L.str.24, 15

	.type	.L.str.25,%object               @ @.str.25
.L.str.25:
	.asciz	"LU"
	.size	.L.str.25, 3

	.type	.L.str.26,%object               @ @.str.26
.L.str.26:
	.asciz	"TG: Line Close"
	.size	.L.str.26, 15

	.type	.L.str.27,%object               @ @.str.27
.L.str.27:
	.asciz	"TG: Train On Line"
	.size	.L.str.27, 18

	.type	.L.str.28,%object               @ @.str.28
.L.str.28:
	.asciz	"CU"
	.size	.L.str.28, 3

	.type	.L.str.29,%object               @ @.str.29
.L.str.29:
	.asciz	"TG: Line Clear"
	.size	.L.str.29, 15

	.type	.L.str.30,%object               @ @.str.30
.L.str.30:
	.asciz	"TF"
	.size	.L.str.30, 3

	.type	.L.str.31,%object               @ @.str.31
.L.str.31:
	.asciz	"TG: Going To"
	.size	.L.str.31, 13

	.type	.L.str.32,%object               @ @.str.32
.L.str.32:
	.asciz	"TG: Train Exit"
	.size	.L.str.32, 15

	.type	.L.str.33,%object               @ @.str.33
.L.str.33:
	.asciz	"TG: Line Error"
	.size	.L.str.33, 15

	.file	5 "D:\\work\\dheeraj\\local\\CEL\\CCC\\CCC_CPU0\\Code" "source/Include\\app.h"
	.file	6 "D:\\work\\dheeraj\\local\\CEL\\CCC\\CCC_CPU0\\Code" "source/Include\\fifo.h"
	.section	".note.GNU-stack","",%progbits
	.eabi_attribute	30, 6	@ Tag_ABI_optimization_goals
	.ARM_attribute	16, 1	@ Tag_AV_eba