	.text
	.syntax unified
	.eabi_attribute	67, "2.09"	@ Tag_conformance
	.cpu	cortex-m23
	.eabi_attribute	6, 16	@ Tag_CPU_arch
	.eabi_attribute	7, 77	@ Tag_CPU_arch_profile
	.eabi_attribute	8, 0	@ Tag_ARM_ISA_use
	.eabi_attribute	9, 3	@ Tag_THUMB_ISA_use
	.eabi_attribute	34, 0	@ Tag_CPU_unaligned_access
	.eabi_attribute	17, 1	@ Tag_ABI_PCS_GOT_use
	.eabi_attribute	20, 2	@ Tag_ABI_FP_denormal
	.eabi_attribute	21, 0	@ Tag_ABI_FP_exceptions
	.eabi_attribute	23, 1	@ Tag_ABI_FP_number_model
	.eabi_attribute	24, 1	@ Tag_ABI_align_needed
	.eabi_attribute	25, 1	@ Tag_ABI_align_preserved
	.eabi_attribute	38, 1	@ Tag_ABI_FP_16bit_format
	.eabi_attribute	18, 4	@ Tag_ABI_PCS_wchar_t
	.eabi_attribute	26, 2	@ Tag_ABI_enum_size
	.eabi_attribute	14, 0	@ Tag_ABI_PCS_R9_use
	.file	"read_cpu.c"
	.file	1 "C:\\Users\\Anaya\\AppData\\Local\\Keil_v5\\ARM\\ARMCLANG\\bin\\..\\include" "stdint.h"
	.file	2 "D:\\work\\dheeraj\\local\\CEL\\CCC\\CCC_CPU0\\Code" "source/read_cpu.c"
	.file	3 "D:\\work\\dheeraj\\local\\CEL\\CCC\\CCC_CPU0\\Code" "source/Include\\app.h"
	.file	4 "D:\\work\\dheeraj\\local\\CEL\\CCC\\CCC_CPU0\\Code" "source/Include\\fifo.h"
	.file	5 "D:\\work\\dheeraj\\local\\CEL\\CCC\\CCC_CPU0\\Code" "source/driver/include\\drvr_spi.h"
	.file	6 "D:\\work\\dheeraj\\local\\CEL\\CCC\\CCC_CPU0\\Code" "../../CCC_common/Library/Device/Nuvoton/M261/Include\\spi_reg.h"
	.section	.text.read_vi,"ax",%progbits
	.hidden	read_vi                         @ -- Begin function read_vi
	.globl	read_vi
	.p2align	2
	.type	read_vi,%function
	.code	16                              @ @read_vi
	.thumb_func
read_vi:
.Lfunc_begin0:
	.loc	2 80 0                          @ source/read_cpu.c:80:0
	.fnstart
	.cfi_sections .debug_frame
	.cfi_startproc
@ %bb.0:
	.save	{r7, lr}
	push	{r7, lr}
	.cfi_def_cfa_offset 8
	.cfi_offset lr, -4
	.cfi_offset r7, -8
	.pad	#8
	sub	sp, #8
	.cfi_def_cfa_offset 16
	mov	r1, r0
                                        @ kill: def $r0 killed $r1
	add	r0, sp, #4
	strb	r1, [r0]
.Ltmp0:
	.loc	2 83 25 prologue_end            @ source/read_cpu.c:83:25
	ldrb	r0, [r0]
	ldr	r2, __arm_cp.0_0
	.loc	2 83 72 is_stmt 0               @ source/read_cpu.c:83:72
	muls	r2, r0, r2
	ldr	r1, __arm_cp.0_1
	adds	r3, r1, r2
	.loc	2 83 87                         @ source/read_cpu.c:83:87
	adds	r3, #19
	movs	r1, #162
	movs	r2, #5
	.loc	2 83 11                         @ source/read_cpu.c:83:11
	bl	read_cpu_fpga
	mov	r1, r0
	mov	r0, sp
	.loc	2 83 9                          @ source/read_cpu.c:83:9
	strb	r1, [r0]
	.loc	2 85 9 is_stmt 1                @ source/read_cpu.c:85:9
	ldrb	r0, [r0]
	.loc	2 85 2 epilogue_begin is_stmt 0 @ source/read_cpu.c:85:2
	add	sp, #8
	pop	{r7, pc}
.Ltmp1:
	.loc	2 0 2                           @ :0:2
.Ltmp2:
	.p2align	2
@ %bb.1:
__arm_cp.0_0:
	.long	1702                            @ 0x6a6
.Lcpi_end0:
	.size	__arm_cp.0_0, .Lcpi_end0-__arm_cp.0_0
__arm_cp.0_1:
	.long	pe
.Lcpi_end1:
	.size	__arm_cp.0_1, .Lcpi_end1-__arm_cp.0_1
.Lfunc_end0:
	.size	read_vi, .Lfunc_end0-read_vi
	.cfi_endproc
	.cantunwind
	.fnend
                                        @ -- End function
	.section	.text.read_cpu_fpga,"ax",%progbits
	.p2align	2                               @ -- Begin function read_cpu_fpga
	.type	read_cpu_fpga,%function
	.code	16                              @ @read_cpu_fpga
	.thumb_func
read_cpu_fpga:
.Lfunc_begin1:
	.loc	2 548 0 is_stmt 1               @ source/read_cpu.c:548:0
	.fnstart
	.cfi_startproc
@ %bb.0:
	.save	{r4, lr}
	push	{r4, lr}
	.cfi_def_cfa_offset 8
	.cfi_offset lr, -4
	.cfi_offset r4, -8
	.pad	#56
	sub	sp, #56
	.cfi_def_cfa_offset 64
	mov	r4, r0
                                        @ kill: def $r0 killed $r2
                                        @ kill: def $r0 killed $r1
                                        @ kill: def $r0 killed $r4
	add	r0, sp, #52
	strb	r4, [r0]
	add	r4, sp, #48
	strb	r1, [r4]
	add	r1, sp, #44
	strb	r2, [r1]
	str	r3, [sp, #40]
.Ltmp3:
	.loc	2 553 13 prologue_end           @ source/read_cpu.c:553:13
	ldr	r1, __arm_cp.1_0
	str	r1, [sp, #24]
	.loc	2 554 16                        @ source/read_cpu.c:554:16
	ldr	r1, __arm_cp.1_1
	str	r1, [sp, #20]
	.loc	2 555 13                        @ source/read_cpu.c:555:13
	ldr	r1, [sp, #52]
	add	r2, sp, #28
	.loc	2 555 11 is_stmt 0              @ source/read_cpu.c:555:11
	strb	r1, [r2]
	.loc	2 556 11 is_stmt 1              @ source/read_cpu.c:556:11
	ldr	r1, __arm_cp.1_2
	str	r1, [sp, #16]
.Ltmp4:
	.loc	2 558 5                         @ source/read_cpu.c:558:5
	ldrb	r0, [r0]
.Ltmp5:
	.loc	2 558 5 is_stmt 0               @ source/read_cpu.c:558:5
	cmp	r0, #3
	bne	.LBB1_2
	b	.LBB1_1
.LBB1_1:
.Ltmp6:
	.loc	2 559 9 is_stmt 1               @ source/read_cpu.c:559:9
	ldr	r0, __arm_cp.1_3
	str	r0, [sp, #20]
	add	r1, sp, #28
	movs	r0, #0
	.loc	2 560 12                        @ source/read_cpu.c:560:12
	strb	r0, [r1]
	.loc	2 561 12                        @ source/read_cpu.c:561:12
	ldr	r0, __arm_cp.1_4
	str	r0, [sp, #24]
	.loc	2 562 11                        @ source/read_cpu.c:562:11
	ldr	r0, __arm_cp.1_5
	str	r0, [sp, #16]
	.loc	2 563 2                         @ source/read_cpu.c:563:2
	b	.LBB1_2
.Ltmp7:
.LBB1_2:
	.loc	2 564 19                        @ source/read_cpu.c:564:19
	ldr	r0, [sp, #20]
	add	r1, sp, #28
	.loc	2 564 25 is_stmt 0              @ source/read_cpu.c:564:25
	ldrb	r1, [r1]
	add	r2, sp, #48
	.loc	2 564 34                        @ source/read_cpu.c:564:34
	ldrb	r2, [r2]
	.loc	2 564 45                        @ source/read_cpu.c:564:45
	ldr	r3, [sp, #16]
	add	r4, sp, #44
	.loc	2 564 53                        @ source/read_cpu.c:564:53
	ldrb	r4, [r4]
	.loc	2 564 11                        @ source/read_cpu.c:564:11
	str	r4, [sp, #8]
	str	r3, [sp, #4]
	movs	r3, #0
	str	r3, [sp, #12]                   @ 4-byte Spill
	str	r3, [sp]
	bl	run_cmd
	mov	r1, r0
	ldr	r0, [sp, #12]                   @ 4-byte Reload
	add	r2, sp, #36
	.loc	2 564 9                         @ source/read_cpu.c:564:9
	strb	r1, [r2]
	.loc	2 565 21 is_stmt 1              @ source/read_cpu.c:565:21
	ldr	r1, [sp, #40]
	.loc	2 565 2 is_stmt 0               @ source/read_cpu.c:565:2
	ldr	r2, [sp, #24]
	.loc	2 565 19                        @ source/read_cpu.c:565:19
	str	r1, [r2, #24]
	.loc	2 567 2 epilogue_begin is_stmt 1 @ source/read_cpu.c:567:2
	add	sp, #56
	pop	{r4, pc}
.Ltmp8:
	.loc	2 0 2 is_stmt 0                 @ :0:2
.Ltmp9:
	.p2align	2
@ %bb.3:
__arm_cp.1_0:
	.long	spi_com_cpu
.Lcpi_end2:
	.size	__arm_cp.1_0, .Lcpi_end2-__arm_cp.1_0
__arm_cp.1_1:
	.long	spi_cpux
.Lcpi_end3:
	.size	__arm_cp.1_1, .Lcpi_end3-__arm_cp.1_1
__arm_cp.1_2:
	.long	respbuf_cpu
.Lcpi_end4:
	.size	__arm_cp.1_2, .Lcpi_end4-__arm_cp.1_2
__arm_cp.1_3:
	.long	spi_fpga
.Lcpi_end5:
	.size	__arm_cp.1_3, .Lcpi_end5-__arm_cp.1_3
__arm_cp.1_4:
	.long	spi_com_fpga
.Lcpi_end6:
	.size	__arm_cp.1_4, .Lcpi_end6-__arm_cp.1_4
__arm_cp.1_5:
	.long	respbuf_fpga
.Lcpi_end7:
	.size	__arm_cp.1_5, .Lcpi_end7-__arm_cp.1_5
.Lfunc_end1:
	.size	read_cpu_fpga, .Lfunc_end1-read_cpu_fpga
	.cfi_endproc
	.cantunwind
	.fnend
                                        @ -- End function
	.section	.text.read_vi_unstable_err,"ax",%progbits
	.hidden	read_vi_unstable_err            @ -- Begin function read_vi_unstable_err
	.globl	read_vi_unstable_err
	.p2align	2
	.type	read_vi_unstable_err,%function
	.code	16                              @ @read_vi_unstable_err
	.thumb_func
read_vi_unstable_err:
.Lfunc_begin2:
	.loc	2 110 0 is_stmt 1               @ source/read_cpu.c:110:0
	.fnstart
	.cfi_startproc
@ %bb.0:
	.save	{r7, lr}
	push	{r7, lr}
	.cfi_def_cfa_offset 8
	.cfi_offset lr, -4
	.cfi_offset r7, -8
	.pad	#8
	sub	sp, #8
	.cfi_def_cfa_offset 16
	mov	r1, r0
                                        @ kill: def $r0 killed $r1
	add	r0, sp, #4
	strb	r1, [r0]
.Ltmp10:
	.loc	2 113 25 prologue_end           @ source/read_cpu.c:113:25
	ldrb	r0, [r0]
	ldr	r2, __arm_cp.2_0
	.loc	2 113 76 is_stmt 0              @ source/read_cpu.c:113:76
	muls	r2, r0, r2
	ldr	r1, __arm_cp.2_1
	adds	r3, r1, r2
	.loc	2 113 86                        @ source/read_cpu.c:113:86
	adds	r3, #41
	movs	r1, #172
	movs	r2, #5
	.loc	2 113 11                        @ source/read_cpu.c:113:11
	bl	read_cpu_fpga
	mov	r1, r0
	mov	r0, sp
	.loc	2 113 9                         @ source/read_cpu.c:113:9
	strb	r1, [r0]
	.loc	2 114 9 is_stmt 1               @ source/read_cpu.c:114:9
	ldrb	r0, [r0]
	.loc	2 114 2 epilogue_begin is_stmt 0 @ source/read_cpu.c:114:2
	add	sp, #8
	pop	{r7, pc}
.Ltmp11:
	.loc	2 0 2                           @ :0:2
.Ltmp12:
	.p2align	2
@ %bb.1:
__arm_cp.2_0:
	.long	1702                            @ 0x6a6
.Lcpi_end8:
	.size	__arm_cp.2_0, .Lcpi_end8-__arm_cp.2_0
__arm_cp.2_1:
	.long	pe
.Lcpi_end9:
	.size	__arm_cp.2_1, .Lcpi_end9-__arm_cp.2_1
.Lfunc_end2:
	.size	read_vi_unstable_err, .Lfunc_end2-read_vi_unstable_err
	.cfi_endproc
	.cantunwind
	.fnend
                                        @ -- End function
	.section	.text.read_vo,"ax",%progbits
	.hidden	read_vo                         @ -- Begin function read_vo
	.globl	read_vo
	.p2align	2
	.type	read_vo,%function
	.code	16                              @ @read_vo
	.thumb_func
read_vo:
.Lfunc_begin3:
	.loc	2 141 0 is_stmt 1               @ source/read_cpu.c:141:0
	.fnstart
	.cfi_startproc
@ %bb.0:
	.save	{r7, lr}
	push	{r7, lr}
	.cfi_def_cfa_offset 8
	.cfi_offset lr, -4
	.cfi_offset r7, -8
	.pad	#16
	sub	sp, #16
	.cfi_def_cfa_offset 24
	mov	r1, r0
                                        @ kill: def $r0 killed $r1
	add	r0, sp, #12
	strb	r1, [r0]
	add	r2, sp, #4
	movs	r1, #164
.Ltmp13:
	.loc	2 143 10 prologue_end           @ source/read_cpu.c:143:10
	strb	r1, [r2]
.Ltmp14:
	.loc	2 145 5                         @ source/read_cpu.c:145:5
	ldrb	r0, [r0]
.Ltmp15:
	.loc	2 145 5 is_stmt 0               @ source/read_cpu.c:145:5
	cmp	r0, #3
	bne	.LBB3_2
	b	.LBB3_1
.LBB3_1:
	.loc	2 0 5                           @ source/read_cpu.c:0:5
	add	r1, sp, #4
	movs	r0, #168
.Ltmp16:
	.loc	2 146 7 is_stmt 1               @ source/read_cpu.c:146:7
	strb	r0, [r1]
	.loc	2 147 3                         @ source/read_cpu.c:147:3
	b	.LBB3_2
.Ltmp17:
.LBB3_2:
	.loc	2 0 3 is_stmt 0                 @ source/read_cpu.c:0:3
	add	r0, sp, #12
	.loc	2 148 25 is_stmt 1              @ source/read_cpu.c:148:25
	ldrb	r0, [r0]
	add	r1, sp, #4
	.loc	2 148 37 is_stmt 0              @ source/read_cpu.c:148:37
	ldrb	r1, [r1]
	ldr	r3, __arm_cp.3_0
	.loc	2 148 62                        @ source/read_cpu.c:148:62
	muls	r3, r0, r3
	ldr	r2, __arm_cp.3_1
	adds	r3, r2, r3
	.loc	2 148 77                        @ source/read_cpu.c:148:77
	adds	r3, #24
	movs	r2, #2
	.loc	2 148 11                        @ source/read_cpu.c:148:11
	bl	read_cpu_fpga
	mov	r1, r0
	add	r0, sp, #8
	.loc	2 148 9                         @ source/read_cpu.c:148:9
	strb	r1, [r0]
	.loc	2 149 9 is_stmt 1               @ source/read_cpu.c:149:9
	ldrb	r0, [r0]
	.loc	2 149 2 epilogue_begin is_stmt 0 @ source/read_cpu.c:149:2
	add	sp, #16
	pop	{r7, pc}
.Ltmp18:
	.loc	2 0 2                           @ :0:2
.Ltmp19:
	.p2align	2
@ %bb.3:
__arm_cp.3_0:
	.long	1702                            @ 0x6a6
.Lcpi_end10:
	.size	__arm_cp.3_0, .Lcpi_end10-__arm_cp.3_0
__arm_cp.3_1:
	.long	pe
.Lcpi_end11:
	.size	__arm_cp.3_1, .Lcpi_end11-__arm_cp.3_1
.Lfunc_end3:
	.size	read_vo, .Lfunc_end3-read_vo
	.cfi_endproc
	.cantunwind
	.fnend
                                        @ -- End function
	.section	.text.read_lo,"ax",%progbits
	.hidden	read_lo                         @ -- Begin function read_lo
	.globl	read_lo
	.p2align	2
	.type	read_lo,%function
	.code	16                              @ @read_lo
	.thumb_func
read_lo:
.Lfunc_begin4:
	.loc	2 174 0 is_stmt 1               @ source/read_cpu.c:174:0
	.fnstart
	.cfi_startproc
@ %bb.0:
	.save	{r7, lr}
	push	{r7, lr}
	.cfi_def_cfa_offset 8
	.cfi_offset lr, -4
	.cfi_offset r7, -8
	.pad	#8
	sub	sp, #8
	.cfi_def_cfa_offset 16
	mov	r1, r0
                                        @ kill: def $r0 killed $r1
	add	r0, sp, #4
	strb	r1, [r0]
.Ltmp20:
	.loc	2 176 25 prologue_end           @ source/read_cpu.c:176:25
	ldrb	r0, [r0]
	ldr	r2, __arm_cp.4_0
	.loc	2 176 81 is_stmt 0              @ source/read_cpu.c:176:81
	muls	r2, r0, r2
	ldr	r1, __arm_cp.4_1
	adds	r3, r1, r2
	.loc	2 176 96                        @ source/read_cpu.c:176:96
	adds	r3, #26
	movs	r1, #169
	movs	r2, #6
	.loc	2 176 11                        @ source/read_cpu.c:176:11
	bl	read_cpu_fpga
	mov	r1, r0
	mov	r0, sp
	.loc	2 176 9                         @ source/read_cpu.c:176:9
	strb	r1, [r0]
	.loc	2 177 9 is_stmt 1               @ source/read_cpu.c:177:9
	ldrb	r0, [r0]
	.loc	2 177 2 epilogue_begin is_stmt 0 @ source/read_cpu.c:177:2
	add	sp, #8
	pop	{r7, pc}
.Ltmp21:
	.loc	2 0 2                           @ :0:2
.Ltmp22:
	.p2align	2
@ %bb.1:
__arm_cp.4_0:
	.long	1702                            @ 0x6a6
.Lcpi_end12:
	.size	__arm_cp.4_0, .Lcpi_end12-__arm_cp.4_0
__arm_cp.4_1:
	.long	pe
.Lcpi_end13:
	.size	__arm_cp.4_1, .Lcpi_end13-__arm_cp.4_1
.Lfunc_end4:
	.size	read_lo, .Lfunc_end4-read_lo
	.cfi_endproc
	.cantunwind
	.fnend
                                        @ -- End function
	.section	.text.read_flash_checksum,"ax",%progbits
	.hidden	read_flash_checksum             @ -- Begin function read_flash_checksum
	.globl	read_flash_checksum
	.p2align	2
	.type	read_flash_checksum,%function
	.code	16                              @ @read_flash_checksum
	.thumb_func
read_flash_checksum:
.Lfunc_begin5:
	.loc	2 199 0 is_stmt 1               @ source/read_cpu.c:199:0
	.fnstart
	.cfi_startproc
@ %bb.0:
	.save	{r7, lr}
	push	{r7, lr}
	.cfi_def_cfa_offset 8
	.cfi_offset lr, -4
	.cfi_offset r7, -8
	.pad	#16
	sub	sp, #16
	.cfi_def_cfa_offset 24
	mov	r1, r0
                                        @ kill: def $r0 killed $r1
	add	r0, sp, #12
	strb	r1, [r0]
.Ltmp23:
	.loc	2 204 25 prologue_end           @ source/read_cpu.c:204:25
	ldrb	r0, [r0]
	ldr	r2, __arm_cp.5_0
	.loc	2 204 68 is_stmt 0              @ source/read_cpu.c:204:68
	muls	r2, r0, r2
	ldr	r1, __arm_cp.5_1
	adds	r3, r1, r2
	.loc	2 204 78                        @ source/read_cpu.c:204:78
	adds	r3, #14
	movs	r1, #167
	movs	r2, #5
	.loc	2 204 11                        @ source/read_cpu.c:204:11
	bl	read_cpu_fpga
	add	r1, sp, #8
	.loc	2 204 9                         @ source/read_cpu.c:204:9
	strb	r0, [r1]
	.loc	2 208 2 is_stmt 1               @ source/read_cpu.c:208:2
	b	.LBB5_1
.LBB5_1:                                @ =>This Inner Loop Header: Depth=1
.Ltmp24:
	.loc	2 209 3                         @ source/read_cpu.c:209:3
	bl	spi_com_cpu_sm
	.loc	2 210 2                         @ source/read_cpu.c:210:2
	b	.LBB5_2
.Ltmp25:
.LBB5_2:                                @   in Loop: Header=BB5_1 Depth=1
	.loc	2 211 20                        @ source/read_cpu.c:211:20
	ldr	r0, __arm_cp.5_2
	ldrb	r0, [r0, #29]
.Ltmp26:
	.loc	2 210 2                         @ source/read_cpu.c:210:2
	cmp	r0, #0
	bne	.LBB5_1
	b	.LBB5_3
.Ltmp27:
.LBB5_3:
	.loc	2 213 17                        @ source/read_cpu.c:213:17
	ldr	r0, __arm_cp.5_2
	movs	r1, #32
	ldrb	r0, [r0, r1]
.Ltmp28:
	.loc	2 213 5 is_stmt 0               @ source/read_cpu.c:213:5
	cbz	r0, .LBB5_9
	b	.LBB5_4
.LBB5_4:
	.loc	2 0 5                           @ source/read_cpu.c:0:5
	add	r0, sp, #12
.Ltmp29:
	.loc	2 214 6 is_stmt 1               @ source/read_cpu.c:214:6
	ldrb	r0, [r0]
	ldr	r1, __arm_cp.5_0
	.loc	2 214 3 is_stmt 0               @ source/read_cpu.c:214:3
	muls	r1, r0, r1
	ldr	r0, __arm_cp.5_1
	adds	r1, r0, r1
	movs	r0, #1
	.loc	2 214 29                        @ source/read_cpu.c:214:29
	strb	r0, [r1, #4]
	add	r1, sp, #4
	movs	r0, #0
.Ltmp30:
	.loc	2 215 8 is_stmt 1               @ source/read_cpu.c:215:8
	strb	r0, [r1]
	.loc	2 215 7 is_stmt 0               @ source/read_cpu.c:215:7
	b	.LBB5_5
.LBB5_5:                                @ =>This Inner Loop Header: Depth=1
	.loc	2 0 7                           @ source/read_cpu.c:0:7
	add	r0, sp, #4
.Ltmp31:
	.loc	2 215 11                        @ source/read_cpu.c:215:11
	ldrb	r0, [r0]
	.loc	2 215 25                        @ source/read_cpu.c:215:25
	ldr	r1, __arm_cp.5_2
	ldrb	r1, [r1, #20]
.Ltmp32:
	.loc	2 215 3                         @ source/read_cpu.c:215:3
	cmp	r0, r1
	bge	.LBB5_8
	b	.LBB5_6
.LBB5_6:                                @   in Loop: Header=BB5_5 Depth=1
.Ltmp33:
	.loc	2 216 16 is_stmt 1              @ source/read_cpu.c:216:16
	ldr	r0, __arm_cp.5_2
	ldr	r1, [r0, #24]
	add	r0, sp, #4
	.loc	2 216 23 is_stmt 0              @ source/read_cpu.c:216:23
	ldrb	r2, [r0]
	movs	r0, #0
	.loc	2 216 26                        @ source/read_cpu.c:216:26
	strb	r0, [r1, r2]
	.loc	2 217 3 is_stmt 1               @ source/read_cpu.c:217:3
	b	.LBB5_7
.Ltmp34:
.LBB5_7:                                @   in Loop: Header=BB5_5 Depth=1
	.loc	2 215 32                        @ source/read_cpu.c:215:32
	ldr	r0, [sp, #4]
	adds	r0, r0, #1
	add	r1, sp, #4
	strb	r0, [r1]
	.loc	2 215 3 is_stmt 0               @ source/read_cpu.c:215:3
	b	.LBB5_5
.Ltmp35:
.LBB5_8:
	.loc	2 0 3                           @ source/read_cpu.c:0:3
	add	r1, sp, #8
	movs	r0, #1
	.loc	2 218 10 is_stmt 1              @ source/read_cpu.c:218:10
	strb	r0, [r1]
	.loc	2 219 2                         @ source/read_cpu.c:219:2
	b	.LBB5_14
.Ltmp36:
.LBB5_9:
	.loc	2 0 2 is_stmt 0                 @ source/read_cpu.c:0:2
	add	r0, sp, #12
.Ltmp37:
	.loc	2 221 6 is_stmt 1               @ source/read_cpu.c:221:6
	ldrb	r0, [r0]
	ldr	r1, __arm_cp.5_0
	.loc	2 221 3 is_stmt 0               @ source/read_cpu.c:221:3
	muls	r1, r0, r1
	ldr	r0, __arm_cp.5_1
	adds	r1, r0, r1
	movs	r0, #0
	.loc	2 221 29                        @ source/read_cpu.c:221:29
	strb	r0, [r1, #4]
	add	r1, sp, #4
.Ltmp38:
	.loc	2 222 8 is_stmt 1               @ source/read_cpu.c:222:8
	strb	r0, [r1]
	.loc	2 222 7 is_stmt 0               @ source/read_cpu.c:222:7
	b	.LBB5_10
.LBB5_10:                               @ =>This Inner Loop Header: Depth=1
	.loc	2 0 7                           @ source/read_cpu.c:0:7
	add	r0, sp, #4
.Ltmp39:
	.loc	2 222 11                        @ source/read_cpu.c:222:11
	ldrb	r0, [r0]
	.loc	2 222 25                        @ source/read_cpu.c:222:25
	ldr	r1, __arm_cp.5_2
	ldrb	r1, [r1, #20]
.Ltmp40:
	.loc	2 222 3                         @ source/read_cpu.c:222:3
	cmp	r0, r1
	bge	.LBB5_13
	b	.LBB5_11
.LBB5_11:                               @   in Loop: Header=BB5_10 Depth=1
.Ltmp41:
	.loc	2 223 40 is_stmt 1              @ source/read_cpu.c:223:40
	ldr	r1, __arm_cp.5_2
	ldr	r0, [r1, #16]
	add	r2, sp, #4
	.loc	2 223 46 is_stmt 0              @ source/read_cpu.c:223:46
	ldrb	r2, [r2]
	.loc	2 223 28                        @ source/read_cpu.c:223:28
	ldrb	r0, [r0, r2]
	.loc	2 223 16                        @ source/read_cpu.c:223:16
	ldr	r1, [r1, #24]
	.loc	2 223 26                        @ source/read_cpu.c:223:26
	strb	r0, [r1, r2]
	.loc	2 224 3 is_stmt 1               @ source/read_cpu.c:224:3
	b	.LBB5_12
.Ltmp42:
.LBB5_12:                               @   in Loop: Header=BB5_10 Depth=1
	.loc	2 222 32                        @ source/read_cpu.c:222:32
	ldr	r0, [sp, #4]
	adds	r0, r0, #1
	add	r1, sp, #4
	strb	r0, [r1]
	.loc	2 222 3 is_stmt 0               @ source/read_cpu.c:222:3
	b	.LBB5_10
.Ltmp43:
.LBB5_13:
	.loc	2 0 3                           @ source/read_cpu.c:0:3
	add	r1, sp, #8
	movs	r0, #0
	.loc	2 225 10 is_stmt 1              @ source/read_cpu.c:225:10
	strb	r0, [r1]
	b	.LBB5_14
.Ltmp44:
.LBB5_14:
	.loc	2 0 10 is_stmt 0                @ source/read_cpu.c:0:10
	add	r0, sp, #8
	.loc	2 227 9 is_stmt 1               @ source/read_cpu.c:227:9
	ldrb	r0, [r0]
	.loc	2 227 2 epilogue_begin is_stmt 0 @ source/read_cpu.c:227:2
	add	sp, #16
	pop	{r7, pc}
.Ltmp45:
	.loc	2 0 2                           @ :0:2
.Ltmp46:
	.p2align	2
@ %bb.15:
__arm_cp.5_0:
	.long	1702                            @ 0x6a6
.Lcpi_end14:
	.size	__arm_cp.5_0, .Lcpi_end14-__arm_cp.5_0
__arm_cp.5_1:
	.long	pe
.Lcpi_end15:
	.size	__arm_cp.5_1, .Lcpi_end15-__arm_cp.5_1
__arm_cp.5_2:
	.long	spi_com_cpu
.Lcpi_end16:
	.size	__arm_cp.5_2, .Lcpi_end16-__arm_cp.5_2
.Lfunc_end5:
	.size	read_flash_checksum, .Lfunc_end5-read_flash_checksum
	.cfi_endproc
	.cantunwind
	.fnend
                                        @ -- End function
	.section	.text.spi_com_cpu_sm,"ax",%progbits
	.hidden	spi_com_cpu_sm                  @ -- Begin function spi_com_cpu_sm
	.globl	spi_com_cpu_sm
	.p2align	2
	.type	spi_com_cpu_sm,%function
	.code	16                              @ @spi_com_cpu_sm
	.thumb_func
spi_com_cpu_sm:
.Lfunc_begin6:
	.loc	2 769 0 is_stmt 1               @ source/read_cpu.c:769:0
	.fnstart
	.cfi_startproc
@ %bb.0:
	.save	{r4, lr}
	push	{r4, lr}
	.cfi_def_cfa_offset 8
	.cfi_offset lr, -4
	.cfi_offset r4, -8
	.pad	#48
	sub	sp, #48
	.cfi_def_cfa_offset 56
	add	r1, sp, #40
	movs	r0, #0
.Ltmp47:
	.loc	2 772 10 prologue_end           @ source/read_cpu.c:772:10
	strb	r0, [r1]
	.loc	2 776 9                         @ source/read_cpu.c:776:9
	ldr	r0, __arm_cp.6_0
	ldrb	r0, [r0]
	.loc	2 776 2 is_stmt 0               @ source/read_cpu.c:776:2
	str	r0, [sp, #32]                   @ 4-byte Spill
	cmp	r0, #3
	bls	.LBB6_1
	b	.LBB6_40
.LBB6_1:
	ldr	r1, [sp, #32]                   @ 4-byte Reload
	lsls	r2, r1, #2
	adr	r0, .LJTI6_0
	adds	r0, r0, r2
	mov	pc, r0
@ %bb.2:
	.loc	2 0 2                           @ source/read_cpu.c:0:2
	.p2align	2
.LJTI6_0:
	b.w	.LBB6_3
	b.w	.LBB6_10
	b.w	.LBB6_13
	b.w	.LBB6_20
.LBB6_3:
.Ltmp48:
	.loc	2 778 19 is_stmt 1              @ source/read_cpu.c:778:19
	ldr	r0, __arm_cp.6_1
	ldrb	r0, [r0, #28]
.Ltmp49:
	.loc	2 778 6 is_stmt 0               @ source/read_cpu.c:778:6
	cbnz	r0, .LBB6_5
	b	.LBB6_4
.LBB6_4:
.Ltmp50:
	.loc	2 779 4 is_stmt 1               @ source/read_cpu.c:779:4
	b	.LBB6_41
.Ltmp51:
.LBB6_5:
	.loc	2 781 22                        @ source/read_cpu.c:781:22
	ldr	r1, __arm_cp.6_1
	str	r1, [sp, #24]                   @ 4-byte Spill
	movs	r0, #0
	str	r0, [sp, #28]                   @ 4-byte Spill
	strb	r0, [r1, #28]
	movs	r0, #1
	.loc	2 782 22                        @ source/read_cpu.c:782:22
	strb	r0, [r1, #29]
	.loc	2 784 26                        @ source/read_cpu.c:784:26
	ldr	r0, [r1]
	.loc	2 784 32 is_stmt 0              @ source/read_cpu.c:784:32
	ldr	r0, [r0]
	.loc	2 784 48                        @ source/read_cpu.c:784:48
	ldrb	r1, [r1, #5]
	.loc	2 784 3                         @ source/read_cpu.c:784:3
	bl	fifo_write
	ldr	r1, [sp, #24]                   @ 4-byte Reload
                                        @ kill: def $r2 killed $r0
	.loc	2 785 12 is_stmt 1              @ source/read_cpu.c:785:12
	ldr	r0, [sp, #28]                   @ 4-byte Reload
	ldrb	r2, [r1, #5]
	.loc	2 785 9 is_stmt 0               @ source/read_cpu.c:785:9
	ldr	r1, [sp, #40]
	adds	r1, r1, r2
	add	r2, sp, #40
	strb	r1, [r2]
	add	r1, sp, #44
.Ltmp52:
	.loc	2 787 8 is_stmt 1               @ source/read_cpu.c:787:8
	strb	r0, [r1]
	.loc	2 787 7 is_stmt 0               @ source/read_cpu.c:787:7
	b	.LBB6_6
.LBB6_6:                                @ =>This Inner Loop Header: Depth=1
	.loc	2 0 7                           @ source/read_cpu.c:0:7
	add	r0, sp, #44
.Ltmp53:
	.loc	2 787 11                        @ source/read_cpu.c:787:11
	ldrb	r0, [r0]
	.loc	2 787 25                        @ source/read_cpu.c:787:25
	ldr	r1, __arm_cp.6_1
	ldrb	r1, [r1, #12]
.Ltmp54:
	.loc	2 787 3                         @ source/read_cpu.c:787:3
	cmp	r0, r1
	bge	.LBB6_9
	b	.LBB6_7
.LBB6_7:                                @   in Loop: Header=BB6_6 Depth=1
.Ltmp55:
	.loc	2 788 27 is_stmt 1              @ source/read_cpu.c:788:27
	ldr	r1, __arm_cp.6_1
	str	r1, [sp, #20]                   @ 4-byte Spill
	ldr	r0, [r1]
	.loc	2 788 33 is_stmt 0              @ source/read_cpu.c:788:33
	ldr	r0, [r0]
	.loc	2 788 49                        @ source/read_cpu.c:788:49
	ldr	r1, [r1, #8]
	add	r2, sp, #44
	.loc	2 788 55                        @ source/read_cpu.c:788:55
	str	r2, [sp, #16]                   @ 4-byte Spill
	ldrb	r2, [r2]
	.loc	2 788 37                        @ source/read_cpu.c:788:37
	ldrb	r1, [r1, r2]
	.loc	2 788 4                         @ source/read_cpu.c:788:4
	bl	fifo_write
	ldr	r1, [sp, #16]                   @ 4-byte Reload
                                        @ kill: def $r2 killed $r0
	.loc	2 789 25 is_stmt 1              @ source/read_cpu.c:789:25
	ldr	r0, [sp, #20]                   @ 4-byte Reload
	ldr	r0, [r0, #8]
	.loc	2 789 31 is_stmt 0              @ source/read_cpu.c:789:31
	ldrb	r1, [r1]
	.loc	2 789 13                        @ source/read_cpu.c:789:13
	ldrb	r1, [r0, r1]
	.loc	2 789 10                        @ source/read_cpu.c:789:10
	ldr	r0, [sp, #40]
	adds	r0, r0, r1
	add	r1, sp, #40
	strb	r0, [r1]
	.loc	2 790 3 is_stmt 1               @ source/read_cpu.c:790:3
	b	.LBB6_8
.Ltmp56:
.LBB6_8:                                @   in Loop: Header=BB6_6 Depth=1
	.loc	2 787 32                        @ source/read_cpu.c:787:32
	ldr	r0, [sp, #44]
	adds	r0, r0, #1
	add	r1, sp, #44
	strb	r0, [r1]
	.loc	2 787 3 is_stmt 0               @ source/read_cpu.c:787:3
	b	.LBB6_6
.Ltmp57:
.LBB6_9:
	.loc	2 791 26 is_stmt 1              @ source/read_cpu.c:791:26
	ldr	r0, __arm_cp.6_1
	str	r0, [sp, #12]                   @ 4-byte Spill
	ldr	r0, [r0]
	.loc	2 791 32 is_stmt 0              @ source/read_cpu.c:791:32
	ldr	r0, [r0]
	add	r1, sp, #40
	.loc	2 791 36                        @ source/read_cpu.c:791:36
	str	r1, [sp, #8]                    @ 4-byte Spill
	ldrb	r1, [r1]
	.loc	2 791 3                         @ source/read_cpu.c:791:3
	bl	fifo_write
	ldr	r1, [sp, #8]                    @ 4-byte Reload
                                        @ kill: def $r2 killed $r0
	.loc	2 792 26 is_stmt 1              @ source/read_cpu.c:792:26
	ldr	r0, [sp, #12]                   @ 4-byte Reload
	ldr	r0, [r0]
	.loc	2 792 32 is_stmt 0              @ source/read_cpu.c:792:32
	ldr	r0, [r0]
	.loc	2 792 37                        @ source/read_cpu.c:792:37
	ldrb	r1, [r1]
	movs	r2, #255
	.loc	2 792 3                         @ source/read_cpu.c:792:3
	eors	r1, r2
	bl	fifo_write
	ldr	r1, [sp, #12]                   @ 4-byte Reload
	.loc	2 795 32 is_stmt 1              @ source/read_cpu.c:795:32
	ldr	r0, [r1]
	.loc	2 795 49 is_stmt 0              @ source/read_cpu.c:795:49
	ldrb	r1, [r1, #4]
	.loc	2 795 3                         @ source/read_cpu.c:795:3
	bl	spi_master_write
	.loc	2 796 9 is_stmt 1               @ source/read_cpu.c:796:9
	ldr	r1, __arm_cp.6_0
	movs	r0, #1
	strb	r0, [r1]
	.loc	2 797 3                         @ source/read_cpu.c:797:3
	b	.LBB6_41
.LBB6_10:
.Ltmp58:
	.loc	2 801 18                        @ source/read_cpu.c:801:18
	ldr	r0, __arm_cp.6_1
	ldr	r0, [r0]
	.loc	2 801 24 is_stmt 0              @ source/read_cpu.c:801:24
	ldrb	r0, [r0, #29]
.Ltmp59:
	.loc	2 801 6                         @ source/read_cpu.c:801:6
	cmp	r0, #1
	bne	.LBB6_12
	b	.LBB6_11
.LBB6_11:
.Ltmp60:
	.loc	2 802 10 is_stmt 1              @ source/read_cpu.c:802:10
	ldr	r1, __arm_cp.6_0
	movs	r0, #2
	strb	r0, [r1]
	.loc	2 804 27                        @ source/read_cpu.c:804:27
	ldr	r0, __arm_cp.6_1
	ldr	r0, [r0]
	.loc	2 804 33 is_stmt 0              @ source/read_cpu.c:804:33
	ldr	r0, [r0, #4]
	.loc	2 804 4                         @ source/read_cpu.c:804:4
	bl	fifo_reset
	.loc	2 805 14 is_stmt 1              @ source/read_cpu.c:805:14
	ldr	r1, __arm_cp.6_5
	movs	r0, #10
	str	r0, [r1]
	.loc	2 806 3                         @ source/read_cpu.c:806:3
	b	.LBB6_12
.Ltmp61:
.LBB6_12:
	.loc	2 807 3                         @ source/read_cpu.c:807:3
	b	.LBB6_41
.LBB6_13:
.Ltmp62:
	.loc	2 810 6                         @ source/read_cpu.c:810:6
	ldr	r0, __arm_cp.6_5
	ldr	r0, [r0]
.Ltmp63:
	.loc	2 810 6 is_stmt 0               @ source/read_cpu.c:810:6
	cbnz	r0, .LBB6_19
	b	.LBB6_14
.LBB6_14:
.Ltmp64:
	.loc	2 811 10 is_stmt 1              @ source/read_cpu.c:811:10
	ldr	r1, __arm_cp.6_0
	movs	r0, #3
	strb	r0, [r1]
	add	r1, sp, #44
	movs	r0, #0
.Ltmp65:
	.loc	2 813 9                         @ source/read_cpu.c:813:9
	strb	r0, [r1]
	.loc	2 813 8 is_stmt 0               @ source/read_cpu.c:813:8
	b	.LBB6_15
.LBB6_15:                               @ =>This Inner Loop Header: Depth=1
	.loc	2 0 8                           @ source/read_cpu.c:0:8
	add	r0, sp, #44
.Ltmp66:
	.loc	2 813 12                        @ source/read_cpu.c:813:12
	ldrb	r0, [r0]
	.loc	2 813 27                        @ source/read_cpu.c:813:27
	ldr	r1, __arm_cp.6_1
	ldrb	r1, [r1, #20]
	.loc	2 813 33                        @ source/read_cpu.c:813:33
	adds	r1, r1, #2
.Ltmp67:
	.loc	2 813 4                         @ source/read_cpu.c:813:4
	cmp	r0, r1
	bhs	.LBB6_18
	b	.LBB6_16
.LBB6_16:                               @   in Loop: Header=BB6_15 Depth=1
.Ltmp68:
	.loc	2 814 28 is_stmt 1              @ source/read_cpu.c:814:28
	ldr	r0, __arm_cp.6_1
	ldr	r0, [r0]
	.loc	2 814 34 is_stmt 0              @ source/read_cpu.c:814:34
	ldr	r0, [r0]
	movs	r1, #255
	.loc	2 814 5                         @ source/read_cpu.c:814:5
	bl	fifo_write
	.loc	2 815 4 is_stmt 1               @ source/read_cpu.c:815:4
	b	.LBB6_17
.Ltmp69:
.LBB6_17:                               @   in Loop: Header=BB6_15 Depth=1
	.loc	2 813 40                        @ source/read_cpu.c:813:40
	ldr	r0, [sp, #44]
	adds	r0, r0, #1
	add	r1, sp, #44
	strb	r0, [r1]
	.loc	2 813 4 is_stmt 0               @ source/read_cpu.c:813:4
	b	.LBB6_15
.Ltmp70:
.LBB6_18:
	.loc	2 817 32 is_stmt 1              @ source/read_cpu.c:817:32
	ldr	r1, __arm_cp.6_1
	ldr	r0, [r1]
	.loc	2 817 49 is_stmt 0              @ source/read_cpu.c:817:49
	ldrb	r1, [r1, #4]
	.loc	2 817 4                         @ source/read_cpu.c:817:4
	bl	spi_master_read
	.loc	2 818 3 is_stmt 1               @ source/read_cpu.c:818:3
	b	.LBB6_19
.Ltmp71:
.LBB6_19:
	.loc	2 819 3                         @ source/read_cpu.c:819:3
	b	.LBB6_41
.LBB6_20:
.Ltmp72:
	.loc	2 823 18                        @ source/read_cpu.c:823:18
	ldr	r0, __arm_cp.6_1
	ldr	r0, [r0]
	.loc	2 823 24 is_stmt 0              @ source/read_cpu.c:823:24
	ldrb	r0, [r0, #29]
.Ltmp73:
	.loc	2 823 6                         @ source/read_cpu.c:823:6
	cmp	r0, #1
	bne	.LBB6_39
	b	.LBB6_21
.LBB6_21:
	.loc	2 0 6                           @ source/read_cpu.c:0:6
	add	r1, sp, #40
	movs	r0, #0
.Ltmp74:
	.loc	2 824 10 is_stmt 1              @ source/read_cpu.c:824:10
	strb	r0, [r1]
	add	r1, sp, #44
.Ltmp75:
	.loc	2 825 9                         @ source/read_cpu.c:825:9
	strb	r0, [r1]
	.loc	2 825 8 is_stmt 0               @ source/read_cpu.c:825:8
	b	.LBB6_22
.LBB6_22:                               @ =>This Inner Loop Header: Depth=1
	.loc	2 0 8                           @ source/read_cpu.c:0:8
	add	r0, sp, #44
.Ltmp76:
	.loc	2 825 12                        @ source/read_cpu.c:825:12
	ldrb	r0, [r0]
	.loc	2 825 27                        @ source/read_cpu.c:825:27
	ldr	r1, __arm_cp.6_1
	ldrb	r1, [r1, #20]
	.loc	2 825 33                        @ source/read_cpu.c:825:33
	adds	r1, r1, #2
.Ltmp77:
	.loc	2 825 4                         @ source/read_cpu.c:825:4
	cmp	r0, r1
	bhs	.LBB6_32
	b	.LBB6_23
.LBB6_23:                               @   in Loop: Header=BB6_22 Depth=1
.Ltmp78:
	.loc	2 826 20 is_stmt 1              @ source/read_cpu.c:826:20
	ldr	r0, __arm_cp.6_1
	ldr	r0, [r0]
	.loc	2 826 26 is_stmt 0              @ source/read_cpu.c:826:26
	ldr	r0, [r0, #4]
	.loc	2 826 31                        @ source/read_cpu.c:826:31
	ldrb	r0, [r0, #12]
.Ltmp79:
	.loc	2 826 8                         @ source/read_cpu.c:826:8
	cbz	r0, .LBB6_28
	b	.LBB6_24
.LBB6_24:
.Ltmp80:
	.loc	2 827 21 is_stmt 1              @ source/read_cpu.c:827:21
	ldr	r0, __arm_cp.6_1
	ldr	r0, [r0]
	.loc	2 827 26 is_stmt 0              @ source/read_cpu.c:827:26
	ldr	r1, __arm_cp.6_2
.Ltmp81:
	.loc	2 827 9                         @ source/read_cpu.c:827:9
	cmp	r0, r1
	beq	.LBB6_26
	b	.LBB6_25
.LBB6_25:
.Ltmp82:
	.loc	2 828 62 is_stmt 1              @ source/read_cpu.c:828:62
	ldr	r0, __arm_cp.6_1
	ldrb	r1, [r0, #4]
	.loc	2 828 83 is_stmt 0              @ source/read_cpu.c:828:83
	ldrb	r2, [r0, #5]
	.loc	2 828 7                         @ source/read_cpu.c:828:7
	ldr	r0, __arm_cp.6_4
	bl	printf
	.loc	2 829 6 is_stmt 1               @ source/read_cpu.c:829:6
	b	.LBB6_27
.Ltmp83:
.LBB6_26:
	.loc	2 832 61                        @ source/read_cpu.c:832:61
	ldr	r0, __arm_cp.6_1
	ldrb	r1, [r0, #5]
	.loc	2 832 7 is_stmt 0               @ source/read_cpu.c:832:7
	ldr	r0, __arm_cp.6_3
	bl	printf
	b	.LBB6_27
.Ltmp84:
.LBB6_27:
	.loc	2 835 25 is_stmt 1              @ source/read_cpu.c:835:25
	ldr	r1, __arm_cp.6_1
	movs	r2, #32
	movs	r0, #1
	strb	r0, [r1, r2]
	movs	r0, #0
	.loc	2 836 25                        @ source/read_cpu.c:836:25
	strb	r0, [r1, #29]
	.loc	2 837 6                         @ source/read_cpu.c:837:6
	b	.LBB6_32
.Ltmp85:
.LBB6_28:                               @   in Loop: Header=BB6_22 Depth=1
	.loc	2 839 27                        @ source/read_cpu.c:839:27
	ldr	r0, __arm_cp.6_1
	str	r0, [sp, #4]                    @ 4-byte Spill
	ldr	r0, [r0]
	.loc	2 839 33 is_stmt 0              @ source/read_cpu.c:839:33
	ldr	r0, [r0, #4]
	add	r1, sp, #36
	.loc	2 839 5                         @ source/read_cpu.c:839:5
	bl	fifo_read
	ldr	r1, [sp, #4]                    @ 4-byte Reload
	.loc	2 840 28 is_stmt 1              @ source/read_cpu.c:840:28
	ldr	r2, [sp, #36]
	.loc	2 840 17 is_stmt 0              @ source/read_cpu.c:840:17
	ldr	r3, [r1, #16]
	add	r0, sp, #44
	.loc	2 840 23                        @ source/read_cpu.c:840:23
	ldrb	r4, [r0]
	.loc	2 840 26                        @ source/read_cpu.c:840:26
	strb	r2, [r3, r4]
.Ltmp86:
	.loc	2 841 8 is_stmt 1               @ source/read_cpu.c:841:8
	ldrb	r0, [r0]
	.loc	2 841 23 is_stmt 0              @ source/read_cpu.c:841:23
	ldrb	r1, [r1, #20]
.Ltmp87:
	.loc	2 841 8                         @ source/read_cpu.c:841:8
	cmp	r0, r1
	bge	.LBB6_30
	b	.LBB6_29
.LBB6_29:                               @   in Loop: Header=BB6_22 Depth=1
.Ltmp88:
	.loc	2 842 15 is_stmt 1              @ source/read_cpu.c:842:15
	ldr	r1, [sp, #36]
	.loc	2 842 12 is_stmt 0              @ source/read_cpu.c:842:12
	ldr	r0, [sp, #40]
	adds	r0, r0, r1
	add	r1, sp, #40
	strb	r0, [r1]
	.loc	2 843 5 is_stmt 1               @ source/read_cpu.c:843:5
	b	.LBB6_30
.Ltmp89:
.LBB6_30:                               @   in Loop: Header=BB6_22 Depth=1
	.loc	2 844 4                         @ source/read_cpu.c:844:4
	b	.LBB6_31
.Ltmp90:
.LBB6_31:                               @   in Loop: Header=BB6_22 Depth=1
	.loc	2 825 40                        @ source/read_cpu.c:825:40
	ldr	r0, [sp, #44]
	adds	r0, r0, #1
	add	r1, sp, #44
	strb	r0, [r1]
	.loc	2 825 4 is_stmt 0               @ source/read_cpu.c:825:4
	b	.LBB6_22
.Ltmp91:
.LBB6_32:
	.loc	2 846 23 is_stmt 1              @ source/read_cpu.c:846:23
	ldr	r0, __arm_cp.6_1
	movs	r2, #32
	movs	r1, #0
	strb	r1, [r0, r2]
.Ltmp92:
	.loc	2 848 18                        @ source/read_cpu.c:848:18
	ldr	r0, [r0]
	.loc	2 848 23 is_stmt 0              @ source/read_cpu.c:848:23
	ldr	r1, __arm_cp.6_2
.Ltmp93:
	.loc	2 848 6                         @ source/read_cpu.c:848:6
	cmp	r0, r1
	bne	.LBB6_34
	b	.LBB6_33
.LBB6_33:
.Ltmp94:
	.loc	2 851 3 is_stmt 1               @ source/read_cpu.c:851:3
	b	.LBB6_34
.Ltmp95:
.LBB6_34:
	.loc	2 0 3 is_stmt 0                 @ source/read_cpu.c:0:3
	add	r0, sp, #40
.Ltmp96:
	.loc	2 853 6 is_stmt 1               @ source/read_cpu.c:853:6
	ldrb	r0, [r0]
	.loc	2 853 27 is_stmt 0              @ source/read_cpu.c:853:27
	ldr	r2, __arm_cp.6_1
	ldr	r1, [r2, #16]
	.loc	2 853 45                        @ source/read_cpu.c:853:45
	ldrb	r2, [r2, #20]
	.loc	2 853 15                        @ source/read_cpu.c:853:15
	ldrb	r1, [r1, r2]
.Ltmp97:
	.loc	2 853 6                         @ source/read_cpu.c:853:6
	cmp	r0, r1
	beq	.LBB6_36
	b	.LBB6_35
.LBB6_35:
.Ltmp98:
	.loc	2 854 23 is_stmt 1              @ source/read_cpu.c:854:23
	ldr	r1, __arm_cp.6_1
	movs	r2, #32
	movs	r0, #1
	strb	r0, [r1, r2]
	.loc	2 855 3                         @ source/read_cpu.c:855:3
	b	.LBB6_36
.Ltmp99:
.LBB6_36:
	.loc	2 856 12                        @ source/read_cpu.c:856:12
	ldr	r0, [sp, #40]
	.loc	2 856 11 is_stmt 0              @ source/read_cpu.c:856:11
	mvns	r1, r0
	add	r0, sp, #40
	.loc	2 856 9                         @ source/read_cpu.c:856:9
	strb	r1, [r0]
.Ltmp100:
	.loc	2 857 6 is_stmt 1               @ source/read_cpu.c:857:6
	ldrb	r0, [r0]
	.loc	2 857 27 is_stmt 0              @ source/read_cpu.c:857:27
	ldr	r1, __arm_cp.6_1
	ldr	r2, [r1, #16]
	.loc	2 857 45                        @ source/read_cpu.c:857:45
	ldrb	r1, [r1, #20]
	.loc	2 857 51                        @ source/read_cpu.c:857:51
	adds	r1, r1, r2
	.loc	2 857 15                        @ source/read_cpu.c:857:15
	ldrb	r1, [r1, #1]
.Ltmp101:
	.loc	2 857 6                         @ source/read_cpu.c:857:6
	cmp	r0, r1
	beq	.LBB6_38
	b	.LBB6_37
.LBB6_37:
.Ltmp102:
	.loc	2 858 23 is_stmt 1              @ source/read_cpu.c:858:23
	ldr	r1, __arm_cp.6_1
	movs	r2, #32
	movs	r0, #1
	strb	r0, [r1, r2]
	.loc	2 859 3                         @ source/read_cpu.c:859:3
	b	.LBB6_38
.Ltmp103:
.LBB6_38:
	.loc	2 861 9                         @ source/read_cpu.c:861:9
	ldr	r1, __arm_cp.6_0
	movs	r0, #0
	strb	r0, [r1]
	.loc	2 862 23                        @ source/read_cpu.c:862:23
	ldr	r1, __arm_cp.6_1
	strb	r0, [r1, #29]
	.loc	2 863 3                         @ source/read_cpu.c:863:3
	b	.LBB6_39
.Ltmp104:
.LBB6_39:
	.loc	2 864 3                         @ source/read_cpu.c:864:3
	b	.LBB6_41
.LBB6_40:
	.loc	2 866 9                         @ source/read_cpu.c:866:9
	ldr	r1, __arm_cp.6_0
	movs	r0, #0
	strb	r0, [r1]
	.loc	2 867 6                         @ source/read_cpu.c:867:6
	b	.LBB6_41
.Ltmp105:
.LBB6_41:
	.loc	2 869 1 epilogue_begin          @ source/read_cpu.c:869:1
	add	sp, #48
	pop	{r4, pc}
.Ltmp106:
	.loc	2 0 1 is_stmt 0                 @ :0:1
.Ltmp107:
	.p2align	2
@ %bb.42:
__arm_cp.6_0:
	.long	spi_com_cpu_sm.state
.Lcpi_end17:
	.size	__arm_cp.6_0, .Lcpi_end17-__arm_cp.6_0
__arm_cp.6_1:
	.long	spi_com_cpu
.Lcpi_end18:
	.size	__arm_cp.6_1, .Lcpi_end18-__arm_cp.6_1
__arm_cp.6_2:
	.long	spi_fpga
.Lcpi_end19:
	.size	__arm_cp.6_2, .Lcpi_end19-__arm_cp.6_2
__arm_cp.6_3:
	.long	.L.str.1
.Lcpi_end20:
	.size	__arm_cp.6_3, .Lcpi_end20-__arm_cp.6_3
__arm_cp.6_4:
	.long	.L.str
.Lcpi_end21:
	.size	__arm_cp.6_4, .Lcpi_end21-__arm_cp.6_4
__arm_cp.6_5:
	.long	wait_time
.Lcpi_end22:
	.size	__arm_cp.6_5, .Lcpi_end22-__arm_cp.6_5
.Lfunc_end6:
	.size	spi_com_cpu_sm, .Lfunc_end6-spi_com_cpu_sm
	.cfi_endproc
	.cantunwind
	.fnend
                                        @ -- End function
	.section	.text.read_nvo,"ax",%progbits
	.hidden	read_nvo                        @ -- Begin function read_nvo
	.globl	read_nvo
	.p2align	2
	.type	read_nvo,%function
	.code	16                              @ @read_nvo
	.thumb_func
read_nvo:
.Lfunc_begin7:
	.loc	2 250 0 is_stmt 1               @ source/read_cpu.c:250:0
	.fnstart
	.cfi_startproc
@ %bb.0:
	.save	{r7, lr}
	push	{r7, lr}
	.cfi_def_cfa_offset 8
	.cfi_offset lr, -4
	.cfi_offset r7, -8
	.pad	#16
	sub	sp, #16
	.cfi_def_cfa_offset 24
.Ltmp108:
	.loc	2 256 11 prologue_end           @ source/read_cpu.c:256:11
	ldr	r0, __arm_cp.7_0
	ldr	r1, __arm_cp.7_1
	adds	r3, r0, r1
	movs	r0, #3
	movs	r1, #166
	movs	r2, #5
	bl	read_cpu_fpga
	mov	r1, r0
	add	r0, sp, #12
	.loc	2 256 9 is_stmt 0               @ source/read_cpu.c:256:9
	strb	r1, [r0]
	mov	r1, sp
	.loc	2 259 21 is_stmt 1              @ source/read_cpu.c:259:21
	ldrb	r2, [r1]
	lsls	r2, r2, #28
	lsrs	r2, r2, #31
	ldr	r3, __arm_cp.7_2
	.loc	2 259 11 is_stmt 0              @ source/read_cpu.c:259:11
	str	r2, [r3]
	.loc	2 260 21 is_stmt 1              @ source/read_cpu.c:260:21
	ldrb	r2, [r1]
	lsrs	r2, r2, #7
	ldr	r3, __arm_cp.7_3
	.loc	2 260 11 is_stmt 0              @ source/read_cpu.c:260:11
	str	r2, [r3]
	.loc	2 261 21 is_stmt 1              @ source/read_cpu.c:261:21
	ldrb	r2, [r1, #1]
	lsls	r2, r2, #30
	lsrs	r2, r2, #31
	ldr	r3, __arm_cp.7_4
	.loc	2 261 11 is_stmt 0              @ source/read_cpu.c:261:11
	str	r2, [r3]
	.loc	2 262 21 is_stmt 1              @ source/read_cpu.c:262:21
	ldrb	r1, [r1, #3]
	lsls	r1, r1, #25
	lsrs	r1, r1, #31
	ldr	r2, __arm_cp.7_5
	.loc	2 262 11 is_stmt 0              @ source/read_cpu.c:262:11
	str	r1, [r2]
	.loc	2 264 9 is_stmt 1               @ source/read_cpu.c:264:9
	ldrb	r0, [r0]
	.loc	2 264 2 epilogue_begin is_stmt 0 @ source/read_cpu.c:264:2
	add	sp, #16
	pop	{r7, pc}
.Ltmp109:
	.loc	2 0 2                           @ :0:2
.Ltmp110:
	.p2align	2
@ %bb.1:
__arm_cp.7_0:
	.long	pe
.Lcpi_end23:
	.size	__arm_cp.7_0, .Lcpi_end23-__arm_cp.7_0
__arm_cp.7_1:
	.long	5138                            @ 0x1412
.Lcpi_end24:
	.size	__arm_cp.7_1, .Lcpi_end24-__arm_cp.7_1
__arm_cp.7_2:
	.long	1073760288                      @ 0x40004820
.Lcpi_end25:
	.size	__arm_cp.7_2, .Lcpi_end25-__arm_cp.7_2
__arm_cp.7_3:
	.long	1073760600                      @ 0x40004958
.Lcpi_end26:
	.size	__arm_cp.7_3, .Lcpi_end26-__arm_cp.7_3
__arm_cp.7_4:
	.long	1073760596                      @ 0x40004954
.Lcpi_end27:
	.size	__arm_cp.7_4, .Lcpi_end27-__arm_cp.7_4
__arm_cp.7_5:
	.long	1073760592                      @ 0x40004950
.Lcpi_end28:
	.size	__arm_cp.7_5, .Lcpi_end28-__arm_cp.7_5
.Lfunc_end7:
	.size	read_nvo, .Lfunc_end7-read_nvo
	.cfi_endproc
	.cantunwind
	.fnend
                                        @ -- End function
	.section	.text.read_relay_fdbk,"ax",%progbits
	.hidden	read_relay_fdbk                 @ -- Begin function read_relay_fdbk
	.globl	read_relay_fdbk
	.p2align	2
	.type	read_relay_fdbk,%function
	.code	16                              @ @read_relay_fdbk
	.thumb_func
read_relay_fdbk:
.Lfunc_begin8:
	.loc	2 285 0 is_stmt 1               @ source/read_cpu.c:285:0
	.fnstart
	.cfi_startproc
@ %bb.0:
	.save	{r7, lr}
	push	{r7, lr}
	.cfi_def_cfa_offset 8
	.cfi_offset lr, -4
	.cfi_offset r7, -8
	.pad	#8
	sub	sp, #8
	.cfi_def_cfa_offset 16
.Ltmp111:
	.loc	2 289 11 prologue_end           @ source/read_cpu.c:289:11
	ldr	r0, __arm_cp.8_0
	ldr	r1, __arm_cp.8_1
	adds	r3, r0, r1
	movs	r0, #3
	movs	r1, #170
	movs	r2, #4
	bl	read_cpu_fpga
	mov	r1, r0
	add	r0, sp, #4
	.loc	2 289 9 is_stmt 0               @ source/read_cpu.c:289:9
	strb	r1, [r0]
	.loc	2 291 9 is_stmt 1               @ source/read_cpu.c:291:9
	ldrb	r0, [r0]
	.loc	2 291 2 epilogue_begin is_stmt 0 @ source/read_cpu.c:291:2
	add	sp, #8
	pop	{r7, pc}
.Ltmp112:
	.loc	2 0 2                           @ :0:2
.Ltmp113:
	.p2align	2
@ %bb.1:
__arm_cp.8_0:
	.long	pe
.Lcpi_end29:
	.size	__arm_cp.8_0, .Lcpi_end29-__arm_cp.8_0
__arm_cp.8_1:
	.long	5143                            @ 0x1417
.Lcpi_end30:
	.size	__arm_cp.8_1, .Lcpi_end30-__arm_cp.8_1
.Lfunc_end8:
	.size	read_relay_fdbk, .Lfunc_end8-read_relay_fdbk
	.cfi_endproc
	.cantunwind
	.fnend
                                        @ -- End function
	.section	.text.read_switch_settings,"ax",%progbits
	.hidden	read_switch_settings            @ -- Begin function read_switch_settings
	.globl	read_switch_settings
	.p2align	2
	.type	read_switch_settings,%function
	.code	16                              @ @read_switch_settings
	.thumb_func
read_switch_settings:
.Lfunc_begin9:
	.loc	2 316 0 is_stmt 1               @ source/read_cpu.c:316:0
	.fnstart
	.cfi_startproc
@ %bb.0:
	.save	{r7, lr}
	push	{r7, lr}
	.cfi_def_cfa_offset 8
	.cfi_offset lr, -4
	.cfi_offset r7, -8
	.pad	#16
	sub	sp, #16
	.cfi_def_cfa_offset 24
                                        @ kill: def $r1 killed $r0
	add	r1, sp, #12
	str	r1, [sp]                        @ 4-byte Spill
	strb	r0, [r1]
.Ltmp114:
	.loc	2 320 11 prologue_end           @ source/read_cpu.c:320:11
	ldr	r0, __arm_cp.9_0
	movw	r1, #5152
	adds	r3, r0, r1
	movs	r0, #3
	movs	r1, #171
	movs	r2, #4
	bl	read_cpu_fpga
	mov	r1, r0
	ldr	r0, [sp]                        @ 4-byte Reload
	add	r2, sp, #8
	.loc	2 320 9 is_stmt 0               @ source/read_cpu.c:320:9
	strb	r1, [r2]
.Ltmp115:
	.loc	2 322 5 is_stmt 1               @ source/read_cpu.c:322:5
	ldrb	r0, [r0]
.Ltmp116:
	.loc	2 322 5 is_stmt 0               @ source/read_cpu.c:322:5
	lsls	r0, r0, #31
	cmp	r0, #0
	beq	.LBB9_16
	b	.LBB9_1
.LBB9_1:
.Ltmp117:
	.loc	2 323 3 is_stmt 1               @ source/read_cpu.c:323:3
	b	.LBB9_2
.LBB9_2:                                @ =>This Inner Loop Header: Depth=1
.Ltmp118:
	.loc	2 324 4                         @ source/read_cpu.c:324:4
	bl	spi_com_fpga_sm
	.loc	2 325 3                         @ source/read_cpu.c:325:3
	b	.LBB9_3
.Ltmp119:
.LBB9_3:                                @   in Loop: Header=BB9_2 Depth=1
	.loc	2 326 22                        @ source/read_cpu.c:326:22
	ldr	r0, __arm_cp.9_1
	ldrb	r0, [r0, #29]
.Ltmp120:
	.loc	2 325 3                         @ source/read_cpu.c:325:3
	cmp	r0, #0
	bne	.LBB9_2
	b	.LBB9_4
.Ltmp121:
.LBB9_4:
	.loc	2 328 19                        @ source/read_cpu.c:328:19
	ldr	r0, __arm_cp.9_1
	movs	r1, #32
	ldrb	r0, [r0, r1]
.Ltmp122:
	.loc	2 328 6 is_stmt 0               @ source/read_cpu.c:328:6
	cbz	r0, .LBB9_10
	b	.LBB9_5
.LBB9_5:
.Ltmp123:
	.loc	2 329 26 is_stmt 1              @ source/read_cpu.c:329:26
	ldr	r1, __arm_cp.9_0
	ldr	r2, __arm_cp.9_2
	movs	r0, #1
	strb	r0, [r1, r2]
	add	r1, sp, #4
	movs	r0, #0
.Ltmp124:
	.loc	2 330 9                         @ source/read_cpu.c:330:9
	strb	r0, [r1]
	.loc	2 330 8 is_stmt 0               @ source/read_cpu.c:330:8
	b	.LBB9_6
.LBB9_6:                                @ =>This Inner Loop Header: Depth=1
	.loc	2 0 8                           @ source/read_cpu.c:0:8
	add	r0, sp, #4
.Ltmp125:
	.loc	2 330 12                        @ source/read_cpu.c:330:12
	ldrb	r0, [r0]
	.loc	2 330 27                        @ source/read_cpu.c:330:27
	ldr	r1, __arm_cp.9_1
	ldrb	r1, [r1, #20]
.Ltmp126:
	.loc	2 330 4                         @ source/read_cpu.c:330:4
	cmp	r0, r1
	bge	.LBB9_9
	b	.LBB9_7
.LBB9_7:                                @   in Loop: Header=BB9_6 Depth=1
.Ltmp127:
	.loc	2 331 19 is_stmt 1              @ source/read_cpu.c:331:19
	ldr	r0, __arm_cp.9_1
	ldr	r1, [r0, #24]
	add	r0, sp, #4
	.loc	2 331 26 is_stmt 0              @ source/read_cpu.c:331:26
	ldrb	r2, [r0]
	movs	r0, #0
	.loc	2 331 29                        @ source/read_cpu.c:331:29
	strb	r0, [r1, r2]
	.loc	2 332 4 is_stmt 1               @ source/read_cpu.c:332:4
	b	.LBB9_8
.Ltmp128:
.LBB9_8:                                @   in Loop: Header=BB9_6 Depth=1
	.loc	2 330 34                        @ source/read_cpu.c:330:34
	ldr	r0, [sp, #4]
	adds	r0, r0, #1
	add	r1, sp, #4
	strb	r0, [r1]
	.loc	2 330 4 is_stmt 0               @ source/read_cpu.c:330:4
	b	.LBB9_6
.Ltmp129:
.LBB9_9:
	.loc	2 0 4                           @ source/read_cpu.c:0:4
	add	r1, sp, #8
	movs	r0, #1
	.loc	2 333 11 is_stmt 1              @ source/read_cpu.c:333:11
	strb	r0, [r1]
	.loc	2 334 3                         @ source/read_cpu.c:334:3
	b	.LBB9_15
.Ltmp130:
.LBB9_10:
	.loc	2 336 26                        @ source/read_cpu.c:336:26
	ldr	r1, __arm_cp.9_0
	ldr	r2, __arm_cp.9_2
	movs	r0, #0
	strb	r0, [r1, r2]
	add	r1, sp, #4
.Ltmp131:
	.loc	2 337 9                         @ source/read_cpu.c:337:9
	strb	r0, [r1]
	.loc	2 337 8 is_stmt 0               @ source/read_cpu.c:337:8
	b	.LBB9_11
.LBB9_11:                               @ =>This Inner Loop Header: Depth=1
	.loc	2 0 8                           @ source/read_cpu.c:0:8
	add	r0, sp, #4
.Ltmp132:
	.loc	2 337 12                        @ source/read_cpu.c:337:12
	ldrb	r0, [r0]
	.loc	2 337 27                        @ source/read_cpu.c:337:27
	ldr	r1, __arm_cp.9_1
	ldrb	r1, [r1, #20]
.Ltmp133:
	.loc	2 337 4                         @ source/read_cpu.c:337:4
	cmp	r0, r1
	bge	.LBB9_14
	b	.LBB9_12
.LBB9_12:                               @   in Loop: Header=BB9_11 Depth=1
.Ltmp134:
	.loc	2 338 44 is_stmt 1              @ source/read_cpu.c:338:44
	ldr	r1, __arm_cp.9_1
	ldr	r0, [r1, #16]
	add	r2, sp, #4
	.loc	2 338 50 is_stmt 0              @ source/read_cpu.c:338:50
	ldrb	r2, [r2]
	.loc	2 338 31                        @ source/read_cpu.c:338:31
	ldrb	r0, [r0, r2]
	.loc	2 338 19                        @ source/read_cpu.c:338:19
	ldr	r1, [r1, #24]
	.loc	2 338 29                        @ source/read_cpu.c:338:29
	strb	r0, [r1, r2]
	.loc	2 339 4 is_stmt 1               @ source/read_cpu.c:339:4
	b	.LBB9_13
.Ltmp135:
.LBB9_13:                               @   in Loop: Header=BB9_11 Depth=1
	.loc	2 337 34                        @ source/read_cpu.c:337:34
	ldr	r0, [sp, #4]
	adds	r0, r0, #1
	add	r1, sp, #4
	strb	r0, [r1]
	.loc	2 337 4 is_stmt 0               @ source/read_cpu.c:337:4
	b	.LBB9_11
.Ltmp136:
.LBB9_14:
	.loc	2 0 4                           @ source/read_cpu.c:0:4
	add	r1, sp, #8
	movs	r0, #0
	.loc	2 340 11 is_stmt 1              @ source/read_cpu.c:340:11
	strb	r0, [r1]
	b	.LBB9_15
.Ltmp137:
.LBB9_15:
	.loc	2 342 2                         @ source/read_cpu.c:342:2
	b	.LBB9_16
.Ltmp138:
.LBB9_16:
	.loc	2 0 2 is_stmt 0                 @ source/read_cpu.c:0:2
	add	r0, sp, #8
	.loc	2 344 9 is_stmt 1               @ source/read_cpu.c:344:9
	ldrb	r0, [r0]
	.loc	2 344 2 epilogue_begin is_stmt 0 @ source/read_cpu.c:344:2
	add	sp, #16
	pop	{r7, pc}
.Ltmp139:
	.loc	2 0 2                           @ :0:2
.Ltmp140:
	.p2align	2
@ %bb.17:
__arm_cp.9_0:
	.long	pe
.Lcpi_end31:
	.size	__arm_cp.9_0, .Lcpi_end31-__arm_cp.9_0
__arm_cp.9_1:
	.long	spi_com_fpga
.Lcpi_end32:
	.size	__arm_cp.9_1, .Lcpi_end32-__arm_cp.9_1
__arm_cp.9_2:
	.long	5110                            @ 0x13f6
.Lcpi_end33:
	.size	__arm_cp.9_2, .Lcpi_end33-__arm_cp.9_2
.Lfunc_end9:
	.size	read_switch_settings, .Lfunc_end9-read_switch_settings
	.cfi_endproc
	.cantunwind
	.fnend
                                        @ -- End function
	.section	.text.spi_com_fpga_sm,"ax",%progbits
	.hidden	spi_com_fpga_sm                 @ -- Begin function spi_com_fpga_sm
	.globl	spi_com_fpga_sm
	.p2align	2
	.type	spi_com_fpga_sm,%function
	.code	16                              @ @spi_com_fpga_sm
	.thumb_func
spi_com_fpga_sm:
.Lfunc_begin10:
	.loc	2 904 0 is_stmt 1               @ source/read_cpu.c:904:0
	.fnstart
	.cfi_startproc
@ %bb.0:
	.save	{r4, lr}
	push	{r4, lr}
	.cfi_def_cfa_offset 8
	.cfi_offset lr, -4
	.cfi_offset r4, -8
	.pad	#48
	sub	sp, #48
	.cfi_def_cfa_offset 56
	add	r1, sp, #40
	movs	r0, #0
.Ltmp141:
	.loc	2 907 10 prologue_end           @ source/read_cpu.c:907:10
	strb	r0, [r1]
	.loc	2 911 9                         @ source/read_cpu.c:911:9
	ldr	r0, __arm_cp.10_0
	ldrb	r0, [r0]
	.loc	2 911 2 is_stmt 0               @ source/read_cpu.c:911:2
	str	r0, [sp, #32]                   @ 4-byte Spill
	cmp	r0, #3
	bls	.LBB10_1
	b	.LBB10_40
.LBB10_1:
	ldr	r1, [sp, #32]                   @ 4-byte Reload
	lsls	r2, r1, #2
	adr	r0, .LJTI10_0
	adds	r0, r0, r2
	mov	pc, r0
@ %bb.2:
	.loc	2 0 2                           @ source/read_cpu.c:0:2
	.p2align	2
.LJTI10_0:
	b.w	.LBB10_3
	b.w	.LBB10_10
	b.w	.LBB10_13
	b.w	.LBB10_20
.LBB10_3:
.Ltmp142:
	.loc	2 913 20 is_stmt 1              @ source/read_cpu.c:913:20
	ldr	r0, __arm_cp.10_1
	ldrb	r0, [r0, #28]
.Ltmp143:
	.loc	2 913 6 is_stmt 0               @ source/read_cpu.c:913:6
	cbnz	r0, .LBB10_5
	b	.LBB10_4
.LBB10_4:
.Ltmp144:
	.loc	2 914 4 is_stmt 1               @ source/read_cpu.c:914:4
	b	.LBB10_41
.Ltmp145:
.LBB10_5:
	.loc	2 916 23                        @ source/read_cpu.c:916:23
	ldr	r1, __arm_cp.10_1
	str	r1, [sp, #24]                   @ 4-byte Spill
	movs	r0, #0
	str	r0, [sp, #28]                   @ 4-byte Spill
	strb	r0, [r1, #28]
	movs	r0, #1
	.loc	2 917 23                        @ source/read_cpu.c:917:23
	strb	r0, [r1, #29]
	.loc	2 919 27                        @ source/read_cpu.c:919:27
	ldr	r0, [r1]
	.loc	2 919 33 is_stmt 0              @ source/read_cpu.c:919:33
	ldr	r0, [r0]
	.loc	2 919 50                        @ source/read_cpu.c:919:50
	ldrb	r1, [r1, #5]
	.loc	2 919 3                         @ source/read_cpu.c:919:3
	bl	fifo_write
	ldr	r1, [sp, #24]                   @ 4-byte Reload
                                        @ kill: def $r2 killed $r0
	.loc	2 920 12 is_stmt 1              @ source/read_cpu.c:920:12
	ldr	r0, [sp, #28]                   @ 4-byte Reload
	ldrb	r2, [r1, #5]
	.loc	2 920 9 is_stmt 0               @ source/read_cpu.c:920:9
	ldr	r1, [sp, #40]
	adds	r1, r1, r2
	add	r2, sp, #40
	strb	r1, [r2]
	add	r1, sp, #44
.Ltmp146:
	.loc	2 922 8 is_stmt 1               @ source/read_cpu.c:922:8
	strb	r0, [r1]
	.loc	2 922 7 is_stmt 0               @ source/read_cpu.c:922:7
	b	.LBB10_6
.LBB10_6:                               @ =>This Inner Loop Header: Depth=1
	.loc	2 0 7                           @ source/read_cpu.c:0:7
	add	r0, sp, #44
.Ltmp147:
	.loc	2 922 11                        @ source/read_cpu.c:922:11
	ldrb	r0, [r0]
	.loc	2 922 26                        @ source/read_cpu.c:922:26
	ldr	r1, __arm_cp.10_1
	ldrb	r1, [r1, #12]
.Ltmp148:
	.loc	2 922 3                         @ source/read_cpu.c:922:3
	cmp	r0, r1
	bge	.LBB10_9
	b	.LBB10_7
.LBB10_7:                               @   in Loop: Header=BB10_6 Depth=1
.Ltmp149:
	.loc	2 923 28 is_stmt 1              @ source/read_cpu.c:923:28
	ldr	r1, __arm_cp.10_1
	str	r1, [sp, #20]                   @ 4-byte Spill
	ldr	r0, [r1]
	.loc	2 923 34 is_stmt 0              @ source/read_cpu.c:923:34
	ldr	r0, [r0]
	.loc	2 923 51                        @ source/read_cpu.c:923:51
	ldr	r1, [r1, #8]
	add	r2, sp, #44
	.loc	2 923 57                        @ source/read_cpu.c:923:57
	str	r2, [sp, #16]                   @ 4-byte Spill
	ldrb	r2, [r2]
	.loc	2 923 38                        @ source/read_cpu.c:923:38
	ldrb	r1, [r1, r2]
	.loc	2 923 4                         @ source/read_cpu.c:923:4
	bl	fifo_write
	ldr	r1, [sp, #16]                   @ 4-byte Reload
                                        @ kill: def $r2 killed $r0
	.loc	2 924 26 is_stmt 1              @ source/read_cpu.c:924:26
	ldr	r0, [sp, #20]                   @ 4-byte Reload
	ldr	r0, [r0, #8]
	.loc	2 924 32 is_stmt 0              @ source/read_cpu.c:924:32
	ldrb	r1, [r1]
	.loc	2 924 13                        @ source/read_cpu.c:924:13
	ldrb	r1, [r0, r1]
	.loc	2 924 10                        @ source/read_cpu.c:924:10
	ldr	r0, [sp, #40]
	adds	r0, r0, r1
	add	r1, sp, #40
	strb	r0, [r1]
	.loc	2 925 3 is_stmt 1               @ source/read_cpu.c:925:3
	b	.LBB10_8
.Ltmp150:
.LBB10_8:                               @   in Loop: Header=BB10_6 Depth=1
	.loc	2 922 33                        @ source/read_cpu.c:922:33
	ldr	r0, [sp, #44]
	adds	r0, r0, #1
	add	r1, sp, #44
	strb	r0, [r1]
	.loc	2 922 3 is_stmt 0               @ source/read_cpu.c:922:3
	b	.LBB10_6
.Ltmp151:
.LBB10_9:
	.loc	2 926 27 is_stmt 1              @ source/read_cpu.c:926:27
	ldr	r0, __arm_cp.10_1
	str	r0, [sp, #12]                   @ 4-byte Spill
	ldr	r0, [r0]
	.loc	2 926 33 is_stmt 0              @ source/read_cpu.c:926:33
	ldr	r0, [r0]
	add	r1, sp, #40
	.loc	2 926 37                        @ source/read_cpu.c:926:37
	str	r1, [sp, #8]                    @ 4-byte Spill
	ldrb	r1, [r1]
	.loc	2 926 3                         @ source/read_cpu.c:926:3
	bl	fifo_write
	ldr	r1, [sp, #8]                    @ 4-byte Reload
                                        @ kill: def $r2 killed $r0
	.loc	2 927 27 is_stmt 1              @ source/read_cpu.c:927:27
	ldr	r0, [sp, #12]                   @ 4-byte Reload
	ldr	r0, [r0]
	.loc	2 927 33 is_stmt 0              @ source/read_cpu.c:927:33
	ldr	r0, [r0]
	.loc	2 927 38                        @ source/read_cpu.c:927:38
	ldrb	r1, [r1]
	movs	r2, #255
	.loc	2 927 3                         @ source/read_cpu.c:927:3
	eors	r1, r2
	bl	fifo_write
	ldr	r1, [sp, #12]                   @ 4-byte Reload
	.loc	2 930 33 is_stmt 1              @ source/read_cpu.c:930:33
	ldr	r0, [r1]
	.loc	2 930 51 is_stmt 0              @ source/read_cpu.c:930:51
	ldrb	r1, [r1, #4]
	.loc	2 930 3                         @ source/read_cpu.c:930:3
	bl	spi_master_write
	.loc	2 931 9 is_stmt 1               @ source/read_cpu.c:931:9
	ldr	r1, __arm_cp.10_0
	movs	r0, #1
	strb	r0, [r1]
	.loc	2 932 3                         @ source/read_cpu.c:932:3
	b	.LBB10_41
.LBB10_10:
.Ltmp152:
	.loc	2 936 19                        @ source/read_cpu.c:936:19
	ldr	r0, __arm_cp.10_1
	ldr	r0, [r0]
	.loc	2 936 25 is_stmt 0              @ source/read_cpu.c:936:25
	ldrb	r0, [r0, #29]
.Ltmp153:
	.loc	2 936 6                         @ source/read_cpu.c:936:6
	cmp	r0, #1
	bne	.LBB10_12
	b	.LBB10_11
.LBB10_11:
.Ltmp154:
	.loc	2 937 10 is_stmt 1              @ source/read_cpu.c:937:10
	ldr	r1, __arm_cp.10_0
	movs	r0, #2
	strb	r0, [r1]
	.loc	2 939 28                        @ source/read_cpu.c:939:28
	ldr	r0, __arm_cp.10_1
	ldr	r0, [r0]
	.loc	2 939 34 is_stmt 0              @ source/read_cpu.c:939:34
	ldr	r0, [r0, #4]
	.loc	2 939 4                         @ source/read_cpu.c:939:4
	bl	fifo_reset
	.loc	2 940 14 is_stmt 1              @ source/read_cpu.c:940:14
	ldr	r1, __arm_cp.10_5
	movs	r0, #10
	str	r0, [r1]
	.loc	2 941 3                         @ source/read_cpu.c:941:3
	b	.LBB10_12
.Ltmp155:
.LBB10_12:
	.loc	2 942 3                         @ source/read_cpu.c:942:3
	b	.LBB10_41
.LBB10_13:
.Ltmp156:
	.loc	2 945 6                         @ source/read_cpu.c:945:6
	ldr	r0, __arm_cp.10_5
	ldr	r0, [r0]
.Ltmp157:
	.loc	2 945 6 is_stmt 0               @ source/read_cpu.c:945:6
	cbnz	r0, .LBB10_19
	b	.LBB10_14
.LBB10_14:
.Ltmp158:
	.loc	2 946 10 is_stmt 1              @ source/read_cpu.c:946:10
	ldr	r1, __arm_cp.10_0
	movs	r0, #3
	strb	r0, [r1]
	add	r1, sp, #44
	movs	r0, #0
.Ltmp159:
	.loc	2 948 9                         @ source/read_cpu.c:948:9
	strb	r0, [r1]
	.loc	2 948 8 is_stmt 0               @ source/read_cpu.c:948:8
	b	.LBB10_15
.LBB10_15:                              @ =>This Inner Loop Header: Depth=1
	.loc	2 0 8                           @ source/read_cpu.c:0:8
	add	r0, sp, #44
.Ltmp160:
	.loc	2 948 12                        @ source/read_cpu.c:948:12
	ldrb	r0, [r0]
	.loc	2 948 28                        @ source/read_cpu.c:948:28
	ldr	r1, __arm_cp.10_1
	ldrb	r1, [r1, #20]
	.loc	2 948 33                        @ source/read_cpu.c:948:33
	adds	r1, r1, #2
.Ltmp161:
	.loc	2 948 4                         @ source/read_cpu.c:948:4
	cmp	r0, r1
	bhs	.LBB10_18
	b	.LBB10_16
.LBB10_16:                              @   in Loop: Header=BB10_15 Depth=1
.Ltmp162:
	.loc	2 949 29 is_stmt 1              @ source/read_cpu.c:949:29
	ldr	r0, __arm_cp.10_1
	ldr	r0, [r0]
	.loc	2 949 35 is_stmt 0              @ source/read_cpu.c:949:35
	ldr	r0, [r0]
	movs	r1, #255
	.loc	2 949 5                         @ source/read_cpu.c:949:5
	bl	fifo_write
	.loc	2 950 4 is_stmt 1               @ source/read_cpu.c:950:4
	b	.LBB10_17
.Ltmp163:
.LBB10_17:                              @   in Loop: Header=BB10_15 Depth=1
	.loc	2 948 39                        @ source/read_cpu.c:948:39
	ldr	r0, [sp, #44]
	adds	r0, r0, #1
	add	r1, sp, #44
	strb	r0, [r1]
	.loc	2 948 4 is_stmt 0               @ source/read_cpu.c:948:4
	b	.LBB10_15
.Ltmp164:
.LBB10_18:
	.loc	2 952 33 is_stmt 1              @ source/read_cpu.c:952:33
	ldr	r1, __arm_cp.10_1
	ldr	r0, [r1]
	.loc	2 952 51 is_stmt 0              @ source/read_cpu.c:952:51
	ldrb	r1, [r1, #4]
	.loc	2 952 4                         @ source/read_cpu.c:952:4
	bl	spi_master_read
	.loc	2 953 3 is_stmt 1               @ source/read_cpu.c:953:3
	b	.LBB10_19
.Ltmp165:
.LBB10_19:
	.loc	2 954 3                         @ source/read_cpu.c:954:3
	b	.LBB10_41
.LBB10_20:
.Ltmp166:
	.loc	2 958 19                        @ source/read_cpu.c:958:19
	ldr	r0, __arm_cp.10_1
	ldr	r0, [r0]
	.loc	2 958 25 is_stmt 0              @ source/read_cpu.c:958:25
	ldrb	r0, [r0, #29]
.Ltmp167:
	.loc	2 958 6                         @ source/read_cpu.c:958:6
	cmp	r0, #1
	bne	.LBB10_39
	b	.LBB10_21
.LBB10_21:
	.loc	2 0 6                           @ source/read_cpu.c:0:6
	add	r1, sp, #40
	movs	r0, #0
.Ltmp168:
	.loc	2 959 10 is_stmt 1              @ source/read_cpu.c:959:10
	strb	r0, [r1]
	add	r1, sp, #44
.Ltmp169:
	.loc	2 960 9                         @ source/read_cpu.c:960:9
	strb	r0, [r1]
	.loc	2 960 8 is_stmt 0               @ source/read_cpu.c:960:8
	b	.LBB10_22
.LBB10_22:                              @ =>This Inner Loop Header: Depth=1
	.loc	2 0 8                           @ source/read_cpu.c:0:8
	add	r0, sp, #44
.Ltmp170:
	.loc	2 960 12                        @ source/read_cpu.c:960:12
	ldrb	r0, [r0]
	.loc	2 960 28                        @ source/read_cpu.c:960:28
	ldr	r1, __arm_cp.10_1
	ldrb	r1, [r1, #20]
	.loc	2 960 34                        @ source/read_cpu.c:960:34
	adds	r1, r1, #2
.Ltmp171:
	.loc	2 960 4                         @ source/read_cpu.c:960:4
	cmp	r0, r1
	bhs	.LBB10_32
	b	.LBB10_23
.LBB10_23:                              @   in Loop: Header=BB10_22 Depth=1
.Ltmp172:
	.loc	2 961 21 is_stmt 1              @ source/read_cpu.c:961:21
	ldr	r0, __arm_cp.10_1
	ldr	r0, [r0]
	.loc	2 961 27 is_stmt 0              @ source/read_cpu.c:961:27
	ldr	r0, [r0, #4]
	.loc	2 961 32                        @ source/read_cpu.c:961:32
	ldrb	r0, [r0, #12]
.Ltmp173:
	.loc	2 961 8                         @ source/read_cpu.c:961:8
	cbz	r0, .LBB10_28
	b	.LBB10_24
.LBB10_24:
.Ltmp174:
	.loc	2 962 22 is_stmt 1              @ source/read_cpu.c:962:22
	ldr	r0, __arm_cp.10_1
	ldr	r0, [r0]
	.loc	2 962 27 is_stmt 0              @ source/read_cpu.c:962:27
	ldr	r1, __arm_cp.10_2
.Ltmp175:
	.loc	2 962 9                         @ source/read_cpu.c:962:9
	cmp	r0, r1
	beq	.LBB10_26
	b	.LBB10_25
.LBB10_25:
.Ltmp176:
	.loc	2 963 63 is_stmt 1              @ source/read_cpu.c:963:63
	ldr	r0, __arm_cp.10_1
	ldrb	r1, [r0, #4]
	.loc	2 963 85 is_stmt 0              @ source/read_cpu.c:963:85
	ldrb	r2, [r0, #5]
	.loc	2 963 7                         @ source/read_cpu.c:963:7
	ldr	r0, __arm_cp.10_4
	bl	printf
	.loc	2 964 6 is_stmt 1               @ source/read_cpu.c:964:6
	b	.LBB10_27
.Ltmp177:
.LBB10_26:
	.loc	2 966 62                        @ source/read_cpu.c:966:62
	ldr	r0, __arm_cp.10_1
	ldrb	r1, [r0, #5]
	.loc	2 966 7 is_stmt 0               @ source/read_cpu.c:966:7
	ldr	r0, __arm_cp.10_3
	bl	printf
	b	.LBB10_27
.Ltmp178:
.LBB10_27:
	.loc	2 969 26 is_stmt 1              @ source/read_cpu.c:969:26
	ldr	r1, __arm_cp.10_1
	movs	r2, #32
	movs	r0, #1
	strb	r0, [r1, r2]
	movs	r0, #0
	.loc	2 970 26                        @ source/read_cpu.c:970:26
	strb	r0, [r1, #29]
	.loc	2 971 6                         @ source/read_cpu.c:971:6
	b	.LBB10_32
.Ltmp179:
.LBB10_28:                              @   in Loop: Header=BB10_22 Depth=1
	.loc	2 973 28                        @ source/read_cpu.c:973:28
	ldr	r0, __arm_cp.10_1
	str	r0, [sp, #4]                    @ 4-byte Spill
	ldr	r0, [r0]
	.loc	2 973 34 is_stmt 0              @ source/read_cpu.c:973:34
	ldr	r0, [r0, #4]
	add	r1, sp, #36
	.loc	2 973 5                         @ source/read_cpu.c:973:5
	bl	fifo_read
	ldr	r1, [sp, #4]                    @ 4-byte Reload
	.loc	2 974 29 is_stmt 1              @ source/read_cpu.c:974:29
	ldr	r2, [sp, #36]
	.loc	2 974 18 is_stmt 0              @ source/read_cpu.c:974:18
	ldr	r3, [r1, #16]
	add	r0, sp, #44
	.loc	2 974 24                        @ source/read_cpu.c:974:24
	ldrb	r4, [r0]
	.loc	2 974 27                        @ source/read_cpu.c:974:27
	strb	r2, [r3, r4]
.Ltmp180:
	.loc	2 975 8 is_stmt 1               @ source/read_cpu.c:975:8
	ldrb	r0, [r0]
	.loc	2 975 24 is_stmt 0              @ source/read_cpu.c:975:24
	ldrb	r1, [r1, #20]
.Ltmp181:
	.loc	2 975 8                         @ source/read_cpu.c:975:8
	cmp	r0, r1
	bge	.LBB10_30
	b	.LBB10_29
.LBB10_29:                              @   in Loop: Header=BB10_22 Depth=1
.Ltmp182:
	.loc	2 976 15 is_stmt 1              @ source/read_cpu.c:976:15
	ldr	r1, [sp, #36]
	.loc	2 976 12 is_stmt 0              @ source/read_cpu.c:976:12
	ldr	r0, [sp, #40]
	adds	r0, r0, r1
	add	r1, sp, #40
	strb	r0, [r1]
	.loc	2 977 5 is_stmt 1               @ source/read_cpu.c:977:5
	b	.LBB10_30
.Ltmp183:
.LBB10_30:                              @   in Loop: Header=BB10_22 Depth=1
	.loc	2 978 4                         @ source/read_cpu.c:978:4
	b	.LBB10_31
.Ltmp184:
.LBB10_31:                              @   in Loop: Header=BB10_22 Depth=1
	.loc	2 960 41                        @ source/read_cpu.c:960:41
	ldr	r0, [sp, #44]
	adds	r0, r0, #1
	add	r1, sp, #44
	strb	r0, [r1]
	.loc	2 960 4 is_stmt 0               @ source/read_cpu.c:960:4
	b	.LBB10_22
.Ltmp185:
.LBB10_32:
	.loc	2 980 24 is_stmt 1              @ source/read_cpu.c:980:24
	ldr	r0, __arm_cp.10_1
	movs	r2, #32
	movs	r1, #0
	strb	r1, [r0, r2]
.Ltmp186:
	.loc	2 982 19                        @ source/read_cpu.c:982:19
	ldr	r0, [r0]
	.loc	2 982 24 is_stmt 0              @ source/read_cpu.c:982:24
	ldr	r1, __arm_cp.10_2
.Ltmp187:
	.loc	2 982 6                         @ source/read_cpu.c:982:6
	cmp	r0, r1
	bne	.LBB10_34
	b	.LBB10_33
.LBB10_33:
.Ltmp188:
	.loc	2 985 3 is_stmt 1               @ source/read_cpu.c:985:3
	b	.LBB10_34
.Ltmp189:
.LBB10_34:
	.loc	2 0 3 is_stmt 0                 @ source/read_cpu.c:0:3
	add	r0, sp, #40
.Ltmp190:
	.loc	2 987 6 is_stmt 1               @ source/read_cpu.c:987:6
	ldrb	r0, [r0]
	.loc	2 987 28 is_stmt 0              @ source/read_cpu.c:987:28
	ldr	r2, __arm_cp.10_1
	ldr	r1, [r2, #16]
	.loc	2 987 47                        @ source/read_cpu.c:987:47
	ldrb	r2, [r2, #20]
	.loc	2 987 15                        @ source/read_cpu.c:987:15
	ldrb	r1, [r1, r2]
.Ltmp191:
	.loc	2 987 6                         @ source/read_cpu.c:987:6
	cmp	r0, r1
	beq	.LBB10_36
	b	.LBB10_35
.LBB10_35:
.Ltmp192:
	.loc	2 988 24 is_stmt 1              @ source/read_cpu.c:988:24
	ldr	r1, __arm_cp.10_1
	movs	r2, #32
	movs	r0, #1
	strb	r0, [r1, r2]
	.loc	2 989 3                         @ source/read_cpu.c:989:3
	b	.LBB10_36
.Ltmp193:
.LBB10_36:
	.loc	2 990 12                        @ source/read_cpu.c:990:12
	ldr	r0, [sp, #40]
	.loc	2 990 11 is_stmt 0              @ source/read_cpu.c:990:11
	mvns	r1, r0
	add	r0, sp, #40
	.loc	2 990 9                         @ source/read_cpu.c:990:9
	strb	r1, [r0]
.Ltmp194:
	.loc	2 991 6 is_stmt 1               @ source/read_cpu.c:991:6
	ldrb	r0, [r0]
	.loc	2 991 28 is_stmt 0              @ source/read_cpu.c:991:28
	ldr	r1, __arm_cp.10_1
	ldr	r2, [r1, #16]
	.loc	2 991 47                        @ source/read_cpu.c:991:47
	ldrb	r1, [r1, #20]
	.loc	2 991 53                        @ source/read_cpu.c:991:53
	adds	r1, r1, r2
	.loc	2 991 15                        @ source/read_cpu.c:991:15
	ldrb	r1, [r1, #1]
.Ltmp195:
	.loc	2 991 6                         @ source/read_cpu.c:991:6
	cmp	r0, r1
	beq	.LBB10_38
	b	.LBB10_37
.LBB10_37:
.Ltmp196:
	.loc	2 992 24 is_stmt 1              @ source/read_cpu.c:992:24
	ldr	r1, __arm_cp.10_1
	movs	r2, #32
	movs	r0, #1
	strb	r0, [r1, r2]
	.loc	2 993 3                         @ source/read_cpu.c:993:3
	b	.LBB10_38
.Ltmp197:
.LBB10_38:
	.loc	2 995 9                         @ source/read_cpu.c:995:9
	ldr	r1, __arm_cp.10_0
	movs	r0, #0
	strb	r0, [r1]
	.loc	2 996 24                        @ source/read_cpu.c:996:24
	ldr	r1, __arm_cp.10_1
	strb	r0, [r1, #29]
	.loc	2 997 3                         @ source/read_cpu.c:997:3
	b	.LBB10_39
.Ltmp198:
.LBB10_39:
	.loc	2 998 3                         @ source/read_cpu.c:998:3
	b	.LBB10_41
.LBB10_40:
	.loc	2 1000 9                        @ source/read_cpu.c:1000:9
	ldr	r1, __arm_cp.10_0
	movs	r0, #0
	strb	r0, [r1]
	.loc	2 1001 6                        @ source/read_cpu.c:1001:6
	b	.LBB10_41
.Ltmp199:
.LBB10_41:
	.loc	2 1003 1 epilogue_begin         @ source/read_cpu.c:1003:1
	add	sp, #48
	pop	{r4, pc}
.Ltmp200:
	.loc	2 0 1 is_stmt 0                 @ :0:1
.Ltmp201:
	.p2align	2
@ %bb.42:
__arm_cp.10_0:
	.long	spi_com_fpga_sm.state
.Lcpi_end34:
	.size	__arm_cp.10_0, .Lcpi_end34-__arm_cp.10_0
__arm_cp.10_1:
	.long	spi_com_fpga
.Lcpi_end35:
	.size	__arm_cp.10_1, .Lcpi_end35-__arm_cp.10_1
__arm_cp.10_2:
	.long	spi_fpga
.Lcpi_end36:
	.size	__arm_cp.10_2, .Lcpi_end36-__arm_cp.10_2
__arm_cp.10_3:
	.long	.L.str.1
.Lcpi_end37:
	.size	__arm_cp.10_3, .Lcpi_end37-__arm_cp.10_3
__arm_cp.10_4:
	.long	.L.str
.Lcpi_end38:
	.size	__arm_cp.10_4, .Lcpi_end38-__arm_cp.10_4
__arm_cp.10_5:
	.long	wait_time
.Lcpi_end39:
	.size	__arm_cp.10_5, .Lcpi_end39-__arm_cp.10_5
.Lfunc_end10:
	.size	spi_com_fpga_sm, .Lfunc_end10-spi_com_fpga_sm
	.cfi_endproc
	.cantunwind
	.fnend
                                        @ -- End function
	.section	.text.read_oe_lo,"ax",%progbits
	.hidden	read_oe_lo                      @ -- Begin function read_oe_lo
	.globl	read_oe_lo
	.p2align	2
	.type	read_oe_lo,%function
	.code	16                              @ @read_oe_lo
	.thumb_func
read_oe_lo:
.Lfunc_begin11:
	.loc	2 364 0 is_stmt 1               @ source/read_cpu.c:364:0
	.fnstart
	.cfi_startproc
@ %bb.0:
	.save	{r7, lr}
	push	{r7, lr}
	.cfi_def_cfa_offset 8
	.cfi_offset lr, -4
	.cfi_offset r7, -8
	.pad	#8
	sub	sp, #8
	.cfi_def_cfa_offset 16
	mov	r1, r0
                                        @ kill: def $r0 killed $r1
	add	r0, sp, #4
	strb	r1, [r0]
.Ltmp202:
	.loc	2 367 25 prologue_end           @ source/read_cpu.c:367:25
	ldrb	r0, [r0]
	ldr	r2, __arm_cp.11_0
	.loc	2 367 72 is_stmt 0              @ source/read_cpu.c:367:72
	muls	r2, r0, r2
	ldr	r1, __arm_cp.11_1
	adds	r3, r1, r2
	.loc	2 367 82                        @ source/read_cpu.c:367:82
	adds	r3, #57
	movs	r1, #170
	movs	r2, #6
	.loc	2 367 11                        @ source/read_cpu.c:367:11
	bl	read_cpu_fpga
	mov	r1, r0
	mov	r0, sp
	.loc	2 367 9                         @ source/read_cpu.c:367:9
	strb	r1, [r0]
	.loc	2 368 9 is_stmt 1               @ source/read_cpu.c:368:9
	ldrb	r0, [r0]
	.loc	2 368 2 epilogue_begin is_stmt 0 @ source/read_cpu.c:368:2
	add	sp, #8
	pop	{r7, pc}
.Ltmp203:
	.loc	2 0 2                           @ :0:2
.Ltmp204:
	.p2align	2
@ %bb.1:
__arm_cp.11_0:
	.long	1702                            @ 0x6a6
.Lcpi_end40:
	.size	__arm_cp.11_0, .Lcpi_end40-__arm_cp.11_0
__arm_cp.11_1:
	.long	pe
.Lcpi_end41:
	.size	__arm_cp.11_1, .Lcpi_end41-__arm_cp.11_1
.Lfunc_end11:
	.size	read_oe_lo, .Lfunc_end11-read_oe_lo
	.cfi_endproc
	.cantunwind
	.fnend
                                        @ -- End function
	.section	.text.read_oe_vi,"ax",%progbits
	.hidden	read_oe_vi                      @ -- Begin function read_oe_vi
	.globl	read_oe_vi
	.p2align	2
	.type	read_oe_vi,%function
	.code	16                              @ @read_oe_vi
	.thumb_func
read_oe_vi:
.Lfunc_begin12:
	.loc	2 388 0 is_stmt 1               @ source/read_cpu.c:388:0
	.fnstart
	.cfi_startproc
@ %bb.0:
	.save	{r7, lr}
	push	{r7, lr}
	.cfi_def_cfa_offset 8
	.cfi_offset lr, -4
	.cfi_offset r7, -8
	.pad	#8
	sub	sp, #8
	.cfi_def_cfa_offset 16
	mov	r1, r0
                                        @ kill: def $r0 killed $r1
	add	r0, sp, #4
	strb	r1, [r0]
.Ltmp205:
	.loc	2 391 25 prologue_end           @ source/read_cpu.c:391:25
	ldrb	r0, [r0]
	ldr	r2, __arm_cp.12_0
	.loc	2 391 74 is_stmt 0              @ source/read_cpu.c:391:74
	muls	r2, r0, r2
	ldr	r1, __arm_cp.12_1
	adds	r3, r1, r2
	.loc	2 391 84                        @ source/read_cpu.c:391:84
	adds	r3, #50
	movs	r1, #168
	movs	r2, #5
	.loc	2 391 11                        @ source/read_cpu.c:391:11
	bl	read_cpu_fpga
	mov	r1, r0
	mov	r0, sp
	.loc	2 391 9                         @ source/read_cpu.c:391:9
	strb	r1, [r0]
	.loc	2 392 9 is_stmt 1               @ source/read_cpu.c:392:9
	ldrb	r0, [r0]
	.loc	2 392 2 epilogue_begin is_stmt 0 @ source/read_cpu.c:392:2
	add	sp, #8
	pop	{r7, pc}
.Ltmp206:
	.loc	2 0 2                           @ :0:2
.Ltmp207:
	.p2align	2
@ %bb.1:
__arm_cp.12_0:
	.long	1702                            @ 0x6a6
.Lcpi_end42:
	.size	__arm_cp.12_0, .Lcpi_end42-__arm_cp.12_0
__arm_cp.12_1:
	.long	pe
.Lcpi_end43:
	.size	__arm_cp.12_1, .Lcpi_end43-__arm_cp.12_1
.Lfunc_end12:
	.size	read_oe_vi, .Lfunc_end12-read_oe_vi
	.cfi_endproc
	.cantunwind
	.fnend
                                        @ -- End function
	.section	.text.read_interlock_mode,"ax",%progbits
	.hidden	read_interlock_mode             @ -- Begin function read_interlock_mode
	.globl	read_interlock_mode
	.p2align	2
	.type	read_interlock_mode,%function
	.code	16                              @ @read_interlock_mode
	.thumb_func
read_interlock_mode:
.Lfunc_begin13:
	.loc	2 412 0 is_stmt 1               @ source/read_cpu.c:412:0
	.fnstart
	.cfi_startproc
@ %bb.0:
	.save	{r7, lr}
	push	{r7, lr}
	.cfi_def_cfa_offset 8
	.cfi_offset lr, -4
	.cfi_offset r7, -8
	.pad	#8
	sub	sp, #8
	.cfi_def_cfa_offset 16
	mov	r1, r0
                                        @ kill: def $r0 killed $r1
	add	r0, sp, #4
	strb	r1, [r0]
.Ltmp208:
	.loc	2 415 25 prologue_end           @ source/read_cpu.c:415:25
	ldrb	r0, [r0]
	.loc	2 415 11 is_stmt 0              @ source/read_cpu.c:415:11
	ldr	r3, __arm_cp.13_0
	movs	r1, #173
	movs	r2, #1
	bl	read_cpu_fpga
	mov	r1, r0
	mov	r0, sp
	.loc	2 415 9                         @ source/read_cpu.c:415:9
	strb	r1, [r0]
	.loc	2 416 9 is_stmt 1               @ source/read_cpu.c:416:9
	ldrb	r0, [r0]
	.loc	2 416 2 epilogue_begin is_stmt 0 @ source/read_cpu.c:416:2
	add	sp, #8
	pop	{r7, pc}
.Ltmp209:
	.loc	2 0 2                           @ :0:2
.Ltmp210:
	.p2align	2
@ %bb.1:
__arm_cp.13_0:
	.long	interlock_mode
.Lcpi_end44:
	.size	__arm_cp.13_0, .Lcpi_end44-__arm_cp.13_0
.Lfunc_end13:
	.size	read_interlock_mode, .Lfunc_end13-read_interlock_mode
	.cfi_endproc
	.cantunwind
	.fnend
                                        @ -- End function
	.section	.text.read_oe_vo,"ax",%progbits
	.hidden	read_oe_vo                      @ -- Begin function read_oe_vo
	.globl	read_oe_vo
	.p2align	2
	.type	read_oe_vo,%function
	.code	16                              @ @read_oe_vo
	.thumb_func
read_oe_vo:
.Lfunc_begin14:
	.loc	2 436 0 is_stmt 1               @ source/read_cpu.c:436:0
	.fnstart
	.cfi_startproc
@ %bb.0:
	.save	{r7, lr}
	push	{r7, lr}
	.cfi_def_cfa_offset 8
	.cfi_offset lr, -4
	.cfi_offset r7, -8
	.pad	#8
	sub	sp, #8
	.cfi_def_cfa_offset 16
	mov	r1, r0
                                        @ kill: def $r0 killed $r1
	add	r0, sp, #4
	strb	r1, [r0]
.Ltmp211:
	.loc	2 439 25 prologue_end           @ source/read_cpu.c:439:25
	ldrb	r0, [r0]
	ldr	r2, __arm_cp.14_0
	.loc	2 439 72 is_stmt 0              @ source/read_cpu.c:439:72
	muls	r2, r0, r2
	ldr	r1, __arm_cp.14_1
	adds	r3, r1, r2
	.loc	2 439 82                        @ source/read_cpu.c:439:82
	adds	r3, #55
	movs	r1, #171
	movs	r2, #2
	.loc	2 439 11                        @ source/read_cpu.c:439:11
	bl	read_cpu_fpga
	mov	r1, r0
	mov	r0, sp
	.loc	2 439 9                         @ source/read_cpu.c:439:9
	strb	r1, [r0]
	.loc	2 440 9 is_stmt 1               @ source/read_cpu.c:440:9
	ldrb	r0, [r0]
	.loc	2 440 2 epilogue_begin is_stmt 0 @ source/read_cpu.c:440:2
	add	sp, #8
	pop	{r7, pc}
.Ltmp212:
	.loc	2 0 2                           @ :0:2
.Ltmp213:
	.p2align	2
@ %bb.1:
__arm_cp.14_0:
	.long	1702                            @ 0x6a6
.Lcpi_end45:
	.size	__arm_cp.14_0, .Lcpi_end45-__arm_cp.14_0
__arm_cp.14_1:
	.long	pe
.Lcpi_end46:
	.size	__arm_cp.14_1, .Lcpi_end46-__arm_cp.14_1
.Lfunc_end14:
	.size	read_oe_vo, .Lfunc_end14-read_oe_vo
	.cfi_endproc
	.cantunwind
	.fnend
                                        @ -- End function
	.section	.text.write_oe_relay_state,"ax",%progbits
	.hidden	write_oe_relay_state            @ -- Begin function write_oe_relay_state
	.globl	write_oe_relay_state
	.p2align	2
	.type	write_oe_relay_state,%function
	.code	16                              @ @write_oe_relay_state
	.thumb_func
write_oe_relay_state:
.Lfunc_begin15:
	.loc	2 464 0 is_stmt 1               @ source/read_cpu.c:464:0
	.fnstart
	.cfi_startproc
@ %bb.0:
	.save	{r7, lr}
	push	{r7, lr}
	.cfi_def_cfa_offset 8
	.cfi_offset lr, -4
	.cfi_offset r7, -8
	.pad	#16
	sub	sp, #16
	.cfi_def_cfa_offset 24
	movs	r0, #1
.Ltmp214:
	.loc	2 468 11 prologue_end           @ source/read_cpu.c:468:11
	str	r0, [sp, #8]
	movs	r0, #13
	str	r0, [sp]
	ldr	r0, __arm_cp.15_0
	adds	r0, r0, #1
	str	r0, [sp, #4]
	ldr	r0, __arm_cp.15_1
	ldr	r3, __arm_cp.15_2
	movs	r1, #0
	movs	r2, #179
	bl	run_cmd
	mov	r1, r0
	add	r0, sp, #12
	.loc	2 468 9 is_stmt 0               @ source/read_cpu.c:468:9
	strb	r1, [r0]
	.loc	2 470 9 is_stmt 1               @ source/read_cpu.c:470:9
	ldrb	r0, [r0]
	.loc	2 470 2 epilogue_begin is_stmt 0 @ source/read_cpu.c:470:2
	add	sp, #16
	pop	{r7, pc}
.Ltmp215:
	.loc	2 0 2                           @ :0:2
.Ltmp216:
	.p2align	2
@ %bb.1:
__arm_cp.15_0:
	.long	respbuf_fpga
.Lcpi_end47:
	.size	__arm_cp.15_0, .Lcpi_end47-__arm_cp.15_0
__arm_cp.15_1:
	.long	spi_fpga
.Lcpi_end48:
	.size	__arm_cp.15_1, .Lcpi_end48-__arm_cp.15_1
__arm_cp.15_2:
	.long	oe_relay_state
.Lcpi_end49:
	.size	__arm_cp.15_2, .Lcpi_end49-__arm_cp.15_2
.Lfunc_end15:
	.size	write_oe_relay_state, .Lfunc_end15-write_oe_relay_state
	.cfi_endproc
	.cantunwind
	.fnend
                                        @ -- End function
	.section	.text.run_cmd,"ax",%progbits
	.p2align	2                               @ -- Begin function run_cmd
	.type	run_cmd,%function
	.code	16                              @ @run_cmd
	.thumb_func
run_cmd:
.Lfunc_begin16:
	.loc	2 716 0 is_stmt 1               @ source/read_cpu.c:716:0
	.fnstart
	.cfi_startproc
@ %bb.0:
	.save	{r4, r5, r6, lr}
	push	{r4, r5, r6, lr}
	.cfi_def_cfa_offset 16
	.cfi_offset lr, -4
	.cfi_offset r6, -8
	.cfi_offset r5, -12
	.cfi_offset r4, -16
	.pad	#28
	sub	sp, #28
	.cfi_def_cfa_offset 44
	mov	r4, r1
	mov	r5, r0
	ldr	r0, [sp, #52]
	ldr	r1, [sp, #48]
	ldr	r1, [sp, #44]
                                        @ kill: def $r6 killed $r2
                                        @ kill: def $r6 killed $r4
	str	r5, [sp, #24]
	add	r5, sp, #20
	strb	r4, [r5]
	add	r4, sp, #16
	strb	r2, [r4]
	str	r3, [sp, #12]
	add	r2, sp, #8
	strb	r1, [r2]
	add	r1, sp, #4
	strb	r0, [r1]
.Ltmp217:
	.loc	2 718 13 prologue_end           @ source/read_cpu.c:718:13
	ldr	r0, __arm_cp.16_0
	str	r0, [sp]
.Ltmp218:
	.loc	2 720 5                         @ source/read_cpu.c:720:5
	ldr	r0, [sp, #24]
	.loc	2 720 10 is_stmt 0              @ source/read_cpu.c:720:10
	ldr	r1, __arm_cp.16_1
.Ltmp219:
	.loc	2 720 5                         @ source/read_cpu.c:720:5
	cmp	r0, r1
	bne	.LBB16_2
	b	.LBB16_1
.LBB16_1:
.Ltmp220:
	.loc	2 721 12 is_stmt 1              @ source/read_cpu.c:721:12
	ldr	r0, __arm_cp.16_2
	str	r0, [sp]
	.loc	2 722 2                         @ source/read_cpu.c:722:2
	b	.LBB16_2
.Ltmp221:
.LBB16_2:
	.loc	2 724 19                        @ source/read_cpu.c:724:19
	ldr	r0, [sp, #24]
	.loc	2 724 2 is_stmt 0               @ source/read_cpu.c:724:2
	ldr	r1, [sp]
	.loc	2 724 17                        @ source/read_cpu.c:724:17
	str	r0, [r1]
	.loc	2 725 23 is_stmt 1              @ source/read_cpu.c:725:23
	ldr	r0, [sp, #20]
	.loc	2 725 2 is_stmt 0               @ source/read_cpu.c:725:2
	ldr	r1, [sp]
	.loc	2 725 21                        @ source/read_cpu.c:725:21
	strb	r0, [r1, #4]
	.loc	2 726 18 is_stmt 1              @ source/read_cpu.c:726:18
	ldr	r0, [sp, #16]
	.loc	2 726 2 is_stmt 0               @ source/read_cpu.c:726:2
	ldr	r1, [sp]
	.loc	2 726 16                        @ source/read_cpu.c:726:16
	strb	r0, [r1, #5]
	.loc	2 727 20 is_stmt 1              @ source/read_cpu.c:727:20
	ldr	r0, [sp, #12]
	.loc	2 727 2 is_stmt 0               @ source/read_cpu.c:727:2
	ldr	r1, [sp]
	.loc	2 727 18                        @ source/read_cpu.c:727:18
	str	r0, [r1, #8]
	.loc	2 728 20 is_stmt 1              @ source/read_cpu.c:728:20
	ldr	r0, [sp, #8]
	.loc	2 728 2 is_stmt 0               @ source/read_cpu.c:728:2
	ldr	r1, [sp]
	.loc	2 728 18                        @ source/read_cpu.c:728:18
	strb	r0, [r1, #12]
	.loc	2 729 20 is_stmt 1              @ source/read_cpu.c:729:20
	ldr	r0, [sp, #48]
	.loc	2 729 2 is_stmt 0               @ source/read_cpu.c:729:2
	ldr	r1, [sp]
	.loc	2 729 18                        @ source/read_cpu.c:729:18
	str	r0, [r1, #16]
	.loc	2 730 20 is_stmt 1              @ source/read_cpu.c:730:20
	ldr	r0, [sp, #4]
	.loc	2 730 2 is_stmt 0               @ source/read_cpu.c:730:2
	ldr	r1, [sp]
	.loc	2 730 18                        @ source/read_cpu.c:730:18
	strb	r0, [r1, #20]
	.loc	2 731 2 is_stmt 1               @ source/read_cpu.c:731:2
	ldr	r1, [sp]
	movs	r0, #1
	.loc	2 731 19 is_stmt 0              @ source/read_cpu.c:731:19
	strb	r0, [r1, #28]
	.loc	2 733 9 is_stmt 1               @ source/read_cpu.c:733:9
	ldr	r0, [sp]
	movs	r1, #32
	.loc	2 733 19 is_stmt 0              @ source/read_cpu.c:733:19
	ldrb	r0, [r0, r1]
	.loc	2 733 2 epilogue_begin          @ source/read_cpu.c:733:2
	add	sp, #28
	pop	{r4, r5, r6, pc}
.Ltmp222:
	.loc	2 0 2                           @ :0:2
.Ltmp223:
	.p2align	2
@ %bb.3:
__arm_cp.16_0:
	.long	spi_com_cpu
.Lcpi_end50:
	.size	__arm_cp.16_0, .Lcpi_end50-__arm_cp.16_0
__arm_cp.16_1:
	.long	spi_fpga
.Lcpi_end51:
	.size	__arm_cp.16_1, .Lcpi_end51-__arm_cp.16_1
__arm_cp.16_2:
	.long	spi_com_fpga
.Lcpi_end52:
	.size	__arm_cp.16_2, .Lcpi_end52-__arm_cp.16_2
.Lfunc_end16:
	.size	run_cmd, .Lfunc_end16-run_cmd
	.cfi_endproc
	.cantunwind
	.fnend
                                        @ -- End function
	.section	.text.write_cpu_ctrls,"ax",%progbits
	.hidden	write_cpu_ctrls                 @ -- Begin function write_cpu_ctrls
	.globl	write_cpu_ctrls
	.p2align	2
	.type	write_cpu_ctrls,%function
	.code	16                              @ @write_cpu_ctrls
	.thumb_func
write_cpu_ctrls:
.Lfunc_begin17:
	.loc	2 496 0 is_stmt 1               @ source/read_cpu.c:496:0
	.fnstart
	.cfi_startproc
@ %bb.0:
	.save	{r7, lr}
	push	{r7, lr}
	.cfi_def_cfa_offset 8
	.cfi_offset lr, -4
	.cfi_offset r7, -8
	.pad	#48
	sub	sp, #48
	.cfi_def_cfa_offset 56
                                        @ kill: def $r2 killed $r1
                                        @ kill: def $r2 killed $r0
	add	r2, sp, #44
	strb	r0, [r2]
	add	r0, sp, #40
	str	r0, [sp, #20]                   @ 4-byte Spill
	strb	r1, [r0]
.Ltmp224:
	.loc	2 498 21 prologue_end           @ source/read_cpu.c:498:21
	ldr	r0, [sp, #44]
	add	r1, sp, #32
	.loc	2 498 10 is_stmt 0              @ source/read_cpu.c:498:10
	str	r1, [sp, #16]                   @ 4-byte Spill
	strb	r0, [r1]
	.loc	2 499 16 is_stmt 1              @ source/read_cpu.c:499:16
	ldr	r0, __arm_cp.17_0
	str	r0, [sp, #28]
	.loc	2 500 13                        @ source/read_cpu.c:500:13
	ldr	r0, __arm_cp.17_1
	str	r0, [sp, #24]
	.loc	2 502 2                         @ source/read_cpu.c:502:2
	bl	update_cpu_ctrls
	ldr	r1, [sp, #16]                   @ 4-byte Reload
	.loc	2 503 19                        @ source/read_cpu.c:503:19
	ldr	r0, [sp, #28]
	.loc	2 503 25 is_stmt 0              @ source/read_cpu.c:503:25
	ldrb	r1, [r1]
	movs	r2, #1
	.loc	2 503 11                        @ source/read_cpu.c:503:11
	str	r2, [sp, #8]
	ldr	r2, __arm_cp.17_2
	adds	r2, r2, #1
	str	r2, [sp, #4]
	movs	r2, #2
	str	r2, [sp]
	ldr	r3, __arm_cp.17_3
	movs	r2, #180
	bl	run_cmd
	mov	r1, r0
	ldr	r0, [sp, #20]                   @ 4-byte Reload
	add	r2, sp, #36
	.loc	2 503 9                         @ source/read_cpu.c:503:9
	strb	r1, [r2]
.Ltmp225:
	.loc	2 505 5 is_stmt 1               @ source/read_cpu.c:505:5
	ldrb	r0, [r0]
.Ltmp226:
	.loc	2 505 5 is_stmt 0               @ source/read_cpu.c:505:5
	lsls	r0, r0, #31
	cbz	r0, .LBB17_8
	b	.LBB17_1
.LBB17_1:
.Ltmp227:
	.loc	2 506 3 is_stmt 1               @ source/read_cpu.c:506:3
	b	.LBB17_2
.LBB17_2:                               @ =>This Inner Loop Header: Depth=1
.Ltmp228:
	.loc	2 507 4                         @ source/read_cpu.c:507:4
	bl	spi_com_cpu_sm
	.loc	2 508 3                         @ source/read_cpu.c:508:3
	b	.LBB17_3
.Ltmp229:
.LBB17_3:                               @   in Loop: Header=BB17_2 Depth=1
	.loc	2 509 21                        @ source/read_cpu.c:509:21
	ldr	r0, __arm_cp.17_1
	ldrb	r0, [r0, #29]
.Ltmp230:
	.loc	2 508 3                         @ source/read_cpu.c:508:3
	cmp	r0, #0
	bne	.LBB17_2
	b	.LBB17_4
.Ltmp231:
.LBB17_4:
	.loc	2 511 18                        @ source/read_cpu.c:511:18
	ldr	r0, __arm_cp.17_1
	movs	r1, #32
	ldrb	r0, [r0, r1]
.Ltmp232:
	.loc	2 511 6 is_stmt 0               @ source/read_cpu.c:511:6
	cbz	r0, .LBB17_6
	b	.LBB17_5
.LBB17_5:
	.loc	2 0 6                           @ source/read_cpu.c:0:6
	add	r0, sp, #44
.Ltmp233:
	.loc	2 512 7 is_stmt 1               @ source/read_cpu.c:512:7
	ldrb	r0, [r0]
	ldr	r1, __arm_cp.17_4
	.loc	2 512 4 is_stmt 0               @ source/read_cpu.c:512:4
	muls	r1, r0, r1
	ldr	r0, __arm_cp.17_5
	adds	r1, r0, r1
	movs	r0, #1
	.loc	2 512 30                        @ source/read_cpu.c:512:30
	strb	r0, [r1, #4]
	add	r1, sp, #36
	.loc	2 513 11 is_stmt 1              @ source/read_cpu.c:513:11
	strb	r0, [r1]
	.loc	2 514 3                         @ source/read_cpu.c:514:3
	b	.LBB17_7
.Ltmp234:
.LBB17_6:
	.loc	2 0 3 is_stmt 0                 @ source/read_cpu.c:0:3
	add	r0, sp, #44
.Ltmp235:
	.loc	2 516 7 is_stmt 1               @ source/read_cpu.c:516:7
	ldrb	r0, [r0]
	ldr	r1, __arm_cp.17_4
	.loc	2 516 4 is_stmt 0               @ source/read_cpu.c:516:4
	muls	r1, r0, r1
	ldr	r0, __arm_cp.17_5
	adds	r1, r0, r1
	movs	r0, #0
	.loc	2 516 30                        @ source/read_cpu.c:516:30
	strb	r0, [r1, #4]
	add	r1, sp, #36
	.loc	2 517 11 is_stmt 1              @ source/read_cpu.c:517:11
	strb	r0, [r1]
	b	.LBB17_7
.Ltmp236:
.LBB17_7:
	.loc	2 519 2                         @ source/read_cpu.c:519:2
	b	.LBB17_8
.Ltmp237:
.LBB17_8:
	.loc	2 0 2 is_stmt 0                 @ source/read_cpu.c:0:2
	add	r0, sp, #36
	.loc	2 521 9 is_stmt 1               @ source/read_cpu.c:521:9
	ldrb	r0, [r0]
	.loc	2 521 2 epilogue_begin is_stmt 0 @ source/read_cpu.c:521:2
	add	sp, #48
	pop	{r7, pc}
.Ltmp238:
	.loc	2 0 2                           @ :0:2
.Ltmp239:
	.p2align	2
@ %bb.9:
__arm_cp.17_0:
	.long	spi_cpux
.Lcpi_end53:
	.size	__arm_cp.17_0, .Lcpi_end53-__arm_cp.17_0
__arm_cp.17_1:
	.long	spi_com_cpu
.Lcpi_end54:
	.size	__arm_cp.17_1, .Lcpi_end54-__arm_cp.17_1
__arm_cp.17_2:
	.long	respbuf_cpu
.Lcpi_end55:
	.size	__arm_cp.17_2, .Lcpi_end55-__arm_cp.17_2
__arm_cp.17_3:
	.long	cpu_ctrls_u
.Lcpi_end56:
	.size	__arm_cp.17_3, .Lcpi_end56-__arm_cp.17_3
__arm_cp.17_4:
	.long	1702                            @ 0x6a6
.Lcpi_end57:
	.size	__arm_cp.17_4, .Lcpi_end57-__arm_cp.17_4
__arm_cp.17_5:
	.long	pe
.Lcpi_end58:
	.size	__arm_cp.17_5, .Lcpi_end58-__arm_cp.17_5
.Lfunc_end17:
	.size	write_cpu_ctrls, .Lfunc_end17-write_cpu_ctrls
	.cfi_endproc
	.cantunwind
	.fnend
                                        @ -- End function
	.section	.text.chk_spi_com_response,"ax",%progbits
	.hidden	chk_spi_com_response            @ -- Begin function chk_spi_com_response
	.globl	chk_spi_com_response
	.p2align	2
	.type	chk_spi_com_response,%function
	.code	16                              @ @chk_spi_com_response
	.thumb_func
chk_spi_com_response:
.Lfunc_begin18:
	.loc	2 591 0 is_stmt 1               @ source/read_cpu.c:591:0
	.fnstart
	.cfi_startproc
@ %bb.0:
	.pad	#16
	sub	sp, #16
	.cfi_def_cfa_offset 16
	mov	r1, r0
                                        @ kill: def $r0 killed $r1
	add	r0, sp, #12
	strb	r1, [r0]
.Ltmp240:
	.loc	2 593 13 prologue_end           @ source/read_cpu.c:593:13
	ldr	r1, __arm_cp.18_0
	str	r1, [sp, #4]
.Ltmp241:
	.loc	2 596 5                         @ source/read_cpu.c:596:5
	ldrb	r0, [r0]
.Ltmp242:
	.loc	2 596 5 is_stmt 0               @ source/read_cpu.c:596:5
	cmp	r0, #3
	bne	.LBB18_2
	b	.LBB18_1
.LBB18_1:
.Ltmp243:
	.loc	2 597 12 is_stmt 1              @ source/read_cpu.c:597:12
	ldr	r0, __arm_cp.18_1
	str	r0, [sp, #4]
	.loc	2 598 2                         @ source/read_cpu.c:598:2
	b	.LBB18_2
.Ltmp244:
.LBB18_2:
	.loc	2 600 5                         @ source/read_cpu.c:600:5
	ldr	r0, [sp, #4]
	movs	r1, #32
	.loc	2 600 15 is_stmt 0              @ source/read_cpu.c:600:15
	ldrb	r0, [r0, r1]
.Ltmp245:
	.loc	2 600 5                         @ source/read_cpu.c:600:5
	cbz	r0, .LBB18_8
	b	.LBB18_3
.LBB18_3:
	.loc	2 0 5                           @ source/read_cpu.c:0:5
	add	r0, sp, #12
.Ltmp246:
	.loc	2 601 6 is_stmt 1               @ source/read_cpu.c:601:6
	ldrb	r0, [r0]
	ldr	r1, __arm_cp.18_2
	.loc	2 601 3 is_stmt 0               @ source/read_cpu.c:601:3
	muls	r1, r0, r1
	ldr	r0, __arm_cp.18_3
	adds	r1, r0, r1
	movs	r0, #1
	.loc	2 601 34                        @ source/read_cpu.c:601:34
	strb	r0, [r1, #4]
	add	r1, sp, #8
	movs	r0, #0
.Ltmp247:
	.loc	2 602 8 is_stmt 1               @ source/read_cpu.c:602:8
	strb	r0, [r1]
	.loc	2 602 7 is_stmt 0               @ source/read_cpu.c:602:7
	b	.LBB18_4
.LBB18_4:                               @ =>This Inner Loop Header: Depth=1
	.loc	2 0 7                           @ source/read_cpu.c:0:7
	add	r0, sp, #8
.Ltmp248:
	.loc	2 602 11                        @ source/read_cpu.c:602:11
	ldrb	r0, [r0]
	.loc	2 602 13                        @ source/read_cpu.c:602:13
	ldr	r1, [sp, #4]
	.loc	2 602 23                        @ source/read_cpu.c:602:23
	ldrb	r1, [r1, #20]
.Ltmp249:
	.loc	2 602 3                         @ source/read_cpu.c:602:3
	cmp	r0, r1
	bge	.LBB18_7
	b	.LBB18_5
.LBB18_5:                               @   in Loop: Header=BB18_4 Depth=1
.Ltmp250:
	.loc	2 603 4 is_stmt 1               @ source/read_cpu.c:603:4
	ldr	r0, [sp, #4]
	.loc	2 603 14 is_stmt 0              @ source/read_cpu.c:603:14
	ldr	r1, [r0, #24]
	add	r0, sp, #8
	.loc	2 603 21                        @ source/read_cpu.c:603:21
	ldrb	r2, [r0]
	movs	r0, #0
	.loc	2 603 24                        @ source/read_cpu.c:603:24
	strb	r0, [r1, r2]
	.loc	2 604 3 is_stmt 1               @ source/read_cpu.c:604:3
	b	.LBB18_6
.Ltmp251:
.LBB18_6:                               @   in Loop: Header=BB18_4 Depth=1
	.loc	2 602 30                        @ source/read_cpu.c:602:30
	ldr	r0, [sp, #8]
	adds	r0, r0, #1
	add	r1, sp, #8
	strb	r0, [r1]
	.loc	2 602 3 is_stmt 0               @ source/read_cpu.c:602:3
	b	.LBB18_4
.Ltmp252:
.LBB18_7:
	.loc	2 0 3                           @ source/read_cpu.c:0:3
	mov	r1, sp
	movs	r0, #1
	.loc	2 605 7 is_stmt 1               @ source/read_cpu.c:605:7
	strb	r0, [r1]
	.loc	2 606 2                         @ source/read_cpu.c:606:2
	b	.LBB18_13
.Ltmp253:
.LBB18_8:
	.loc	2 0 2 is_stmt 0                 @ source/read_cpu.c:0:2
	add	r0, sp, #12
.Ltmp254:
	.loc	2 608 6 is_stmt 1               @ source/read_cpu.c:608:6
	ldrb	r0, [r0]
	ldr	r1, __arm_cp.18_2
	.loc	2 608 3 is_stmt 0               @ source/read_cpu.c:608:3
	muls	r1, r0, r1
	ldr	r0, __arm_cp.18_3
	adds	r1, r0, r1
	movs	r0, #0
	.loc	2 608 34                        @ source/read_cpu.c:608:34
	strb	r0, [r1, #4]
	add	r1, sp, #8
.Ltmp255:
	.loc	2 609 8 is_stmt 1               @ source/read_cpu.c:609:8
	strb	r0, [r1]
	.loc	2 609 7 is_stmt 0               @ source/read_cpu.c:609:7
	b	.LBB18_9
.LBB18_9:                               @ =>This Inner Loop Header: Depth=1
	.loc	2 0 7                           @ source/read_cpu.c:0:7
	add	r0, sp, #8
.Ltmp256:
	.loc	2 609 11                        @ source/read_cpu.c:609:11
	ldrb	r0, [r0]
	.loc	2 609 13                        @ source/read_cpu.c:609:13
	ldr	r1, [sp, #4]
	.loc	2 609 23                        @ source/read_cpu.c:609:23
	ldrb	r1, [r1, #20]
.Ltmp257:
	.loc	2 609 3                         @ source/read_cpu.c:609:3
	cmp	r0, r1
	bge	.LBB18_12
	b	.LBB18_10
.LBB18_10:                              @   in Loop: Header=BB18_9 Depth=1
.Ltmp258:
	.loc	2 610 26 is_stmt 1              @ source/read_cpu.c:610:26
	ldr	r1, [sp, #4]
	.loc	2 610 36 is_stmt 0              @ source/read_cpu.c:610:36
	ldr	r0, [r1, #16]
	add	r2, sp, #8
	.loc	2 610 42                        @ source/read_cpu.c:610:42
	ldrb	r2, [r2]
	.loc	2 610 26                        @ source/read_cpu.c:610:26
	ldrb	r0, [r0, r2]
	.loc	2 610 14                        @ source/read_cpu.c:610:14
	ldr	r1, [r1, #24]
	.loc	2 610 24                        @ source/read_cpu.c:610:24
	strb	r0, [r1, r2]
	.loc	2 611 3 is_stmt 1               @ source/read_cpu.c:611:3
	b	.LBB18_11
.Ltmp259:
.LBB18_11:                              @   in Loop: Header=BB18_9 Depth=1
	.loc	2 609 30                        @ source/read_cpu.c:609:30
	ldr	r0, [sp, #8]
	adds	r0, r0, #1
	add	r1, sp, #8
	strb	r0, [r1]
	.loc	2 609 3 is_stmt 0               @ source/read_cpu.c:609:3
	b	.LBB18_9
.Ltmp260:
.LBB18_12:
	.loc	2 0 3                           @ source/read_cpu.c:0:3
	mov	r1, sp
	movs	r0, #0
	.loc	2 612 7 is_stmt 1               @ source/read_cpu.c:612:7
	strb	r0, [r1]
	b	.LBB18_13
.Ltmp261:
.LBB18_13:
	.loc	2 0 7 is_stmt 0                 @ source/read_cpu.c:0:7
	mov	r0, sp
	.loc	2 615 9 is_stmt 1               @ source/read_cpu.c:615:9
	ldrb	r0, [r0]
	.loc	2 615 2 epilogue_begin is_stmt 0 @ source/read_cpu.c:615:2
	add	sp, #16
	bx	lr
.Ltmp262:
	.loc	2 0 2                           @ :0:2
.Ltmp263:
	.p2align	2
@ %bb.14:
__arm_cp.18_0:
	.long	spi_com_cpu
.Lcpi_end59:
	.size	__arm_cp.18_0, .Lcpi_end59-__arm_cp.18_0
__arm_cp.18_1:
	.long	spi_com_fpga
.Lcpi_end60:
	.size	__arm_cp.18_1, .Lcpi_end60-__arm_cp.18_1
__arm_cp.18_2:
	.long	1702                            @ 0x6a6
.Lcpi_end61:
	.size	__arm_cp.18_2, .Lcpi_end61-__arm_cp.18_2
__arm_cp.18_3:
	.long	pe
.Lcpi_end62:
	.size	__arm_cp.18_3, .Lcpi_end62-__arm_cp.18_3
.Lfunc_end18:
	.size	chk_spi_com_response, .Lfunc_end18-chk_spi_com_response
	.cfi_endproc
	.cantunwind
	.fnend
                                        @ -- End function
	.section	.text.read_reg,"ax",%progbits
	.hidden	read_reg                        @ -- Begin function read_reg
	.globl	read_reg
	.p2align	2
	.type	read_reg,%function
	.code	16                              @ @read_reg
	.thumb_func
read_reg:
.Lfunc_begin19:
	.loc	2 640 0 is_stmt 1               @ source/read_cpu.c:640:0
	.fnstart
	.cfi_startproc
@ %bb.0:
	.save	{r4, r5, r7, lr}
	push	{r4, r5, r7, lr}
	.cfi_def_cfa_offset 16
	.cfi_offset lr, -4
	.cfi_offset r7, -8
	.cfi_offset r5, -12
	.cfi_offset r4, -16
	.pad	#40
	sub	sp, #40
	.cfi_def_cfa_offset 56
	mov	r4, r1
	mov	r1, r0
	ldr	r0, [sp, #56]
                                        @ kill: def $r5 killed $r3
                                        @ kill: def $r5 killed $r4
	str	r1, [sp, #36]
	add	r1, sp, #32
	strb	r4, [r1]
	str	r2, [sp, #28]
	add	r2, sp, #24
	strb	r3, [r2]
	add	r5, sp, #20
	strb	r0, [r5]
.Ltmp264:
	.loc	2 642 11 prologue_end           @ source/read_cpu.c:642:11
	ldr	r0, __arm_cp.19_0
	str	r0, [sp, #12]
	.loc	2 643 19                        @ source/read_cpu.c:643:19
	ldr	r0, [sp, #36]
	.loc	2 643 24 is_stmt 0              @ source/read_cpu.c:643:24
	ldrb	r1, [r1]
	.loc	2 643 46                        @ source/read_cpu.c:643:46
	ldr	r3, [sp, #28]
	.loc	2 643 51                        @ source/read_cpu.c:643:51
	ldrb	r2, [r2]
	.loc	2 643 57                        @ source/read_cpu.c:643:57
	ldr	r4, [sp, #12]
	.loc	2 643 65                        @ source/read_cpu.c:643:65
	ldrb	r5, [r5]
	.loc	2 643 11                        @ source/read_cpu.c:643:11
	str	r5, [sp, #8]
	str	r4, [sp, #4]
	str	r2, [sp]
	movs	r2, #165
	bl	run_cmd
	mov	r1, r0
	add	r0, sp, #16
	.loc	2 643 9                         @ source/read_cpu.c:643:9
	strb	r1, [r0]
	.loc	2 644 9 is_stmt 1               @ source/read_cpu.c:644:9
	ldrb	r0, [r0]
	.loc	2 644 2 epilogue_begin is_stmt 0 @ source/read_cpu.c:644:2
	add	sp, #40
	pop	{r4, r5, r7, pc}
.Ltmp265:
	.loc	2 0 2                           @ :0:2
.Ltmp266:
	.p2align	2
@ %bb.1:
__arm_cp.19_0:
	.long	respbuf_cpu
.Lcpi_end63:
	.size	__arm_cp.19_0, .Lcpi_end63-__arm_cp.19_0
.Lfunc_end19:
	.size	read_reg, .Lfunc_end19-read_reg
	.cfi_endproc
	.cantunwind
	.fnend
                                        @ -- End function
	.section	.text.write_reg,"ax",%progbits
	.hidden	write_reg                       @ -- Begin function write_reg
	.globl	write_reg
	.p2align	2
	.type	write_reg,%function
	.code	16                              @ @write_reg
	.thumb_func
write_reg:
.Lfunc_begin20:
	.loc	2 669 0 is_stmt 1               @ source/read_cpu.c:669:0
	.fnstart
	.cfi_startproc
@ %bb.0:
	.save	{r4, r5, r7, lr}
	push	{r4, r5, r7, lr}
	.cfi_def_cfa_offset 16
	.cfi_offset lr, -4
	.cfi_offset r7, -8
	.cfi_offset r5, -12
	.cfi_offset r4, -16
	.pad	#40
	sub	sp, #40
	.cfi_def_cfa_offset 56
	str	r1, [sp, #12]                   @ 4-byte Spill
	mov	r1, r0
	ldr	r0, [sp, #12]                   @ 4-byte Reload
                                        @ kill: def $r4 killed $r3
                                        @ kill: def $r4 killed $r0
	str	r1, [sp, #36]
	add	r1, sp, #32
	strb	r0, [r1]
	str	r2, [sp, #28]
	add	r2, sp, #24
	strb	r3, [r2]
.Ltmp267:
	.loc	2 671 11 prologue_end           @ source/read_cpu.c:671:11
	ldr	r0, __arm_cp.20_0
	str	r0, [sp, #16]
	.loc	2 672 19                        @ source/read_cpu.c:672:19
	ldr	r0, [sp, #36]
	.loc	2 672 24 is_stmt 0              @ source/read_cpu.c:672:24
	ldrb	r1, [r1]
	.loc	2 672 47                        @ source/read_cpu.c:672:47
	ldr	r3, [sp, #28]
	.loc	2 672 52                        @ source/read_cpu.c:672:52
	ldrb	r2, [r2]
	.loc	2 672 58                        @ source/read_cpu.c:672:58
	ldr	r4, [sp, #16]
	movs	r5, #2
	.loc	2 672 11                        @ source/read_cpu.c:672:11
	str	r5, [sp, #8]
	str	r4, [sp, #4]
	str	r2, [sp]
	movs	r2, #177
	bl	run_cmd
	mov	r1, r0
	add	r0, sp, #20
	.loc	2 672 9                         @ source/read_cpu.c:672:9
	strb	r1, [r0]
	.loc	2 673 9 is_stmt 1               @ source/read_cpu.c:673:9
	ldrb	r0, [r0]
	.loc	2 673 2 epilogue_begin is_stmt 0 @ source/read_cpu.c:673:2
	add	sp, #40
	pop	{r4, r5, r7, pc}
.Ltmp268:
	.loc	2 0 2                           @ :0:2
.Ltmp269:
	.p2align	2
@ %bb.1:
__arm_cp.20_0:
	.long	respbuf_cpu
.Lcpi_end64:
	.size	__arm_cp.20_0, .Lcpi_end64-__arm_cp.20_0
.Lfunc_end20:
	.size	write_reg, .Lfunc_end20-write_reg
	.cfi_endproc
	.cantunwind
	.fnend
                                        @ -- End function
	.hidden	pe                              @ @pe
	.type	pe,%object
	.section	.bss.pe,"aw",%nobits
	.globl	pe
	.p2align	1, 0x0
pe:
	.zero	6808
	.size	pe, 6808

	.hidden	spi_com_cpu                     @ @spi_com_cpu
	.type	spi_com_cpu,%object
	.section	.bss.spi_com_cpu,"aw",%nobits
	.globl	spi_com_cpu
	.p2align	2, 0x0
spi_com_cpu:
	.zero	36
	.size	spi_com_cpu, 36

	.hidden	spi_com_fpga                    @ @spi_com_fpga
	.type	spi_com_fpga,%object
	.section	.bss.spi_com_fpga,"aw",%nobits
	.globl	spi_com_fpga
	.p2align	2, 0x0
spi_com_fpga:
	.zero	36
	.size	spi_com_fpga, 36

	.type	respbuf_fpga,%object            @ @respbuf_fpga
	.section	.bss.respbuf_fpga,"aw",%nobits
respbuf_fpga:
	.zero	10
	.size	respbuf_fpga, 10

	.type	respbuf_cpu,%object             @ @respbuf_cpu
	.section	.bss.respbuf_cpu,"aw",%nobits
respbuf_cpu:
	.zero	10
	.size	respbuf_cpu, 10

	.type	spi_com_cpu_sm.state,%object    @ @spi_com_cpu_sm.state
	.section	.bss.spi_com_cpu_sm.state,"aw",%nobits
spi_com_cpu_sm.state:
	.byte	0                               @ 0x0
	.size	spi_com_cpu_sm.state, 1

	.type	.L.str,%object                  @ @.str
	.section	.rodata.str1.1,"aMS",%progbits,1
.L.str:
	.asciz	"@Error: CPU%d cmd %02X Failed\r\n"
	.size	.L.str, 32

	.type	.L.str.1,%object                @ @.str.1
.L.str.1:
	.asciz	"@Error: FPGA cmd %02X Failed\r\n"
	.size	.L.str.1, 31

	.type	spi_com_fpga_sm.state,%object   @ @spi_com_fpga_sm.state
	.section	.bss.spi_com_fpga_sm.state,"aw",%nobits
spi_com_fpga_sm.state:
	.byte	0                               @ 0x0
	.size	spi_com_fpga_sm.state, 1

	.hidden	sys                             @ @sys
	.type	sys,%object
	.section	.bss.sys,"aw",%nobits
	.globl	sys
	.p2align	2, 0x0
sys:
	.zero	132
	.size	sys, 132

	.file	7 "D:\\work\\dheeraj\\local\\CEL\\CCC\\CCC_CPU0\\Code" "source/Include\\interlock.h"
	.section	".note.GNU-stack","",%progbits
	.eabi_attribute	30, 6	@ Tag_ABI_optimization_goals
	.ARM_attribute	16, 1	@ Tag_AV_eba