	.text
	.syntax unified
	.eabi_attribute	67, "2.09"	@ Tag_conformance
	.cpu	cortex-m23
	.eabi_attribute	6, 16	@ Tag_CPU_arch
	.eabi_attribute	7, 77	@ Tag_CPU_arch_profile
	.eabi_attribute	8, 0	@ Tag_ARM_ISA_use
	.eabi_attribute	9, 3	@ Tag_THUMB_ISA_use
	.eabi_attribute	34, 0	@ Tag_CPU_unaligned_access
	.eabi_attribute	17, 1	@ Tag_ABI_PCS_GOT_use
	.eabi_attribute	20, 2	@ Tag_ABI_FP_denormal
	.eabi_attribute	21, 0	@ Tag_ABI_FP_exceptions
	.eabi_attribute	23, 1	@ Tag_ABI_FP_number_model
	.eabi_attribute	24, 1	@ Tag_ABI_align_needed
	.eabi_attribute	25, 1	@ Tag_ABI_align_preserved
	.eabi_attribute	38, 1	@ Tag_ABI_FP_16bit_format
	.eabi_attribute	18, 4	@ Tag_ABI_PCS_wchar_t
	.eabi_attribute	26, 2	@ Tag_ABI_enum_size
	.eabi_attribute	14, 0	@ Tag_ABI_PCS_R9_use
	.file	"retarget.c"
	.file	1 "D:\\work\\dheeraj\\local\\CEL\\CCC\\CCC_CPU0\\Code" "../../CCC_common/Library/StdDriver/src/retarget.c"
	.file	2 "C:\\Users\\Anaya\\AppData\\Local\\Keil_v5\\ARM\\ARMCLANG\\bin\\..\\include" "stdio.h"
	.file	3 "C:\\Users\\Anaya\\AppData\\Local\\Keil_v5\\ARM\\ARMCLANG\\bin\\..\\include" "stdint.h"
	.file	4 "D:\\work\\dheeraj\\local\\CEL\\CCC\\CCC_CPU0\\Code" "../../CCC_common/Library/Device/Nuvoton/M261/Include\\uart_reg.h"
	.section	.text.ProcessHardFault,"ax",%progbits
	.hidden	ProcessHardFault                @ -- Begin function ProcessHardFault
	.weak	ProcessHardFault
	.p2align	2
	.type	ProcessHardFault,%function
	.code	16                              @ @ProcessHardFault
	.thumb_func
ProcessHardFault:
.Lfunc_begin0:
	.loc	1 193 0                         @ ../../CCC_common/Library/StdDriver/src/retarget.c:193:0
	.fnstart
	.cfi_sections .debug_frame
	.cfi_startproc
@ %bb.0:
	.save	{r7, lr}
	push	{r7, lr}
	.cfi_def_cfa_offset 8
	.cfi_offset lr, -4
	.cfi_offset r7, -8
	.pad	#16
	sub	sp, #16
	.cfi_def_cfa_offset 24
	str	r0, [sp, #12]
	str	r1, [sp, #8]
	str	r2, [sp, #4]
	add	r0, sp, #12
.Ltmp0:
	.loc	1 199 8 prologue_end            @ ../../CCC_common/Library/StdDriver/src/retarget.c:199:8
	ldrb	r0, [r0]
	lsls	r0, r0, #25
	cmp	r0, #0
	bpl	.LBB0_5
	b	.LBB0_1
.LBB0_1:
	.loc	1 0 8 is_stmt 0                 @ ../../CCC_common/Library/StdDriver/src/retarget.c:0:8
	add	r0, sp, #12
.Ltmp1:
	.loc	1 202 12 is_stmt 1              @ ../../CCC_common/Library/StdDriver/src/retarget.c:202:12
	ldrb	r0, [r0]
	lsls	r0, r0, #29
	cmp	r0, #0
	bpl	.LBB0_3
	b	.LBB0_2
.LBB0_2:
.Ltmp2:
	.loc	1 204 30                        @ ../../CCC_common/Library/StdDriver/src/retarget.c:204:30
	ldr	r0, [sp, #4]
	.loc	1 204 16 is_stmt 0              @ ../../CCC_common/Library/StdDriver/src/retarget.c:204:16
	str	r0, [sp]
	.loc	1 205 9 is_stmt 1               @ ../../CCC_common/Library/StdDriver/src/retarget.c:205:9
	b	.LBB0_4
.Ltmp3:
.LBB0_3:
	.loc	1 208 30                        @ ../../CCC_common/Library/StdDriver/src/retarget.c:208:30
	ldr	r0, [sp, #8]
	.loc	1 208 16 is_stmt 0              @ ../../CCC_common/Library/StdDriver/src/retarget.c:208:16
	str	r0, [sp]
	b	.LBB0_4
.Ltmp4:
.LBB0_4:
	.loc	1 211 5 is_stmt 1               @ ../../CCC_common/Library/StdDriver/src/retarget.c:211:5
	b	.LBB0_5
.Ltmp5:
.LBB0_5:
	.loc	1 225 5                         @ ../../CCC_common/Library/StdDriver/src/retarget.c:225:5
	ldr	r0, __arm_cp.0_0
	bl	printf
	.loc	1 227 28                        @ ../../CCC_common/Library/StdDriver/src/retarget.c:227:28
	ldr	r0, [sp]
	ldr	r1, [r0]
	.loc	1 227 5 is_stmt 0               @ ../../CCC_common/Library/StdDriver/src/retarget.c:227:5
	ldr	r0, __arm_cp.0_1
	bl	printf
	.loc	1 228 28 is_stmt 1              @ ../../CCC_common/Library/StdDriver/src/retarget.c:228:28
	ldr	r0, [sp]
	ldr	r1, [r0, #4]
	.loc	1 228 5 is_stmt 0               @ ../../CCC_common/Library/StdDriver/src/retarget.c:228:5
	ldr	r0, __arm_cp.0_2
	bl	printf
	.loc	1 229 28 is_stmt 1              @ ../../CCC_common/Library/StdDriver/src/retarget.c:229:28
	ldr	r0, [sp]
	ldr	r1, [r0, #8]
	.loc	1 229 5 is_stmt 0               @ ../../CCC_common/Library/StdDriver/src/retarget.c:229:5
	ldr	r0, __arm_cp.0_3
	bl	printf
	.loc	1 230 28 is_stmt 1              @ ../../CCC_common/Library/StdDriver/src/retarget.c:230:28
	ldr	r0, [sp]
	ldr	r1, [r0, #12]
	.loc	1 230 5 is_stmt 0               @ ../../CCC_common/Library/StdDriver/src/retarget.c:230:5
	ldr	r0, __arm_cp.0_4
	bl	printf
	.loc	1 231 28 is_stmt 1              @ ../../CCC_common/Library/StdDriver/src/retarget.c:231:28
	ldr	r0, [sp]
	ldr	r1, [r0, #16]
	.loc	1 231 5 is_stmt 0               @ ../../CCC_common/Library/StdDriver/src/retarget.c:231:5
	ldr	r0, __arm_cp.0_5
	bl	printf
	.loc	1 232 28 is_stmt 1              @ ../../CCC_common/Library/StdDriver/src/retarget.c:232:28
	ldr	r0, [sp]
	ldr	r1, [r0, #20]
	.loc	1 232 5 is_stmt 0               @ ../../CCC_common/Library/StdDriver/src/retarget.c:232:5
	ldr	r0, __arm_cp.0_6
	bl	printf
	.loc	1 233 28 is_stmt 1              @ ../../CCC_common/Library/StdDriver/src/retarget.c:233:28
	ldr	r0, [sp]
	ldr	r1, [r0, #24]
	.loc	1 233 5 is_stmt 0               @ ../../CCC_common/Library/StdDriver/src/retarget.c:233:5
	ldr	r0, __arm_cp.0_7
	bl	printf
	.loc	1 234 28 is_stmt 1              @ ../../CCC_common/Library/StdDriver/src/retarget.c:234:28
	ldr	r0, [sp]
	ldr	r1, [r0, #28]
	.loc	1 234 5 is_stmt 0               @ ../../CCC_common/Library/StdDriver/src/retarget.c:234:5
	ldr	r0, __arm_cp.0_8
	bl	printf
	.loc	1 238 5 is_stmt 1               @ ../../CCC_common/Library/StdDriver/src/retarget.c:238:5
	b	.LBB0_6
.LBB0_6:                                @ =>This Inner Loop Header: Depth=1
	.loc	1 238 15 is_stmt 0              @ ../../CCC_common/Library/StdDriver/src/retarget.c:238:15
	ldr	r0, [sp]
	.loc	1 238 14                        @ ../../CCC_common/Library/StdDriver/src/retarget.c:238:14
	ldr	r0, [r0]
	movs	r1, #1
	.loc	1 238 13                        @ ../../CCC_common/Library/StdDriver/src/retarget.c:238:13
	orrs	r0, r1
	.loc	1 238 5                         @ ../../CCC_common/Library/StdDriver/src/retarget.c:238:5
	cbz	r0, .LBB0_8
	b	.LBB0_7
.LBB0_7:                                @   in Loop: Header=BB0_6 Depth=1
	b	.LBB0_6
.LBB0_8:
	.loc	1 240 12 is_stmt 1              @ ../../CCC_common/Library/StdDriver/src/retarget.c:240:12
	ldr	r0, [sp, #12]
	.loc	1 240 5 epilogue_begin is_stmt 0 @ ../../CCC_common/Library/StdDriver/src/retarget.c:240:5
	add	sp, #16
	pop	{r7, pc}
.Ltmp6:
	.loc	1 0 5                           @ :0:5
.Ltmp7:
	.p2align	2
@ %bb.9:
__arm_cp.0_0:
	.long	.L.str
.Lcpi_end0:
	.size	__arm_cp.0_0, .Lcpi_end0-__arm_cp.0_0
__arm_cp.0_1:
	.long	.L.str.1
.Lcpi_end1:
	.size	__arm_cp.0_1, .Lcpi_end1-__arm_cp.0_1
__arm_cp.0_2:
	.long	.L.str.2
.Lcpi_end2:
	.size	__arm_cp.0_2, .Lcpi_end2-__arm_cp.0_2
__arm_cp.0_3:
	.long	.L.str.3
.Lcpi_end3:
	.size	__arm_cp.0_3, .Lcpi_end3-__arm_cp.0_3
__arm_cp.0_4:
	.long	.L.str.4
.Lcpi_end4:
	.size	__arm_cp.0_4, .Lcpi_end4-__arm_cp.0_4
__arm_cp.0_5:
	.long	.L.str.5
.Lcpi_end5:
	.size	__arm_cp.0_5, .Lcpi_end5-__arm_cp.0_5
__arm_cp.0_6:
	.long	.L.str.6
.Lcpi_end6:
	.size	__arm_cp.0_6, .Lcpi_end6-__arm_cp.0_6
__arm_cp.0_7:
	.long	.L.str.7
.Lcpi_end7:
	.size	__arm_cp.0_7, .Lcpi_end7-__arm_cp.0_7
__arm_cp.0_8:
	.long	.L.str.8
.Lcpi_end8:
	.size	__arm_cp.0_8, .Lcpi_end8-__arm_cp.0_8
.Lfunc_end0:
	.size	ProcessHardFault, .Lfunc_end0-ProcessHardFault
	.cfi_endproc
	.cantunwind
	.fnend
                                        @ -- End function
	.section	.text.SH_Return,"ax",%progbits
	.hidden	SH_Return                       @ -- Begin function SH_Return
	.globl	SH_Return
	.p2align	1
	.type	SH_Return,%function
	.code	16                              @ @SH_Return
	.thumb_func
SH_Return:
.Lfunc_begin1:
	.loc	1 245 0 is_stmt 1               @ ../../CCC_common/Library/StdDriver/src/retarget.c:245:0
	.fnstart
	.cfi_startproc
@ %bb.0:
	.pad	#12
	sub	sp, #12
	.cfi_def_cfa_offset 12
	str	r0, [sp, #8]
	str	r1, [sp, #4]
	str	r2, [sp]
	movs	r0, #0
.Ltmp8:
	.loc	1 246 5 prologue_end epilogue_begin @ ../../CCC_common/Library/StdDriver/src/retarget.c:246:5
	add	sp, #12
	bx	lr
.Ltmp9:
.Lfunc_end1:
	.size	SH_Return, .Lfunc_end1-SH_Return
	.cfi_endproc
	.cantunwind
	.fnend
                                        @ -- End function
	.section	.text.SendChar_ToUART,"ax",%progbits
	.hidden	SendChar_ToUART                 @ -- Begin function SendChar_ToUART
	.globl	SendChar_ToUART
	.p2align	2
	.type	SendChar_ToUART,%function
	.code	16                              @ @SendChar_ToUART
	.thumb_func
SendChar_ToUART:
.Lfunc_begin2:
	.loc	1 263 0                         @ ../../CCC_common/Library/StdDriver/src/retarget.c:263:0
	.fnstart
	.cfi_startproc
@ %bb.0:
	.pad	#4
	sub	sp, #4
	.cfi_def_cfa_offset 4
	str	r0, [sp]
.Ltmp10:
	.loc	1 265 5 prologue_end            @ ../../CCC_common/Library/StdDriver/src/retarget.c:265:5
	b	.LBB2_1
.LBB2_1:                                @ =>This Inner Loop Header: Depth=1
	.loc	1 0 5 is_stmt 0                 @ ../../CCC_common/Library/StdDriver/src/retarget.c:0:5
	ldr	r0, __arm_cp.2_0
	.loc	1 265 23                        @ ../../CCC_common/Library/StdDriver/src/retarget.c:265:23
	ldr	r0, [r0]
	.loc	1 265 5                         @ ../../CCC_common/Library/StdDriver/src/retarget.c:265:5
	lsls	r0, r0, #8
	cmp	r0, #0
	bpl	.LBB2_3
	b	.LBB2_2
.LBB2_2:                                @   in Loop: Header=BB2_1 Depth=1
	b	.LBB2_1
.LBB2_3:
	.loc	1 0 5                           @ ../../CCC_common/Library/StdDriver/src/retarget.c:0:5
	mov	r0, sp
.Ltmp11:
	.loc	1 266 14 is_stmt 1              @ ../../CCC_common/Library/StdDriver/src/retarget.c:266:14
	ldrb	r0, [r0]
.Ltmp12:
	.loc	1 266 8 is_stmt 0               @ ../../CCC_common/Library/StdDriver/src/retarget.c:266:8
	cmp	r0, #10
	bne	.LBB2_8
	b	.LBB2_4
.LBB2_4:
	.loc	1 0 8                           @ ../../CCC_common/Library/StdDriver/src/retarget.c:0:8
	ldr	r1, __arm_cp.2_1
	movs	r0, #13
.Ltmp13:
	.loc	1 268 25 is_stmt 1              @ ../../CCC_common/Library/StdDriver/src/retarget.c:268:25
	str	r0, [r1]
	.loc	1 269 9                         @ ../../CCC_common/Library/StdDriver/src/retarget.c:269:9
	b	.LBB2_5
.LBB2_5:                                @ =>This Inner Loop Header: Depth=1
	.loc	1 0 9 is_stmt 0                 @ ../../CCC_common/Library/StdDriver/src/retarget.c:0:9
	ldr	r0, __arm_cp.2_0
	.loc	1 269 27                        @ ../../CCC_common/Library/StdDriver/src/retarget.c:269:27
	ldr	r0, [r0]
	.loc	1 269 9                         @ ../../CCC_common/Library/StdDriver/src/retarget.c:269:9
	lsls	r0, r0, #8
	cmp	r0, #0
	bpl	.LBB2_7
	b	.LBB2_6
.LBB2_6:                                @   in Loop: Header=BB2_5 Depth=1
	b	.LBB2_5
.LBB2_7:
	.loc	1 270 5 is_stmt 1               @ ../../CCC_common/Library/StdDriver/src/retarget.c:270:5
	b	.LBB2_8
.Ltmp14:
.LBB2_8:
	.loc	1 271 33                        @ ../../CCC_common/Library/StdDriver/src/retarget.c:271:33
	ldr	r0, [sp]
	ldr	r1, __arm_cp.2_1
	.loc	1 271 21 is_stmt 0              @ ../../CCC_common/Library/StdDriver/src/retarget.c:271:21
	str	r0, [r1]
	.loc	1 272 1 epilogue_begin is_stmt 1 @ ../../CCC_common/Library/StdDriver/src/retarget.c:272:1
	add	sp, #4
	bx	lr
.Ltmp15:
	.loc	1 0 1 is_stmt 0                 @ :0:1
.Ltmp16:
	.p2align	2
@ %bb.9:
__arm_cp.2_0:
	.long	1074200600                      @ 0x40070018
.Lcpi_end9:
	.size	__arm_cp.2_0, .Lcpi_end9-__arm_cp.2_0
__arm_cp.2_1:
	.long	1074200576                      @ 0x40070000
.Lcpi_end10:
	.size	__arm_cp.2_1, .Lcpi_end10-__arm_cp.2_1
.Lfunc_end2:
	.size	SendChar_ToUART, .Lfunc_end2-SendChar_ToUART
	.cfi_endproc
	.cantunwind
	.fnend
                                        @ -- End function
	.section	.text.SendChar,"ax",%progbits
	.hidden	SendChar                        @ -- Begin function SendChar
	.globl	SendChar
	.p2align	1
	.type	SendChar,%function
	.code	16                              @ @SendChar
	.thumb_func
SendChar:
.Lfunc_begin3:
	.loc	1 340 0 is_stmt 1               @ ../../CCC_common/Library/StdDriver/src/retarget.c:340:0
	.fnstart
	.cfi_startproc
@ %bb.0:
	.save	{r7, lr}
	push	{r7, lr}
	.cfi_def_cfa_offset 8
	.cfi_offset lr, -4
	.cfi_offset r7, -8
	.pad	#8
	sub	sp, #8
	.cfi_def_cfa_offset 16
	str	r0, [sp, #4]
.Ltmp17:
	.loc	1 370 21 prologue_end           @ ../../CCC_common/Library/StdDriver/src/retarget.c:370:21
	ldr	r0, [sp, #4]
	.loc	1 370 5 is_stmt 0               @ ../../CCC_common/Library/StdDriver/src/retarget.c:370:5
	bl	SendChar_ToUART
	.loc	1 372 1 epilogue_begin is_stmt 1 @ ../../CCC_common/Library/StdDriver/src/retarget.c:372:1
	add	sp, #8
	pop	{r7, pc}
.Ltmp18:
.Lfunc_end3:
	.size	SendChar, .Lfunc_end3-SendChar
	.cfi_endproc
	.cantunwind
	.fnend
                                        @ -- End function
	.section	.text.GetChar,"ax",%progbits
	.hidden	GetChar                         @ -- Begin function GetChar
	.globl	GetChar
	.p2align	2
	.type	GetChar,%function
	.code	16                              @ @GetChar
	.thumb_func
GetChar:
.Lfunc_begin4:
	.fnstart
	.cfi_startproc
@ %bb.0:
	.loc	1 421 5 prologue_end            @ ../../CCC_common/Library/StdDriver/src/retarget.c:421:5
	b	.LBB4_1
.LBB4_1:                                @ =>This Inner Loop Header: Depth=1
	.loc	1 0 5 is_stmt 0                 @ ../../CCC_common/Library/StdDriver/src/retarget.c:0:5
	ldr	r0, __arm_cp.4_0
.Ltmp19:
	.loc	1 423 25 is_stmt 1              @ ../../CCC_common/Library/StdDriver/src/retarget.c:423:25
	ldr	r0, [r0]
.Ltmp20:
	.loc	1 423 12 is_stmt 0              @ ../../CCC_common/Library/StdDriver/src/retarget.c:423:12
	lsls	r0, r0, #17
	cmp	r0, #0
	bmi	.LBB4_3
	b	.LBB4_2
.LBB4_2:
	.loc	1 0 12                          @ ../../CCC_common/Library/StdDriver/src/retarget.c:0:12
	ldr	r0, __arm_cp.4_1
.Ltmp21:
	.loc	1 425 39 is_stmt 1              @ ../../CCC_common/Library/StdDriver/src/retarget.c:425:39
	ldr	r0, [r0]
	.loc	1 425 13 is_stmt 0              @ ../../CCC_common/Library/StdDriver/src/retarget.c:425:13
	uxtb	r0, r0
	bx	lr
.Ltmp22:
.LBB4_3:                                @   in Loop: Header=BB4_1 Depth=1
	.loc	1 421 5 is_stmt 1               @ ../../CCC_common/Library/StdDriver/src/retarget.c:421:5
	b	.LBB4_1
.Ltmp23:
	.loc	1 0 5 is_stmt 0                 @ :0:5
.Ltmp24:
	.p2align	2
@ %bb.4:
__arm_cp.4_0:
	.long	1074200600                      @ 0x40070018
.Lcpi_end11:
	.size	__arm_cp.4_0, .Lcpi_end11-__arm_cp.4_0
__arm_cp.4_1:
	.long	1074200576                      @ 0x40070000
.Lcpi_end12:
	.size	__arm_cp.4_1, .Lcpi_end12-__arm_cp.4_1
.Lfunc_end4:
	.size	GetChar, .Lfunc_end4-GetChar
	.cfi_endproc
	.cantunwind
	.fnend
                                        @ -- End function
	.section	.text.kbhit,"ax",%progbits
	.hidden	kbhit                           @ -- Begin function kbhit
	.globl	kbhit
	.p2align	2
	.type	kbhit,%function
	.code	16                              @ @kbhit
	.thumb_func
kbhit:
.Lfunc_begin5:
	.loc	1 444 0 is_stmt 1               @ ../../CCC_common/Library/StdDriver/src/retarget.c:444:0
	.fnstart
	.cfi_startproc
@ %bb.0:
	ldr	r0, __arm_cp.5_0
.Ltmp25:
	.loc	1 445 27 prologue_end           @ ../../CCC_common/Library/StdDriver/src/retarget.c:445:27
	ldr	r0, [r0]
	movw	r1, #16384
	.loc	1 445 35 is_stmt 0              @ ../../CCC_common/Library/StdDriver/src/retarget.c:445:35
	ands	r0, r1
	.loc	1 445 63                        @ ../../CCC_common/Library/StdDriver/src/retarget.c:445:63
	lsrs	r0, r0, #14
	.loc	1 445 5                         @ ../../CCC_common/Library/StdDriver/src/retarget.c:445:5
	bx	lr
.Ltmp26:
	.loc	1 0 5                           @ :0:5
.Ltmp27:
	.p2align	2
@ %bb.1:
__arm_cp.5_0:
	.long	1074200600                      @ 0x40070018
.Lcpi_end13:
	.size	__arm_cp.5_0, .Lcpi_end13-__arm_cp.5_0
.Lfunc_end5:
	.size	kbhit, .Lfunc_end5-kbhit
	.cfi_endproc
	.cantunwind
	.fnend
                                        @ -- End function
	.section	.text.IsDebugFifoEmpty,"ax",%progbits
	.hidden	IsDebugFifoEmpty                @ -- Begin function IsDebugFifoEmpty
	.globl	IsDebugFifoEmpty
	.p2align	2
	.type	IsDebugFifoEmpty,%function
	.code	16                              @ @IsDebugFifoEmpty
	.thumb_func
IsDebugFifoEmpty:
.Lfunc_begin6:
	.loc	1 459 0 is_stmt 1               @ ../../CCC_common/Library/StdDriver/src/retarget.c:459:0
	.fnstart
	.cfi_startproc
@ %bb.0:
	ldr	r0, __arm_cp.6_0
.Ltmp28:
	.loc	1 460 26 prologue_end           @ ../../CCC_common/Library/StdDriver/src/retarget.c:460:26
	ldr	r0, [r0]
	movs	r1, #1
	lsls	r1, r1, #28
	.loc	1 460 34 is_stmt 0              @ ../../CCC_common/Library/StdDriver/src/retarget.c:460:34
	ands	r0, r1
	.loc	1 460 63                        @ ../../CCC_common/Library/StdDriver/src/retarget.c:460:63
	lsrs	r0, r0, #28
	.loc	1 460 5                         @ ../../CCC_common/Library/StdDriver/src/retarget.c:460:5
	bx	lr
.Ltmp29:
	.loc	1 0 5                           @ :0:5
.Ltmp30:
	.p2align	2
@ %bb.1:
__arm_cp.6_0:
	.long	1074200600                      @ 0x40070018
.Lcpi_end14:
	.size	__arm_cp.6_0, .Lcpi_end14-__arm_cp.6_0
.Lfunc_end6:
	.size	IsDebugFifoEmpty, .Lfunc_end6-IsDebugFifoEmpty
	.cfi_endproc
	.cantunwind
	.fnend
                                        @ -- End function
	.section	.text._ttywrch,"ax",%progbits
	.hidden	_ttywrch                        @ -- Begin function _ttywrch
	.globl	_ttywrch
	.p2align	1
	.type	_ttywrch,%function
	.code	16                              @ @_ttywrch
	.thumb_func
_ttywrch:
.Lfunc_begin7:
	.loc	1 474 0 is_stmt 1               @ ../../CCC_common/Library/StdDriver/src/retarget.c:474:0
	.fnstart
	.cfi_startproc
@ %bb.0:
	.save	{r7, lr}
	push	{r7, lr}
	.cfi_def_cfa_offset 8
	.cfi_offset lr, -4
	.cfi_offset r7, -8
	.pad	#8
	sub	sp, #8
	.cfi_def_cfa_offset 16
	str	r0, [sp, #4]
.Ltmp31:
	.loc	1 475 14 prologue_end           @ ../../CCC_common/Library/StdDriver/src/retarget.c:475:14
	ldr	r0, [sp, #4]
	.loc	1 475 5 is_stmt 0               @ ../../CCC_common/Library/StdDriver/src/retarget.c:475:5
	bl	SendChar
	.loc	1 476 5 epilogue_begin is_stmt 1 @ ../../CCC_common/Library/StdDriver/src/retarget.c:476:5
	add	sp, #8
	pop	{r7, pc}
.Ltmp32:
.Lfunc_end7:
	.size	_ttywrch, .Lfunc_end7-_ttywrch
	.cfi_endproc
	.cantunwind
	.fnend
                                        @ -- End function
	.section	.text.fputc,"ax",%progbits
	.hidden	fputc                           @ -- Begin function fputc
	.globl	fputc
	.p2align	1
	.type	fputc,%function
	.code	16                              @ @fputc
	.thumb_func
fputc:
.Lfunc_begin8:
	.loc	1 499 0                         @ ../../CCC_common/Library/StdDriver/src/retarget.c:499:0
	.fnstart
	.cfi_startproc
@ %bb.0:
	.save	{r7, lr}
	push	{r7, lr}
	.cfi_def_cfa_offset 8
	.cfi_offset lr, -4
	.cfi_offset r7, -8
	.pad	#8
	sub	sp, #8
	.cfi_def_cfa_offset 16
	str	r0, [sp, #4]
	str	r1, [sp]
.Ltmp33:
	.loc	1 500 14 prologue_end           @ ../../CCC_common/Library/StdDriver/src/retarget.c:500:14
	ldr	r0, [sp, #4]
	.loc	1 500 5 is_stmt 0               @ ../../CCC_common/Library/StdDriver/src/retarget.c:500:5
	bl	SendChar
	.loc	1 501 12 is_stmt 1              @ ../../CCC_common/Library/StdDriver/src/retarget.c:501:12
	ldr	r0, [sp, #4]
	.loc	1 501 5 epilogue_begin is_stmt 0 @ ../../CCC_common/Library/StdDriver/src/retarget.c:501:5
	add	sp, #8
	pop	{r7, pc}
.Ltmp34:
.Lfunc_end8:
	.size	fputc, .Lfunc_end8-fputc
	.cfi_endproc
	.cantunwind
	.fnend
                                        @ -- End function
	.section	.text.fgetc,"ax",%progbits
	.hidden	fgetc                           @ -- Begin function fgetc
	.globl	fgetc
	.p2align	1
	.type	fgetc,%function
	.code	16                              @ @fgetc
	.thumb_func
fgetc:
.Lfunc_begin9:
	.loc	1 549 0 is_stmt 1               @ ../../CCC_common/Library/StdDriver/src/retarget.c:549:0
	.fnstart
	.cfi_startproc
@ %bb.0:
	.save	{r7, lr}
	push	{r7, lr}
	.cfi_def_cfa_offset 8
	.cfi_offset lr, -4
	.cfi_offset r7, -8
	.pad	#8
	sub	sp, #8
	.cfi_def_cfa_offset 16
	str	r0, [sp, #4]
.Ltmp35:
	.loc	1 550 18 prologue_end           @ ../../CCC_common/Library/StdDriver/src/retarget.c:550:18
	bl	GetChar
	.loc	1 550 5 epilogue_begin is_stmt 0 @ ../../CCC_common/Library/StdDriver/src/retarget.c:550:5
	add	sp, #8
	pop	{r7, pc}
.Ltmp36:
.Lfunc_end9:
	.size	fgetc, .Lfunc_end9-fgetc
	.cfi_endproc
	.cantunwind
	.fnend
                                        @ -- End function
	.section	.text.ferror,"ax",%progbits
	.hidden	ferror                          @ -- Begin function ferror
	.globl	ferror
	.p2align	1
	.type	ferror,%function
	.code	16                              @ @ferror
	.thumb_func
ferror:
.Lfunc_begin10:
	.loc	1 569 0 is_stmt 1               @ ../../CCC_common/Library/StdDriver/src/retarget.c:569:0
	.fnstart
	.cfi_startproc
@ %bb.0:
	.pad	#4
	sub	sp, #4
	.cfi_def_cfa_offset 4
	str	r0, [sp]
	movs	r0, #0
	mvns	r0, r0
.Ltmp37:
	.loc	1 570 5 prologue_end epilogue_begin @ ../../CCC_common/Library/StdDriver/src/retarget.c:570:5
	add	sp, #4
	bx	lr
.Ltmp38:
.Lfunc_end10:
	.size	ferror, .Lfunc_end10-ferror
	.cfi_endproc
	.cantunwind
	.fnend
                                        @ -- End function
	.type	.L.str,%object                  @ @.str
	.section	.rodata.str1.1,"aMS",%progbits,1
.L.str:
	.asciz	"  HardFault!\n\n"
	.size	.L.str, 15

	.type	.L.str.1,%object                @ @.str.1
.L.str.1:
	.asciz	"r0  = 0x%x\n"
	.size	.L.str.1, 12

	.type	.L.str.2,%object                @ @.str.2
.L.str.2:
	.asciz	"r1  = 0x%x\n"
	.size	.L.str.2, 12

	.type	.L.str.3,%object                @ @.str.3
.L.str.3:
	.asciz	"r2  = 0x%x\n"
	.size	.L.str.3, 12

	.type	.L.str.4,%object                @ @.str.4
.L.str.4:
	.asciz	"r3  = 0x%x\n"
	.size	.L.str.4, 12

	.type	.L.str.5,%object                @ @.str.5
.L.str.5:
	.asciz	"r12 = 0x%x\n"
	.size	.L.str.5, 12

	.type	.L.str.6,%object                @ @.str.6
.L.str.6:
	.asciz	"lr  = 0x%x\n"
	.size	.L.str.6, 12

	.type	.L.str.7,%object                @ @.str.7
.L.str.7:
	.asciz	"pc  = 0x%x\n"
	.size	.L.str.7, 12

	.type	.L.str.8,%object                @ @.str.8
.L.str.8:
	.asciz	"psr = 0x%x\n"
	.size	.L.str.8, 12

	.hidden	__stdout                        @ @__stdout
	.type	__stdout,%object
	.section	.bss.__stdout,"aw",%nobits
	.globl	__stdout
	.p2align	2, 0x0
__stdout:
	.zero	84
	.size	__stdout, 84

	.hidden	__stdin                         @ @__stdin
	.type	__stdin,%object
	.section	.bss.__stdin,"aw",%nobits
	.globl	__stdin
	.p2align	2, 0x0
__stdin:
	.zero	84
	.size	__stdin, 84

	.section	".note.GNU-stack","",%progbits
	.eabi_attribute	30, 6	@ Tag_ABI_optimization_goals
	.ARM_attribute	16, 1	@ Tag_AV_eba