	.text
	.syntax unified
	.eabi_attribute	67, "2.09"	@ Tag_conformance
	.cpu	cortex-m23
	.eabi_attribute	6, 16	@ Tag_CPU_arch
	.eabi_attribute	7, 77	@ Tag_CPU_arch_profile
	.eabi_attribute	8, 0	@ Tag_ARM_ISA_use
	.eabi_attribute	9, 3	@ Tag_THUMB_ISA_use
	.eabi_attribute	34, 0	@ Tag_CPU_unaligned_access
	.eabi_attribute	17, 1	@ Tag_ABI_PCS_GOT_use
	.eabi_attribute	20, 2	@ Tag_ABI_FP_denormal
	.eabi_attribute	21, 0	@ Tag_ABI_FP_exceptions
	.eabi_attribute	23, 1	@ Tag_ABI_FP_number_model
	.eabi_attribute	24, 1	@ Tag_ABI_align_needed
	.eabi_attribute	25, 1	@ Tag_ABI_align_preserved
	.eabi_attribute	38, 1	@ Tag_ABI_FP_16bit_format
	.eabi_attribute	18, 4	@ Tag_ABI_PCS_wchar_t
	.eabi_attribute	26, 2	@ Tag_ABI_enum_size
	.eabi_attribute	14, 0	@ Tag_ABI_PCS_R9_use
	.file	"rtc.c"
	.file	1 "C:\\Users\\Anaya\\AppData\\Local\\Keil_v5\\ARM\\ARMCLANG\\bin\\..\\include" "stdint.h"
	.file	2 "D:\\work\\dheeraj\\local\\CEL\\CCC\\CCC_CPU0\\Code" "../../CCC_common/Library/StdDriver/src/rtc.c"
	.file	3 "D:\\work\\dheeraj\\local\\CEL\\CCC\\CCC_CPU0\\Code" "../../CCC_common/Library/Device/Nuvoton/M261/Include\\rtc_reg.h"
	.file	4 "D:\\work\\dheeraj\\local\\CEL\\CCC\\CCC_CPU0\\Code" "../../CCC_common/Library/Device/Nuvoton/M261/Include\\clk_reg.h"
	.section	.text.RTC_Open,"ax",%progbits
	.hidden	RTC_Open                        @ -- Begin function RTC_Open
	.globl	RTC_Open
	.p2align	2
	.type	RTC_Open,%function
	.code	16                              @ @RTC_Open
	.thumb_func
RTC_Open:
.Lfunc_begin0:
	.loc	2 67 0                          @ ../../CCC_common/Library/StdDriver/src/rtc.c:67:0
	.fnstart
	.cfi_sections .debug_frame
	.cfi_startproc
@ %bb.0:
	.save	{r7, lr}
	push	{r7, lr}
	.cfi_def_cfa_offset 8
	.cfi_offset lr, -4
	.cfi_offset r7, -8
	.pad	#16
	sub	sp, #16
	.cfi_def_cfa_offset 24
	str	r0, [sp, #8]
.Ltmp0:
	.loc	2 68 32 prologue_end            @ ../../CCC_common/Library/StdDriver/src/rtc.c:68:32
	ldr	r0, __arm_cp.0_0
	ldr	r0, [r0]
	.loc	2 68 14 is_stmt 0               @ ../../CCC_common/Library/StdDriver/src/rtc.c:68:14
	str	r0, [sp, #4]
	ldr	r0, __arm_cp.0_1
	.loc	2 71 10 is_stmt 1               @ ../../CCC_common/Library/StdDriver/src/rtc.c:71:10
	str	r0, [sp]
	.loc	2 73 5                          @ ../../CCC_common/Library/StdDriver/src/rtc.c:73:5
	ldr	r1, [sp]
	ldr	r0, __arm_cp.0_2
	.loc	2 73 16 is_stmt 0               @ ../../CCC_common/Library/StdDriver/src/rtc.c:73:16
	str	r0, [r1]
.Ltmp1:
	.loc	2 75 8 is_stmt 1                @ ../../CCC_common/Library/StdDriver/src/rtc.c:75:8
	ldr	r0, [sp]
	.loc	2 75 14 is_stmt 0               @ ../../CCC_common/Library/StdDriver/src/rtc.c:75:14
	ldr	r0, [r0]
.Ltmp2:
	.loc	2 75 8                          @ ../../CCC_common/Library/StdDriver/src/rtc.c:75:8
	cmp	r0, #1
	beq	.LBB0_7
	b	.LBB0_1
.LBB0_1:
.Ltmp3:
	.loc	2 77 9 is_stmt 1                @ ../../CCC_common/Library/StdDriver/src/rtc.c:77:9
	ldr	r1, [sp]
	ldr	r0, __arm_cp.0_2
	.loc	2 77 20 is_stmt 0               @ ../../CCC_common/Library/StdDriver/src/rtc.c:77:20
	str	r0, [r1]
	.loc	2 78 9 is_stmt 1                @ ../../CCC_common/Library/StdDriver/src/rtc.c:78:9
	b	.LBB0_2
.LBB0_2:                                @ =>This Inner Loop Header: Depth=1
	.loc	2 78 15 is_stmt 0               @ ../../CCC_common/Library/StdDriver/src/rtc.c:78:15
	ldr	r0, [sp]
	.loc	2 78 21                         @ ../../CCC_common/Library/StdDriver/src/rtc.c:78:21
	ldr	r0, [r0]
	.loc	2 78 9                          @ ../../CCC_common/Library/StdDriver/src/rtc.c:78:9
	cmp	r0, #1
	beq	.LBB0_6
	b	.LBB0_3
.LBB0_3:                                @   in Loop: Header=BB0_2 Depth=1
.Ltmp4:
	.loc	2 80 16 is_stmt 1               @ ../../CCC_common/Library/StdDriver/src/rtc.c:80:16
	ldr	r0, [sp, #4]
	subs	r0, r0, #1
	str	r0, [sp, #4]
.Ltmp5:
	.loc	2 80 16 is_stmt 0               @ ../../CCC_common/Library/StdDriver/src/rtc.c:80:16
	cbnz	r0, .LBB0_5
	b	.LBB0_4
.LBB0_4:
	.loc	2 0 16                          @ ../../CCC_common/Library/StdDriver/src/rtc.c:0:16
	movs	r0, #0
	mvns	r0, r0
.Ltmp6:
	.loc	2 80 40                         @ ../../CCC_common/Library/StdDriver/src/rtc.c:80:40
	str	r0, [sp, #12]
	b	.LBB0_11
.Ltmp7:
.LBB0_5:                                @   in Loop: Header=BB0_2 Depth=1
	.loc	2 78 9 is_stmt 1                @ ../../CCC_common/Library/StdDriver/src/rtc.c:78:9
	b	.LBB0_2
.LBB0_6:
	.loc	2 82 5                          @ ../../CCC_common/Library/StdDriver/src/rtc.c:82:5
	b	.LBB0_7
.Ltmp8:
.LBB0_7:
	.loc	2 84 8                          @ ../../CCC_common/Library/StdDriver/src/rtc.c:84:8
	ldr	r0, [sp, #8]
.Ltmp9:
	.loc	2 84 8 is_stmt 0                @ ../../CCC_common/Library/StdDriver/src/rtc.c:84:8
	cbnz	r0, .LBB0_9
	b	.LBB0_8
.LBB0_8:
.Ltmp10:
	.loc	2 87 5 is_stmt 1                @ ../../CCC_common/Library/StdDriver/src/rtc.c:87:5
	b	.LBB0_10
.Ltmp11:
.LBB0_9:
	.loc	2 91 28                         @ ../../CCC_common/Library/StdDriver/src/rtc.c:91:28
	ldr	r0, [sp, #8]
	.loc	2 91 9 is_stmt 0                @ ../../CCC_common/Library/StdDriver/src/rtc.c:91:9
	bl	RTC_SetDateAndTime
	b	.LBB0_10
.Ltmp12:
.LBB0_10:
	.loc	2 0 9                           @ ../../CCC_common/Library/StdDriver/src/rtc.c:0:9
	movs	r0, #0
	.loc	2 94 5 is_stmt 1                @ ../../CCC_common/Library/StdDriver/src/rtc.c:94:5
	str	r0, [sp, #12]
	b	.LBB0_11
.LBB0_11:
	.loc	2 95 1                          @ ../../CCC_common/Library/StdDriver/src/rtc.c:95:1
	ldr	r0, [sp, #12]
	.loc	2 95 1 epilogue_begin is_stmt 0 @ ../../CCC_common/Library/StdDriver/src/rtc.c:95:1
	add	sp, #16
	pop	{r7, pc}
.Ltmp13:
	.loc	2 0 1                           @ :0:1
.Ltmp14:
	.p2align	2
@ %bb.12:
__arm_cp.0_0:
	.long	SystemCoreClock
.Lcpi_end0:
	.size	__arm_cp.0_0, .Lcpi_end0-__arm_cp.0_0
__arm_cp.0_1:
	.long	1074008064                      @ 0x40041000
.Lcpi_end1:
	.size	__arm_cp.0_1, .Lcpi_end1-__arm_cp.0_1
__arm_cp.0_2:
	.long	2783646551                      @ 0xa5eb1357
.Lcpi_end2:
	.size	__arm_cp.0_2, .Lcpi_end2-__arm_cp.0_2
.Lfunc_end0:
	.size	RTC_Open, .Lfunc_end0-RTC_Open
	.cfi_endproc
	.cantunwind
	.fnend
                                        @ -- End function
	.section	.text.RTC_SetDateAndTime,"ax",%progbits
	.hidden	RTC_SetDateAndTime              @ -- Begin function RTC_SetDateAndTime
	.globl	RTC_SetDateAndTime
	.p2align	2
	.type	RTC_SetDateAndTime,%function
	.code	16                              @ @RTC_SetDateAndTime
	.thumb_func
RTC_SetDateAndTime:
.Lfunc_begin1:
	.loc	2 362 0 is_stmt 1               @ ../../CCC_common/Library/StdDriver/src/rtc.c:362:0
	.fnstart
	.cfi_startproc
@ %bb.0:
	.save	{r7, lr}
	push	{r7, lr}
	.cfi_def_cfa_offset 8
	.cfi_offset lr, -4
	.cfi_offset r7, -8
	.pad	#24
	sub	sp, #24
	.cfi_def_cfa_offset 32
	str	r0, [sp, #20]
	ldr	r0, __arm_cp.1_0
.Ltmp15:
	.loc	2 366 10 prologue_end           @ ../../CCC_common/Library/StdDriver/src/rtc.c:366:10
	str	r0, [sp, #8]
.Ltmp16:
	.loc	2 368 8                         @ ../../CCC_common/Library/StdDriver/src/rtc.c:368:8
	ldr	r0, [sp, #20]
.Ltmp17:
	.loc	2 368 8 is_stmt 0               @ ../../CCC_common/Library/StdDriver/src/rtc.c:368:8
	cbnz	r0, .LBB1_2
	b	.LBB1_1
.LBB1_1:
.Ltmp18:
	.loc	2 371 5 is_stmt 1               @ ../../CCC_common/Library/StdDriver/src/rtc.c:371:5
	b	.LBB1_8
.Ltmp19:
.LBB1_2:
	.loc	2 377 9                         @ ../../CCC_common/Library/StdDriver/src/rtc.c:377:9
	bl	RTC_WaitAccessEnable
.Ltmp20:
	.loc	2 378 12                        @ ../../CCC_common/Library/StdDriver/src/rtc.c:378:12
	ldr	r0, [sp, #20]
	.loc	2 378 17 is_stmt 0              @ ../../CCC_common/Library/StdDriver/src/rtc.c:378:17
	ldr	r0, [r0, #28]
.Ltmp21:
	.loc	2 378 12                        @ ../../CCC_common/Library/StdDriver/src/rtc.c:378:12
	cbnz	r0, .LBB1_6
	b	.LBB1_3
.LBB1_3:
.Ltmp22:
	.loc	2 380 13 is_stmt 1              @ ../../CCC_common/Library/StdDriver/src/rtc.c:380:13
	ldr	r1, [sp, #8]
	.loc	2 380 26 is_stmt 0              @ ../../CCC_common/Library/StdDriver/src/rtc.c:380:26
	ldr	r0, [r1, #20]
	movs	r2, #1
	bics	r0, r2
	str	r0, [r1, #20]
.Ltmp23:
	.loc	2 385 16 is_stmt 1              @ ../../CCC_common/Library/StdDriver/src/rtc.c:385:16
	ldr	r0, [sp, #20]
	.loc	2 385 21 is_stmt 0              @ ../../CCC_common/Library/StdDriver/src/rtc.c:385:21
	ldr	r0, [r0, #32]
.Ltmp24:
	.loc	2 385 16                        @ ../../CCC_common/Library/StdDriver/src/rtc.c:385:16
	cmp	r0, #2
	bne	.LBB1_5
	b	.LBB1_4
.LBB1_4:
.Ltmp25:
	.loc	2 387 17 is_stmt 1              @ ../../CCC_common/Library/StdDriver/src/rtc.c:387:17
	ldr	r1, [sp, #20]
	.loc	2 387 30 is_stmt 0              @ ../../CCC_common/Library/StdDriver/src/rtc.c:387:30
	ldr	r0, [r1, #16]
	adds	r0, #20
	str	r0, [r1, #16]
	.loc	2 388 13 is_stmt 1              @ ../../CCC_common/Library/StdDriver/src/rtc.c:388:13
	b	.LBB1_5
.Ltmp26:
.LBB1_5:
	.loc	2 389 9                         @ ../../CCC_common/Library/StdDriver/src/rtc.c:389:9
	b	.LBB1_7
.Ltmp27:
.LBB1_6:
	.loc	2 392 13                        @ ../../CCC_common/Library/StdDriver/src/rtc.c:392:13
	ldr	r1, [sp, #8]
	.loc	2 392 26 is_stmt 0              @ ../../CCC_common/Library/StdDriver/src/rtc.c:392:26
	ldr	r0, [r1, #20]
	movs	r2, #1
	orrs	r0, r2
	str	r0, [r1, #20]
	b	.LBB1_7
.Ltmp28:
.LBB1_7:
	.loc	2 396 25 is_stmt 1              @ ../../CCC_common/Library/StdDriver/src/rtc.c:396:25
	ldr	r0, [sp, #20]
	.loc	2 396 30 is_stmt 0              @ ../../CCC_common/Library/StdDriver/src/rtc.c:396:30
	ldr	r0, [r0, #12]
	.loc	2 396 9                         @ ../../CCC_common/Library/StdDriver/src/rtc.c:396:9
	ldr	r1, [sp, #8]
	.loc	2 396 23                        @ ../../CCC_common/Library/StdDriver/src/rtc.c:396:23
	str	r0, [r1, #24]
	.loc	2 401 24 is_stmt 1              @ ../../CCC_common/Library/StdDriver/src/rtc.c:401:24
	ldr	r0, [sp, #20]
	.loc	2 401 29 is_stmt 0              @ ../../CCC_common/Library/StdDriver/src/rtc.c:401:29
	ldr	r0, [r0]
	.loc	2 401 37                        @ ../../CCC_common/Library/StdDriver/src/rtc.c:401:37
	movw	r2, #2000
	subs	r0, r0, r2
	movs	r1, #10
	.loc	2 401 63                        @ ../../CCC_common/Library/StdDriver/src/rtc.c:401:63
	str	r1, [sp, #4]                    @ 4-byte Spill
	udiv	r0, r0, r1
	.loc	2 401 71                        @ ../../CCC_common/Library/StdDriver/src/rtc.c:401:71
	lsls	r0, r0, #20
	.loc	2 401 20                        @ ../../CCC_common/Library/StdDriver/src/rtc.c:401:20
	str	r0, [sp, #16]
	.loc	2 402 25 is_stmt 1              @ ../../CCC_common/Library/StdDriver/src/rtc.c:402:25
	ldr	r0, [sp, #20]
	.loc	2 402 30 is_stmt 0              @ ../../CCC_common/Library/StdDriver/src/rtc.c:402:30
	ldr	r0, [r0]
	.loc	2 402 38                        @ ../../CCC_common/Library/StdDriver/src/rtc.c:402:38
	subs	r0, r0, r2
	.loc	2 402 64                        @ ../../CCC_common/Library/StdDriver/src/rtc.c:402:64
	udiv	r3, r0, r1
	mov	r2, r1
	muls	r2, r3, r2
	subs	r0, r0, r2
	.loc	2 402 72                        @ ../../CCC_common/Library/StdDriver/src/rtc.c:402:72
	lsls	r2, r0, #16
	.loc	2 402 19                        @ ../../CCC_common/Library/StdDriver/src/rtc.c:402:19
	ldr	r0, [sp, #16]
	orrs	r0, r2
	str	r0, [sp, #16]
	.loc	2 403 24 is_stmt 1              @ ../../CCC_common/Library/StdDriver/src/rtc.c:403:24
	ldr	r0, [sp, #20]
	.loc	2 403 29 is_stmt 0              @ ../../CCC_common/Library/StdDriver/src/rtc.c:403:29
	ldr	r0, [r0, #4]
	.loc	2 403 39                        @ ../../CCC_common/Library/StdDriver/src/rtc.c:403:39
	udiv	r0, r0, r1
	.loc	2 403 47                        @ ../../CCC_common/Library/StdDriver/src/rtc.c:403:47
	lsls	r2, r0, #12
	.loc	2 403 19                        @ ../../CCC_common/Library/StdDriver/src/rtc.c:403:19
	ldr	r0, [sp, #16]
	orrs	r0, r2
	str	r0, [sp, #16]
	.loc	2 404 24 is_stmt 1              @ ../../CCC_common/Library/StdDriver/src/rtc.c:404:24
	ldr	r0, [sp, #20]
	.loc	2 404 29 is_stmt 0              @ ../../CCC_common/Library/StdDriver/src/rtc.c:404:29
	ldr	r0, [r0, #4]
	.loc	2 404 39                        @ ../../CCC_common/Library/StdDriver/src/rtc.c:404:39
	udiv	r3, r0, r1
	mov	r2, r1
	muls	r2, r3, r2
	subs	r0, r0, r2
	.loc	2 404 47                        @ ../../CCC_common/Library/StdDriver/src/rtc.c:404:47
	lsls	r2, r0, #8
	.loc	2 404 19                        @ ../../CCC_common/Library/StdDriver/src/rtc.c:404:19
	ldr	r0, [sp, #16]
	orrs	r0, r2
	str	r0, [sp, #16]
	.loc	2 405 24 is_stmt 1              @ ../../CCC_common/Library/StdDriver/src/rtc.c:405:24
	ldr	r0, [sp, #20]
	.loc	2 405 29 is_stmt 0              @ ../../CCC_common/Library/StdDriver/src/rtc.c:405:29
	ldr	r0, [r0, #8]
	.loc	2 405 39                        @ ../../CCC_common/Library/StdDriver/src/rtc.c:405:39
	udiv	r0, r0, r1
	.loc	2 405 47                        @ ../../CCC_common/Library/StdDriver/src/rtc.c:405:47
	lsls	r2, r0, #4
	.loc	2 405 19                        @ ../../CCC_common/Library/StdDriver/src/rtc.c:405:19
	ldr	r0, [sp, #16]
	orrs	r0, r2
	str	r0, [sp, #16]
	.loc	2 406 23 is_stmt 1              @ ../../CCC_common/Library/StdDriver/src/rtc.c:406:23
	ldr	r0, [sp, #20]
	.loc	2 406 28 is_stmt 0              @ ../../CCC_common/Library/StdDriver/src/rtc.c:406:28
	ldr	r0, [r0, #8]
	.loc	2 406 39                        @ ../../CCC_common/Library/StdDriver/src/rtc.c:406:39
	udiv	r3, r0, r1
	mov	r2, r1
	muls	r2, r3, r2
	subs	r2, r0, r2
	.loc	2 406 19                        @ ../../CCC_common/Library/StdDriver/src/rtc.c:406:19
	ldr	r0, [sp, #16]
	orrs	r0, r2
	str	r0, [sp, #16]
	.loc	2 408 25 is_stmt 1              @ ../../CCC_common/Library/StdDriver/src/rtc.c:408:25
	ldr	r0, [sp, #20]
	.loc	2 408 30 is_stmt 0              @ ../../CCC_common/Library/StdDriver/src/rtc.c:408:30
	ldr	r0, [r0, #16]
	.loc	2 408 40                        @ ../../CCC_common/Library/StdDriver/src/rtc.c:408:40
	udiv	r0, r0, r1
	.loc	2 408 48                        @ ../../CCC_common/Library/StdDriver/src/rtc.c:408:48
	lsls	r0, r0, #20
	.loc	2 408 21                        @ ../../CCC_common/Library/StdDriver/src/rtc.c:408:21
	str	r0, [sp, #12]
	.loc	2 409 25 is_stmt 1              @ ../../CCC_common/Library/StdDriver/src/rtc.c:409:25
	ldr	r0, [sp, #20]
	.loc	2 409 30 is_stmt 0              @ ../../CCC_common/Library/StdDriver/src/rtc.c:409:30
	ldr	r0, [r0, #16]
	.loc	2 409 40                        @ ../../CCC_common/Library/StdDriver/src/rtc.c:409:40
	udiv	r3, r0, r1
	mov	r2, r1
	muls	r2, r3, r2
	subs	r0, r0, r2
	.loc	2 409 48                        @ ../../CCC_common/Library/StdDriver/src/rtc.c:409:48
	lsls	r2, r0, #16
	.loc	2 409 20                        @ ../../CCC_common/Library/StdDriver/src/rtc.c:409:20
	ldr	r0, [sp, #12]
	orrs	r0, r2
	str	r0, [sp, #12]
	.loc	2 410 25 is_stmt 1              @ ../../CCC_common/Library/StdDriver/src/rtc.c:410:25
	ldr	r0, [sp, #20]
	.loc	2 410 30 is_stmt 0              @ ../../CCC_common/Library/StdDriver/src/rtc.c:410:30
	ldr	r0, [r0, #20]
	.loc	2 410 40                        @ ../../CCC_common/Library/StdDriver/src/rtc.c:410:40
	udiv	r0, r0, r1
	.loc	2 410 48                        @ ../../CCC_common/Library/StdDriver/src/rtc.c:410:48
	lsls	r2, r0, #12
	.loc	2 410 20                        @ ../../CCC_common/Library/StdDriver/src/rtc.c:410:20
	ldr	r0, [sp, #12]
	orrs	r0, r2
	str	r0, [sp, #12]
	.loc	2 411 25 is_stmt 1              @ ../../CCC_common/Library/StdDriver/src/rtc.c:411:25
	ldr	r0, [sp, #20]
	.loc	2 411 30 is_stmt 0              @ ../../CCC_common/Library/StdDriver/src/rtc.c:411:30
	ldr	r0, [r0, #20]
	.loc	2 411 40                        @ ../../CCC_common/Library/StdDriver/src/rtc.c:411:40
	udiv	r3, r0, r1
	mov	r2, r1
	muls	r2, r3, r2
	subs	r0, r0, r2
	.loc	2 411 48                        @ ../../CCC_common/Library/StdDriver/src/rtc.c:411:48
	lsls	r2, r0, #8
	.loc	2 411 20                        @ ../../CCC_common/Library/StdDriver/src/rtc.c:411:20
	ldr	r0, [sp, #12]
	orrs	r0, r2
	str	r0, [sp, #12]
	.loc	2 412 25 is_stmt 1              @ ../../CCC_common/Library/StdDriver/src/rtc.c:412:25
	ldr	r0, [sp, #20]
	.loc	2 412 30 is_stmt 0              @ ../../CCC_common/Library/StdDriver/src/rtc.c:412:30
	ldr	r0, [r0, #24]
	.loc	2 412 40                        @ ../../CCC_common/Library/StdDriver/src/rtc.c:412:40
	udiv	r0, r0, r1
	.loc	2 412 48                        @ ../../CCC_common/Library/StdDriver/src/rtc.c:412:48
	lsls	r2, r0, #4
	.loc	2 412 20                        @ ../../CCC_common/Library/StdDriver/src/rtc.c:412:20
	ldr	r0, [sp, #12]
	orrs	r0, r2
	str	r0, [sp, #12]
	.loc	2 413 24 is_stmt 1              @ ../../CCC_common/Library/StdDriver/src/rtc.c:413:24
	ldr	r0, [sp, #20]
	.loc	2 413 29 is_stmt 0              @ ../../CCC_common/Library/StdDriver/src/rtc.c:413:29
	ldr	r0, [r0, #24]
	.loc	2 413 39                        @ ../../CCC_common/Library/StdDriver/src/rtc.c:413:39
	udiv	r2, r0, r1
	muls	r1, r2, r1
	subs	r1, r0, r1
	.loc	2 413 20                        @ ../../CCC_common/Library/StdDriver/src/rtc.c:413:20
	ldr	r0, [sp, #12]
	orrs	r0, r1
	str	r0, [sp, #12]
	.loc	2 418 9 is_stmt 1               @ ../../CCC_common/Library/StdDriver/src/rtc.c:418:9
	bl	RTC_WaitAccessEnable
	.loc	2 419 32                        @ ../../CCC_common/Library/StdDriver/src/rtc.c:419:32
	ldr	r0, [sp, #16]
	.loc	2 419 9 is_stmt 0               @ ../../CCC_common/Library/StdDriver/src/rtc.c:419:9
	ldr	r1, [sp, #8]
	.loc	2 419 20                        @ ../../CCC_common/Library/StdDriver/src/rtc.c:419:20
	str	r0, [r1, #16]
	.loc	2 420 9 is_stmt 1               @ ../../CCC_common/Library/StdDriver/src/rtc.c:420:9
	bl	RTC_WaitAccessEnable
	.loc	2 421 32                        @ ../../CCC_common/Library/StdDriver/src/rtc.c:421:32
	ldr	r0, [sp, #12]
	.loc	2 421 9 is_stmt 0               @ ../../CCC_common/Library/StdDriver/src/rtc.c:421:9
	ldr	r1, [sp, #8]
	.loc	2 421 20                        @ ../../CCC_common/Library/StdDriver/src/rtc.c:421:20
	str	r0, [r1, #12]
	b	.LBB1_8
.Ltmp29:
.LBB1_8:
	.loc	2 423 1 epilogue_begin is_stmt 1 @ ../../CCC_common/Library/StdDriver/src/rtc.c:423:1
	add	sp, #24
	pop	{r7, pc}
.Ltmp30:
	.loc	2 0 1 is_stmt 0                 @ :0:1
.Ltmp31:
	.p2align	2
@ %bb.9:
__arm_cp.1_0:
	.long	1074008064                      @ 0x40041000
.Lcpi_end3:
	.size	__arm_cp.1_0, .Lcpi_end3-__arm_cp.1_0
.Lfunc_end1:
	.size	RTC_SetDateAndTime, .Lfunc_end1-RTC_SetDateAndTime
	.cfi_endproc
	.cantunwind
	.fnend
                                        @ -- End function
	.section	.text.RTC_Close,"ax",%progbits
	.hidden	RTC_Close                       @ -- Begin function RTC_Close
	.globl	RTC_Close
	.p2align	2
	.type	RTC_Close,%function
	.code	16                              @ @RTC_Close
	.thumb_func
RTC_Close:
.Lfunc_begin2:
	.loc	2 107 0 is_stmt 1               @ ../../CCC_common/Library/StdDriver/src/rtc.c:107:0
	.fnstart
	.cfi_startproc
@ %bb.0:
	ldr	r1, __arm_cp.2_0
.Ltmp32:
	.loc	2 108 18 prologue_end           @ ../../CCC_common/Library/StdDriver/src/rtc.c:108:18
	ldr	r0, [r1]
	movs	r2, #2
	bics	r0, r2
	str	r0, [r1]
	.loc	2 109 1                         @ ../../CCC_common/Library/StdDriver/src/rtc.c:109:1
	bx	lr
.Ltmp33:
	.loc	2 0 1 is_stmt 0                 @ :0:1
.Ltmp34:
	.p2align	2
@ %bb.1:
__arm_cp.2_0:
	.long	1073742344                      @ 0x40000208
.Lcpi_end4:
	.size	__arm_cp.2_0, .Lcpi_end4-__arm_cp.2_0
.Lfunc_end2:
	.size	RTC_Close, .Lfunc_end2-RTC_Close
	.cfi_endproc
	.cantunwind
	.fnend
                                        @ -- End function
	.section	.text.RTC_32KCalibration,"ax",%progbits
	.hidden	RTC_32KCalibration              @ -- Begin function RTC_32KCalibration
	.globl	RTC_32KCalibration
	.p2align	2
	.type	RTC_32KCalibration,%function
	.code	16                              @ @RTC_32KCalibration
	.thumb_func
RTC_32KCalibration:
.Lfunc_begin3:
	.loc	2 121 0 is_stmt 1               @ ../../CCC_common/Library/StdDriver/src/rtc.c:121:0
	.fnstart
	.cfi_startproc
@ %bb.0:
	.save	{r7, lr}
	push	{r7, lr}
	.cfi_def_cfa_offset 8
	.cfi_offset lr, -4
	.cfi_offset r7, -8
	.pad	#24
	sub	sp, #24
	.cfi_def_cfa_offset 32
	str	r0, [sp, #20]
	ldr	r0, __arm_cp.3_0
.Ltmp35:
	.loc	2 125 10 prologue_end           @ ../../CCC_common/Library/StdDriver/src/rtc.c:125:10
	str	r0, [sp, #4]
	ldr	r0, __arm_cp.3_1
	.loc	2 128 19                        @ ../../CCC_common/Library/StdDriver/src/rtc.c:128:19
	str	r0, [sp, #12]
	movs	r0, #0
	str	r0, [sp, #8]
	.loc	2 129 32                        @ ../../CCC_common/Library/StdDriver/src/rtc.c:129:32
	ldr	r0, [sp, #8]
	ldr	r1, [sp, #12]
	.loc	2 129 58 is_stmt 0              @ ../../CCC_common/Library/StdDriver/src/rtc.c:129:58
	ldr	r2, [sp, #20]
	asrs	r3, r2, #31
	.loc	2 129 46                        @ ../../CCC_common/Library/StdDriver/src/rtc.c:129:46
	bl	__aeabi_uldivmod
	.loc	2 129 19                        @ ../../CCC_common/Library/StdDriver/src/rtc.c:129:19
	str	r1, [sp, #12]
	str	r0, [sp, #8]
.Ltmp36:
	.loc	2 134 8 is_stmt 1               @ ../../CCC_common/Library/StdDriver/src/rtc.c:134:8
	ldr	r0, [sp, #12]
	ldr	r1, [sp, #8]
	.loc	2 134 22 is_stmt 0              @ ../../CCC_common/Library/StdDriver/src/rtc.c:134:22
	lsrs	r1, r1, #22
	orrs	r0, r1
.Ltmp37:
	.loc	2 134 8                         @ ../../CCC_common/Library/StdDriver/src/rtc.c:134:8
	cbz	r0, .LBB3_2
	b	.LBB3_1
.LBB3_1:
	.loc	2 0 8                           @ ../../CCC_common/Library/StdDriver/src/rtc.c:0:8
	movs	r0, #0
.Ltmp38:
	.loc	2 136 23 is_stmt 1              @ ../../CCC_common/Library/StdDriver/src/rtc.c:136:23
	str	r0, [sp, #12]
	ldr	r0, __arm_cp.3_2
	str	r0, [sp, #8]
	.loc	2 137 5                         @ ../../CCC_common/Library/StdDriver/src/rtc.c:137:5
	b	.LBB3_2
.Ltmp39:
.LBB3_2:
	.loc	2 139 5                         @ ../../CCC_common/Library/StdDriver/src/rtc.c:139:5
	bl	RTC_WaitAccessEnable
	.loc	2 140 31                        @ ../../CCC_common/Library/StdDriver/src/rtc.c:140:31
	ldr	r0, [sp, #8]
	.loc	2 140 5 is_stmt 0               @ ../../CCC_common/Library/StdDriver/src/rtc.c:140:5
	ldr	r1, [sp, #4]
	.loc	2 140 19                        @ ../../CCC_common/Library/StdDriver/src/rtc.c:140:19
	str	r0, [r1, #8]
	.loc	2 141 1 epilogue_begin is_stmt 1 @ ../../CCC_common/Library/StdDriver/src/rtc.c:141:1
	add	sp, #24
	pop	{r7, pc}
.Ltmp40:
	.loc	2 0 1 is_stmt 0                 @ :0:1
.Ltmp41:
	.p2align	2
@ %bb.3:
__arm_cp.3_0:
	.long	1074008064                      @ 0x40041000
.Lcpi_end5:
	.size	__arm_cp.3_0, .Lcpi_end5-__arm_cp.3_0
__arm_cp.3_1:
	.long	160000                          @ 0x27100
.Lcpi_end6:
	.size	__arm_cp.3_1, .Lcpi_end6-__arm_cp.3_1
__arm_cp.3_2:
	.long	4194303                         @ 0x3fffff
.Lcpi_end7:
	.size	__arm_cp.3_2, .Lcpi_end7-__arm_cp.3_2
.Lfunc_end3:
	.size	RTC_32KCalibration, .Lfunc_end3-RTC_32KCalibration
	.cfi_endproc
	.cantunwind
	.fnend
                                        @ -- End function
	.section	.text.RTC_WaitAccessEnable,"ax",%progbits
	.p2align	2                               @ -- Begin function RTC_WaitAccessEnable
	.type	RTC_WaitAccessEnable,%function
	.code	16                              @ @RTC_WaitAccessEnable
	.thumb_func
RTC_WaitAccessEnable:
.Lfunc_begin4:
	.file	5 "D:\\work\\dheeraj\\local\\CEL\\CCC\\CCC_CPU0\\Code" "../../CCC_common/Library/StdDriver/inc\\rtc.h"
	.loc	5 320 0 is_stmt 1               @ ../../CCC_common/Library/StdDriver/inc\rtc.h:320:0
	.fnstart
	.cfi_startproc
@ %bb.0:
	.pad	#4
	sub	sp, #4
	.cfi_def_cfa_offset 4
.Ltmp42:
	.loc	5 321 32 prologue_end           @ ../../CCC_common/Library/StdDriver/inc\rtc.h:321:32
	ldr	r0, __arm_cp.4_0
	ldr	r0, [r0]
	.loc	5 321 14 is_stmt 0              @ ../../CCC_common/Library/StdDriver/inc\rtc.h:321:14
	str	r0, [sp]
	.loc	5 323 5 is_stmt 1               @ ../../CCC_common/Library/StdDriver/inc\rtc.h:323:5
	b	.LBB4_1
.LBB4_1:                                @ =>This Inner Loop Header: Depth=1
	.loc	5 0 5 is_stmt 0                 @ ../../CCC_common/Library/StdDriver/inc\rtc.h:0:5
	ldr	r0, __arm_cp.4_1
	.loc	5 323 17                        @ ../../CCC_common/Library/StdDriver/inc\rtc.h:323:17
	ldr	r0, [r0]
	.loc	5 323 5                         @ ../../CCC_common/Library/StdDriver/inc\rtc.h:323:5
	lsls	r0, r0, #15
	cmp	r0, #0
	bmi	.LBB4_5
	b	.LBB4_2
.LBB4_2:                                @   in Loop: Header=BB4_1 Depth=1
.Ltmp43:
	.loc	5 325 12 is_stmt 1              @ ../../CCC_common/Library/StdDriver/inc\rtc.h:325:12
	ldr	r0, [sp]
	subs	r0, r0, #1
	str	r0, [sp]
.Ltmp44:
	.loc	5 325 12 is_stmt 0              @ ../../CCC_common/Library/StdDriver/inc\rtc.h:325:12
	cbnz	r0, .LBB4_4
	b	.LBB4_3
.LBB4_3:
.Ltmp45:
	.loc	5 325 36                        @ ../../CCC_common/Library/StdDriver/inc\rtc.h:325:36
	b	.LBB4_5
.Ltmp46:
.LBB4_4:                                @   in Loop: Header=BB4_1 Depth=1
	.loc	5 323 5 is_stmt 1               @ ../../CCC_common/Library/StdDriver/inc\rtc.h:323:5
	b	.LBB4_1
.LBB4_5:
	.loc	5 327 1 epilogue_begin          @ ../../CCC_common/Library/StdDriver/inc\rtc.h:327:1
	add	sp, #4
	bx	lr
.Ltmp47:
	.loc	5 0 1 is_stmt 0                 @ :0:1
.Ltmp48:
	.p2align	2
@ %bb.6:
__arm_cp.4_0:
	.long	SystemCoreClock
.Lcpi_end8:
	.size	__arm_cp.4_0, .Lcpi_end8-__arm_cp.4_0
__arm_cp.4_1:
	.long	1074008068                      @ 0x40041004
.Lcpi_end9:
	.size	__arm_cp.4_1, .Lcpi_end9-__arm_cp.4_1
.Lfunc_end4:
	.size	RTC_WaitAccessEnable, .Lfunc_end4-RTC_WaitAccessEnable
	.cfi_endproc
	.cantunwind
	.fnend
                                        @ -- End function
	.section	.text.RTC_GetDateAndTime,"ax",%progbits
	.hidden	RTC_GetDateAndTime              @ -- Begin function RTC_GetDateAndTime
	.globl	RTC_GetDateAndTime
	.p2align	2
	.type	RTC_GetDateAndTime,%function
	.code	16                              @ @RTC_GetDateAndTime
	.thumb_func
RTC_GetDateAndTime:
.Lfunc_begin5:
	.loc	2 162 0 is_stmt 1               @ ../../CCC_common/Library/StdDriver/src/rtc.c:162:0
	.fnstart
	.cfi_startproc
@ %bb.0:
	.save	{r4, r5, r6, r7, lr}
	push	{r4, r5, r6, r7, lr}
	.cfi_def_cfa_offset 20
	.cfi_offset lr, -4
	.cfi_offset r7, -8
	.cfi_offset r6, -12
	.cfi_offset r5, -16
	.cfi_offset r4, -20
	.pad	#24
	sub	sp, #24
	.cfi_def_cfa_offset 44
	str	r0, [sp, #20]
	ldr	r0, __arm_cp.5_0
.Ltmp49:
	.loc	2 166 10 prologue_end           @ ../../CCC_common/Library/StdDriver/src/rtc.c:166:10
	str	r0, [sp, #12]
	.loc	2 168 25                        @ ../../CCC_common/Library/StdDriver/src/rtc.c:168:25
	ldr	r0, [sp, #12]
	.loc	2 168 31 is_stmt 0              @ ../../CCC_common/Library/StdDriver/src/rtc.c:168:31
	ldr	r0, [r0, #20]
	movs	r1, #1
	.loc	2 168 38                        @ ../../CCC_common/Library/StdDriver/src/rtc.c:168:38
	ands	r0, r1
	.loc	2 168 5                         @ ../../CCC_common/Library/StdDriver/src/rtc.c:168:5
	ldr	r1, [sp, #20]
	.loc	2 168 23                        @ ../../CCC_common/Library/StdDriver/src/rtc.c:168:23
	str	r0, [r1, #28]
	.loc	2 169 25 is_stmt 1              @ ../../CCC_common/Library/StdDriver/src/rtc.c:169:25
	ldr	r0, [sp, #12]
	.loc	2 169 31 is_stmt 0              @ ../../CCC_common/Library/StdDriver/src/rtc.c:169:31
	ldr	r0, [r0, #24]
	movs	r1, #7
	.loc	2 169 39                        @ ../../CCC_common/Library/StdDriver/src/rtc.c:169:39
	ands	r0, r1
	.loc	2 169 5                         @ ../../CCC_common/Library/StdDriver/src/rtc.c:169:5
	ldr	r1, [sp, #20]
	.loc	2 169 23                        @ ../../CCC_common/Library/StdDriver/src/rtc.c:169:23
	str	r0, [r1, #12]
	.loc	2 172 21 is_stmt 1              @ ../../CCC_common/Library/StdDriver/src/rtc.c:172:21
	ldr	r0, [sp, #12]
	.loc	2 172 27 is_stmt 0              @ ../../CCC_common/Library/StdDriver/src/rtc.c:172:27
	ldr	r0, [r0, #16]
	movs	r7, #15
	lsls	r1, r7, #20
	.loc	2 172 31                        @ ../../CCC_common/Library/StdDriver/src/rtc.c:172:31
	ands	r0, r1
	.loc	2 172 54                        @ ../../CCC_common/Library/StdDriver/src/rtc.c:172:54
	lsrs	r0, r0, #20
	.loc	2 172 18                        @ ../../CCC_common/Library/StdDriver/src/rtc.c:172:18
	ldr	r1, __arm_cp.5_1
	str	r1, [sp, #8]                    @ 4-byte Spill
	str	r0, [r1]
	.loc	2 173 21 is_stmt 1              @ ../../CCC_common/Library/StdDriver/src/rtc.c:173:21
	ldr	r0, [sp, #12]
	.loc	2 173 27 is_stmt 0              @ ../../CCC_common/Library/StdDriver/src/rtc.c:173:27
	ldr	r0, [r0, #16]
	lsls	r1, r7, #16
	.loc	2 173 31                        @ ../../CCC_common/Library/StdDriver/src/rtc.c:173:31
	str	r1, [sp]                        @ 4-byte Spill
	ands	r0, r1
	.loc	2 173 51                        @ ../../CCC_common/Library/StdDriver/src/rtc.c:173:51
	lsrs	r0, r0, #16
	.loc	2 173 18                        @ ../../CCC_common/Library/StdDriver/src/rtc.c:173:18
	ldr	r5, __arm_cp.5_2
	str	r0, [r5]
	.loc	2 174 21 is_stmt 1              @ ../../CCC_common/Library/StdDriver/src/rtc.c:174:21
	ldr	r0, [sp, #12]
	.loc	2 174 27 is_stmt 0              @ ../../CCC_common/Library/StdDriver/src/rtc.c:174:27
	ldr	r0, [r0, #16]
	movw	r1, #4096
	.loc	2 174 31                        @ ../../CCC_common/Library/StdDriver/src/rtc.c:174:31
	ands	r0, r1
	.loc	2 174 53                        @ ../../CCC_common/Library/StdDriver/src/rtc.c:174:53
	lsrs	r0, r0, #12
	.loc	2 174 18                        @ ../../CCC_common/Library/StdDriver/src/rtc.c:174:18
	ldr	r3, __arm_cp.5_3
	str	r0, [r3]
	.loc	2 175 21 is_stmt 1              @ ../../CCC_common/Library/StdDriver/src/rtc.c:175:21
	ldr	r0, [sp, #12]
	.loc	2 175 27 is_stmt 0              @ ../../CCC_common/Library/StdDriver/src/rtc.c:175:27
	ldr	r0, [r0, #16]
	movw	r6, #3840
	.loc	2 175 31                        @ ../../CCC_common/Library/StdDriver/src/rtc.c:175:31
	ands	r0, r6
	.loc	2 175 50                        @ ../../CCC_common/Library/StdDriver/src/rtc.c:175:50
	lsrs	r0, r0, #8
	.loc	2 175 18                        @ ../../CCC_common/Library/StdDriver/src/rtc.c:175:18
	ldr	r4, __arm_cp.5_4
	str	r0, [r4]
	.loc	2 176 21 is_stmt 1              @ ../../CCC_common/Library/StdDriver/src/rtc.c:176:21
	ldr	r0, [sp, #12]
	.loc	2 176 27 is_stmt 0              @ ../../CCC_common/Library/StdDriver/src/rtc.c:176:27
	ldr	r0, [r0, #16]
	movs	r1, #48
	.loc	2 176 31                        @ ../../CCC_common/Library/StdDriver/src/rtc.c:176:31
	ands	r0, r1
	.loc	2 176 53                        @ ../../CCC_common/Library/StdDriver/src/rtc.c:176:53
	lsrs	r0, r0, #4
	.loc	2 176 18                        @ ../../CCC_common/Library/StdDriver/src/rtc.c:176:18
	ldr	r2, __arm_cp.5_5
	str	r0, [r2]
	.loc	2 177 21 is_stmt 1              @ ../../CCC_common/Library/StdDriver/src/rtc.c:177:21
	ldr	r0, [sp, #12]
	.loc	2 177 27 is_stmt 0              @ ../../CCC_common/Library/StdDriver/src/rtc.c:177:27
	ldr	r0, [r0, #16]
	.loc	2 177 31                        @ ../../CCC_common/Library/StdDriver/src/rtc.c:177:31
	ands	r0, r7
	.loc	2 177 18                        @ ../../CCC_common/Library/StdDriver/src/rtc.c:177:18
	ldr	r1, __arm_cp.5_6
	str	r1, [sp, #4]                    @ 4-byte Spill
	str	r0, [r1]
	.loc	2 180 20 is_stmt 1              @ ../../CCC_common/Library/StdDriver/src/rtc.c:180:20
	ldr	r0, [sp, #12]
	.loc	2 180 26 is_stmt 0              @ ../../CCC_common/Library/StdDriver/src/rtc.c:180:26
	ldr	r0, [r0, #12]
	movs	r1, #3
	lsls	r1, r1, #20
	.loc	2 180 31                        @ ../../CCC_common/Library/StdDriver/src/rtc.c:180:31
	ands	r0, r1
	.loc	2 180 53                        @ ../../CCC_common/Library/StdDriver/src/rtc.c:180:53
	lsrs	r0, r0, #20
	.loc	2 180 17                        @ ../../CCC_common/Library/StdDriver/src/rtc.c:180:17
	ldr	r1, __arm_cp.5_7
	str	r0, [r1]
	.loc	2 181 20 is_stmt 1              @ ../../CCC_common/Library/StdDriver/src/rtc.c:181:20
	ldr	r1, [sp]                        @ 4-byte Reload
	ldr	r0, [sp, #12]
	.loc	2 181 26 is_stmt 0              @ ../../CCC_common/Library/StdDriver/src/rtc.c:181:26
	ldr	r0, [r0, #12]
	.loc	2 181 31                        @ ../../CCC_common/Library/StdDriver/src/rtc.c:181:31
	ands	r0, r1
	.loc	2 181 50                        @ ../../CCC_common/Library/StdDriver/src/rtc.c:181:50
	lsrs	r0, r0, #16
	.loc	2 181 17                        @ ../../CCC_common/Library/StdDriver/src/rtc.c:181:17
	ldr	r1, __arm_cp.5_8
	str	r0, [r1]
	.loc	2 182 20 is_stmt 1              @ ../../CCC_common/Library/StdDriver/src/rtc.c:182:20
	ldr	r0, [sp, #12]
	.loc	2 182 26 is_stmt 0              @ ../../CCC_common/Library/StdDriver/src/rtc.c:182:26
	ldr	r0, [r0, #12]
	movw	r1, #28672
	.loc	2 182 31                        @ ../../CCC_common/Library/StdDriver/src/rtc.c:182:31
	ands	r0, r1
	.loc	2 182 54                        @ ../../CCC_common/Library/StdDriver/src/rtc.c:182:54
	lsrs	r0, r0, #12
	.loc	2 182 17                        @ ../../CCC_common/Library/StdDriver/src/rtc.c:182:17
	ldr	r1, __arm_cp.5_9
	str	r0, [r1]
	.loc	2 183 20 is_stmt 1              @ ../../CCC_common/Library/StdDriver/src/rtc.c:183:20
	ldr	r1, [sp, #4]                    @ 4-byte Reload
	ldr	r0, [sp, #12]
	.loc	2 183 26 is_stmt 0              @ ../../CCC_common/Library/StdDriver/src/rtc.c:183:26
	ldr	r0, [r0, #12]
	.loc	2 183 31                        @ ../../CCC_common/Library/StdDriver/src/rtc.c:183:31
	ands	r0, r6
	.loc	2 183 51                        @ ../../CCC_common/Library/StdDriver/src/rtc.c:183:51
	lsrs	r0, r0, #8
	.loc	2 183 17                        @ ../../CCC_common/Library/StdDriver/src/rtc.c:183:17
	ldr	r6, __arm_cp.5_10
	str	r0, [r6]
	.loc	2 184 20 is_stmt 1              @ ../../CCC_common/Library/StdDriver/src/rtc.c:184:20
	ldr	r0, [sp, #12]
	.loc	2 184 26 is_stmt 0              @ ../../CCC_common/Library/StdDriver/src/rtc.c:184:26
	ldr	r0, [r0, #12]
	movs	r6, #112
	.loc	2 184 31                        @ ../../CCC_common/Library/StdDriver/src/rtc.c:184:31
	ands	r0, r6
	.loc	2 184 54                        @ ../../CCC_common/Library/StdDriver/src/rtc.c:184:54
	lsrs	r6, r0, #4
	.loc	2 184 17                        @ ../../CCC_common/Library/StdDriver/src/rtc.c:184:17
	ldr	r0, __arm_cp.5_11
	str	r6, [r0]
	.loc	2 185 20 is_stmt 1              @ ../../CCC_common/Library/StdDriver/src/rtc.c:185:20
	ldr	r0, [sp, #8]                    @ 4-byte Reload
	ldr	r6, [sp, #12]
	.loc	2 185 26 is_stmt 0              @ ../../CCC_common/Library/StdDriver/src/rtc.c:185:26
	ldr	r6, [r6, #12]
	.loc	2 185 31                        @ ../../CCC_common/Library/StdDriver/src/rtc.c:185:31
	ands	r6, r7
	.loc	2 185 17                        @ ../../CCC_common/Library/StdDriver/src/rtc.c:185:17
	ldr	r7, __arm_cp.5_12
	str	r6, [r7]
	.loc	2 188 16 is_stmt 1              @ ../../CCC_common/Library/StdDriver/src/rtc.c:188:16
	ldr	r7, [r0]
	movs	r0, #10
	.loc	2 188 28 is_stmt 0              @ ../../CCC_common/Library/StdDriver/src/rtc.c:188:28
	mov	r6, r0
	muls	r6, r7, r6
	.loc	2 188 13                        @ ../../CCC_common/Library/StdDriver/src/rtc.c:188:13
	str	r6, [sp, #16]
	.loc	2 189 15 is_stmt 1              @ ../../CCC_common/Library/StdDriver/src/rtc.c:189:15
	ldr	r6, [r5]
	.loc	2 189 12 is_stmt 0              @ ../../CCC_common/Library/StdDriver/src/rtc.c:189:12
	ldr	r5, [sp, #16]
	adds	r5, r5, r6
	str	r5, [sp, #16]
	.loc	2 190 20 is_stmt 1              @ ../../CCC_common/Library/StdDriver/src/rtc.c:190:20
	ldr	r5, [sp, #16]
	movw	r6, #2000
	.loc	2 190 27 is_stmt 0              @ ../../CCC_common/Library/StdDriver/src/rtc.c:190:27
	adds	r5, r5, r6
	.loc	2 190 5                         @ ../../CCC_common/Library/StdDriver/src/rtc.c:190:5
	ldr	r6, [sp, #20]
	.loc	2 190 18                        @ ../../CCC_common/Library/StdDriver/src/rtc.c:190:18
	str	r5, [r6]
	.loc	2 193 15 is_stmt 1              @ ../../CCC_common/Library/StdDriver/src/rtc.c:193:15
	ldr	r5, [r3]
	.loc	2 193 28 is_stmt 0              @ ../../CCC_common/Library/StdDriver/src/rtc.c:193:28
	mov	r3, r0
	muls	r3, r5, r3
	.loc	2 193 12                        @ ../../CCC_common/Library/StdDriver/src/rtc.c:193:12
	str	r3, [sp, #16]
	.loc	2 194 21 is_stmt 1              @ ../../CCC_common/Library/StdDriver/src/rtc.c:194:21
	ldr	r3, [sp, #16]
	.loc	2 194 30 is_stmt 0              @ ../../CCC_common/Library/StdDriver/src/rtc.c:194:30
	ldr	r4, [r4]
	.loc	2 194 28                        @ ../../CCC_common/Library/StdDriver/src/rtc.c:194:28
	adds	r3, r3, r4
	.loc	2 194 5                         @ ../../CCC_common/Library/StdDriver/src/rtc.c:194:5
	ldr	r4, [sp, #20]
	.loc	2 194 19                        @ ../../CCC_common/Library/StdDriver/src/rtc.c:194:19
	str	r3, [r4, #4]
	.loc	2 197 15 is_stmt 1              @ ../../CCC_common/Library/StdDriver/src/rtc.c:197:15
	ldr	r2, [r2]
	.loc	2 197 26 is_stmt 0              @ ../../CCC_common/Library/StdDriver/src/rtc.c:197:26
	muls	r0, r2, r0
	.loc	2 197 12                        @ ../../CCC_common/Library/StdDriver/src/rtc.c:197:12
	str	r0, [sp, #16]
	.loc	2 198 20 is_stmt 1              @ ../../CCC_common/Library/StdDriver/src/rtc.c:198:20
	ldr	r0, [sp, #16]
	.loc	2 198 30 is_stmt 0              @ ../../CCC_common/Library/StdDriver/src/rtc.c:198:30
	ldr	r1, [r1]
	.loc	2 198 28                        @ ../../CCC_common/Library/StdDriver/src/rtc.c:198:28
	adds	r0, r0, r1
	.loc	2 198 5                         @ ../../CCC_common/Library/StdDriver/src/rtc.c:198:5
	ldr	r1, [sp, #20]
	.loc	2 198 17                        @ ../../CCC_common/Library/StdDriver/src/rtc.c:198:17
	str	r0, [r1, #8]
.Ltmp50:
	.loc	2 201 8 is_stmt 1               @ ../../CCC_common/Library/StdDriver/src/rtc.c:201:8
	ldr	r0, [sp, #20]
	.loc	2 201 13 is_stmt 0              @ ../../CCC_common/Library/StdDriver/src/rtc.c:201:13
	ldr	r0, [r0, #28]
.Ltmp51:
	.loc	2 201 8                         @ ../../CCC_common/Library/StdDriver/src/rtc.c:201:8
	cbnz	r0, .LBB5_5
	b	.LBB5_1
.LBB5_1:
.Ltmp52:
	.loc	2 203 19 is_stmt 1              @ ../../CCC_common/Library/StdDriver/src/rtc.c:203:19
	ldr	r0, __arm_cp.5_7
	ldr	r1, [r0]
	movs	r0, #10
	.loc	2 203 31 is_stmt 0              @ ../../CCC_common/Library/StdDriver/src/rtc.c:203:31
	muls	r0, r1, r0
	.loc	2 203 16                        @ ../../CCC_common/Library/StdDriver/src/rtc.c:203:16
	str	r0, [sp, #16]
	.loc	2 204 19 is_stmt 1              @ ../../CCC_common/Library/StdDriver/src/rtc.c:204:19
	ldr	r0, __arm_cp.5_8
	ldr	r1, [r0]
	.loc	2 204 16 is_stmt 0              @ ../../CCC_common/Library/StdDriver/src/rtc.c:204:16
	ldr	r0, [sp, #16]
	adds	r0, r0, r1
	str	r0, [sp, #16]
	.loc	2 205 24 is_stmt 1              @ ../../CCC_common/Library/StdDriver/src/rtc.c:205:24
	ldr	r0, [sp, #16]
	.loc	2 205 9 is_stmt 0               @ ../../CCC_common/Library/StdDriver/src/rtc.c:205:9
	ldr	r1, [sp, #20]
	.loc	2 205 22                        @ ../../CCC_common/Library/StdDriver/src/rtc.c:205:22
	str	r0, [r1, #16]
.Ltmp53:
	.loc	2 207 12 is_stmt 1              @ ../../CCC_common/Library/StdDriver/src/rtc.c:207:12
	ldr	r0, [sp, #20]
	.loc	2 207 17 is_stmt 0              @ ../../CCC_common/Library/StdDriver/src/rtc.c:207:17
	ldr	r0, [r0, #16]
.Ltmp54:
	.loc	2 207 12                        @ ../../CCC_common/Library/StdDriver/src/rtc.c:207:12
	cmp	r0, #21
	blo	.LBB5_3
	b	.LBB5_2
.LBB5_2:
.Ltmp55:
	.loc	2 209 13 is_stmt 1              @ ../../CCC_common/Library/StdDriver/src/rtc.c:209:13
	ldr	r1, [sp, #20]
	movs	r0, #2
	.loc	2 209 27 is_stmt 0              @ ../../CCC_common/Library/StdDriver/src/rtc.c:209:27
	str	r0, [r1, #32]
	.loc	2 210 13 is_stmt 1              @ ../../CCC_common/Library/StdDriver/src/rtc.c:210:13
	ldr	r1, [sp, #20]
	.loc	2 210 26 is_stmt 0              @ ../../CCC_common/Library/StdDriver/src/rtc.c:210:26
	ldr	r0, [r1, #16]
	subs	r0, #20
	str	r0, [r1, #16]
	.loc	2 211 9 is_stmt 1               @ ../../CCC_common/Library/StdDriver/src/rtc.c:211:9
	b	.LBB5_4
.Ltmp56:
.LBB5_3:
	.loc	2 214 13                        @ ../../CCC_common/Library/StdDriver/src/rtc.c:214:13
	ldr	r1, [sp, #20]
	movs	r0, #1
	.loc	2 214 26 is_stmt 0              @ ../../CCC_common/Library/StdDriver/src/rtc.c:214:26
	str	r0, [r1, #32]
	b	.LBB5_4
.Ltmp57:
.LBB5_4:
	.loc	2 217 20 is_stmt 1              @ ../../CCC_common/Library/StdDriver/src/rtc.c:217:20
	ldr	r0, __arm_cp.5_9
	ldr	r2, [r0]
	movs	r0, #10
	.loc	2 217 32 is_stmt 0              @ ../../CCC_common/Library/StdDriver/src/rtc.c:217:32
	mov	r1, r0
	muls	r1, r2, r1
	.loc	2 217 17                        @ ../../CCC_common/Library/StdDriver/src/rtc.c:217:17
	str	r1, [sp, #16]
	.loc	2 218 19 is_stmt 1              @ ../../CCC_common/Library/StdDriver/src/rtc.c:218:19
	ldr	r1, __arm_cp.5_10
	ldr	r2, [r1]
	.loc	2 218 16 is_stmt 0              @ ../../CCC_common/Library/StdDriver/src/rtc.c:218:16
	ldr	r1, [sp, #16]
	adds	r1, r1, r2
	str	r1, [sp, #16]
	.loc	2 219 26 is_stmt 1              @ ../../CCC_common/Library/StdDriver/src/rtc.c:219:26
	ldr	r1, [sp, #16]
	.loc	2 219 9 is_stmt 0               @ ../../CCC_common/Library/StdDriver/src/rtc.c:219:9
	ldr	r2, [sp, #20]
	.loc	2 219 24                        @ ../../CCC_common/Library/StdDriver/src/rtc.c:219:24
	str	r1, [r2, #20]
	.loc	2 221 20 is_stmt 1              @ ../../CCC_common/Library/StdDriver/src/rtc.c:221:20
	ldr	r1, __arm_cp.5_11
	ldr	r1, [r1]
	.loc	2 221 32 is_stmt 0              @ ../../CCC_common/Library/StdDriver/src/rtc.c:221:32
	muls	r0, r1, r0
	.loc	2 221 17                        @ ../../CCC_common/Library/StdDriver/src/rtc.c:221:17
	str	r0, [sp, #16]
	.loc	2 222 19 is_stmt 1              @ ../../CCC_common/Library/StdDriver/src/rtc.c:222:19
	ldr	r0, __arm_cp.5_12
	ldr	r1, [r0]
	.loc	2 222 16 is_stmt 0              @ ../../CCC_common/Library/StdDriver/src/rtc.c:222:16
	ldr	r0, [sp, #16]
	adds	r0, r0, r1
	str	r0, [sp, #16]
	.loc	2 223 26 is_stmt 1              @ ../../CCC_common/Library/StdDriver/src/rtc.c:223:26
	ldr	r0, [sp, #16]
	.loc	2 223 9 is_stmt 0               @ ../../CCC_common/Library/StdDriver/src/rtc.c:223:9
	ldr	r1, [sp, #20]
	.loc	2 223 24                        @ ../../CCC_common/Library/StdDriver/src/rtc.c:223:24
	str	r0, [r1, #24]
	.loc	2 224 5 is_stmt 1               @ ../../CCC_common/Library/StdDriver/src/rtc.c:224:5
	b	.LBB5_6
.Ltmp58:
.LBB5_5:
	.loc	2 227 20                        @ ../../CCC_common/Library/StdDriver/src/rtc.c:227:20
	ldr	r0, __arm_cp.5_7
	ldr	r2, [r0]
	movs	r0, #10
	.loc	2 227 32 is_stmt 0              @ ../../CCC_common/Library/StdDriver/src/rtc.c:227:32
	mov	r1, r0
	muls	r1, r2, r1
	.loc	2 227 17                        @ ../../CCC_common/Library/StdDriver/src/rtc.c:227:17
	str	r1, [sp, #16]
	.loc	2 228 19 is_stmt 1              @ ../../CCC_common/Library/StdDriver/src/rtc.c:228:19
	ldr	r1, __arm_cp.5_8
	ldr	r2, [r1]
	.loc	2 228 16 is_stmt 0              @ ../../CCC_common/Library/StdDriver/src/rtc.c:228:16
	ldr	r1, [sp, #16]
	adds	r1, r1, r2
	str	r1, [sp, #16]
	.loc	2 229 24 is_stmt 1              @ ../../CCC_common/Library/StdDriver/src/rtc.c:229:24
	ldr	r1, [sp, #16]
	.loc	2 229 9 is_stmt 0               @ ../../CCC_common/Library/StdDriver/src/rtc.c:229:9
	ldr	r2, [sp, #20]
	.loc	2 229 22                        @ ../../CCC_common/Library/StdDriver/src/rtc.c:229:22
	str	r1, [r2, #16]
	.loc	2 231 20 is_stmt 1              @ ../../CCC_common/Library/StdDriver/src/rtc.c:231:20
	ldr	r1, __arm_cp.5_9
	ldr	r2, [r1]
	.loc	2 231 31 is_stmt 0              @ ../../CCC_common/Library/StdDriver/src/rtc.c:231:31
	mov	r1, r0
	muls	r1, r2, r1
	.loc	2 231 17                        @ ../../CCC_common/Library/StdDriver/src/rtc.c:231:17
	str	r1, [sp, #16]
	.loc	2 232 20 is_stmt 1              @ ../../CCC_common/Library/StdDriver/src/rtc.c:232:20
	ldr	r1, __arm_cp.5_10
	ldr	r2, [r1]
	.loc	2 232 16 is_stmt 0              @ ../../CCC_common/Library/StdDriver/src/rtc.c:232:16
	ldr	r1, [sp, #16]
	adds	r1, r1, r2
	str	r1, [sp, #16]
	.loc	2 233 26 is_stmt 1              @ ../../CCC_common/Library/StdDriver/src/rtc.c:233:26
	ldr	r1, [sp, #16]
	.loc	2 233 9 is_stmt 0               @ ../../CCC_common/Library/StdDriver/src/rtc.c:233:9
	ldr	r2, [sp, #20]
	.loc	2 233 24                        @ ../../CCC_common/Library/StdDriver/src/rtc.c:233:24
	str	r1, [r2, #20]
	.loc	2 235 20 is_stmt 1              @ ../../CCC_common/Library/StdDriver/src/rtc.c:235:20
	ldr	r1, __arm_cp.5_11
	ldr	r1, [r1]
	.loc	2 235 31 is_stmt 0              @ ../../CCC_common/Library/StdDriver/src/rtc.c:235:31
	muls	r0, r1, r0
	.loc	2 235 17                        @ ../../CCC_common/Library/StdDriver/src/rtc.c:235:17
	str	r0, [sp, #16]
	.loc	2 236 19 is_stmt 1              @ ../../CCC_common/Library/StdDriver/src/rtc.c:236:19
	ldr	r0, __arm_cp.5_12
	ldr	r1, [r0]
	.loc	2 236 16 is_stmt 0              @ ../../CCC_common/Library/StdDriver/src/rtc.c:236:16
	ldr	r0, [sp, #16]
	adds	r0, r0, r1
	str	r0, [sp, #16]
	.loc	2 237 26 is_stmt 1              @ ../../CCC_common/Library/StdDriver/src/rtc.c:237:26
	ldr	r0, [sp, #16]
	.loc	2 237 9 is_stmt 0               @ ../../CCC_common/Library/StdDriver/src/rtc.c:237:9
	ldr	r1, [sp, #20]
	.loc	2 237 24                        @ ../../CCC_common/Library/StdDriver/src/rtc.c:237:24
	str	r0, [r1, #24]
	b	.LBB5_6
.Ltmp59:
.LBB5_6:
	.loc	2 239 1 epilogue_begin is_stmt 1 @ ../../CCC_common/Library/StdDriver/src/rtc.c:239:1
	add	sp, #24
	pop	{r4, r5, r6, r7, pc}
.Ltmp60:
	.loc	2 0 1 is_stmt 0                 @ :0:1
.Ltmp61:
	.p2align	2
@ %bb.7:
__arm_cp.5_0:
	.long	1074008064                      @ 0x40041000
.Lcpi_end10:
	.size	__arm_cp.5_0, .Lcpi_end10-__arm_cp.5_0
__arm_cp.5_1:
	.long	g_u32hiYear
.Lcpi_end11:
	.size	__arm_cp.5_1, .Lcpi_end11-__arm_cp.5_1
__arm_cp.5_2:
	.long	g_u32loYear
.Lcpi_end12:
	.size	__arm_cp.5_2, .Lcpi_end12-__arm_cp.5_2
__arm_cp.5_3:
	.long	g_u32hiMonth
.Lcpi_end13:
	.size	__arm_cp.5_3, .Lcpi_end13-__arm_cp.5_3
__arm_cp.5_4:
	.long	g_u32loMonth
.Lcpi_end14:
	.size	__arm_cp.5_4, .Lcpi_end14-__arm_cp.5_4
__arm_cp.5_5:
	.long	g_u32hiDay
.Lcpi_end15:
	.size	__arm_cp.5_5, .Lcpi_end15-__arm_cp.5_5
__arm_cp.5_6:
	.long	g_u32loDay
.Lcpi_end16:
	.size	__arm_cp.5_6, .Lcpi_end16-__arm_cp.5_6
__arm_cp.5_7:
	.long	g_u32hiHour
.Lcpi_end17:
	.size	__arm_cp.5_7, .Lcpi_end17-__arm_cp.5_7
__arm_cp.5_8:
	.long	g_u32loHour
.Lcpi_end18:
	.size	__arm_cp.5_8, .Lcpi_end18-__arm_cp.5_8
__arm_cp.5_9:
	.long	g_u32hiMin
.Lcpi_end19:
	.size	__arm_cp.5_9, .Lcpi_end19-__arm_cp.5_9
__arm_cp.5_10:
	.long	g_u32loMin
.Lcpi_end20:
	.size	__arm_cp.5_10, .Lcpi_end20-__arm_cp.5_10
__arm_cp.5_11:
	.long	g_u32hiSec
.Lcpi_end21:
	.size	__arm_cp.5_11, .Lcpi_end21-__arm_cp.5_11
__arm_cp.5_12:
	.long	g_u32loSec
.Lcpi_end22:
	.size	__arm_cp.5_12, .Lcpi_end22-__arm_cp.5_12
.Lfunc_end5:
	.size	RTC_GetDateAndTime, .Lfunc_end5-RTC_GetDateAndTime
	.cfi_endproc
	.cantunwind
	.fnend
                                        @ -- End function
	.section	.text.RTC_GetAlarmDateAndTime,"ax",%progbits
	.hidden	RTC_GetAlarmDateAndTime         @ -- Begin function RTC_GetAlarmDateAndTime
	.globl	RTC_GetAlarmDateAndTime
	.p2align	2
	.type	RTC_GetAlarmDateAndTime,%function
	.code	16                              @ @RTC_GetAlarmDateAndTime
	.thumb_func
RTC_GetAlarmDateAndTime:
.Lfunc_begin6:
	.loc	2 260 0 is_stmt 1               @ ../../CCC_common/Library/StdDriver/src/rtc.c:260:0
	.fnstart
	.cfi_startproc
@ %bb.0:
	.save	{r4, r5, r6, r7, lr}
	push	{r4, r5, r6, r7, lr}
	.cfi_def_cfa_offset 20
	.cfi_offset lr, -4
	.cfi_offset r7, -8
	.cfi_offset r6, -12
	.cfi_offset r5, -16
	.cfi_offset r4, -20
	.pad	#36
	sub	sp, #36
	.cfi_def_cfa_offset 56
	str	r0, [sp, #32]
	ldr	r0, __arm_cp.6_0
.Ltmp62:
	.loc	2 264 10 prologue_end           @ ../../CCC_common/Library/StdDriver/src/rtc.c:264:10
	str	r0, [sp, #24]
	.loc	2 266 25                        @ ../../CCC_common/Library/StdDriver/src/rtc.c:266:25
	ldr	r0, [sp, #24]
	.loc	2 266 31 is_stmt 0              @ ../../CCC_common/Library/StdDriver/src/rtc.c:266:31
	ldr	r0, [r0, #20]
	movs	r1, #1
	.loc	2 266 38                        @ ../../CCC_common/Library/StdDriver/src/rtc.c:266:38
	ands	r0, r1
	.loc	2 266 5                         @ ../../CCC_common/Library/StdDriver/src/rtc.c:266:5
	ldr	r1, [sp, #32]
	.loc	2 266 23                        @ ../../CCC_common/Library/StdDriver/src/rtc.c:266:23
	str	r0, [r1, #28]
	.loc	2 267 25 is_stmt 1              @ ../../CCC_common/Library/StdDriver/src/rtc.c:267:25
	ldr	r0, [sp, #24]
	.loc	2 267 31 is_stmt 0              @ ../../CCC_common/Library/StdDriver/src/rtc.c:267:31
	ldr	r0, [r0, #24]
	movs	r1, #7
	.loc	2 267 39                        @ ../../CCC_common/Library/StdDriver/src/rtc.c:267:39
	ands	r0, r1
	.loc	2 267 5                         @ ../../CCC_common/Library/StdDriver/src/rtc.c:267:5
	ldr	r1, [sp, #32]
	.loc	2 267 23                        @ ../../CCC_common/Library/StdDriver/src/rtc.c:267:23
	str	r0, [r1, #12]
	.loc	2 270 5 is_stmt 1               @ ../../CCC_common/Library/StdDriver/src/rtc.c:270:5
	bl	RTC_WaitAccessEnable
	.loc	2 271 21                        @ ../../CCC_common/Library/StdDriver/src/rtc.c:271:21
	ldr	r0, [sp, #24]
	.loc	2 271 27 is_stmt 0              @ ../../CCC_common/Library/StdDriver/src/rtc.c:271:27
	ldr	r0, [r0, #32]
	movs	r7, #15
	lsls	r1, r7, #20
	.loc	2 271 32                        @ ../../CCC_common/Library/StdDriver/src/rtc.c:271:32
	ands	r0, r1
	.loc	2 271 56                        @ ../../CCC_common/Library/StdDriver/src/rtc.c:271:56
	lsrs	r0, r0, #20
	.loc	2 271 18                        @ ../../CCC_common/Library/StdDriver/src/rtc.c:271:18
	ldr	r1, __arm_cp.6_1
	str	r1, [sp, #20]                   @ 4-byte Spill
	str	r0, [r1]
	.loc	2 272 21 is_stmt 1              @ ../../CCC_common/Library/StdDriver/src/rtc.c:272:21
	ldr	r0, [sp, #24]
	.loc	2 272 27 is_stmt 0              @ ../../CCC_common/Library/StdDriver/src/rtc.c:272:27
	ldr	r0, [r0, #32]
	lsls	r1, r7, #16
	.loc	2 272 32                        @ ../../CCC_common/Library/StdDriver/src/rtc.c:272:32
	str	r1, [sp, #12]                   @ 4-byte Spill
	ands	r0, r1
	.loc	2 272 53                        @ ../../CCC_common/Library/StdDriver/src/rtc.c:272:53
	lsrs	r0, r0, #16
	.loc	2 272 18                        @ ../../CCC_common/Library/StdDriver/src/rtc.c:272:18
	ldr	r5, __arm_cp.6_2
	str	r0, [r5]
	.loc	2 273 21 is_stmt 1              @ ../../CCC_common/Library/StdDriver/src/rtc.c:273:21
	ldr	r0, [sp, #24]
	.loc	2 273 27 is_stmt 0              @ ../../CCC_common/Library/StdDriver/src/rtc.c:273:27
	ldr	r0, [r0, #32]
	movw	r1, #4096
	.loc	2 273 32                        @ ../../CCC_common/Library/StdDriver/src/rtc.c:273:32
	ands	r0, r1
	.loc	2 273 55                        @ ../../CCC_common/Library/StdDriver/src/rtc.c:273:55
	lsrs	r0, r0, #12
	.loc	2 273 18                        @ ../../CCC_common/Library/StdDriver/src/rtc.c:273:18
	ldr	r1, __arm_cp.6_3
	str	r1, [sp, #4]                    @ 4-byte Spill
	str	r0, [r1]
	.loc	2 274 21 is_stmt 1              @ ../../CCC_common/Library/StdDriver/src/rtc.c:274:21
	ldr	r0, [sp, #24]
	.loc	2 274 27 is_stmt 0              @ ../../CCC_common/Library/StdDriver/src/rtc.c:274:27
	ldr	r0, [r0, #32]
	movw	r6, #3840
	.loc	2 274 32                        @ ../../CCC_common/Library/StdDriver/src/rtc.c:274:32
	ands	r0, r6
	.loc	2 274 52                        @ ../../CCC_common/Library/StdDriver/src/rtc.c:274:52
	lsrs	r0, r0, #8
	.loc	2 274 18                        @ ../../CCC_common/Library/StdDriver/src/rtc.c:274:18
	ldr	r4, __arm_cp.6_4
	str	r0, [r4]
	.loc	2 275 21 is_stmt 1              @ ../../CCC_common/Library/StdDriver/src/rtc.c:275:21
	ldr	r0, [sp, #24]
	.loc	2 275 27 is_stmt 0              @ ../../CCC_common/Library/StdDriver/src/rtc.c:275:27
	ldr	r0, [r0, #32]
	movs	r1, #48
	.loc	2 275 32                        @ ../../CCC_common/Library/StdDriver/src/rtc.c:275:32
	ands	r0, r1
	.loc	2 275 55                        @ ../../CCC_common/Library/StdDriver/src/rtc.c:275:55
	lsrs	r0, r0, #4
	.loc	2 275 18                        @ ../../CCC_common/Library/StdDriver/src/rtc.c:275:18
	ldr	r1, __arm_cp.6_5
	str	r1, [sp, #8]                    @ 4-byte Spill
	str	r0, [r1]
	.loc	2 276 21 is_stmt 1              @ ../../CCC_common/Library/StdDriver/src/rtc.c:276:21
	ldr	r0, [sp, #24]
	.loc	2 276 27 is_stmt 0              @ ../../CCC_common/Library/StdDriver/src/rtc.c:276:27
	ldr	r0, [r0, #32]
	.loc	2 276 32                        @ ../../CCC_common/Library/StdDriver/src/rtc.c:276:32
	ands	r0, r7
	.loc	2 276 18                        @ ../../CCC_common/Library/StdDriver/src/rtc.c:276:18
	ldr	r1, __arm_cp.6_6
	str	r1, [sp, #16]                   @ 4-byte Spill
	str	r0, [r1]
	.loc	2 279 5 is_stmt 1               @ ../../CCC_common/Library/StdDriver/src/rtc.c:279:5
	bl	RTC_WaitAccessEnable
	ldr	r3, [sp, #4]                    @ 4-byte Reload
	ldr	r2, [sp, #8]                    @ 4-byte Reload
	.loc	2 280 20                        @ ../../CCC_common/Library/StdDriver/src/rtc.c:280:20
	ldr	r0, [sp, #24]
	.loc	2 280 26 is_stmt 0              @ ../../CCC_common/Library/StdDriver/src/rtc.c:280:26
	ldr	r0, [r0, #28]
	movs	r1, #3
	lsls	r1, r1, #20
	.loc	2 280 31                        @ ../../CCC_common/Library/StdDriver/src/rtc.c:280:31
	ands	r0, r1
	.loc	2 280 53                        @ ../../CCC_common/Library/StdDriver/src/rtc.c:280:53
	lsrs	r0, r0, #20
	.loc	2 280 17                        @ ../../CCC_common/Library/StdDriver/src/rtc.c:280:17
	ldr	r1, __arm_cp.6_7
	str	r0, [r1]
	.loc	2 281 20 is_stmt 1              @ ../../CCC_common/Library/StdDriver/src/rtc.c:281:20
	ldr	r1, [sp, #12]                   @ 4-byte Reload
	ldr	r0, [sp, #24]
	.loc	2 281 26 is_stmt 0              @ ../../CCC_common/Library/StdDriver/src/rtc.c:281:26
	ldr	r0, [r0, #28]
	.loc	2 281 31                        @ ../../CCC_common/Library/StdDriver/src/rtc.c:281:31
	ands	r0, r1
	.loc	2 281 50                        @ ../../CCC_common/Library/StdDriver/src/rtc.c:281:50
	lsrs	r0, r0, #16
	.loc	2 281 17                        @ ../../CCC_common/Library/StdDriver/src/rtc.c:281:17
	ldr	r1, __arm_cp.6_8
	str	r0, [r1]
	.loc	2 282 20 is_stmt 1              @ ../../CCC_common/Library/StdDriver/src/rtc.c:282:20
	ldr	r0, [sp, #24]
	.loc	2 282 26 is_stmt 0              @ ../../CCC_common/Library/StdDriver/src/rtc.c:282:26
	ldr	r0, [r0, #28]
	movw	r1, #28672
	.loc	2 282 31                        @ ../../CCC_common/Library/StdDriver/src/rtc.c:282:31
	ands	r0, r1
	.loc	2 282 54                        @ ../../CCC_common/Library/StdDriver/src/rtc.c:282:54
	lsrs	r0, r0, #12
	.loc	2 282 17                        @ ../../CCC_common/Library/StdDriver/src/rtc.c:282:17
	ldr	r1, __arm_cp.6_9
	str	r0, [r1]
	.loc	2 283 20 is_stmt 1              @ ../../CCC_common/Library/StdDriver/src/rtc.c:283:20
	ldr	r1, [sp, #16]                   @ 4-byte Reload
	ldr	r0, [sp, #24]
	.loc	2 283 26 is_stmt 0              @ ../../CCC_common/Library/StdDriver/src/rtc.c:283:26
	ldr	r0, [r0, #28]
	.loc	2 283 31                        @ ../../CCC_common/Library/StdDriver/src/rtc.c:283:31
	ands	r0, r6
	.loc	2 283 51                        @ ../../CCC_common/Library/StdDriver/src/rtc.c:283:51
	lsrs	r0, r0, #8
	.loc	2 283 17                        @ ../../CCC_common/Library/StdDriver/src/rtc.c:283:17
	ldr	r6, __arm_cp.6_10
	str	r0, [r6]
	.loc	2 284 20 is_stmt 1              @ ../../CCC_common/Library/StdDriver/src/rtc.c:284:20
	ldr	r0, [sp, #24]
	.loc	2 284 26 is_stmt 0              @ ../../CCC_common/Library/StdDriver/src/rtc.c:284:26
	ldr	r0, [r0, #28]
	movs	r6, #112
	.loc	2 284 31                        @ ../../CCC_common/Library/StdDriver/src/rtc.c:284:31
	ands	r0, r6
	.loc	2 284 54                        @ ../../CCC_common/Library/StdDriver/src/rtc.c:284:54
	lsrs	r6, r0, #4
	.loc	2 284 17                        @ ../../CCC_common/Library/StdDriver/src/rtc.c:284:17
	ldr	r0, __arm_cp.6_11
	str	r6, [r0]
	.loc	2 285 20 is_stmt 1              @ ../../CCC_common/Library/StdDriver/src/rtc.c:285:20
	ldr	r0, [sp, #20]                   @ 4-byte Reload
	ldr	r6, [sp, #24]
	.loc	2 285 26 is_stmt 0              @ ../../CCC_common/Library/StdDriver/src/rtc.c:285:26
	ldr	r6, [r6, #28]
	.loc	2 285 31                        @ ../../CCC_common/Library/StdDriver/src/rtc.c:285:31
	ands	r6, r7
	.loc	2 285 17                        @ ../../CCC_common/Library/StdDriver/src/rtc.c:285:17
	ldr	r7, __arm_cp.6_12
	str	r6, [r7]
	.loc	2 288 16 is_stmt 1              @ ../../CCC_common/Library/StdDriver/src/rtc.c:288:16
	ldr	r7, [r0]
	movs	r0, #10
	.loc	2 288 28 is_stmt 0              @ ../../CCC_common/Library/StdDriver/src/rtc.c:288:28
	mov	r6, r0
	muls	r6, r7, r6
	.loc	2 288 13                        @ ../../CCC_common/Library/StdDriver/src/rtc.c:288:13
	str	r6, [sp, #28]
	.loc	2 289 15 is_stmt 1              @ ../../CCC_common/Library/StdDriver/src/rtc.c:289:15
	ldr	r6, [r5]
	.loc	2 289 12 is_stmt 0              @ ../../CCC_common/Library/StdDriver/src/rtc.c:289:12
	ldr	r5, [sp, #28]
	adds	r5, r5, r6
	str	r5, [sp, #28]
	.loc	2 290 20 is_stmt 1              @ ../../CCC_common/Library/StdDriver/src/rtc.c:290:20
	ldr	r5, [sp, #28]
	movw	r6, #2000
	.loc	2 290 27 is_stmt 0              @ ../../CCC_common/Library/StdDriver/src/rtc.c:290:27
	adds	r5, r5, r6
	.loc	2 290 5                         @ ../../CCC_common/Library/StdDriver/src/rtc.c:290:5
	ldr	r6, [sp, #32]
	.loc	2 290 18                        @ ../../CCC_common/Library/StdDriver/src/rtc.c:290:18
	str	r5, [r6]
	.loc	2 293 15 is_stmt 1              @ ../../CCC_common/Library/StdDriver/src/rtc.c:293:15
	ldr	r5, [r3]
	.loc	2 293 28 is_stmt 0              @ ../../CCC_common/Library/StdDriver/src/rtc.c:293:28
	mov	r3, r0
	muls	r3, r5, r3
	.loc	2 293 12                        @ ../../CCC_common/Library/StdDriver/src/rtc.c:293:12
	str	r3, [sp, #28]
	.loc	2 294 21 is_stmt 1              @ ../../CCC_common/Library/StdDriver/src/rtc.c:294:21
	ldr	r3, [sp, #28]
	.loc	2 294 30 is_stmt 0              @ ../../CCC_common/Library/StdDriver/src/rtc.c:294:30
	ldr	r4, [r4]
	.loc	2 294 28                        @ ../../CCC_common/Library/StdDriver/src/rtc.c:294:28
	adds	r3, r3, r4
	.loc	2 294 5                         @ ../../CCC_common/Library/StdDriver/src/rtc.c:294:5
	ldr	r4, [sp, #32]
	.loc	2 294 19                        @ ../../CCC_common/Library/StdDriver/src/rtc.c:294:19
	str	r3, [r4, #4]
	.loc	2 297 15 is_stmt 1              @ ../../CCC_common/Library/StdDriver/src/rtc.c:297:15
	ldr	r2, [r2]
	.loc	2 297 26 is_stmt 0              @ ../../CCC_common/Library/StdDriver/src/rtc.c:297:26
	muls	r0, r2, r0
	.loc	2 297 12                        @ ../../CCC_common/Library/StdDriver/src/rtc.c:297:12
	str	r0, [sp, #28]
	.loc	2 298 19 is_stmt 1              @ ../../CCC_common/Library/StdDriver/src/rtc.c:298:19
	ldr	r0, [sp, #28]
	.loc	2 298 28 is_stmt 0              @ ../../CCC_common/Library/StdDriver/src/rtc.c:298:28
	ldr	r1, [r1]
	.loc	2 298 26                        @ ../../CCC_common/Library/StdDriver/src/rtc.c:298:26
	adds	r0, r0, r1
	.loc	2 298 5                         @ ../../CCC_common/Library/StdDriver/src/rtc.c:298:5
	ldr	r1, [sp, #32]
	.loc	2 298 17                        @ ../../CCC_common/Library/StdDriver/src/rtc.c:298:17
	str	r0, [r1, #8]
.Ltmp63:
	.loc	2 301 8 is_stmt 1               @ ../../CCC_common/Library/StdDriver/src/rtc.c:301:8
	ldr	r0, [sp, #32]
	.loc	2 301 13 is_stmt 0              @ ../../CCC_common/Library/StdDriver/src/rtc.c:301:13
	ldr	r0, [r0, #28]
.Ltmp64:
	.loc	2 301 8                         @ ../../CCC_common/Library/StdDriver/src/rtc.c:301:8
	cbnz	r0, .LBB6_5
	b	.LBB6_1
.LBB6_1:
.Ltmp65:
	.loc	2 303 20 is_stmt 1              @ ../../CCC_common/Library/StdDriver/src/rtc.c:303:20
	ldr	r0, __arm_cp.6_7
	ldr	r1, [r0]
	movs	r0, #10
	.loc	2 303 32 is_stmt 0              @ ../../CCC_common/Library/StdDriver/src/rtc.c:303:32
	muls	r0, r1, r0
	.loc	2 303 17                        @ ../../CCC_common/Library/StdDriver/src/rtc.c:303:17
	str	r0, [sp, #28]
	.loc	2 304 19 is_stmt 1              @ ../../CCC_common/Library/StdDriver/src/rtc.c:304:19
	ldr	r0, __arm_cp.6_8
	ldr	r1, [r0]
	.loc	2 304 16 is_stmt 0              @ ../../CCC_common/Library/StdDriver/src/rtc.c:304:16
	ldr	r0, [sp, #28]
	adds	r0, r0, r1
	str	r0, [sp, #28]
	.loc	2 305 24 is_stmt 1              @ ../../CCC_common/Library/StdDriver/src/rtc.c:305:24
	ldr	r0, [sp, #28]
	.loc	2 305 9 is_stmt 0               @ ../../CCC_common/Library/StdDriver/src/rtc.c:305:9
	ldr	r1, [sp, #32]
	.loc	2 305 22                        @ ../../CCC_common/Library/StdDriver/src/rtc.c:305:22
	str	r0, [r1, #16]
.Ltmp66:
	.loc	2 307 12 is_stmt 1              @ ../../CCC_common/Library/StdDriver/src/rtc.c:307:12
	ldr	r0, [sp, #32]
	.loc	2 307 17 is_stmt 0              @ ../../CCC_common/Library/StdDriver/src/rtc.c:307:17
	ldr	r0, [r0, #16]
.Ltmp67:
	.loc	2 307 12                        @ ../../CCC_common/Library/StdDriver/src/rtc.c:307:12
	cmp	r0, #21
	blo	.LBB6_3
	b	.LBB6_2
.LBB6_2:
.Ltmp68:
	.loc	2 309 13 is_stmt 1              @ ../../CCC_common/Library/StdDriver/src/rtc.c:309:13
	ldr	r1, [sp, #32]
	movs	r0, #2
	.loc	2 309 27 is_stmt 0              @ ../../CCC_common/Library/StdDriver/src/rtc.c:309:27
	str	r0, [r1, #32]
	.loc	2 310 13 is_stmt 1              @ ../../CCC_common/Library/StdDriver/src/rtc.c:310:13
	ldr	r1, [sp, #32]
	.loc	2 310 26 is_stmt 0              @ ../../CCC_common/Library/StdDriver/src/rtc.c:310:26
	ldr	r0, [r1, #16]
	subs	r0, #20
	str	r0, [r1, #16]
	.loc	2 311 9 is_stmt 1               @ ../../CCC_common/Library/StdDriver/src/rtc.c:311:9
	b	.LBB6_4
.Ltmp69:
.LBB6_3:
	.loc	2 314 13                        @ ../../CCC_common/Library/StdDriver/src/rtc.c:314:13
	ldr	r1, [sp, #32]
	movs	r0, #1
	.loc	2 314 26 is_stmt 0              @ ../../CCC_common/Library/StdDriver/src/rtc.c:314:26
	str	r0, [r1, #32]
	b	.LBB6_4
.Ltmp70:
.LBB6_4:
	.loc	2 317 20 is_stmt 1              @ ../../CCC_common/Library/StdDriver/src/rtc.c:317:20
	ldr	r0, __arm_cp.6_9
	ldr	r2, [r0]
	movs	r0, #10
	.loc	2 317 31 is_stmt 0              @ ../../CCC_common/Library/StdDriver/src/rtc.c:317:31
	mov	r1, r0
	muls	r1, r2, r1
	.loc	2 317 17                        @ ../../CCC_common/Library/StdDriver/src/rtc.c:317:17
	str	r1, [sp, #28]
	.loc	2 318 19 is_stmt 1              @ ../../CCC_common/Library/StdDriver/src/rtc.c:318:19
	ldr	r1, __arm_cp.6_10
	ldr	r2, [r1]
	.loc	2 318 16 is_stmt 0              @ ../../CCC_common/Library/StdDriver/src/rtc.c:318:16
	ldr	r1, [sp, #28]
	adds	r1, r1, r2
	str	r1, [sp, #28]
	.loc	2 319 26 is_stmt 1              @ ../../CCC_common/Library/StdDriver/src/rtc.c:319:26
	ldr	r1, [sp, #28]
	.loc	2 319 9 is_stmt 0               @ ../../CCC_common/Library/StdDriver/src/rtc.c:319:9
	ldr	r2, [sp, #32]
	.loc	2 319 24                        @ ../../CCC_common/Library/StdDriver/src/rtc.c:319:24
	str	r1, [r2, #20]
	.loc	2 321 20 is_stmt 1              @ ../../CCC_common/Library/StdDriver/src/rtc.c:321:20
	ldr	r1, __arm_cp.6_11
	ldr	r1, [r1]
	.loc	2 321 31 is_stmt 0              @ ../../CCC_common/Library/StdDriver/src/rtc.c:321:31
	muls	r0, r1, r0
	.loc	2 321 17                        @ ../../CCC_common/Library/StdDriver/src/rtc.c:321:17
	str	r0, [sp, #28]
	.loc	2 322 19 is_stmt 1              @ ../../CCC_common/Library/StdDriver/src/rtc.c:322:19
	ldr	r0, __arm_cp.6_12
	ldr	r1, [r0]
	.loc	2 322 16 is_stmt 0              @ ../../CCC_common/Library/StdDriver/src/rtc.c:322:16
	ldr	r0, [sp, #28]
	adds	r0, r0, r1
	str	r0, [sp, #28]
	.loc	2 323 26 is_stmt 1              @ ../../CCC_common/Library/StdDriver/src/rtc.c:323:26
	ldr	r0, [sp, #28]
	.loc	2 323 9 is_stmt 0               @ ../../CCC_common/Library/StdDriver/src/rtc.c:323:9
	ldr	r1, [sp, #32]
	.loc	2 323 24                        @ ../../CCC_common/Library/StdDriver/src/rtc.c:323:24
	str	r0, [r1, #24]
	.loc	2 324 5 is_stmt 1               @ ../../CCC_common/Library/StdDriver/src/rtc.c:324:5
	b	.LBB6_6
.Ltmp71:
.LBB6_5:
	.loc	2 327 20                        @ ../../CCC_common/Library/StdDriver/src/rtc.c:327:20
	ldr	r0, __arm_cp.6_7
	ldr	r2, [r0]
	movs	r0, #10
	.loc	2 327 32 is_stmt 0              @ ../../CCC_common/Library/StdDriver/src/rtc.c:327:32
	mov	r1, r0
	muls	r1, r2, r1
	.loc	2 327 17                        @ ../../CCC_common/Library/StdDriver/src/rtc.c:327:17
	str	r1, [sp, #28]
	.loc	2 328 20 is_stmt 1              @ ../../CCC_common/Library/StdDriver/src/rtc.c:328:20
	ldr	r1, __arm_cp.6_8
	ldr	r2, [r1]
	.loc	2 328 16 is_stmt 0              @ ../../CCC_common/Library/StdDriver/src/rtc.c:328:16
	ldr	r1, [sp, #28]
	adds	r1, r1, r2
	str	r1, [sp, #28]
	.loc	2 329 24 is_stmt 1              @ ../../CCC_common/Library/StdDriver/src/rtc.c:329:24
	ldr	r1, [sp, #28]
	.loc	2 329 9 is_stmt 0               @ ../../CCC_common/Library/StdDriver/src/rtc.c:329:9
	ldr	r2, [sp, #32]
	.loc	2 329 22                        @ ../../CCC_common/Library/StdDriver/src/rtc.c:329:22
	str	r1, [r2, #16]
	.loc	2 331 20 is_stmt 1              @ ../../CCC_common/Library/StdDriver/src/rtc.c:331:20
	ldr	r1, __arm_cp.6_9
	ldr	r2, [r1]
	.loc	2 331 31 is_stmt 0              @ ../../CCC_common/Library/StdDriver/src/rtc.c:331:31
	mov	r1, r0
	muls	r1, r2, r1
	.loc	2 331 17                        @ ../../CCC_common/Library/StdDriver/src/rtc.c:331:17
	str	r1, [sp, #28]
	.loc	2 332 19 is_stmt 1              @ ../../CCC_common/Library/StdDriver/src/rtc.c:332:19
	ldr	r1, __arm_cp.6_10
	ldr	r2, [r1]
	.loc	2 332 16 is_stmt 0              @ ../../CCC_common/Library/StdDriver/src/rtc.c:332:16
	ldr	r1, [sp, #28]
	adds	r1, r1, r2
	str	r1, [sp, #28]
	.loc	2 333 26 is_stmt 1              @ ../../CCC_common/Library/StdDriver/src/rtc.c:333:26
	ldr	r1, [sp, #28]
	.loc	2 333 9 is_stmt 0               @ ../../CCC_common/Library/StdDriver/src/rtc.c:333:9
	ldr	r2, [sp, #32]
	.loc	2 333 24                        @ ../../CCC_common/Library/StdDriver/src/rtc.c:333:24
	str	r1, [r2, #20]
	.loc	2 335 20 is_stmt 1              @ ../../CCC_common/Library/StdDriver/src/rtc.c:335:20
	ldr	r1, __arm_cp.6_11
	ldr	r1, [r1]
	.loc	2 335 31 is_stmt 0              @ ../../CCC_common/Library/StdDriver/src/rtc.c:335:31
	muls	r0, r1, r0
	.loc	2 335 17                        @ ../../CCC_common/Library/StdDriver/src/rtc.c:335:17
	str	r0, [sp, #28]
	.loc	2 336 19 is_stmt 1              @ ../../CCC_common/Library/StdDriver/src/rtc.c:336:19
	ldr	r0, __arm_cp.6_12
	ldr	r1, [r0]
	.loc	2 336 16 is_stmt 0              @ ../../CCC_common/Library/StdDriver/src/rtc.c:336:16
	ldr	r0, [sp, #28]
	adds	r0, r0, r1
	str	r0, [sp, #28]
	.loc	2 337 26 is_stmt 1              @ ../../CCC_common/Library/StdDriver/src/rtc.c:337:26
	ldr	r0, [sp, #28]
	.loc	2 337 9 is_stmt 0               @ ../../CCC_common/Library/StdDriver/src/rtc.c:337:9
	ldr	r1, [sp, #32]
	.loc	2 337 24                        @ ../../CCC_common/Library/StdDriver/src/rtc.c:337:24
	str	r0, [r1, #24]
	b	.LBB6_6
.Ltmp72:
.LBB6_6:
	.loc	2 339 1 epilogue_begin is_stmt 1 @ ../../CCC_common/Library/StdDriver/src/rtc.c:339:1
	add	sp, #36
	pop	{r4, r5, r6, r7, pc}
.Ltmp73:
	.loc	2 0 1 is_stmt 0                 @ :0:1
.Ltmp74:
	.p2align	2
@ %bb.7:
__arm_cp.6_0:
	.long	1074008064                      @ 0x40041000
.Lcpi_end23:
	.size	__arm_cp.6_0, .Lcpi_end23-__arm_cp.6_0
__arm_cp.6_1:
	.long	g_u32hiYear
.Lcpi_end24:
	.size	__arm_cp.6_1, .Lcpi_end24-__arm_cp.6_1
__arm_cp.6_2:
	.long	g_u32loYear
.Lcpi_end25:
	.size	__arm_cp.6_2, .Lcpi_end25-__arm_cp.6_2
__arm_cp.6_3:
	.long	g_u32hiMonth
.Lcpi_end26:
	.size	__arm_cp.6_3, .Lcpi_end26-__arm_cp.6_3
__arm_cp.6_4:
	.long	g_u32loMonth
.Lcpi_end27:
	.size	__arm_cp.6_4, .Lcpi_end27-__arm_cp.6_4
__arm_cp.6_5:
	.long	g_u32hiDay
.Lcpi_end28:
	.size	__arm_cp.6_5, .Lcpi_end28-__arm_cp.6_5
__arm_cp.6_6:
	.long	g_u32loDay
.Lcpi_end29:
	.size	__arm_cp.6_6, .Lcpi_end29-__arm_cp.6_6
__arm_cp.6_7:
	.long	g_u32hiHour
.Lcpi_end30:
	.size	__arm_cp.6_7, .Lcpi_end30-__arm_cp.6_7
__arm_cp.6_8:
	.long	g_u32loHour
.Lcpi_end31:
	.size	__arm_cp.6_8, .Lcpi_end31-__arm_cp.6_8
__arm_cp.6_9:
	.long	g_u32hiMin
.Lcpi_end32:
	.size	__arm_cp.6_9, .Lcpi_end32-__arm_cp.6_9
__arm_cp.6_10:
	.long	g_u32loMin
.Lcpi_end33:
	.size	__arm_cp.6_10, .Lcpi_end33-__arm_cp.6_10
__arm_cp.6_11:
	.long	g_u32hiSec
.Lcpi_end34:
	.size	__arm_cp.6_11, .Lcpi_end34-__arm_cp.6_11
__arm_cp.6_12:
	.long	g_u32loSec
.Lcpi_end35:
	.size	__arm_cp.6_12, .Lcpi_end35-__arm_cp.6_12
.Lfunc_end6:
	.size	RTC_GetAlarmDateAndTime, .Lfunc_end6-RTC_GetAlarmDateAndTime
	.cfi_endproc
	.cantunwind
	.fnend
                                        @ -- End function
	.section	.text.RTC_SetAlarmDateAndTime,"ax",%progbits
	.hidden	RTC_SetAlarmDateAndTime         @ -- Begin function RTC_SetAlarmDateAndTime
	.globl	RTC_SetAlarmDateAndTime
	.p2align	2
	.type	RTC_SetAlarmDateAndTime,%function
	.code	16                              @ @RTC_SetAlarmDateAndTime
	.thumb_func
RTC_SetAlarmDateAndTime:
.Lfunc_begin7:
	.loc	2 446 0 is_stmt 1               @ ../../CCC_common/Library/StdDriver/src/rtc.c:446:0
	.fnstart
	.cfi_startproc
@ %bb.0:
	.save	{r7, lr}
	push	{r7, lr}
	.cfi_def_cfa_offset 8
	.cfi_offset lr, -4
	.cfi_offset r7, -8
	.pad	#24
	sub	sp, #24
	.cfi_def_cfa_offset 32
	str	r0, [sp, #20]
	ldr	r0, __arm_cp.7_0
.Ltmp75:
	.loc	2 450 10 prologue_end           @ ../../CCC_common/Library/StdDriver/src/rtc.c:450:10
	str	r0, [sp, #8]
.Ltmp76:
	.loc	2 452 8                         @ ../../CCC_common/Library/StdDriver/src/rtc.c:452:8
	ldr	r0, [sp, #20]
.Ltmp77:
	.loc	2 452 8 is_stmt 0               @ ../../CCC_common/Library/StdDriver/src/rtc.c:452:8
	cbnz	r0, .LBB7_2
	b	.LBB7_1
.LBB7_1:
.Ltmp78:
	.loc	2 455 5 is_stmt 1               @ ../../CCC_common/Library/StdDriver/src/rtc.c:455:5
	b	.LBB7_8
.Ltmp79:
.LBB7_2:
	.loc	2 461 9                         @ ../../CCC_common/Library/StdDriver/src/rtc.c:461:9
	bl	RTC_WaitAccessEnable
.Ltmp80:
	.loc	2 462 12                        @ ../../CCC_common/Library/StdDriver/src/rtc.c:462:12
	ldr	r0, [sp, #20]
	.loc	2 462 17 is_stmt 0              @ ../../CCC_common/Library/StdDriver/src/rtc.c:462:17
	ldr	r0, [r0, #28]
.Ltmp81:
	.loc	2 462 12                        @ ../../CCC_common/Library/StdDriver/src/rtc.c:462:12
	cbnz	r0, .LBB7_6
	b	.LBB7_3
.LBB7_3:
.Ltmp82:
	.loc	2 464 13 is_stmt 1              @ ../../CCC_common/Library/StdDriver/src/rtc.c:464:13
	ldr	r1, [sp, #8]
	.loc	2 464 26 is_stmt 0              @ ../../CCC_common/Library/StdDriver/src/rtc.c:464:26
	ldr	r0, [r1, #20]
	movs	r2, #1
	bics	r0, r2
	str	r0, [r1, #20]
.Ltmp83:
	.loc	2 469 16 is_stmt 1              @ ../../CCC_common/Library/StdDriver/src/rtc.c:469:16
	ldr	r0, [sp, #20]
	.loc	2 469 21 is_stmt 0              @ ../../CCC_common/Library/StdDriver/src/rtc.c:469:21
	ldr	r0, [r0, #32]
.Ltmp84:
	.loc	2 469 16                        @ ../../CCC_common/Library/StdDriver/src/rtc.c:469:16
	cmp	r0, #2
	bne	.LBB7_5
	b	.LBB7_4
.LBB7_4:
.Ltmp85:
	.loc	2 471 17 is_stmt 1              @ ../../CCC_common/Library/StdDriver/src/rtc.c:471:17
	ldr	r1, [sp, #20]
	.loc	2 471 30 is_stmt 0              @ ../../CCC_common/Library/StdDriver/src/rtc.c:471:30
	ldr	r0, [r1, #16]
	adds	r0, #20
	str	r0, [r1, #16]
	.loc	2 472 13 is_stmt 1              @ ../../CCC_common/Library/StdDriver/src/rtc.c:472:13
	b	.LBB7_5
.Ltmp86:
.LBB7_5:
	.loc	2 473 9                         @ ../../CCC_common/Library/StdDriver/src/rtc.c:473:9
	b	.LBB7_7
.Ltmp87:
.LBB7_6:
	.loc	2 476 13                        @ ../../CCC_common/Library/StdDriver/src/rtc.c:476:13
	ldr	r1, [sp, #8]
	.loc	2 476 26 is_stmt 0              @ ../../CCC_common/Library/StdDriver/src/rtc.c:476:26
	ldr	r0, [r1, #20]
	movs	r2, #1
	orrs	r0, r2
	str	r0, [r1, #20]
	b	.LBB7_7
.Ltmp88:
.LBB7_7:
	.loc	2 482 25 is_stmt 1              @ ../../CCC_common/Library/StdDriver/src/rtc.c:482:25
	ldr	r0, [sp, #20]
	.loc	2 482 30 is_stmt 0              @ ../../CCC_common/Library/StdDriver/src/rtc.c:482:30
	ldr	r0, [r0]
	.loc	2 482 38                        @ ../../CCC_common/Library/StdDriver/src/rtc.c:482:38
	movw	r2, #2000
	subs	r0, r0, r2
	movs	r1, #10
	.loc	2 482 64                        @ ../../CCC_common/Library/StdDriver/src/rtc.c:482:64
	str	r1, [sp, #4]                    @ 4-byte Spill
	udiv	r0, r0, r1
	.loc	2 482 72                        @ ../../CCC_common/Library/StdDriver/src/rtc.c:482:72
	lsls	r0, r0, #20
	.loc	2 482 21                        @ ../../CCC_common/Library/StdDriver/src/rtc.c:482:21
	str	r0, [sp, #16]
	.loc	2 483 26 is_stmt 1              @ ../../CCC_common/Library/StdDriver/src/rtc.c:483:26
	ldr	r0, [sp, #20]
	.loc	2 483 31 is_stmt 0              @ ../../CCC_common/Library/StdDriver/src/rtc.c:483:31
	ldr	r0, [r0]
	.loc	2 483 39                        @ ../../CCC_common/Library/StdDriver/src/rtc.c:483:39
	subs	r0, r0, r2
	.loc	2 483 65                        @ ../../CCC_common/Library/StdDriver/src/rtc.c:483:65
	udiv	r3, r0, r1
	mov	r2, r1
	muls	r2, r3, r2
	subs	r0, r0, r2
	.loc	2 483 73                        @ ../../CCC_common/Library/StdDriver/src/rtc.c:483:73
	lsls	r2, r0, #16
	.loc	2 483 20                        @ ../../CCC_common/Library/StdDriver/src/rtc.c:483:20
	ldr	r0, [sp, #16]
	orrs	r0, r2
	str	r0, [sp, #16]
	.loc	2 484 25 is_stmt 1              @ ../../CCC_common/Library/StdDriver/src/rtc.c:484:25
	ldr	r0, [sp, #20]
	.loc	2 484 30 is_stmt 0              @ ../../CCC_common/Library/StdDriver/src/rtc.c:484:30
	ldr	r0, [r0, #4]
	.loc	2 484 40                        @ ../../CCC_common/Library/StdDriver/src/rtc.c:484:40
	udiv	r0, r0, r1
	.loc	2 484 48                        @ ../../CCC_common/Library/StdDriver/src/rtc.c:484:48
	lsls	r2, r0, #12
	.loc	2 484 20                        @ ../../CCC_common/Library/StdDriver/src/rtc.c:484:20
	ldr	r0, [sp, #16]
	orrs	r0, r2
	str	r0, [sp, #16]
	.loc	2 485 25 is_stmt 1              @ ../../CCC_common/Library/StdDriver/src/rtc.c:485:25
	ldr	r0, [sp, #20]
	.loc	2 485 30 is_stmt 0              @ ../../CCC_common/Library/StdDriver/src/rtc.c:485:30
	ldr	r0, [r0, #4]
	.loc	2 485 40                        @ ../../CCC_common/Library/StdDriver/src/rtc.c:485:40
	udiv	r3, r0, r1
	mov	r2, r1
	muls	r2, r3, r2
	subs	r0, r0, r2
	.loc	2 485 48                        @ ../../CCC_common/Library/StdDriver/src/rtc.c:485:48
	lsls	r2, r0, #8
	.loc	2 485 20                        @ ../../CCC_common/Library/StdDriver/src/rtc.c:485:20
	ldr	r0, [sp, #16]
	orrs	r0, r2
	str	r0, [sp, #16]
	.loc	2 486 25 is_stmt 1              @ ../../CCC_common/Library/StdDriver/src/rtc.c:486:25
	ldr	r0, [sp, #20]
	.loc	2 486 30 is_stmt 0              @ ../../CCC_common/Library/StdDriver/src/rtc.c:486:30
	ldr	r0, [r0, #8]
	.loc	2 486 40                        @ ../../CCC_common/Library/StdDriver/src/rtc.c:486:40
	udiv	r0, r0, r1
	.loc	2 486 48                        @ ../../CCC_common/Library/StdDriver/src/rtc.c:486:48
	lsls	r2, r0, #4
	.loc	2 486 20                        @ ../../CCC_common/Library/StdDriver/src/rtc.c:486:20
	ldr	r0, [sp, #16]
	orrs	r0, r2
	str	r0, [sp, #16]
	.loc	2 487 24 is_stmt 1              @ ../../CCC_common/Library/StdDriver/src/rtc.c:487:24
	ldr	r0, [sp, #20]
	.loc	2 487 29 is_stmt 0              @ ../../CCC_common/Library/StdDriver/src/rtc.c:487:29
	ldr	r0, [r0, #8]
	.loc	2 487 39                        @ ../../CCC_common/Library/StdDriver/src/rtc.c:487:39
	udiv	r3, r0, r1
	mov	r2, r1
	muls	r2, r3, r2
	subs	r2, r0, r2
	.loc	2 487 20                        @ ../../CCC_common/Library/StdDriver/src/rtc.c:487:20
	ldr	r0, [sp, #16]
	orrs	r0, r2
	str	r0, [sp, #16]
	.loc	2 489 25 is_stmt 1              @ ../../CCC_common/Library/StdDriver/src/rtc.c:489:25
	ldr	r0, [sp, #20]
	.loc	2 489 30 is_stmt 0              @ ../../CCC_common/Library/StdDriver/src/rtc.c:489:30
	ldr	r0, [r0, #16]
	.loc	2 489 40                        @ ../../CCC_common/Library/StdDriver/src/rtc.c:489:40
	udiv	r0, r0, r1
	.loc	2 489 48                        @ ../../CCC_common/Library/StdDriver/src/rtc.c:489:48
	lsls	r0, r0, #20
	.loc	2 489 21                        @ ../../CCC_common/Library/StdDriver/src/rtc.c:489:21
	str	r0, [sp, #12]
	.loc	2 490 25 is_stmt 1              @ ../../CCC_common/Library/StdDriver/src/rtc.c:490:25
	ldr	r0, [sp, #20]
	.loc	2 490 30 is_stmt 0              @ ../../CCC_common/Library/StdDriver/src/rtc.c:490:30
	ldr	r0, [r0, #16]
	.loc	2 490 40                        @ ../../CCC_common/Library/StdDriver/src/rtc.c:490:40
	udiv	r3, r0, r1
	mov	r2, r1
	muls	r2, r3, r2
	subs	r0, r0, r2
	.loc	2 490 48                        @ ../../CCC_common/Library/StdDriver/src/rtc.c:490:48
	lsls	r2, r0, #16
	.loc	2 490 20                        @ ../../CCC_common/Library/StdDriver/src/rtc.c:490:20
	ldr	r0, [sp, #12]
	orrs	r0, r2
	str	r0, [sp, #12]
	.loc	2 491 25 is_stmt 1              @ ../../CCC_common/Library/StdDriver/src/rtc.c:491:25
	ldr	r0, [sp, #20]
	.loc	2 491 30 is_stmt 0              @ ../../CCC_common/Library/StdDriver/src/rtc.c:491:30
	ldr	r0, [r0, #20]
	.loc	2 491 40                        @ ../../CCC_common/Library/StdDriver/src/rtc.c:491:40
	udiv	r0, r0, r1
	.loc	2 491 48                        @ ../../CCC_common/Library/StdDriver/src/rtc.c:491:48
	lsls	r2, r0, #12
	.loc	2 491 20                        @ ../../CCC_common/Library/StdDriver/src/rtc.c:491:20
	ldr	r0, [sp, #12]
	orrs	r0, r2
	str	r0, [sp, #12]
	.loc	2 492 25 is_stmt 1              @ ../../CCC_common/Library/StdDriver/src/rtc.c:492:25
	ldr	r0, [sp, #20]
	.loc	2 492 30 is_stmt 0              @ ../../CCC_common/Library/StdDriver/src/rtc.c:492:30
	ldr	r0, [r0, #20]
	.loc	2 492 40                        @ ../../CCC_common/Library/StdDriver/src/rtc.c:492:40
	udiv	r3, r0, r1
	mov	r2, r1
	muls	r2, r3, r2
	subs	r0, r0, r2
	.loc	2 492 48                        @ ../../CCC_common/Library/StdDriver/src/rtc.c:492:48
	lsls	r2, r0, #8
	.loc	2 492 20                        @ ../../CCC_common/Library/StdDriver/src/rtc.c:492:20
	ldr	r0, [sp, #12]
	orrs	r0, r2
	str	r0, [sp, #12]
	.loc	2 493 25 is_stmt 1              @ ../../CCC_common/Library/StdDriver/src/rtc.c:493:25
	ldr	r0, [sp, #20]
	.loc	2 493 30 is_stmt 0              @ ../../CCC_common/Library/StdDriver/src/rtc.c:493:30
	ldr	r0, [r0, #24]
	.loc	2 493 40                        @ ../../CCC_common/Library/StdDriver/src/rtc.c:493:40
	udiv	r0, r0, r1
	.loc	2 493 48                        @ ../../CCC_common/Library/StdDriver/src/rtc.c:493:48
	lsls	r2, r0, #4
	.loc	2 493 20                        @ ../../CCC_common/Library/StdDriver/src/rtc.c:493:20
	ldr	r0, [sp, #12]
	orrs	r0, r2
	str	r0, [sp, #12]
	.loc	2 494 24 is_stmt 1              @ ../../CCC_common/Library/StdDriver/src/rtc.c:494:24
	ldr	r0, [sp, #20]
	.loc	2 494 29 is_stmt 0              @ ../../CCC_common/Library/StdDriver/src/rtc.c:494:29
	ldr	r0, [r0, #24]
	.loc	2 494 39                        @ ../../CCC_common/Library/StdDriver/src/rtc.c:494:39
	udiv	r2, r0, r1
	muls	r1, r2, r1
	subs	r1, r0, r1
	.loc	2 494 20                        @ ../../CCC_common/Library/StdDriver/src/rtc.c:494:20
	ldr	r0, [sp, #12]
	orrs	r0, r1
	str	r0, [sp, #12]
	.loc	2 496 9 is_stmt 1               @ ../../CCC_common/Library/StdDriver/src/rtc.c:496:9
	bl	RTC_WaitAccessEnable
	.loc	2 497 32                        @ ../../CCC_common/Library/StdDriver/src/rtc.c:497:32
	ldr	r0, [sp, #16]
	.loc	2 497 9 is_stmt 0               @ ../../CCC_common/Library/StdDriver/src/rtc.c:497:9
	ldr	r1, [sp, #8]
	.loc	2 497 20                        @ ../../CCC_common/Library/StdDriver/src/rtc.c:497:20
	str	r0, [r1, #32]
	.loc	2 498 9 is_stmt 1               @ ../../CCC_common/Library/StdDriver/src/rtc.c:498:9
	bl	RTC_WaitAccessEnable
	.loc	2 499 32                        @ ../../CCC_common/Library/StdDriver/src/rtc.c:499:32
	ldr	r0, [sp, #12]
	.loc	2 499 9 is_stmt 0               @ ../../CCC_common/Library/StdDriver/src/rtc.c:499:9
	ldr	r1, [sp, #8]
	.loc	2 499 20                        @ ../../CCC_common/Library/StdDriver/src/rtc.c:499:20
	str	r0, [r1, #28]
	b	.LBB7_8
.Ltmp89:
.LBB7_8:
	.loc	2 501 1 epilogue_begin is_stmt 1 @ ../../CCC_common/Library/StdDriver/src/rtc.c:501:1
	add	sp, #24
	pop	{r7, pc}
.Ltmp90:
	.loc	2 0 1 is_stmt 0                 @ :0:1
.Ltmp91:
	.p2align	2
@ %bb.9:
__arm_cp.7_0:
	.long	1074008064                      @ 0x40041000
.Lcpi_end36:
	.size	__arm_cp.7_0, .Lcpi_end36-__arm_cp.7_0
.Lfunc_end7:
	.size	RTC_SetAlarmDateAndTime, .Lfunc_end7-RTC_SetAlarmDateAndTime
	.cfi_endproc
	.cantunwind
	.fnend
                                        @ -- End function
	.section	.text.RTC_SetDate,"ax",%progbits
	.hidden	RTC_SetDate                     @ -- Begin function RTC_SetDate
	.globl	RTC_SetDate
	.p2align	2
	.type	RTC_SetDate,%function
	.code	16                              @ @RTC_SetDate
	.thumb_func
RTC_SetDate:
.Lfunc_begin8:
	.loc	2 518 0 is_stmt 1               @ ../../CCC_common/Library/StdDriver/src/rtc.c:518:0
	.fnstart
	.cfi_startproc
@ %bb.0:
	.save	{r7, lr}
	push	{r7, lr}
	.cfi_def_cfa_offset 8
	.cfi_offset lr, -4
	.cfi_offset r7, -8
	.pad	#24
	sub	sp, #24
	.cfi_def_cfa_offset 32
	str	r0, [sp, #20]
	str	r1, [sp, #16]
	str	r2, [sp, #12]
	str	r3, [sp, #8]
	ldr	r0, __arm_cp.8_0
.Ltmp92:
	.loc	2 522 10 prologue_end           @ ../../CCC_common/Library/StdDriver/src/rtc.c:522:10
	str	r0, [sp]
	.loc	2 524 20                        @ ../../CCC_common/Library/StdDriver/src/rtc.c:524:20
	ldr	r0, [sp, #20]
	.loc	2 524 28 is_stmt 0              @ ../../CCC_common/Library/StdDriver/src/rtc.c:524:28
	movw	r2, #2000
	subs	r0, r0, r2
	movs	r1, #10
	.loc	2 524 54                        @ ../../CCC_common/Library/StdDriver/src/rtc.c:524:54
	udiv	r0, r0, r1
	.loc	2 524 62                        @ ../../CCC_common/Library/StdDriver/src/rtc.c:524:62
	lsls	r0, r0, #20
	.loc	2 524 16                        @ ../../CCC_common/Library/StdDriver/src/rtc.c:524:16
	str	r0, [sp, #4]
	.loc	2 525 21 is_stmt 1              @ ../../CCC_common/Library/StdDriver/src/rtc.c:525:21
	ldr	r0, [sp, #20]
	.loc	2 525 29 is_stmt 0              @ ../../CCC_common/Library/StdDriver/src/rtc.c:525:29
	subs	r0, r0, r2
	.loc	2 525 55                        @ ../../CCC_common/Library/StdDriver/src/rtc.c:525:55
	udiv	r3, r0, r1
	mov	r2, r1
	muls	r2, r3, r2
	subs	r0, r0, r2
	.loc	2 525 63                        @ ../../CCC_common/Library/StdDriver/src/rtc.c:525:63
	lsls	r2, r0, #16
	.loc	2 525 15                        @ ../../CCC_common/Library/StdDriver/src/rtc.c:525:15
	ldr	r0, [sp, #4]
	orrs	r0, r2
	str	r0, [sp, #4]
	.loc	2 526 20 is_stmt 1              @ ../../CCC_common/Library/StdDriver/src/rtc.c:526:20
	ldr	r0, [sp, #16]
	.loc	2 526 29 is_stmt 0              @ ../../CCC_common/Library/StdDriver/src/rtc.c:526:29
	udiv	r0, r0, r1
	.loc	2 526 37                        @ ../../CCC_common/Library/StdDriver/src/rtc.c:526:37
	lsls	r2, r0, #12
	.loc	2 526 15                        @ ../../CCC_common/Library/StdDriver/src/rtc.c:526:15
	ldr	r0, [sp, #4]
	orrs	r0, r2
	str	r0, [sp, #4]
	.loc	2 527 20 is_stmt 1              @ ../../CCC_common/Library/StdDriver/src/rtc.c:527:20
	ldr	r0, [sp, #16]
	.loc	2 527 29 is_stmt 0              @ ../../CCC_common/Library/StdDriver/src/rtc.c:527:29
	udiv	r3, r0, r1
	mov	r2, r1
	muls	r2, r3, r2
	subs	r0, r0, r2
	.loc	2 527 37                        @ ../../CCC_common/Library/StdDriver/src/rtc.c:527:37
	lsls	r2, r0, #8
	.loc	2 527 15                        @ ../../CCC_common/Library/StdDriver/src/rtc.c:527:15
	ldr	r0, [sp, #4]
	orrs	r0, r2
	str	r0, [sp, #4]
	.loc	2 528 20 is_stmt 1              @ ../../CCC_common/Library/StdDriver/src/rtc.c:528:20
	ldr	r0, [sp, #12]
	.loc	2 528 29 is_stmt 0              @ ../../CCC_common/Library/StdDriver/src/rtc.c:528:29
	udiv	r0, r0, r1
	.loc	2 528 37                        @ ../../CCC_common/Library/StdDriver/src/rtc.c:528:37
	lsls	r2, r0, #4
	.loc	2 528 15                        @ ../../CCC_common/Library/StdDriver/src/rtc.c:528:15
	ldr	r0, [sp, #4]
	orrs	r0, r2
	str	r0, [sp, #4]
	.loc	2 529 19 is_stmt 1              @ ../../CCC_common/Library/StdDriver/src/rtc.c:529:19
	ldr	r0, [sp, #12]
	.loc	2 529 28 is_stmt 0              @ ../../CCC_common/Library/StdDriver/src/rtc.c:529:28
	udiv	r2, r0, r1
	muls	r1, r2, r1
	subs	r1, r0, r1
	.loc	2 529 15                        @ ../../CCC_common/Library/StdDriver/src/rtc.c:529:15
	ldr	r0, [sp, #4]
	orrs	r0, r1
	str	r0, [sp, #4]
	.loc	2 531 5 is_stmt 1               @ ../../CCC_common/Library/StdDriver/src/rtc.c:531:5
	bl	RTC_WaitAccessEnable
	.loc	2 534 21                        @ ../../CCC_common/Library/StdDriver/src/rtc.c:534:21
	ldr	r0, [sp, #8]
	movs	r1, #7
	.loc	2 534 34 is_stmt 0              @ ../../CCC_common/Library/StdDriver/src/rtc.c:534:34
	ands	r0, r1
	.loc	2 534 5                         @ ../../CCC_common/Library/StdDriver/src/rtc.c:534:5
	ldr	r1, [sp]
	.loc	2 534 19                        @ ../../CCC_common/Library/StdDriver/src/rtc.c:534:19
	str	r0, [r1, #24]
	.loc	2 537 5 is_stmt 1               @ ../../CCC_common/Library/StdDriver/src/rtc.c:537:5
	bl	RTC_WaitAccessEnable
	.loc	2 538 27                        @ ../../CCC_common/Library/StdDriver/src/rtc.c:538:27
	ldr	r0, [sp, #4]
	.loc	2 538 5 is_stmt 0               @ ../../CCC_common/Library/StdDriver/src/rtc.c:538:5
	ldr	r1, [sp]
	.loc	2 538 15                        @ ../../CCC_common/Library/StdDriver/src/rtc.c:538:15
	str	r0, [r1, #16]
	.loc	2 539 1 epilogue_begin is_stmt 1 @ ../../CCC_common/Library/StdDriver/src/rtc.c:539:1
	add	sp, #24
	pop	{r7, pc}
.Ltmp93:
	.loc	2 0 1 is_stmt 0                 @ :0:1
.Ltmp94:
	.p2align	2
@ %bb.1:
__arm_cp.8_0:
	.long	1074008064                      @ 0x40041000
.Lcpi_end37:
	.size	__arm_cp.8_0, .Lcpi_end37-__arm_cp.8_0
.Lfunc_end8:
	.size	RTC_SetDate, .Lfunc_end8-RTC_SetDate
	.cfi_endproc
	.cantunwind
	.fnend
                                        @ -- End function
	.section	.text.RTC_SetTime,"ax",%progbits
	.hidden	RTC_SetTime                     @ -- Begin function RTC_SetTime
	.globl	RTC_SetTime
	.p2align	2
	.type	RTC_SetTime,%function
	.code	16                              @ @RTC_SetTime
	.thumb_func
RTC_SetTime:
.Lfunc_begin9:
	.loc	2 555 0 is_stmt 1               @ ../../CCC_common/Library/StdDriver/src/rtc.c:555:0
	.fnstart
	.cfi_startproc
@ %bb.0:
	.save	{r4, lr}
	push	{r4, lr}
	.cfi_def_cfa_offset 8
	.cfi_offset lr, -4
	.cfi_offset r4, -8
	.pad	#32
	sub	sp, #32
	.cfi_def_cfa_offset 40
	ldr	r4, [sp, #40]
	str	r0, [sp, #28]
	str	r1, [sp, #24]
	str	r2, [sp, #20]
	str	r3, [sp, #16]
	ldr	r0, __arm_cp.9_0
.Ltmp95:
	.loc	2 559 10 prologue_end           @ ../../CCC_common/Library/StdDriver/src/rtc.c:559:10
	str	r0, [sp, #8]
.Ltmp96:
	.loc	2 562 9                         @ ../../CCC_common/Library/StdDriver/src/rtc.c:562:9
	ldr	r0, [sp, #16]
	.loc	2 562 48 is_stmt 0              @ ../../CCC_common/Library/StdDriver/src/rtc.c:562:48
	cbnz	r0, .LBB9_3
	b	.LBB9_1
.LBB9_1:
	.loc	2 562 52                        @ ../../CCC_common/Library/StdDriver/src/rtc.c:562:52
	ldr	r0, [sp, #40]
.Ltmp97:
	.loc	2 562 8                         @ ../../CCC_common/Library/StdDriver/src/rtc.c:562:8
	cmp	r0, #2
	bne	.LBB9_3
	b	.LBB9_2
.LBB9_2:
.Ltmp98:
	.loc	2 564 17 is_stmt 1              @ ../../CCC_common/Library/StdDriver/src/rtc.c:564:17
	ldr	r0, [sp, #28]
	adds	r0, #20
	str	r0, [sp, #28]
	.loc	2 565 5                         @ ../../CCC_common/Library/StdDriver/src/rtc.c:565:5
	b	.LBB9_3
.Ltmp99:
.LBB9_3:
	.loc	2 567 21                        @ ../../CCC_common/Library/StdDriver/src/rtc.c:567:21
	ldr	r0, [sp, #28]
	movs	r1, #10
	.loc	2 567 31 is_stmt 0              @ ../../CCC_common/Library/StdDriver/src/rtc.c:567:31
	str	r1, [sp, #4]                    @ 4-byte Spill
	udiv	r0, r0, r1
	.loc	2 567 39                        @ ../../CCC_common/Library/StdDriver/src/rtc.c:567:39
	lsls	r0, r0, #20
	.loc	2 567 17                        @ ../../CCC_common/Library/StdDriver/src/rtc.c:567:17
	str	r0, [sp, #12]
	.loc	2 568 21 is_stmt 1              @ ../../CCC_common/Library/StdDriver/src/rtc.c:568:21
	ldr	r0, [sp, #28]
	.loc	2 568 31 is_stmt 0              @ ../../CCC_common/Library/StdDriver/src/rtc.c:568:31
	udiv	r3, r0, r1
	mov	r2, r1
	muls	r2, r3, r2
	subs	r0, r0, r2
	.loc	2 568 39                        @ ../../CCC_common/Library/StdDriver/src/rtc.c:568:39
	lsls	r2, r0, #16
	.loc	2 568 16                        @ ../../CCC_common/Library/StdDriver/src/rtc.c:568:16
	ldr	r0, [sp, #12]
	orrs	r0, r2
	str	r0, [sp, #12]
	.loc	2 569 21 is_stmt 1              @ ../../CCC_common/Library/StdDriver/src/rtc.c:569:21
	ldr	r0, [sp, #24]
	.loc	2 569 31 is_stmt 0              @ ../../CCC_common/Library/StdDriver/src/rtc.c:569:31
	udiv	r0, r0, r1
	.loc	2 569 39                        @ ../../CCC_common/Library/StdDriver/src/rtc.c:569:39
	lsls	r2, r0, #12
	.loc	2 569 16                        @ ../../CCC_common/Library/StdDriver/src/rtc.c:569:16
	ldr	r0, [sp, #12]
	orrs	r0, r2
	str	r0, [sp, #12]
	.loc	2 570 21 is_stmt 1              @ ../../CCC_common/Library/StdDriver/src/rtc.c:570:21
	ldr	r0, [sp, #24]
	.loc	2 570 31 is_stmt 0              @ ../../CCC_common/Library/StdDriver/src/rtc.c:570:31
	udiv	r3, r0, r1
	mov	r2, r1
	muls	r2, r3, r2
	subs	r0, r0, r2
	.loc	2 570 39                        @ ../../CCC_common/Library/StdDriver/src/rtc.c:570:39
	lsls	r2, r0, #8
	.loc	2 570 16                        @ ../../CCC_common/Library/StdDriver/src/rtc.c:570:16
	ldr	r0, [sp, #12]
	orrs	r0, r2
	str	r0, [sp, #12]
	.loc	2 571 21 is_stmt 1              @ ../../CCC_common/Library/StdDriver/src/rtc.c:571:21
	ldr	r0, [sp, #20]
	.loc	2 571 31 is_stmt 0              @ ../../CCC_common/Library/StdDriver/src/rtc.c:571:31
	udiv	r0, r0, r1
	.loc	2 571 39                        @ ../../CCC_common/Library/StdDriver/src/rtc.c:571:39
	lsls	r2, r0, #4
	.loc	2 571 16                        @ ../../CCC_common/Library/StdDriver/src/rtc.c:571:16
	ldr	r0, [sp, #12]
	orrs	r0, r2
	str	r0, [sp, #12]
	.loc	2 572 20 is_stmt 1              @ ../../CCC_common/Library/StdDriver/src/rtc.c:572:20
	ldr	r0, [sp, #20]
	.loc	2 572 30 is_stmt 0              @ ../../CCC_common/Library/StdDriver/src/rtc.c:572:30
	udiv	r2, r0, r1
	muls	r1, r2, r1
	subs	r1, r0, r1
	.loc	2 572 16                        @ ../../CCC_common/Library/StdDriver/src/rtc.c:572:16
	ldr	r0, [sp, #12]
	orrs	r0, r1
	str	r0, [sp, #12]
	.loc	2 577 5 is_stmt 1               @ ../../CCC_common/Library/StdDriver/src/rtc.c:577:5
	bl	RTC_WaitAccessEnable
.Ltmp100:
	.loc	2 578 8                         @ ../../CCC_common/Library/StdDriver/src/rtc.c:578:8
	ldr	r0, [sp, #16]
.Ltmp101:
	.loc	2 578 8 is_stmt 0               @ ../../CCC_common/Library/StdDriver/src/rtc.c:578:8
	cbnz	r0, .LBB9_5
	b	.LBB9_4
.LBB9_4:
.Ltmp102:
	.loc	2 580 9 is_stmt 1               @ ../../CCC_common/Library/StdDriver/src/rtc.c:580:9
	ldr	r1, [sp, #8]
	.loc	2 580 22 is_stmt 0              @ ../../CCC_common/Library/StdDriver/src/rtc.c:580:22
	ldr	r0, [r1, #20]
	movs	r2, #1
	bics	r0, r2
	str	r0, [r1, #20]
	.loc	2 581 5 is_stmt 1               @ ../../CCC_common/Library/StdDriver/src/rtc.c:581:5
	b	.LBB9_6
.Ltmp103:
.LBB9_5:
	.loc	2 584 9                         @ ../../CCC_common/Library/StdDriver/src/rtc.c:584:9
	ldr	r1, [sp, #8]
	.loc	2 584 22 is_stmt 0              @ ../../CCC_common/Library/StdDriver/src/rtc.c:584:22
	ldr	r0, [r1, #20]
	movs	r2, #1
	orrs	r0, r2
	str	r0, [r1, #20]
	b	.LBB9_6
.Ltmp104:
.LBB9_6:
	.loc	2 587 5 is_stmt 1               @ ../../CCC_common/Library/StdDriver/src/rtc.c:587:5
	bl	RTC_WaitAccessEnable
	.loc	2 588 28                        @ ../../CCC_common/Library/StdDriver/src/rtc.c:588:28
	ldr	r0, [sp, #12]
	.loc	2 588 5 is_stmt 0               @ ../../CCC_common/Library/StdDriver/src/rtc.c:588:5
	ldr	r1, [sp, #8]
	.loc	2 588 16                        @ ../../CCC_common/Library/StdDriver/src/rtc.c:588:16
	str	r0, [r1, #12]
	.loc	2 589 1 epilogue_begin is_stmt 1 @ ../../CCC_common/Library/StdDriver/src/rtc.c:589:1
	add	sp, #32
	pop	{r4, pc}
.Ltmp105:
	.loc	2 0 1 is_stmt 0                 @ :0:1
.Ltmp106:
	.p2align	2
@ %bb.7:
__arm_cp.9_0:
	.long	1074008064                      @ 0x40041000
.Lcpi_end38:
	.size	__arm_cp.9_0, .Lcpi_end38-__arm_cp.9_0
.Lfunc_end9:
	.size	RTC_SetTime, .Lfunc_end9-RTC_SetTime
	.cfi_endproc
	.cantunwind
	.fnend
                                        @ -- End function
	.section	.text.RTC_SetAlarmDate,"ax",%progbits
	.hidden	RTC_SetAlarmDate                @ -- Begin function RTC_SetAlarmDate
	.globl	RTC_SetAlarmDate
	.p2align	2
	.type	RTC_SetAlarmDate,%function
	.code	16                              @ @RTC_SetAlarmDate
	.thumb_func
RTC_SetAlarmDate:
.Lfunc_begin10:
	.loc	2 603 0 is_stmt 1               @ ../../CCC_common/Library/StdDriver/src/rtc.c:603:0
	.fnstart
	.cfi_startproc
@ %bb.0:
	.save	{r7, lr}
	push	{r7, lr}
	.cfi_def_cfa_offset 8
	.cfi_offset lr, -4
	.cfi_offset r7, -8
	.pad	#24
	sub	sp, #24
	.cfi_def_cfa_offset 32
	str	r0, [sp, #20]
	str	r1, [sp, #16]
	str	r2, [sp, #12]
	ldr	r0, __arm_cp.10_0
.Ltmp107:
	.loc	2 607 10 prologue_end           @ ../../CCC_common/Library/StdDriver/src/rtc.c:607:10
	str	r0, [sp, #4]
	.loc	2 609 21                        @ ../../CCC_common/Library/StdDriver/src/rtc.c:609:21
	ldr	r0, [sp, #20]
	.loc	2 609 29 is_stmt 0              @ ../../CCC_common/Library/StdDriver/src/rtc.c:609:29
	movw	r2, #2000
	subs	r0, r0, r2
	movs	r1, #10
	.loc	2 609 55                        @ ../../CCC_common/Library/StdDriver/src/rtc.c:609:55
	udiv	r0, r0, r1
	.loc	2 609 63                        @ ../../CCC_common/Library/StdDriver/src/rtc.c:609:63
	lsls	r0, r0, #20
	.loc	2 609 17                        @ ../../CCC_common/Library/StdDriver/src/rtc.c:609:17
	str	r0, [sp, #8]
	.loc	2 610 22 is_stmt 1              @ ../../CCC_common/Library/StdDriver/src/rtc.c:610:22
	ldr	r0, [sp, #20]
	.loc	2 610 30 is_stmt 0              @ ../../CCC_common/Library/StdDriver/src/rtc.c:610:30
	subs	r0, r0, r2
	.loc	2 610 56                        @ ../../CCC_common/Library/StdDriver/src/rtc.c:610:56
	udiv	r3, r0, r1
	mov	r2, r1
	muls	r2, r3, r2
	subs	r0, r0, r2
	.loc	2 610 64                        @ ../../CCC_common/Library/StdDriver/src/rtc.c:610:64
	lsls	r2, r0, #16
	.loc	2 610 16                        @ ../../CCC_common/Library/StdDriver/src/rtc.c:610:16
	ldr	r0, [sp, #8]
	orrs	r0, r2
	str	r0, [sp, #8]
	.loc	2 611 21 is_stmt 1              @ ../../CCC_common/Library/StdDriver/src/rtc.c:611:21
	ldr	r0, [sp, #16]
	.loc	2 611 30 is_stmt 0              @ ../../CCC_common/Library/StdDriver/src/rtc.c:611:30
	udiv	r0, r0, r1
	.loc	2 611 38                        @ ../../CCC_common/Library/StdDriver/src/rtc.c:611:38
	lsls	r2, r0, #12
	.loc	2 611 16                        @ ../../CCC_common/Library/StdDriver/src/rtc.c:611:16
	ldr	r0, [sp, #8]
	orrs	r0, r2
	str	r0, [sp, #8]
	.loc	2 612 21 is_stmt 1              @ ../../CCC_common/Library/StdDriver/src/rtc.c:612:21
	ldr	r0, [sp, #16]
	.loc	2 612 30 is_stmt 0              @ ../../CCC_common/Library/StdDriver/src/rtc.c:612:30
	udiv	r3, r0, r1
	mov	r2, r1
	muls	r2, r3, r2
	subs	r0, r0, r2
	.loc	2 612 38                        @ ../../CCC_common/Library/StdDriver/src/rtc.c:612:38
	lsls	r2, r0, #8
	.loc	2 612 16                        @ ../../CCC_common/Library/StdDriver/src/rtc.c:612:16
	ldr	r0, [sp, #8]
	orrs	r0, r2
	str	r0, [sp, #8]
	.loc	2 613 21 is_stmt 1              @ ../../CCC_common/Library/StdDriver/src/rtc.c:613:21
	ldr	r0, [sp, #12]
	.loc	2 613 30 is_stmt 0              @ ../../CCC_common/Library/StdDriver/src/rtc.c:613:30
	udiv	r0, r0, r1
	.loc	2 613 38                        @ ../../CCC_common/Library/StdDriver/src/rtc.c:613:38
	lsls	r2, r0, #4
	.loc	2 613 16                        @ ../../CCC_common/Library/StdDriver/src/rtc.c:613:16
	ldr	r0, [sp, #8]
	orrs	r0, r2
	str	r0, [sp, #8]
	.loc	2 614 20 is_stmt 1              @ ../../CCC_common/Library/StdDriver/src/rtc.c:614:20
	ldr	r0, [sp, #12]
	.loc	2 614 29 is_stmt 0              @ ../../CCC_common/Library/StdDriver/src/rtc.c:614:29
	udiv	r2, r0, r1
	muls	r1, r2, r1
	subs	r1, r0, r1
	.loc	2 614 16                        @ ../../CCC_common/Library/StdDriver/src/rtc.c:614:16
	ldr	r0, [sp, #8]
	orrs	r0, r1
	str	r0, [sp, #8]
	.loc	2 616 5 is_stmt 1               @ ../../CCC_common/Library/StdDriver/src/rtc.c:616:5
	bl	RTC_WaitAccessEnable
	.loc	2 619 28                        @ ../../CCC_common/Library/StdDriver/src/rtc.c:619:28
	ldr	r0, [sp, #8]
	.loc	2 619 5 is_stmt 0               @ ../../CCC_common/Library/StdDriver/src/rtc.c:619:5
	ldr	r1, [sp, #4]
	.loc	2 619 16                        @ ../../CCC_common/Library/StdDriver/src/rtc.c:619:16
	str	r0, [r1, #32]
	.loc	2 620 1 epilogue_begin is_stmt 1 @ ../../CCC_common/Library/StdDriver/src/rtc.c:620:1
	add	sp, #24
	pop	{r7, pc}
.Ltmp108:
	.loc	2 0 1 is_stmt 0                 @ :0:1
.Ltmp109:
	.p2align	2
@ %bb.1:
__arm_cp.10_0:
	.long	1074008064                      @ 0x40041000
.Lcpi_end39:
	.size	__arm_cp.10_0, .Lcpi_end39-__arm_cp.10_0
.Lfunc_end10:
	.size	RTC_SetAlarmDate, .Lfunc_end10-RTC_SetAlarmDate
	.cfi_endproc
	.cantunwind
	.fnend
                                        @ -- End function
	.section	.text.RTC_SetAlarmTime,"ax",%progbits
	.hidden	RTC_SetAlarmTime                @ -- Begin function RTC_SetAlarmTime
	.globl	RTC_SetAlarmTime
	.p2align	2
	.type	RTC_SetAlarmTime,%function
	.code	16                              @ @RTC_SetAlarmTime
	.thumb_func
RTC_SetAlarmTime:
.Lfunc_begin11:
	.loc	2 636 0 is_stmt 1               @ ../../CCC_common/Library/StdDriver/src/rtc.c:636:0
	.fnstart
	.cfi_startproc
@ %bb.0:
	.save	{r4, lr}
	push	{r4, lr}
	.cfi_def_cfa_offset 8
	.cfi_offset lr, -4
	.cfi_offset r4, -8
	.pad	#32
	sub	sp, #32
	.cfi_def_cfa_offset 40
	ldr	r4, [sp, #40]
	str	r0, [sp, #28]
	str	r1, [sp, #24]
	str	r2, [sp, #20]
	str	r3, [sp, #16]
	ldr	r0, __arm_cp.11_0
.Ltmp110:
	.loc	2 640 10 prologue_end           @ ../../CCC_common/Library/StdDriver/src/rtc.c:640:10
	str	r0, [sp, #8]
.Ltmp111:
	.loc	2 643 9                         @ ../../CCC_common/Library/StdDriver/src/rtc.c:643:9
	ldr	r0, [sp, #16]
	.loc	2 643 48 is_stmt 0              @ ../../CCC_common/Library/StdDriver/src/rtc.c:643:48
	cbnz	r0, .LBB11_3
	b	.LBB11_1
.LBB11_1:
	.loc	2 643 52                        @ ../../CCC_common/Library/StdDriver/src/rtc.c:643:52
	ldr	r0, [sp, #40]
.Ltmp112:
	.loc	2 643 8                         @ ../../CCC_common/Library/StdDriver/src/rtc.c:643:8
	cmp	r0, #2
	bne	.LBB11_3
	b	.LBB11_2
.LBB11_2:
.Ltmp113:
	.loc	2 645 17 is_stmt 1              @ ../../CCC_common/Library/StdDriver/src/rtc.c:645:17
	ldr	r0, [sp, #28]
	adds	r0, #20
	str	r0, [sp, #28]
	.loc	2 646 5                         @ ../../CCC_common/Library/StdDriver/src/rtc.c:646:5
	b	.LBB11_3
.Ltmp114:
.LBB11_3:
	.loc	2 648 21                        @ ../../CCC_common/Library/StdDriver/src/rtc.c:648:21
	ldr	r0, [sp, #28]
	movs	r1, #10
	.loc	2 648 31 is_stmt 0              @ ../../CCC_common/Library/StdDriver/src/rtc.c:648:31
	str	r1, [sp, #4]                    @ 4-byte Spill
	udiv	r0, r0, r1
	.loc	2 648 39                        @ ../../CCC_common/Library/StdDriver/src/rtc.c:648:39
	lsls	r0, r0, #20
	.loc	2 648 17                        @ ../../CCC_common/Library/StdDriver/src/rtc.c:648:17
	str	r0, [sp, #12]
	.loc	2 649 21 is_stmt 1              @ ../../CCC_common/Library/StdDriver/src/rtc.c:649:21
	ldr	r0, [sp, #28]
	.loc	2 649 31 is_stmt 0              @ ../../CCC_common/Library/StdDriver/src/rtc.c:649:31
	udiv	r3, r0, r1
	mov	r2, r1
	muls	r2, r3, r2
	subs	r0, r0, r2
	.loc	2 649 39                        @ ../../CCC_common/Library/StdDriver/src/rtc.c:649:39
	lsls	r2, r0, #16
	.loc	2 649 16                        @ ../../CCC_common/Library/StdDriver/src/rtc.c:649:16
	ldr	r0, [sp, #12]
	orrs	r0, r2
	str	r0, [sp, #12]
	.loc	2 650 21 is_stmt 1              @ ../../CCC_common/Library/StdDriver/src/rtc.c:650:21
	ldr	r0, [sp, #24]
	.loc	2 650 31 is_stmt 0              @ ../../CCC_common/Library/StdDriver/src/rtc.c:650:31
	udiv	r0, r0, r1
	.loc	2 650 39                        @ ../../CCC_common/Library/StdDriver/src/rtc.c:650:39
	lsls	r2, r0, #12
	.loc	2 650 16                        @ ../../CCC_common/Library/StdDriver/src/rtc.c:650:16
	ldr	r0, [sp, #12]
	orrs	r0, r2
	str	r0, [sp, #12]
	.loc	2 651 21 is_stmt 1              @ ../../CCC_common/Library/StdDriver/src/rtc.c:651:21
	ldr	r0, [sp, #24]
	.loc	2 651 31 is_stmt 0              @ ../../CCC_common/Library/StdDriver/src/rtc.c:651:31
	udiv	r3, r0, r1
	mov	r2, r1
	muls	r2, r3, r2
	subs	r0, r0, r2
	.loc	2 651 39                        @ ../../CCC_common/Library/StdDriver/src/rtc.c:651:39
	lsls	r2, r0, #8
	.loc	2 651 16                        @ ../../CCC_common/Library/StdDriver/src/rtc.c:651:16
	ldr	r0, [sp, #12]
	orrs	r0, r2
	str	r0, [sp, #12]
	.loc	2 652 21 is_stmt 1              @ ../../CCC_common/Library/StdDriver/src/rtc.c:652:21
	ldr	r0, [sp, #20]
	.loc	2 652 31 is_stmt 0              @ ../../CCC_common/Library/StdDriver/src/rtc.c:652:31
	udiv	r0, r0, r1
	.loc	2 652 39                        @ ../../CCC_common/Library/StdDriver/src/rtc.c:652:39
	lsls	r2, r0, #4
	.loc	2 652 16                        @ ../../CCC_common/Library/StdDriver/src/rtc.c:652:16
	ldr	r0, [sp, #12]
	orrs	r0, r2
	str	r0, [sp, #12]
	.loc	2 653 20 is_stmt 1              @ ../../CCC_common/Library/StdDriver/src/rtc.c:653:20
	ldr	r0, [sp, #20]
	.loc	2 653 30 is_stmt 0              @ ../../CCC_common/Library/StdDriver/src/rtc.c:653:30
	udiv	r2, r0, r1
	muls	r1, r2, r1
	subs	r1, r0, r1
	.loc	2 653 16                        @ ../../CCC_common/Library/StdDriver/src/rtc.c:653:16
	ldr	r0, [sp, #12]
	orrs	r0, r1
	str	r0, [sp, #12]
	.loc	2 658 5 is_stmt 1               @ ../../CCC_common/Library/StdDriver/src/rtc.c:658:5
	bl	RTC_WaitAccessEnable
.Ltmp115:
	.loc	2 659 8                         @ ../../CCC_common/Library/StdDriver/src/rtc.c:659:8
	ldr	r0, [sp, #16]
.Ltmp116:
	.loc	2 659 8 is_stmt 0               @ ../../CCC_common/Library/StdDriver/src/rtc.c:659:8
	cbnz	r0, .LBB11_5
	b	.LBB11_4
.LBB11_4:
.Ltmp117:
	.loc	2 661 9 is_stmt 1               @ ../../CCC_common/Library/StdDriver/src/rtc.c:661:9
	ldr	r1, [sp, #8]
	.loc	2 661 22 is_stmt 0              @ ../../CCC_common/Library/StdDriver/src/rtc.c:661:22
	ldr	r0, [r1, #20]
	movs	r2, #1
	bics	r0, r2
	str	r0, [r1, #20]
	.loc	2 662 5 is_stmt 1               @ ../../CCC_common/Library/StdDriver/src/rtc.c:662:5
	b	.LBB11_6
.Ltmp118:
.LBB11_5:
	.loc	2 665 9                         @ ../../CCC_common/Library/StdDriver/src/rtc.c:665:9
	ldr	r1, [sp, #8]
	.loc	2 665 22 is_stmt 0              @ ../../CCC_common/Library/StdDriver/src/rtc.c:665:22
	ldr	r0, [r1, #20]
	movs	r2, #1
	orrs	r0, r2
	str	r0, [r1, #20]
	b	.LBB11_6
.Ltmp119:
.LBB11_6:
	.loc	2 669 5 is_stmt 1               @ ../../CCC_common/Library/StdDriver/src/rtc.c:669:5
	bl	RTC_WaitAccessEnable
	.loc	2 670 28                        @ ../../CCC_common/Library/StdDriver/src/rtc.c:670:28
	ldr	r0, [sp, #12]
	.loc	2 670 5 is_stmt 0               @ ../../CCC_common/Library/StdDriver/src/rtc.c:670:5
	ldr	r1, [sp, #8]
	.loc	2 670 16                        @ ../../CCC_common/Library/StdDriver/src/rtc.c:670:16
	str	r0, [r1, #28]
	.loc	2 671 1 epilogue_begin is_stmt 1 @ ../../CCC_common/Library/StdDriver/src/rtc.c:671:1
	add	sp, #32
	pop	{r4, pc}
.Ltmp120:
	.loc	2 0 1 is_stmt 0                 @ :0:1
.Ltmp121:
	.p2align	2
@ %bb.7:
__arm_cp.11_0:
	.long	1074008064                      @ 0x40041000
.Lcpi_end40:
	.size	__arm_cp.11_0, .Lcpi_end40-__arm_cp.11_0
.Lfunc_end11:
	.size	RTC_SetAlarmTime, .Lfunc_end11-RTC_SetAlarmTime
	.cfi_endproc
	.cantunwind
	.fnend
                                        @ -- End function
	.section	.text.RTC_SetAlarmDateMask,"ax",%progbits
	.hidden	RTC_SetAlarmDateMask            @ -- Begin function RTC_SetAlarmDateMask
	.globl	RTC_SetAlarmDateMask
	.p2align	2
	.type	RTC_SetAlarmDateMask,%function
	.code	16                              @ @RTC_SetAlarmDateMask
	.thumb_func
RTC_SetAlarmDateMask:
.Lfunc_begin12:
	.loc	2 688 0 is_stmt 1               @ ../../CCC_common/Library/StdDriver/src/rtc.c:688:0
	.fnstart
	.cfi_startproc
@ %bb.0:
	.save	{r4, r5, r6, lr}
	push	{r4, r5, r6, lr}
	.cfi_def_cfa_offset 16
	.cfi_offset lr, -4
	.cfi_offset r6, -8
	.cfi_offset r5, -12
	.cfi_offset r4, -16
	.pad	#48
	sub	sp, #48
	.cfi_def_cfa_offset 64
	mov	r4, r1
	mov	r5, r0
	ldr	r0, [sp, #68]
	ldr	r1, [sp, #64]
                                        @ kill: def $r6 killed $r3
                                        @ kill: def $r6 killed $r2
                                        @ kill: def $r6 killed $r4
                                        @ kill: def $r6 killed $r5
	add	r6, sp, #44
	str	r6, [sp, #4]                    @ 4-byte Spill
	strb	r5, [r6]
	add	r5, sp, #40
	strb	r4, [r5]
	add	r4, sp, #36
	strb	r2, [r4]
	add	r2, sp, #32
	str	r2, [sp, #8]                    @ 4-byte Spill
	strb	r3, [r2]
	add	r2, sp, #28
	str	r2, [sp, #12]                   @ 4-byte Spill
	strb	r1, [r2]
	add	r1, sp, #24
	str	r1, [sp, #16]                   @ 4-byte Spill
	strb	r0, [r1]
	ldr	r0, __arm_cp.12_0
.Ltmp122:
	.loc	2 691 10 prologue_end           @ ../../CCC_common/Library/StdDriver/src/rtc.c:691:10
	str	r0, [sp, #20]
	.loc	2 693 5                         @ ../../CCC_common/Library/StdDriver/src/rtc.c:693:5
	bl	RTC_WaitAccessEnable
	ldr	r0, [sp, #4]                    @ 4-byte Reload
	ldr	r3, [sp, #8]                    @ 4-byte Reload
	ldr	r2, [sp, #12]                   @ 4-byte Reload
	ldr	r1, [sp, #16]                   @ 4-byte Reload
	.loc	2 694 30                        @ ../../CCC_common/Library/StdDriver/src/rtc.c:694:30
	ldrb	r0, [r0]
	.loc	2 694 42 is_stmt 0              @ ../../CCC_common/Library/StdDriver/src/rtc.c:694:42
	lsls	r0, r0, #5
	.loc	2 695 30 is_stmt 1              @ ../../CCC_common/Library/StdDriver/src/rtc.c:695:30
	ldrb	r5, [r5]
	.loc	2 695 42 is_stmt 0              @ ../../CCC_common/Library/StdDriver/src/rtc.c:695:42
	lsls	r5, r5, #4
	.loc	2 694 69 is_stmt 1              @ ../../CCC_common/Library/StdDriver/src/rtc.c:694:69
	orrs	r0, r5
	.loc	2 696 30                        @ ../../CCC_common/Library/StdDriver/src/rtc.c:696:30
	ldrb	r4, [r4]
	.loc	2 696 42 is_stmt 0              @ ../../CCC_common/Library/StdDriver/src/rtc.c:696:42
	lsls	r4, r4, #3
	.loc	2 695 66 is_stmt 1              @ ../../CCC_common/Library/StdDriver/src/rtc.c:695:66
	orrs	r0, r4
	.loc	2 697 30                        @ ../../CCC_common/Library/StdDriver/src/rtc.c:697:30
	ldrb	r3, [r3]
	.loc	2 697 42 is_stmt 0              @ ../../CCC_common/Library/StdDriver/src/rtc.c:697:42
	lsls	r3, r3, #2
	.loc	2 696 68 is_stmt 1              @ ../../CCC_common/Library/StdDriver/src/rtc.c:696:68
	orrs	r0, r3
	.loc	2 698 30                        @ ../../CCC_common/Library/StdDriver/src/rtc.c:698:30
	ldrb	r2, [r2]
	.loc	2 698 42 is_stmt 0              @ ../../CCC_common/Library/StdDriver/src/rtc.c:698:42
	lsls	r2, r2, #1
	.loc	2 697 65 is_stmt 1              @ ../../CCC_common/Library/StdDriver/src/rtc.c:697:65
	orrs	r0, r2
	.loc	2 699 30                        @ ../../CCC_common/Library/StdDriver/src/rtc.c:699:30
	ldrb	r1, [r1]
	.loc	2 698 68                        @ ../../CCC_common/Library/StdDriver/src/rtc.c:698:68
	orrs	r0, r1
	.loc	2 694 5                         @ ../../CCC_common/Library/StdDriver/src/rtc.c:694:5
	ldr	r1, [sp, #20]
	.loc	2 694 17 is_stmt 0              @ ../../CCC_common/Library/StdDriver/src/rtc.c:694:17
	str	r0, [r1, #56]
	.loc	2 700 1 epilogue_begin is_stmt 1 @ ../../CCC_common/Library/StdDriver/src/rtc.c:700:1
	add	sp, #48
	pop	{r4, r5, r6, pc}
.Ltmp123:
	.loc	2 0 1 is_stmt 0                 @ :0:1
.Ltmp124:
	.p2align	2
@ %bb.1:
__arm_cp.12_0:
	.long	1074008064                      @ 0x40041000
.Lcpi_end41:
	.size	__arm_cp.12_0, .Lcpi_end41-__arm_cp.12_0
.Lfunc_end12:
	.size	RTC_SetAlarmDateMask, .Lfunc_end12-RTC_SetAlarmDateMask
	.cfi_endproc
	.cantunwind
	.fnend
                                        @ -- End function
	.section	.text.RTC_SetAlarmTimeMask,"ax",%progbits
	.hidden	RTC_SetAlarmTimeMask            @ -- Begin function RTC_SetAlarmTimeMask
	.globl	RTC_SetAlarmTimeMask
	.p2align	2
	.type	RTC_SetAlarmTimeMask,%function
	.code	16                              @ @RTC_SetAlarmTimeMask
	.thumb_func
RTC_SetAlarmTimeMask:
.Lfunc_begin13:
	.loc	2 717 0 is_stmt 1               @ ../../CCC_common/Library/StdDriver/src/rtc.c:717:0
	.fnstart
	.cfi_startproc
@ %bb.0:
	.save	{r4, r5, r6, lr}
	push	{r4, r5, r6, lr}
	.cfi_def_cfa_offset 16
	.cfi_offset lr, -4
	.cfi_offset r6, -8
	.cfi_offset r5, -12
	.cfi_offset r4, -16
	.pad	#48
	sub	sp, #48
	.cfi_def_cfa_offset 64
	mov	r4, r1
	mov	r5, r0
	ldr	r0, [sp, #68]
	ldr	r1, [sp, #64]
                                        @ kill: def $r6 killed $r3
                                        @ kill: def $r6 killed $r2
                                        @ kill: def $r6 killed $r4
                                        @ kill: def $r6 killed $r5
	add	r6, sp, #44
	str	r6, [sp, #4]                    @ 4-byte Spill
	strb	r5, [r6]
	add	r5, sp, #40
	strb	r4, [r5]
	add	r4, sp, #36
	strb	r2, [r4]
	add	r2, sp, #32
	str	r2, [sp, #8]                    @ 4-byte Spill
	strb	r3, [r2]
	add	r2, sp, #28
	str	r2, [sp, #12]                   @ 4-byte Spill
	strb	r1, [r2]
	add	r1, sp, #24
	str	r1, [sp, #16]                   @ 4-byte Spill
	strb	r0, [r1]
	ldr	r0, __arm_cp.13_0
.Ltmp125:
	.loc	2 720 10 prologue_end           @ ../../CCC_common/Library/StdDriver/src/rtc.c:720:10
	str	r0, [sp, #20]
	.loc	2 722 5                         @ ../../CCC_common/Library/StdDriver/src/rtc.c:722:5
	bl	RTC_WaitAccessEnable
	ldr	r0, [sp, #4]                    @ 4-byte Reload
	ldr	r3, [sp, #8]                    @ 4-byte Reload
	ldr	r2, [sp, #12]                   @ 4-byte Reload
	ldr	r1, [sp, #16]                   @ 4-byte Reload
	.loc	2 723 30                        @ ../../CCC_common/Library/StdDriver/src/rtc.c:723:30
	ldrb	r0, [r0]
	.loc	2 723 42 is_stmt 0              @ ../../CCC_common/Library/StdDriver/src/rtc.c:723:42
	lsls	r0, r0, #5
	.loc	2 724 30 is_stmt 1              @ ../../CCC_common/Library/StdDriver/src/rtc.c:724:30
	ldrb	r5, [r5]
	.loc	2 724 42 is_stmt 0              @ ../../CCC_common/Library/StdDriver/src/rtc.c:724:42
	lsls	r5, r5, #4
	.loc	2 723 67 is_stmt 1              @ ../../CCC_common/Library/StdDriver/src/rtc.c:723:67
	orrs	r0, r5
	.loc	2 725 30                        @ ../../CCC_common/Library/StdDriver/src/rtc.c:725:30
	ldrb	r4, [r4]
	.loc	2 725 42 is_stmt 0              @ ../../CCC_common/Library/StdDriver/src/rtc.c:725:42
	lsls	r4, r4, #3
	.loc	2 724 64 is_stmt 1              @ ../../CCC_common/Library/StdDriver/src/rtc.c:724:64
	orrs	r0, r4
	.loc	2 726 30                        @ ../../CCC_common/Library/StdDriver/src/rtc.c:726:30
	ldrb	r3, [r3]
	.loc	2 726 42 is_stmt 0              @ ../../CCC_common/Library/StdDriver/src/rtc.c:726:42
	lsls	r3, r3, #2
	.loc	2 725 68 is_stmt 1              @ ../../CCC_common/Library/StdDriver/src/rtc.c:725:68
	orrs	r0, r3
	.loc	2 727 30                        @ ../../CCC_common/Library/StdDriver/src/rtc.c:727:30
	ldrb	r2, [r2]
	.loc	2 727 42 is_stmt 0              @ ../../CCC_common/Library/StdDriver/src/rtc.c:727:42
	lsls	r2, r2, #1
	.loc	2 726 65 is_stmt 1              @ ../../CCC_common/Library/StdDriver/src/rtc.c:726:65
	orrs	r0, r2
	.loc	2 728 30                        @ ../../CCC_common/Library/StdDriver/src/rtc.c:728:30
	ldrb	r1, [r1]
	.loc	2 727 68                        @ ../../CCC_common/Library/StdDriver/src/rtc.c:727:68
	orrs	r0, r1
	.loc	2 723 5                         @ ../../CCC_common/Library/StdDriver/src/rtc.c:723:5
	ldr	r1, [sp, #20]
	.loc	2 723 17 is_stmt 0              @ ../../CCC_common/Library/StdDriver/src/rtc.c:723:17
	str	r0, [r1, #52]
	.loc	2 729 1 epilogue_begin is_stmt 1 @ ../../CCC_common/Library/StdDriver/src/rtc.c:729:1
	add	sp, #48
	pop	{r4, r5, r6, pc}
.Ltmp126:
	.loc	2 0 1 is_stmt 0                 @ :0:1
.Ltmp127:
	.p2align	2
@ %bb.1:
__arm_cp.13_0:
	.long	1074008064                      @ 0x40041000
.Lcpi_end42:
	.size	__arm_cp.13_0, .Lcpi_end42-__arm_cp.13_0
.Lfunc_end13:
	.size	RTC_SetAlarmTimeMask, .Lfunc_end13-RTC_SetAlarmTimeMask
	.cfi_endproc
	.cantunwind
	.fnend
                                        @ -- End function
	.section	.text.RTC_GetDayOfWeek,"ax",%progbits
	.hidden	RTC_GetDayOfWeek                @ -- Begin function RTC_GetDayOfWeek
	.globl	RTC_GetDayOfWeek
	.p2align	2
	.type	RTC_GetDayOfWeek,%function
	.code	16                              @ @RTC_GetDayOfWeek
	.thumb_func
RTC_GetDayOfWeek:
.Lfunc_begin14:
	.loc	2 747 0 is_stmt 1               @ ../../CCC_common/Library/StdDriver/src/rtc.c:747:0
	.fnstart
	.cfi_startproc
@ %bb.0:
	.pad	#4
	sub	sp, #4
	.cfi_def_cfa_offset 4
	ldr	r0, __arm_cp.14_0
.Ltmp128:
	.loc	2 750 10 prologue_end           @ ../../CCC_common/Library/StdDriver/src/rtc.c:750:10
	str	r0, [sp]
	.loc	2 752 13                        @ ../../CCC_common/Library/StdDriver/src/rtc.c:752:13
	ldr	r0, [sp]
	.loc	2 752 19 is_stmt 0              @ ../../CCC_common/Library/StdDriver/src/rtc.c:752:19
	ldr	r0, [r0, #24]
	movs	r1, #7
	.loc	2 752 27                        @ ../../CCC_common/Library/StdDriver/src/rtc.c:752:27
	ands	r0, r1
	.loc	2 752 5 epilogue_begin          @ ../../CCC_common/Library/StdDriver/src/rtc.c:752:5
	add	sp, #4
	bx	lr
.Ltmp129:
	.loc	2 0 5                           @ :0:5
.Ltmp130:
	.p2align	2
@ %bb.1:
__arm_cp.14_0:
	.long	1074008064                      @ 0x40041000
.Lcpi_end43:
	.size	__arm_cp.14_0, .Lcpi_end43-__arm_cp.14_0
.Lfunc_end14:
	.size	RTC_GetDayOfWeek, .Lfunc_end14-RTC_GetDayOfWeek
	.cfi_endproc
	.cantunwind
	.fnend
                                        @ -- End function
	.section	.text.RTC_SetTickPeriod,"ax",%progbits
	.hidden	RTC_SetTickPeriod               @ -- Begin function RTC_SetTickPeriod
	.globl	RTC_SetTickPeriod
	.p2align	2
	.type	RTC_SetTickPeriod,%function
	.code	16                              @ @RTC_SetTickPeriod
	.thumb_func
RTC_SetTickPeriod:
.Lfunc_begin15:
	.loc	2 774 0 is_stmt 1               @ ../../CCC_common/Library/StdDriver/src/rtc.c:774:0
	.fnstart
	.cfi_startproc
@ %bb.0:
	.save	{r7, lr}
	push	{r7, lr}
	.cfi_def_cfa_offset 8
	.cfi_offset lr, -4
	.cfi_offset r7, -8
	.pad	#8
	sub	sp, #8
	.cfi_def_cfa_offset 16
	str	r0, [sp, #4]
	ldr	r0, __arm_cp.15_0
.Ltmp131:
	.loc	2 777 10 prologue_end           @ ../../CCC_common/Library/StdDriver/src/rtc.c:777:10
	str	r0, [sp]
	.loc	2 779 5                         @ ../../CCC_common/Library/StdDriver/src/rtc.c:779:5
	bl	RTC_WaitAccessEnable
	.loc	2 781 19                        @ ../../CCC_common/Library/StdDriver/src/rtc.c:781:19
	ldr	r0, [sp]
	.loc	2 781 25 is_stmt 0              @ ../../CCC_common/Library/StdDriver/src/rtc.c:781:25
	ldr	r0, [r0, #48]
	movs	r1, #7
	.loc	2 781 30                        @ ../../CCC_common/Library/StdDriver/src/rtc.c:781:30
	bics	r0, r1
	.loc	2 781 54                        @ ../../CCC_common/Library/StdDriver/src/rtc.c:781:54
	ldr	r1, [sp, #4]
	.loc	2 781 52                        @ ../../CCC_common/Library/StdDriver/src/rtc.c:781:52
	orrs	r0, r1
	.loc	2 781 5                         @ ../../CCC_common/Library/StdDriver/src/rtc.c:781:5
	ldr	r1, [sp]
	.loc	2 781 16                        @ ../../CCC_common/Library/StdDriver/src/rtc.c:781:16
	str	r0, [r1, #48]
	.loc	2 782 1 epilogue_begin is_stmt 1 @ ../../CCC_common/Library/StdDriver/src/rtc.c:782:1
	add	sp, #8
	pop	{r7, pc}
.Ltmp132:
	.loc	2 0 1 is_stmt 0                 @ :0:1
.Ltmp133:
	.p2align	2
@ %bb.1:
__arm_cp.15_0:
	.long	1074008064                      @ 0x40041000
.Lcpi_end44:
	.size	__arm_cp.15_0, .Lcpi_end44-__arm_cp.15_0
.Lfunc_end15:
	.size	RTC_SetTickPeriod, .Lfunc_end15-RTC_SetTickPeriod
	.cfi_endproc
	.cantunwind
	.fnend
                                        @ -- End function
	.section	.text.RTC_EnableInt,"ax",%progbits
	.hidden	RTC_EnableInt                   @ -- Begin function RTC_EnableInt
	.globl	RTC_EnableInt
	.p2align	2
	.type	RTC_EnableInt,%function
	.code	16                              @ @RTC_EnableInt
	.thumb_func
RTC_EnableInt:
.Lfunc_begin16:
	.loc	2 804 0 is_stmt 1               @ ../../CCC_common/Library/StdDriver/src/rtc.c:804:0
	.fnstart
	.cfi_startproc
@ %bb.0:
	.pad	#8
	sub	sp, #8
	.cfi_def_cfa_offset 8
	str	r0, [sp, #4]
	ldr	r0, __arm_cp.16_0
.Ltmp134:
	.loc	2 807 10 prologue_end           @ ../../CCC_common/Library/StdDriver/src/rtc.c:807:10
	str	r0, [sp]
	.loc	2 809 20                        @ ../../CCC_common/Library/StdDriver/src/rtc.c:809:20
	ldr	r2, [sp, #4]
	.loc	2 809 5 is_stmt 0               @ ../../CCC_common/Library/StdDriver/src/rtc.c:809:5
	ldr	r1, [sp]
	.loc	2 809 17                        @ ../../CCC_common/Library/StdDriver/src/rtc.c:809:17
	ldr	r0, [r1, #40]
	orrs	r0, r2
	str	r0, [r1, #40]
	.loc	2 810 1 epilogue_begin is_stmt 1 @ ../../CCC_common/Library/StdDriver/src/rtc.c:810:1
	add	sp, #8
	bx	lr
.Ltmp135:
	.loc	2 0 1 is_stmt 0                 @ :0:1
.Ltmp136:
	.p2align	2
@ %bb.1:
__arm_cp.16_0:
	.long	1074008064                      @ 0x40041000
.Lcpi_end45:
	.size	__arm_cp.16_0, .Lcpi_end45-__arm_cp.16_0
.Lfunc_end16:
	.size	RTC_EnableInt, .Lfunc_end16-RTC_EnableInt
	.cfi_endproc
	.cantunwind
	.fnend
                                        @ -- End function
	.section	.text.RTC_DisableInt,"ax",%progbits
	.hidden	RTC_DisableInt                  @ -- Begin function RTC_DisableInt
	.globl	RTC_DisableInt
	.p2align	2
	.type	RTC_DisableInt,%function
	.code	16                              @ @RTC_DisableInt
	.thumb_func
RTC_DisableInt:
.Lfunc_begin17:
	.loc	2 832 0 is_stmt 1               @ ../../CCC_common/Library/StdDriver/src/rtc.c:832:0
	.fnstart
	.cfi_startproc
@ %bb.0:
	.pad	#8
	sub	sp, #8
	.cfi_def_cfa_offset 8
	str	r0, [sp, #4]
	ldr	r0, __arm_cp.17_0
.Ltmp137:
	.loc	2 835 10 prologue_end           @ ../../CCC_common/Library/StdDriver/src/rtc.c:835:10
	str	r0, [sp]
	.loc	2 837 22                        @ ../../CCC_common/Library/StdDriver/src/rtc.c:837:22
	ldr	r2, [sp, #4]
	.loc	2 837 5 is_stmt 0               @ ../../CCC_common/Library/StdDriver/src/rtc.c:837:5
	ldr	r1, [sp]
	.loc	2 837 18                        @ ../../CCC_common/Library/StdDriver/src/rtc.c:837:18
	ldr	r0, [r1, #40]
	bics	r0, r2
	str	r0, [r1, #40]
	.loc	2 838 20 is_stmt 1              @ ../../CCC_common/Library/StdDriver/src/rtc.c:838:20
	ldr	r0, [sp, #4]
	.loc	2 838 5 is_stmt 0               @ ../../CCC_common/Library/StdDriver/src/rtc.c:838:5
	ldr	r1, [sp]
	.loc	2 838 18                        @ ../../CCC_common/Library/StdDriver/src/rtc.c:838:18
	str	r0, [r1, #44]
	.loc	2 839 1 epilogue_begin is_stmt 1 @ ../../CCC_common/Library/StdDriver/src/rtc.c:839:1
	add	sp, #8
	bx	lr
.Ltmp138:
	.loc	2 0 1 is_stmt 0                 @ :0:1
.Ltmp139:
	.p2align	2
@ %bb.1:
__arm_cp.17_0:
	.long	1074008064                      @ 0x40041000
.Lcpi_end46:
	.size	__arm_cp.17_0, .Lcpi_end46-__arm_cp.17_0
.Lfunc_end17:
	.size	RTC_DisableInt, .Lfunc_end17-RTC_DisableInt
	.cfi_endproc
	.cantunwind
	.fnend
                                        @ -- End function
	.section	.text.RTC_EnableSpareAccess,"ax",%progbits
	.hidden	RTC_EnableSpareAccess           @ -- Begin function RTC_EnableSpareAccess
	.globl	RTC_EnableSpareAccess
	.p2align	2
	.type	RTC_EnableSpareAccess,%function
	.code	16                              @ @RTC_EnableSpareAccess
	.thumb_func
RTC_EnableSpareAccess:
.Lfunc_begin18:
	.loc	2 851 0 is_stmt 1               @ ../../CCC_common/Library/StdDriver/src/rtc.c:851:0
	.fnstart
	.cfi_startproc
@ %bb.0:
	.save	{r7, lr}
	push	{r7, lr}
	.cfi_def_cfa_offset 8
	.cfi_offset lr, -4
	.cfi_offset r7, -8
	.pad	#8
	sub	sp, #8
	.cfi_def_cfa_offset 16
	ldr	r0, __arm_cp.18_0
.Ltmp140:
	.loc	2 854 10 prologue_end           @ ../../CCC_common/Library/StdDriver/src/rtc.c:854:10
	str	r0, [sp, #4]
	.loc	2 856 5                         @ ../../CCC_common/Library/StdDriver/src/rtc.c:856:5
	bl	RTC_WaitAccessEnable
	.loc	2 858 5                         @ ../../CCC_common/Library/StdDriver/src/rtc.c:858:5
	ldr	r1, [sp, #4]
	.loc	2 858 18 is_stmt 0              @ ../../CCC_common/Library/StdDriver/src/rtc.c:858:18
	ldr	r0, [r1, #60]
	movs	r2, #4
	orrs	r0, r2
	str	r0, [r1, #60]
	.loc	2 859 1 epilogue_begin is_stmt 1 @ ../../CCC_common/Library/StdDriver/src/rtc.c:859:1
	add	sp, #8
	pop	{r7, pc}
.Ltmp141:
	.loc	2 0 1 is_stmt 0                 @ :0:1
.Ltmp142:
	.p2align	2
@ %bb.1:
__arm_cp.18_0:
	.long	1074008064                      @ 0x40041000
.Lcpi_end47:
	.size	__arm_cp.18_0, .Lcpi_end47-__arm_cp.18_0
.Lfunc_end18:
	.size	RTC_EnableSpareAccess, .Lfunc_end18-RTC_EnableSpareAccess
	.cfi_endproc
	.cantunwind
	.fnend
                                        @ -- End function
	.section	.text.RTC_DisableSpareRegister,"ax",%progbits
	.hidden	RTC_DisableSpareRegister        @ -- Begin function RTC_DisableSpareRegister
	.globl	RTC_DisableSpareRegister
	.p2align	2
	.type	RTC_DisableSpareRegister,%function
	.code	16                              @ @RTC_DisableSpareRegister
	.thumb_func
RTC_DisableSpareRegister:
.Lfunc_begin19:
	.loc	2 871 0 is_stmt 1               @ ../../CCC_common/Library/StdDriver/src/rtc.c:871:0
	.fnstart
	.cfi_startproc
@ %bb.0:
	.save	{r7, lr}
	push	{r7, lr}
	.cfi_def_cfa_offset 8
	.cfi_offset lr, -4
	.cfi_offset r7, -8
	.pad	#8
	sub	sp, #8
	.cfi_def_cfa_offset 16
	ldr	r0, __arm_cp.19_0
.Ltmp143:
	.loc	2 874 10 prologue_end           @ ../../CCC_common/Library/StdDriver/src/rtc.c:874:10
	str	r0, [sp, #4]
	.loc	2 876 5                         @ ../../CCC_common/Library/StdDriver/src/rtc.c:876:5
	bl	RTC_WaitAccessEnable
	.loc	2 878 5                         @ ../../CCC_common/Library/StdDriver/src/rtc.c:878:5
	ldr	r1, [sp, #4]
	.loc	2 878 18 is_stmt 0              @ ../../CCC_common/Library/StdDriver/src/rtc.c:878:18
	ldr	r0, [r1, #60]
	movs	r2, #4
	bics	r0, r2
	str	r0, [r1, #60]
	.loc	2 879 1 epilogue_begin is_stmt 1 @ ../../CCC_common/Library/StdDriver/src/rtc.c:879:1
	add	sp, #8
	pop	{r7, pc}
.Ltmp144:
	.loc	2 0 1 is_stmt 0                 @ :0:1
.Ltmp145:
	.p2align	2
@ %bb.1:
__arm_cp.19_0:
	.long	1074008064                      @ 0x40041000
.Lcpi_end48:
	.size	__arm_cp.19_0, .Lcpi_end48-__arm_cp.19_0
.Lfunc_end19:
	.size	RTC_DisableSpareRegister, .Lfunc_end19-RTC_DisableSpareRegister
	.cfi_endproc
	.cantunwind
	.fnend
                                        @ -- End function
	.section	.text.RTC_StaticTamperEnable,"ax",%progbits
	.hidden	RTC_StaticTamperEnable          @ -- Begin function RTC_StaticTamperEnable
	.globl	RTC_StaticTamperEnable
	.p2align	2
	.type	RTC_StaticTamperEnable,%function
	.code	16                              @ @RTC_StaticTamperEnable
	.thumb_func
RTC_StaticTamperEnable:
.Lfunc_begin20:
	.loc	2 906 0 is_stmt 1               @ ../../CCC_common/Library/StdDriver/src/rtc.c:906:0
	.fnstart
	.cfi_startproc
@ %bb.0:
	.save	{r7, lr}
	push	{r7, lr}
	.cfi_def_cfa_offset 8
	.cfi_offset lr, -4
	.cfi_offset r7, -8
	.pad	#32
	sub	sp, #32
	.cfi_def_cfa_offset 40
	str	r0, [sp, #28]
	str	r1, [sp, #24]
	str	r2, [sp, #20]
	ldr	r0, __arm_cp.20_0
.Ltmp146:
	.loc	2 912 10 prologue_end           @ ../../CCC_common/Library/StdDriver/src/rtc.c:912:10
	str	r0, [sp, #4]
	.loc	2 914 5                         @ ../../CCC_common/Library/StdDriver/src/rtc.c:914:5
	bl	RTC_WaitAccessEnable
	.loc	2 915 14                        @ ../../CCC_common/Library/StdDriver/src/rtc.c:915:14
	ldr	r0, [sp, #4]
	movw	r1, #288
	.loc	2 915 20 is_stmt 0              @ ../../CCC_common/Library/StdDriver/src/rtc.c:915:20
	ldr	r0, [r0, r1]
	.loc	2 915 12                        @ ../../CCC_common/Library/StdDriver/src/rtc.c:915:12
	str	r0, [sp, #12]
	.loc	2 917 45 is_stmt 1              @ ../../CCC_common/Library/StdDriver/src/rtc.c:917:45
	ldr	r0, [sp, #24]
	.loc	2 917 59 is_stmt 0              @ ../../CCC_common/Library/StdDriver/src/rtc.c:917:59
	lsls	r0, r0, #9
	.loc	2 918 19 is_stmt 1              @ ../../CCC_common/Library/StdDriver/src/rtc.c:918:19
	ldr	r1, [sp, #20]
	.loc	2 918 33 is_stmt 0              @ ../../CCC_common/Library/StdDriver/src/rtc.c:918:33
	lsls	r1, r1, #10
	.loc	2 917 42 is_stmt 1              @ ../../CCC_common/Library/StdDriver/src/rtc.c:917:42
	orrs	r0, r1
	movw	r1, #256
	.loc	2 917 87 is_stmt 0              @ ../../CCC_common/Library/StdDriver/src/rtc.c:917:87
	adds	r0, r0, r1
	.loc	2 917 15                        @ ../../CCC_common/Library/StdDriver/src/rtc.c:917:15
	str	r0, [sp, #8]
	movs	r0, #0
.Ltmp147:
	.loc	2 920 11 is_stmt 1              @ ../../CCC_common/Library/StdDriver/src/rtc.c:920:11
	str	r0, [sp, #16]
	.loc	2 920 9 is_stmt 0               @ ../../CCC_common/Library/StdDriver/src/rtc.c:920:9
	b	.LBB20_1
.LBB20_1:                               @ =>This Inner Loop Header: Depth=1
.Ltmp148:
	.loc	2 920 18                        @ ../../CCC_common/Library/StdDriver/src/rtc.c:920:18
	ldr	r0, [sp, #16]
.Ltmp149:
	.loc	2 920 5                         @ ../../CCC_common/Library/StdDriver/src/rtc.c:920:5
	cmp	r0, #5
	bhi	.LBB20_6
	b	.LBB20_2
.LBB20_2:                               @   in Loop: Header=BB20_1 Depth=1
.Ltmp150:
	.loc	2 922 12 is_stmt 1              @ ../../CCC_common/Library/StdDriver/src/rtc.c:922:12
	ldr	r0, [sp, #28]
	.loc	2 922 40 is_stmt 0              @ ../../CCC_common/Library/StdDriver/src/rtc.c:922:40
	ldr	r1, [sp, #16]
.Ltmp151:
	.loc	2 922 12                        @ ../../CCC_common/Library/StdDriver/src/rtc.c:922:12
	lsrs	r0, r1
	lsls	r0, r0, #31
	cbz	r0, .LBB20_4
	b	.LBB20_3
.LBB20_3:                               @   in Loop: Header=BB20_1 Depth=1
.Ltmp152:
	.loc	2 924 109 is_stmt 1             @ ../../CCC_common/Library/StdDriver/src/rtc.c:924:109
	ldr	r0, [sp, #16]
	.loc	2 924 111 is_stmt 0             @ ../../CCC_common/Library/StdDriver/src/rtc.c:924:111
	lsls	r0, r0, #2
	movw	r1, #1792
	.loc	2 924 105                       @ ../../CCC_common/Library/StdDriver/src/rtc.c:924:105
	lsls	r1, r0
	.loc	2 924 20                        @ ../../CCC_common/Library/StdDriver/src/rtc.c:924:20
	ldr	r0, [sp, #12]
	bics	r0, r1
	str	r0, [sp, #12]
	.loc	2 925 24 is_stmt 1              @ ../../CCC_common/Library/StdDriver/src/rtc.c:925:24
	ldr	r1, [sp, #8]
	.loc	2 925 38 is_stmt 0              @ ../../CCC_common/Library/StdDriver/src/rtc.c:925:38
	ldr	r0, [sp, #16]
	.loc	2 925 40                        @ ../../CCC_common/Library/StdDriver/src/rtc.c:925:40
	lsls	r0, r0, #2
	.loc	2 925 34                        @ ../../CCC_common/Library/StdDriver/src/rtc.c:925:34
	lsls	r1, r0
	.loc	2 925 20                        @ ../../CCC_common/Library/StdDriver/src/rtc.c:925:20
	ldr	r0, [sp, #12]
	orrs	r0, r1
	str	r0, [sp, #12]
	.loc	2 926 9 is_stmt 1               @ ../../CCC_common/Library/StdDriver/src/rtc.c:926:9
	b	.LBB20_4
.Ltmp153:
.LBB20_4:                               @   in Loop: Header=BB20_1 Depth=1
	.loc	2 927 5                         @ ../../CCC_common/Library/StdDriver/src/rtc.c:927:5
	b	.LBB20_5
.Ltmp154:
.LBB20_5:                               @   in Loop: Header=BB20_1 Depth=1
	.loc	2 920 53                        @ ../../CCC_common/Library/StdDriver/src/rtc.c:920:53
	ldr	r0, [sp, #16]
	adds	r0, r0, #1
	str	r0, [sp, #16]
	.loc	2 920 5 is_stmt 0               @ ../../CCC_common/Library/StdDriver/src/rtc.c:920:5
	b	.LBB20_1
.Ltmp155:
.LBB20_6:
	.loc	2 929 5 is_stmt 1               @ ../../CCC_common/Library/StdDriver/src/rtc.c:929:5
	bl	RTC_WaitAccessEnable
	.loc	2 930 21                        @ ../../CCC_common/Library/StdDriver/src/rtc.c:930:21
	ldr	r0, [sp, #12]
	.loc	2 930 5 is_stmt 0               @ ../../CCC_common/Library/StdDriver/src/rtc.c:930:5
	ldr	r1, [sp, #4]
	movw	r2, #288
	.loc	2 930 19                        @ ../../CCC_common/Library/StdDriver/src/rtc.c:930:19
	str	r0, [r1, r2]
	.loc	2 932 1 epilogue_begin is_stmt 1 @ ../../CCC_common/Library/StdDriver/src/rtc.c:932:1
	add	sp, #32
	pop	{r7, pc}
.Ltmp156:
	.loc	2 0 1 is_stmt 0                 @ :0:1
.Ltmp157:
	.p2align	2
@ %bb.7:
__arm_cp.20_0:
	.long	1074008064                      @ 0x40041000
.Lcpi_end49:
	.size	__arm_cp.20_0, .Lcpi_end49-__arm_cp.20_0
.Lfunc_end20:
	.size	RTC_StaticTamperEnable, .Lfunc_end20-RTC_StaticTamperEnable
	.cfi_endproc
	.cantunwind
	.fnend
                                        @ -- End function
	.section	.text.RTC_StaticTamperDisable,"ax",%progbits
	.hidden	RTC_StaticTamperDisable         @ -- Begin function RTC_StaticTamperDisable
	.globl	RTC_StaticTamperDisable
	.p2align	2
	.type	RTC_StaticTamperDisable,%function
	.code	16                              @ @RTC_StaticTamperDisable
	.thumb_func
RTC_StaticTamperDisable:
.Lfunc_begin21:
	.loc	2 950 0 is_stmt 1               @ ../../CCC_common/Library/StdDriver/src/rtc.c:950:0
	.fnstart
	.cfi_startproc
@ %bb.0:
	.save	{r7, lr}
	push	{r7, lr}
	.cfi_def_cfa_offset 8
	.cfi_offset lr, -4
	.cfi_offset r7, -8
	.pad	#24
	sub	sp, #24
	.cfi_def_cfa_offset 32
	str	r0, [sp, #20]
	ldr	r0, __arm_cp.21_0
.Ltmp158:
	.loc	2 956 10 prologue_end           @ ../../CCC_common/Library/StdDriver/src/rtc.c:956:10
	str	r0, [sp, #4]
	.loc	2 958 5                         @ ../../CCC_common/Library/StdDriver/src/rtc.c:958:5
	bl	RTC_WaitAccessEnable
	.loc	2 959 14                        @ ../../CCC_common/Library/StdDriver/src/rtc.c:959:14
	ldr	r0, [sp, #4]
	movw	r1, #288
	.loc	2 959 20 is_stmt 0              @ ../../CCC_common/Library/StdDriver/src/rtc.c:959:20
	ldr	r0, [r0, r1]
	.loc	2 959 12                        @ ../../CCC_common/Library/StdDriver/src/rtc.c:959:12
	str	r0, [sp, #12]
	movw	r0, #256
	.loc	2 961 15 is_stmt 1              @ ../../CCC_common/Library/StdDriver/src/rtc.c:961:15
	str	r0, [sp, #8]
	movs	r0, #0
.Ltmp159:
	.loc	2 963 11                        @ ../../CCC_common/Library/StdDriver/src/rtc.c:963:11
	str	r0, [sp, #16]
	.loc	2 963 9 is_stmt 0               @ ../../CCC_common/Library/StdDriver/src/rtc.c:963:9
	b	.LBB21_1
.LBB21_1:                               @ =>This Inner Loop Header: Depth=1
.Ltmp160:
	.loc	2 963 18                        @ ../../CCC_common/Library/StdDriver/src/rtc.c:963:18
	ldr	r0, [sp, #16]
.Ltmp161:
	.loc	2 963 5                         @ ../../CCC_common/Library/StdDriver/src/rtc.c:963:5
	cmp	r0, #5
	bhi	.LBB21_6
	b	.LBB21_2
.LBB21_2:                               @   in Loop: Header=BB21_1 Depth=1
.Ltmp162:
	.loc	2 965 12 is_stmt 1              @ ../../CCC_common/Library/StdDriver/src/rtc.c:965:12
	ldr	r0, [sp, #20]
	.loc	2 965 40 is_stmt 0              @ ../../CCC_common/Library/StdDriver/src/rtc.c:965:40
	ldr	r1, [sp, #16]
.Ltmp163:
	.loc	2 965 12                        @ ../../CCC_common/Library/StdDriver/src/rtc.c:965:12
	lsrs	r0, r1
	lsls	r0, r0, #31
	cbz	r0, .LBB21_4
	b	.LBB21_3
.LBB21_3:                               @   in Loop: Header=BB21_1 Depth=1
.Ltmp164:
	.loc	2 967 25 is_stmt 1              @ ../../CCC_common/Library/StdDriver/src/rtc.c:967:25
	ldr	r1, [sp, #8]
	.loc	2 967 39 is_stmt 0              @ ../../CCC_common/Library/StdDriver/src/rtc.c:967:39
	ldr	r0, [sp, #16]
	.loc	2 967 41                        @ ../../CCC_common/Library/StdDriver/src/rtc.c:967:41
	lsls	r0, r0, #2
	.loc	2 967 35                        @ ../../CCC_common/Library/StdDriver/src/rtc.c:967:35
	lsls	r1, r0
	.loc	2 967 20                        @ ../../CCC_common/Library/StdDriver/src/rtc.c:967:20
	ldr	r0, [sp, #12]
	bics	r0, r1
	str	r0, [sp, #12]
	.loc	2 968 9 is_stmt 1               @ ../../CCC_common/Library/StdDriver/src/rtc.c:968:9
	b	.LBB21_4
.Ltmp165:
.LBB21_4:                               @   in Loop: Header=BB21_1 Depth=1
	.loc	2 969 5                         @ ../../CCC_common/Library/StdDriver/src/rtc.c:969:5
	b	.LBB21_5
.Ltmp166:
.LBB21_5:                               @   in Loop: Header=BB21_1 Depth=1
	.loc	2 963 53                        @ ../../CCC_common/Library/StdDriver/src/rtc.c:963:53
	ldr	r0, [sp, #16]
	adds	r0, r0, #1
	str	r0, [sp, #16]
	.loc	2 963 5 is_stmt 0               @ ../../CCC_common/Library/StdDriver/src/rtc.c:963:5
	b	.LBB21_1
.Ltmp167:
.LBB21_6:
	.loc	2 971 5 is_stmt 1               @ ../../CCC_common/Library/StdDriver/src/rtc.c:971:5
	bl	RTC_WaitAccessEnable
	.loc	2 972 21                        @ ../../CCC_common/Library/StdDriver/src/rtc.c:972:21
	ldr	r0, [sp, #12]
	.loc	2 972 5 is_stmt 0               @ ../../CCC_common/Library/StdDriver/src/rtc.c:972:5
	ldr	r1, [sp, #4]
	movw	r2, #288
	.loc	2 972 19                        @ ../../CCC_common/Library/StdDriver/src/rtc.c:972:19
	str	r0, [r1, r2]
	.loc	2 973 1 epilogue_begin is_stmt 1 @ ../../CCC_common/Library/StdDriver/src/rtc.c:973:1
	add	sp, #24
	pop	{r7, pc}
.Ltmp168:
	.loc	2 0 1 is_stmt 0                 @ :0:1
.Ltmp169:
	.p2align	2
@ %bb.7:
__arm_cp.21_0:
	.long	1074008064                      @ 0x40041000
.Lcpi_end50:
	.size	__arm_cp.21_0, .Lcpi_end50-__arm_cp.21_0
.Lfunc_end21:
	.size	RTC_StaticTamperDisable, .Lfunc_end21-RTC_StaticTamperDisable
	.cfi_endproc
	.cantunwind
	.fnend
                                        @ -- End function
	.section	.text.RTC_DynamicTamperEnable,"ax",%progbits
	.hidden	RTC_DynamicTamperEnable         @ -- Begin function RTC_DynamicTamperEnable
	.globl	RTC_DynamicTamperEnable
	.p2align	2
	.type	RTC_DynamicTamperEnable,%function
	.code	16                              @ @RTC_DynamicTamperEnable
	.thumb_func
RTC_DynamicTamperEnable:
.Lfunc_begin22:
	.loc	2 1000 0 is_stmt 1              @ ../../CCC_common/Library/StdDriver/src/rtc.c:1000:0
	.fnstart
	.cfi_startproc
@ %bb.0:
	.save	{r7, lr}
	push	{r7, lr}
	.cfi_def_cfa_offset 8
	.cfi_offset lr, -4
	.cfi_offset r7, -8
	.pad	#40
	sub	sp, #40
	.cfi_def_cfa_offset 48
	str	r0, [sp, #36]
	str	r1, [sp, #32]
	str	r2, [sp, #28]
	str	r3, [sp, #24]
	ldr	r0, __arm_cp.22_0
.Ltmp170:
	.loc	2 1007 10 prologue_end          @ ../../CCC_common/Library/StdDriver/src/rtc.c:1007:10
	str	r0, [sp]
	.loc	2 1009 5                        @ ../../CCC_common/Library/StdDriver/src/rtc.c:1009:5
	bl	RTC_WaitAccessEnable
	.loc	2 1010 14                       @ ../../CCC_common/Library/StdDriver/src/rtc.c:1010:14
	ldr	r0, [sp]
	movw	r1, #288
	.loc	2 1010 20 is_stmt 0             @ ../../CCC_common/Library/StdDriver/src/rtc.c:1010:20
	ldr	r0, [r0, r1]
	.loc	2 1010 12                       @ ../../CCC_common/Library/StdDriver/src/rtc.c:1010:12
	str	r0, [sp, #16]
	.loc	2 1011 12 is_stmt 1             @ ../../CCC_common/Library/StdDriver/src/rtc.c:1011:12
	ldr	r0, [sp, #16]
	ldr	r2, __arm_cp.22_1
	ands	r0, r2
	str	r0, [sp, #16]
	.loc	2 1014 26                       @ ../../CCC_common/Library/StdDriver/src/rtc.c:1014:26
	ldr	r0, [sp, #16]
	movs	r1, #1
	lsls	r3, r1, #18
	.loc	2 1014 33 is_stmt 0             @ ../../CCC_common/Library/StdDriver/src/rtc.c:1014:33
	ands	r0, r3
	.loc	2 1014 24                       @ ../../CCC_common/Library/StdDriver/src/rtc.c:1014:24
	str	r0, [sp, #8]
	.loc	2 1015 26 is_stmt 1             @ ../../CCC_common/Library/StdDriver/src/rtc.c:1015:26
	ldr	r0, [sp, #16]
	lsls	r3, r1, #26
	.loc	2 1015 33 is_stmt 0             @ ../../CCC_common/Library/StdDriver/src/rtc.c:1015:33
	ands	r0, r3
	.loc	2 1015 24                       @ ../../CCC_common/Library/StdDriver/src/rtc.c:1015:24
	str	r0, [sp, #4]
	.loc	2 1017 12 is_stmt 1             @ ../../CCC_common/Library/StdDriver/src/rtc.c:1017:12
	ldr	r0, [sp, #16]
	ands	r0, r2
	str	r0, [sp, #16]
	.loc	2 1019 12                       @ ../../CCC_common/Library/StdDriver/src/rtc.c:1019:12
	ldr	r0, [sp, #16]
	movs	r2, #3
	bics	r0, r2
	str	r0, [sp, #16]
	.loc	2 1020 17                       @ ../../CCC_common/Library/StdDriver/src/rtc.c:1020:17
	ldr	r0, [sp, #28]
	.loc	2 1020 32 is_stmt 0             @ ../../CCC_common/Library/StdDriver/src/rtc.c:1020:32
	ands	r0, r1
	.loc	2 1020 73                       @ ../../CCC_common/Library/StdDriver/src/rtc.c:1020:73
	ldr	r1, [sp, #24]
	.loc	2 1020 97                       @ ../../CCC_common/Library/StdDriver/src/rtc.c:1020:97
	lsls	r1, r1, #31
	lsrs	r1, r1, #30
	.loc	2 1020 69                       @ ../../CCC_common/Library/StdDriver/src/rtc.c:1020:69
	adds	r1, r0, r1
	.loc	2 1020 12                       @ ../../CCC_common/Library/StdDriver/src/rtc.c:1020:12
	ldr	r0, [sp, #16]
	orrs	r0, r1
	str	r0, [sp, #16]
.Ltmp171:
	.loc	2 1022 8 is_stmt 1              @ ../../CCC_common/Library/StdDriver/src/rtc.c:1022:8
	ldr	r0, [sp, #32]
.Ltmp172:
	.loc	2 1022 8 is_stmt 0              @ ../../CCC_common/Library/StdDriver/src/rtc.c:1022:8
	cbz	r0, .LBB22_2
	b	.LBB22_1
.LBB22_1:
	.loc	2 0 8                           @ ../../CCC_common/Library/StdDriver/src/rtc.c:0:8
	movw	r0, #54528
.Ltmp173:
	.loc	2 1024 19 is_stmt 1             @ ../../CCC_common/Library/StdDriver/src/rtc.c:1024:19
	str	r0, [sp, #12]
	.loc	2 1026 5                        @ ../../CCC_common/Library/StdDriver/src/rtc.c:1026:5
	b	.LBB22_3
.Ltmp174:
.LBB22_2:
	.loc	2 0 5 is_stmt 0                 @ ../../CCC_common/Library/StdDriver/src/rtc.c:0:5
	movw	r0, #37120
.Ltmp175:
	.loc	2 1029 19 is_stmt 1             @ ../../CCC_common/Library/StdDriver/src/rtc.c:1029:19
	str	r0, [sp, #12]
	b	.LBB22_3
.Ltmp176:
.LBB22_3:
	.loc	2 0 19 is_stmt 0                @ ../../CCC_common/Library/StdDriver/src/rtc.c:0:19
	movs	r0, #0
.Ltmp177:
	.loc	2 1032 11 is_stmt 1             @ ../../CCC_common/Library/StdDriver/src/rtc.c:1032:11
	str	r0, [sp, #20]
	.loc	2 1032 9 is_stmt 0              @ ../../CCC_common/Library/StdDriver/src/rtc.c:1032:9
	b	.LBB22_4
.LBB22_4:                               @ =>This Inner Loop Header: Depth=1
.Ltmp178:
	.loc	2 1032 18                       @ ../../CCC_common/Library/StdDriver/src/rtc.c:1032:18
	ldr	r0, [sp, #20]
.Ltmp179:
	.loc	2 1032 5                        @ ../../CCC_common/Library/StdDriver/src/rtc.c:1032:5
	cmp	r0, #2
	bhi	.LBB22_9
	b	.LBB22_5
.LBB22_5:                               @   in Loop: Header=BB22_4 Depth=1
.Ltmp180:
	.loc	2 1034 12 is_stmt 1             @ ../../CCC_common/Library/StdDriver/src/rtc.c:1034:12
	ldr	r0, [sp, #36]
	.loc	2 1034 35 is_stmt 0             @ ../../CCC_common/Library/StdDriver/src/rtc.c:1034:35
	ldr	r1, [sp, #20]
.Ltmp181:
	.loc	2 1034 12                       @ ../../CCC_common/Library/StdDriver/src/rtc.c:1034:12
	lsrs	r0, r1
	lsls	r0, r0, #31
	cbz	r0, .LBB22_7
	b	.LBB22_6
.LBB22_6:                               @   in Loop: Header=BB22_4 Depth=1
.Ltmp182:
	.loc	2 1036 85 is_stmt 1             @ ../../CCC_common/Library/StdDriver/src/rtc.c:1036:85
	ldr	r0, [sp, #20]
	.loc	2 1036 87 is_stmt 0             @ ../../CCC_common/Library/StdDriver/src/rtc.c:1036:87
	lsls	r0, r0, #3
	movw	r1, #17408
	.loc	2 1036 81                       @ ../../CCC_common/Library/StdDriver/src/rtc.c:1036:81
	lsls	r1, r0
	.loc	2 1036 20                       @ ../../CCC_common/Library/StdDriver/src/rtc.c:1036:20
	ldr	r0, [sp, #16]
	bics	r0, r1
	str	r0, [sp, #16]
	.loc	2 1037 24 is_stmt 1             @ ../../CCC_common/Library/StdDriver/src/rtc.c:1037:24
	ldr	r1, [sp, #12]
	.loc	2 1037 38 is_stmt 0             @ ../../CCC_common/Library/StdDriver/src/rtc.c:1037:38
	ldr	r0, [sp, #20]
	.loc	2 1037 40                       @ ../../CCC_common/Library/StdDriver/src/rtc.c:1037:40
	lsls	r0, r0, #3
	.loc	2 1037 34                       @ ../../CCC_common/Library/StdDriver/src/rtc.c:1037:34
	lsls	r1, r0
	.loc	2 1037 20                       @ ../../CCC_common/Library/StdDriver/src/rtc.c:1037:20
	ldr	r0, [sp, #16]
	orrs	r0, r1
	str	r0, [sp, #16]
	.loc	2 1038 9 is_stmt 1              @ ../../CCC_common/Library/StdDriver/src/rtc.c:1038:9
	b	.LBB22_7
.Ltmp183:
.LBB22_7:                               @   in Loop: Header=BB22_4 Depth=1
	.loc	2 1039 5                        @ ../../CCC_common/Library/StdDriver/src/rtc.c:1039:5
	b	.LBB22_8
.Ltmp184:
.LBB22_8:                               @   in Loop: Header=BB22_4 Depth=1
	.loc	2 1032 47                       @ ../../CCC_common/Library/StdDriver/src/rtc.c:1032:47
	ldr	r0, [sp, #20]
	adds	r0, r0, #1
	str	r0, [sp, #20]
	.loc	2 1032 5 is_stmt 0              @ ../../CCC_common/Library/StdDriver/src/rtc.c:1032:5
	b	.LBB22_4
.Ltmp185:
.LBB22_9:
	.loc	2 1041 9 is_stmt 1              @ ../../CCC_common/Library/StdDriver/src/rtc.c:1041:9
	ldr	r0, [sp, #28]
	.loc	2 1041 25 is_stmt 0             @ ../../CCC_common/Library/StdDriver/src/rtc.c:1041:25
	cbz	r0, .LBB22_12
	b	.LBB22_10
.Ltmp186:
.LBB22_10:
	.loc	2 0 25                          @ ../../CCC_common/Library/StdDriver/src/rtc.c:0:25
	add	r0, sp, #36
	.loc	2 1041 8                        @ ../../CCC_common/Library/StdDriver/src/rtc.c:1041:8
	ldrb	r0, [r0]
	lsls	r0, r0, #30
	cmp	r0, #0
	bpl	.LBB22_12
	b	.LBB22_11
.LBB22_11:
.Ltmp187:
	.loc	2 1043 16 is_stmt 1             @ ../../CCC_common/Library/StdDriver/src/rtc.c:1043:16
	ldr	r0, [sp, #16]
	movs	r1, #1
	lsls	r1, r1, #16
	bics	r0, r1
	str	r0, [sp, #16]
	.loc	2 1044 19                       @ ../../CCC_common/Library/StdDriver/src/rtc.c:1044:19
	ldr	r1, [sp, #8]
	.loc	2 1044 16 is_stmt 0             @ ../../CCC_common/Library/StdDriver/src/rtc.c:1044:16
	ldr	r0, [sp, #16]
	orrs	r0, r1
	str	r0, [sp, #16]
	.loc	2 1045 5 is_stmt 1              @ ../../CCC_common/Library/StdDriver/src/rtc.c:1045:5
	b	.LBB22_12
.Ltmp188:
.LBB22_12:
	.loc	2 1047 9                        @ ../../CCC_common/Library/StdDriver/src/rtc.c:1047:9
	ldr	r0, [sp, #24]
	.loc	2 1047 25 is_stmt 0             @ ../../CCC_common/Library/StdDriver/src/rtc.c:1047:25
	cbz	r0, .LBB22_15
	b	.LBB22_13
.Ltmp189:
.LBB22_13:
	.loc	2 0 25                          @ ../../CCC_common/Library/StdDriver/src/rtc.c:0:25
	add	r0, sp, #36
	.loc	2 1047 8                        @ ../../CCC_common/Library/StdDriver/src/rtc.c:1047:8
	ldrb	r0, [r0]
	lsls	r0, r0, #29
	cmp	r0, #0
	bpl	.LBB22_15
	b	.LBB22_14
.LBB22_14:
.Ltmp190:
	.loc	2 1049 16 is_stmt 1             @ ../../CCC_common/Library/StdDriver/src/rtc.c:1049:16
	ldr	r0, [sp, #16]
	movs	r1, #1
	lsls	r1, r1, #24
	bics	r0, r1
	str	r0, [sp, #16]
	.loc	2 1050 19                       @ ../../CCC_common/Library/StdDriver/src/rtc.c:1050:19
	ldr	r1, [sp, #4]
	.loc	2 1050 16 is_stmt 0             @ ../../CCC_common/Library/StdDriver/src/rtc.c:1050:16
	ldr	r0, [sp, #16]
	orrs	r0, r1
	str	r0, [sp, #16]
	.loc	2 1051 5 is_stmt 1              @ ../../CCC_common/Library/StdDriver/src/rtc.c:1051:5
	b	.LBB22_15
.Ltmp191:
.LBB22_15:
	.loc	2 1053 5                        @ ../../CCC_common/Library/StdDriver/src/rtc.c:1053:5
	bl	RTC_WaitAccessEnable
	.loc	2 1054 21                       @ ../../CCC_common/Library/StdDriver/src/rtc.c:1054:21
	ldr	r0, [sp, #16]
	.loc	2 1054 5 is_stmt 0              @ ../../CCC_common/Library/StdDriver/src/rtc.c:1054:5
	ldr	r1, [sp]
	movw	r2, #288
	.loc	2 1054 19                       @ ../../CCC_common/Library/StdDriver/src/rtc.c:1054:19
	str	r0, [r1, r2]
	.loc	2 1055 1 epilogue_begin is_stmt 1 @ ../../CCC_common/Library/StdDriver/src/rtc.c:1055:1
	add	sp, #40
	pop	{r7, pc}
.Ltmp192:
	.loc	2 0 1 is_stmt 0                 @ :0:1
.Ltmp193:
	.p2align	2
@ %bb.16:
__arm_cp.22_0:
	.long	1074008064                      @ 0x40041000
.Lcpi_end51:
	.size	__arm_cp.22_0, .Lcpi_end51-__arm_cp.22_0
__arm_cp.22_1:
	.long	4008636159                      @ 0xeeeeeeff
.Lcpi_end52:
	.size	__arm_cp.22_1, .Lcpi_end52-__arm_cp.22_1
.Lfunc_end22:
	.size	RTC_DynamicTamperEnable, .Lfunc_end22-RTC_DynamicTamperEnable
	.cfi_endproc
	.cantunwind
	.fnend
                                        @ -- End function
	.section	.text.RTC_DynamicTamperDisable,"ax",%progbits
	.hidden	RTC_DynamicTamperDisable        @ -- Begin function RTC_DynamicTamperDisable
	.globl	RTC_DynamicTamperDisable
	.p2align	2
	.type	RTC_DynamicTamperDisable,%function
	.code	16                              @ @RTC_DynamicTamperDisable
	.thumb_func
RTC_DynamicTamperDisable:
.Lfunc_begin23:
	.loc	2 1070 0 is_stmt 1              @ ../../CCC_common/Library/StdDriver/src/rtc.c:1070:0
	.fnstart
	.cfi_startproc
@ %bb.0:
	.save	{r7, lr}
	push	{r7, lr}
	.cfi_def_cfa_offset 8
	.cfi_offset lr, -4
	.cfi_offset r7, -8
	.pad	#32
	sub	sp, #32
	.cfi_def_cfa_offset 40
	str	r0, [sp, #28]
	movs	r0, #0
.Ltmp194:
	.loc	2 1074 14 prologue_end          @ ../../CCC_common/Library/StdDriver/src/rtc.c:1074:14
	str	r0, [sp, #12]
	.loc	2 1074 34 is_stmt 0             @ ../../CCC_common/Library/StdDriver/src/rtc.c:1074:34
	str	r0, [sp, #8]
	ldr	r0, __arm_cp.23_0
	.loc	2 1077 10 is_stmt 1             @ ../../CCC_common/Library/StdDriver/src/rtc.c:1077:10
	str	r0, [sp, #4]
	.loc	2 1079 5                        @ ../../CCC_common/Library/StdDriver/src/rtc.c:1079:5
	bl	RTC_WaitAccessEnable
	.loc	2 1080 14                       @ ../../CCC_common/Library/StdDriver/src/rtc.c:1080:14
	ldr	r0, [sp, #4]
	movw	r1, #288
	.loc	2 1080 20 is_stmt 0             @ ../../CCC_common/Library/StdDriver/src/rtc.c:1080:20
	ldr	r0, [r0, r1]
	.loc	2 1080 12                       @ ../../CCC_common/Library/StdDriver/src/rtc.c:1080:12
	str	r0, [sp, #20]
	add	r0, sp, #20
.Ltmp195:
	.loc	2 1082 53 is_stmt 1             @ ../../CCC_common/Library/StdDriver/src/rtc.c:1082:53
	ldrb	r0, [r0]
	lsls	r0, r0, #31
	cbz	r0, .LBB23_3
	b	.LBB23_1
.Ltmp196:
.LBB23_1:
	.loc	2 0 53 is_stmt 0                @ ../../CCC_common/Library/StdDriver/src/rtc.c:0:53
	add	r0, sp, #28
	.loc	2 1082 8                        @ ../../CCC_common/Library/StdDriver/src/rtc.c:1082:8
	ldrb	r0, [r0]
	lsls	r0, r0, #30
	cmp	r0, #0
	bpl	.LBB23_3
	b	.LBB23_2
.LBB23_2:
.Ltmp197:
	.loc	2 1084 24 is_stmt 1             @ ../../CCC_common/Library/StdDriver/src/rtc.c:1084:24
	ldr	r0, [sp, #20]
	movs	r1, #1
	lsls	r1, r1, #16
	.loc	2 1084 31 is_stmt 0             @ ../../CCC_common/Library/StdDriver/src/rtc.c:1084:31
	ands	r0, r1
	.loc	2 1084 22                       @ ../../CCC_common/Library/StdDriver/src/rtc.c:1084:22
	str	r0, [sp, #12]
	.loc	2 1085 5 is_stmt 1              @ ../../CCC_common/Library/StdDriver/src/rtc.c:1085:5
	b	.LBB23_3
.Ltmp198:
.LBB23_3:
	.loc	2 0 5 is_stmt 0                 @ ../../CCC_common/Library/StdDriver/src/rtc.c:0:5
	add	r0, sp, #20
.Ltmp199:
	.loc	2 1087 53 is_stmt 1             @ ../../CCC_common/Library/StdDriver/src/rtc.c:1087:53
	ldrb	r0, [r0]
	lsls	r0, r0, #30
	cmp	r0, #0
	bpl	.LBB23_6
	b	.LBB23_4
.Ltmp200:
.LBB23_4:
	.loc	2 0 53 is_stmt 0                @ ../../CCC_common/Library/StdDriver/src/rtc.c:0:53
	add	r0, sp, #28
	.loc	2 1087 8                        @ ../../CCC_common/Library/StdDriver/src/rtc.c:1087:8
	ldrb	r0, [r0]
	lsls	r0, r0, #29
	cmp	r0, #0
	bpl	.LBB23_6
	b	.LBB23_5
.LBB23_5:
.Ltmp201:
	.loc	2 1089 24 is_stmt 1             @ ../../CCC_common/Library/StdDriver/src/rtc.c:1089:24
	ldr	r0, [sp, #20]
	movs	r1, #1
	lsls	r1, r1, #24
	.loc	2 1089 31 is_stmt 0             @ ../../CCC_common/Library/StdDriver/src/rtc.c:1089:31
	ands	r0, r1
	.loc	2 1089 22                       @ ../../CCC_common/Library/StdDriver/src/rtc.c:1089:22
	str	r0, [sp, #8]
	.loc	2 1090 5 is_stmt 1              @ ../../CCC_common/Library/StdDriver/src/rtc.c:1090:5
	b	.LBB23_6
.Ltmp202:
.LBB23_6:
	.loc	2 0 5 is_stmt 0                 @ ../../CCC_common/Library/StdDriver/src/rtc.c:0:5
	movw	r0, #37120
	.loc	2 1092 15 is_stmt 1             @ ../../CCC_common/Library/StdDriver/src/rtc.c:1092:15
	str	r0, [sp, #16]
	movs	r0, #0
.Ltmp203:
	.loc	2 1094 11                       @ ../../CCC_common/Library/StdDriver/src/rtc.c:1094:11
	str	r0, [sp, #24]
	.loc	2 1094 9 is_stmt 0              @ ../../CCC_common/Library/StdDriver/src/rtc.c:1094:9
	b	.LBB23_7
.LBB23_7:                               @ =>This Inner Loop Header: Depth=1
.Ltmp204:
	.loc	2 1094 18                       @ ../../CCC_common/Library/StdDriver/src/rtc.c:1094:18
	ldr	r0, [sp, #24]
.Ltmp205:
	.loc	2 1094 5                        @ ../../CCC_common/Library/StdDriver/src/rtc.c:1094:5
	cmp	r0, #2
	bhi	.LBB23_12
	b	.LBB23_8
.LBB23_8:                               @   in Loop: Header=BB23_7 Depth=1
.Ltmp206:
	.loc	2 1096 12 is_stmt 1             @ ../../CCC_common/Library/StdDriver/src/rtc.c:1096:12
	ldr	r0, [sp, #28]
	.loc	2 1096 35 is_stmt 0             @ ../../CCC_common/Library/StdDriver/src/rtc.c:1096:35
	ldr	r1, [sp, #24]
.Ltmp207:
	.loc	2 1096 12                       @ ../../CCC_common/Library/StdDriver/src/rtc.c:1096:12
	lsrs	r0, r1
	lsls	r0, r0, #31
	cbz	r0, .LBB23_10
	b	.LBB23_9
.LBB23_9:                               @   in Loop: Header=BB23_7 Depth=1
.Ltmp208:
	.loc	2 1098 25 is_stmt 1             @ ../../CCC_common/Library/StdDriver/src/rtc.c:1098:25
	ldr	r1, [sp, #16]
	.loc	2 1098 40 is_stmt 0             @ ../../CCC_common/Library/StdDriver/src/rtc.c:1098:40
	ldr	r0, [sp, #24]
	.loc	2 1098 42                       @ ../../CCC_common/Library/StdDriver/src/rtc.c:1098:42
	lsls	r0, r0, #3
	.loc	2 1098 35                       @ ../../CCC_common/Library/StdDriver/src/rtc.c:1098:35
	lsls	r1, r0
	.loc	2 1098 20                       @ ../../CCC_common/Library/StdDriver/src/rtc.c:1098:20
	ldr	r0, [sp, #20]
	bics	r0, r1
	str	r0, [sp, #20]
	.loc	2 1099 9 is_stmt 1              @ ../../CCC_common/Library/StdDriver/src/rtc.c:1099:9
	b	.LBB23_10
.Ltmp209:
.LBB23_10:                              @   in Loop: Header=BB23_7 Depth=1
	.loc	2 1100 5                        @ ../../CCC_common/Library/StdDriver/src/rtc.c:1100:5
	b	.LBB23_11
.Ltmp210:
.LBB23_11:                              @   in Loop: Header=BB23_7 Depth=1
	.loc	2 1094 47                       @ ../../CCC_common/Library/StdDriver/src/rtc.c:1094:47
	ldr	r0, [sp, #24]
	adds	r0, r0, #1
	str	r0, [sp, #24]
	.loc	2 1094 5 is_stmt 0              @ ../../CCC_common/Library/StdDriver/src/rtc.c:1094:5
	b	.LBB23_7
.Ltmp211:
.LBB23_12:
	.loc	2 1102 16 is_stmt 1             @ ../../CCC_common/Library/StdDriver/src/rtc.c:1102:16
	ldr	r1, [sp, #12]
	.loc	2 1102 31 is_stmt 0             @ ../../CCC_common/Library/StdDriver/src/rtc.c:1102:31
	ldr	r0, [sp, #8]
	.loc	2 1102 29                       @ ../../CCC_common/Library/StdDriver/src/rtc.c:1102:29
	orrs	r1, r0
	.loc	2 1102 12                       @ ../../CCC_common/Library/StdDriver/src/rtc.c:1102:12
	ldr	r0, [sp, #20]
	orrs	r0, r1
	str	r0, [sp, #20]
	.loc	2 1104 5 is_stmt 1              @ ../../CCC_common/Library/StdDriver/src/rtc.c:1104:5
	bl	RTC_WaitAccessEnable
	.loc	2 1105 21                       @ ../../CCC_common/Library/StdDriver/src/rtc.c:1105:21
	ldr	r0, [sp, #20]
	.loc	2 1105 5 is_stmt 0              @ ../../CCC_common/Library/StdDriver/src/rtc.c:1105:5
	ldr	r1, [sp, #4]
	movw	r2, #288
	.loc	2 1105 19                       @ ../../CCC_common/Library/StdDriver/src/rtc.c:1105:19
	str	r0, [r1, r2]
	.loc	2 1106 1 epilogue_begin is_stmt 1 @ ../../CCC_common/Library/StdDriver/src/rtc.c:1106:1
	add	sp, #32
	pop	{r7, pc}
.Ltmp212:
	.loc	2 0 1 is_stmt 0                 @ :0:1
.Ltmp213:
	.p2align	2
@ %bb.13:
__arm_cp.23_0:
	.long	1074008064                      @ 0x40041000
.Lcpi_end53:
	.size	__arm_cp.23_0, .Lcpi_end53-__arm_cp.23_0
.Lfunc_end23:
	.size	RTC_DynamicTamperDisable, .Lfunc_end23-RTC_DynamicTamperDisable
	.cfi_endproc
	.cantunwind
	.fnend
                                        @ -- End function
	.section	.text.RTC_DynamicTamperConfig,"ax",%progbits
	.hidden	RTC_DynamicTamperConfig         @ -- Begin function RTC_DynamicTamperConfig
	.globl	RTC_DynamicTamperConfig
	.p2align	2
	.type	RTC_DynamicTamperConfig,%function
	.code	16                              @ @RTC_DynamicTamperConfig
	.thumb_func
RTC_DynamicTamperConfig:
.Lfunc_begin24:
	.loc	2 1137 0 is_stmt 1              @ ../../CCC_common/Library/StdDriver/src/rtc.c:1137:0
	.fnstart
	.cfi_startproc
@ %bb.0:
	.save	{r7, lr}
	push	{r7, lr}
	.cfi_def_cfa_offset 8
	.cfi_offset lr, -4
	.cfi_offset r7, -8
	.pad	#32
	sub	sp, #32
	.cfi_def_cfa_offset 40
	str	r0, [sp, #28]
	str	r1, [sp, #24]
	str	r2, [sp, #20]
	str	r3, [sp, #16]
	ldr	r0, __arm_cp.24_0
.Ltmp214:
	.loc	2 1141 10 prologue_end          @ ../../CCC_common/Library/StdDriver/src/rtc.c:1141:10
	str	r0, [sp, #8]
	.loc	2 1143 5                        @ ../../CCC_common/Library/StdDriver/src/rtc.c:1143:5
	bl	RTC_WaitAccessEnable
	.loc	2 1144 14                       @ ../../CCC_common/Library/StdDriver/src/rtc.c:1144:14
	ldr	r0, [sp, #8]
	movw	r1, #288
	.loc	2 1144 20 is_stmt 0             @ ../../CCC_common/Library/StdDriver/src/rtc.c:1144:20
	str	r1, [sp, #4]                    @ 4-byte Spill
	ldr	r0, [r0, r1]
	.loc	2 1144 12                       @ ../../CCC_common/Library/StdDriver/src/rtc.c:1144:12
	str	r0, [sp, #12]
	.loc	2 1146 12 is_stmt 1             @ ../../CCC_common/Library/StdDriver/src/rtc.c:1146:12
	ldr	r0, [sp, #12]
	movs	r1, #252
	bics	r0, r1
	str	r0, [sp, #12]
	.loc	2 1148 16                       @ ../../CCC_common/Library/StdDriver/src/rtc.c:1148:16
	ldr	r1, [sp, #28]
	.loc	2 1148 35 is_stmt 0             @ ../../CCC_common/Library/StdDriver/src/rtc.c:1148:35
	ldr	r0, [sp, #24]
	.loc	2 1148 58                       @ ../../CCC_common/Library/StdDriver/src/rtc.c:1148:58
	lsls	r0, r0, #31
	lsrs	r0, r0, #27
	.loc	2 1148 31                       @ ../../CCC_common/Library/StdDriver/src/rtc.c:1148:31
	orrs	r1, r0
	.loc	2 1149 17 is_stmt 1             @ ../../CCC_common/Library/StdDriver/src/rtc.c:1149:17
	ldr	r0, [sp, #20]
	.loc	2 1149 40 is_stmt 0             @ ../../CCC_common/Library/StdDriver/src/rtc.c:1149:40
	lsls	r0, r0, #30
	lsrs	r0, r0, #28
	.loc	2 1148 86 is_stmt 1             @ ../../CCC_common/Library/StdDriver/src/rtc.c:1148:86
	orrs	r1, r0
	.loc	2 1148 12 is_stmt 0             @ ../../CCC_common/Library/StdDriver/src/rtc.c:1148:12
	ldr	r0, [sp, #12]
	orrs	r0, r1
	str	r0, [sp, #12]
	.loc	2 1151 5 is_stmt 1              @ ../../CCC_common/Library/StdDriver/src/rtc.c:1151:5
	bl	RTC_WaitAccessEnable
	ldr	r2, [sp, #4]                    @ 4-byte Reload
	.loc	2 1152 22                       @ ../../CCC_common/Library/StdDriver/src/rtc.c:1152:22
	ldr	r0, [sp, #16]
	.loc	2 1152 5 is_stmt 0              @ ../../CCC_common/Library/StdDriver/src/rtc.c:1152:5
	ldr	r1, [sp, #8]
	movw	r3, #296
	.loc	2 1152 20                       @ ../../CCC_common/Library/StdDriver/src/rtc.c:1152:20
	str	r0, [r1, r3]
	.loc	2 1153 21 is_stmt 1             @ ../../CCC_common/Library/StdDriver/src/rtc.c:1153:21
	ldr	r0, [sp, #12]
	.loc	2 1153 5 is_stmt 0              @ ../../CCC_common/Library/StdDriver/src/rtc.c:1153:5
	ldr	r1, [sp, #8]
	.loc	2 1153 19                       @ ../../CCC_common/Library/StdDriver/src/rtc.c:1153:19
	str	r0, [r1, r2]
	.loc	2 1154 1 epilogue_begin is_stmt 1 @ ../../CCC_common/Library/StdDriver/src/rtc.c:1154:1
	add	sp, #32
	pop	{r7, pc}
.Ltmp215:
	.loc	2 0 1 is_stmt 0                 @ :0:1
.Ltmp216:
	.p2align	2
@ %bb.1:
__arm_cp.24_0:
	.long	1074008064                      @ 0x40041000
.Lcpi_end54:
	.size	__arm_cp.24_0, .Lcpi_end54-__arm_cp.24_0
.Lfunc_end24:
	.size	RTC_DynamicTamperConfig, .Lfunc_end24-RTC_DynamicTamperConfig
	.cfi_endproc
	.cantunwind
	.fnend
                                        @ -- End function
	.type	g_u32hiYear,%object             @ @g_u32hiYear
	.section	.bss.g_u32hiYear,"aw",%nobits
	.p2align	2, 0x0
g_u32hiYear:
	.long	0                               @ 0x0
	.size	g_u32hiYear, 4

	.type	g_u32loYear,%object             @ @g_u32loYear
	.section	.bss.g_u32loYear,"aw",%nobits
	.p2align	2, 0x0
g_u32loYear:
	.long	0                               @ 0x0
	.size	g_u32loYear, 4

	.type	g_u32hiMonth,%object            @ @g_u32hiMonth
	.section	.bss.g_u32hiMonth,"aw",%nobits
	.p2align	2, 0x0
g_u32hiMonth:
	.long	0                               @ 0x0
	.size	g_u32hiMonth, 4

	.type	g_u32loMonth,%object            @ @g_u32loMonth
	.section	.bss.g_u32loMonth,"aw",%nobits
	.p2align	2, 0x0
g_u32loMonth:
	.long	0                               @ 0x0
	.size	g_u32loMonth, 4

	.type	g_u32hiDay,%object              @ @g_u32hiDay
	.section	.bss.g_u32hiDay,"aw",%nobits
	.p2align	2, 0x0
g_u32hiDay:
	.long	0                               @ 0x0
	.size	g_u32hiDay, 4

	.type	g_u32loDay,%object              @ @g_u32loDay
	.section	.bss.g_u32loDay,"aw",%nobits
	.p2align	2, 0x0
g_u32loDay:
	.long	0                               @ 0x0
	.size	g_u32loDay, 4

	.type	g_u32hiHour,%object             @ @g_u32hiHour
	.section	.bss.g_u32hiHour,"aw",%nobits
	.p2align	2, 0x0
g_u32hiHour:
	.long	0                               @ 0x0
	.size	g_u32hiHour, 4

	.type	g_u32loHour,%object             @ @g_u32loHour
	.section	.bss.g_u32loHour,"aw",%nobits
	.p2align	2, 0x0
g_u32loHour:
	.long	0                               @ 0x0
	.size	g_u32loHour, 4

	.type	g_u32hiMin,%object              @ @g_u32hiMin
	.section	.bss.g_u32hiMin,"aw",%nobits
	.p2align	2, 0x0
g_u32hiMin:
	.long	0                               @ 0x0
	.size	g_u32hiMin, 4

	.type	g_u32loMin,%object              @ @g_u32loMin
	.section	.bss.g_u32loMin,"aw",%nobits
	.p2align	2, 0x0
g_u32loMin:
	.long	0                               @ 0x0
	.size	g_u32loMin, 4

	.type	g_u32hiSec,%object              @ @g_u32hiSec
	.section	.bss.g_u32hiSec,"aw",%nobits
	.p2align	2, 0x0
g_u32hiSec:
	.long	0                               @ 0x0
	.size	g_u32hiSec, 4

	.type	g_u32loSec,%object              @ @g_u32loSec
	.section	.bss.g_u32loSec,"aw",%nobits
	.p2align	2, 0x0
g_u32loSec:
	.long	0                               @ 0x0
	.size	g_u32loSec, 4

	.section	".note.GNU-stack","",%progbits
	.eabi_attribute	30, 6	@ Tag_ABI_optimization_goals
	.ARM_attribute	16, 1	@ Tag_AV_eba