	.text
	.syntax unified
	.eabi_attribute	67, "2.09"	@ Tag_conformance
	.cpu	cortex-m23
	.eabi_attribute	6, 16	@ Tag_CPU_arch
	.eabi_attribute	7, 77	@ Tag_CPU_arch_profile
	.eabi_attribute	8, 0	@ Tag_ARM_ISA_use
	.eabi_attribute	9, 3	@ Tag_THUMB_ISA_use
	.eabi_attribute	34, 0	@ Tag_CPU_unaligned_access
	.eabi_attribute	17, 1	@ Tag_ABI_PCS_GOT_use
	.eabi_attribute	20, 2	@ Tag_ABI_FP_denormal
	.eabi_attribute	21, 0	@ Tag_ABI_FP_exceptions
	.eabi_attribute	23, 1	@ Tag_ABI_FP_number_model
	.eabi_attribute	24, 1	@ Tag_ABI_align_needed
	.eabi_attribute	25, 1	@ Tag_ABI_align_preserved
	.eabi_attribute	38, 1	@ Tag_ABI_FP_16bit_format
	.eabi_attribute	18, 4	@ Tag_ABI_PCS_wchar_t
	.eabi_attribute	26, 2	@ Tag_ABI_enum_size
	.eabi_attribute	14, 0	@ Tag_ABI_PCS_R9_use
	.file	"SH1106.c"
	.file	1 "C:\\Users\\Anaya\\AppData\\Local\\Keil_v5\\ARM\\ARMCLANG\\bin\\..\\include" "stdint.h"
	.file	2 "D:\\work\\dheeraj\\local\\CEL\\CCC\\CCC_CPU0\\Code" "source/oled/SH1106.c"
	.file	3 "D:\\work\\dheeraj\\local\\CEL\\CCC\\CCC_CPU0\\Code" "./source/oled/include\\SH1106.h"
	.section	.text.SH1106_I2C_WriteMulti,"ax",%progbits
	.hidden	SH1106_I2C_WriteMulti           @ -- Begin function SH1106_I2C_WriteMulti
	.globl	SH1106_I2C_WriteMulti
	.p2align	2
	.type	SH1106_I2C_WriteMulti,%function
	.code	16                              @ @SH1106_I2C_WriteMulti
	.thumb_func
SH1106_I2C_WriteMulti:
.Lfunc_begin0:
	.loc	2 55 0                          @ source/oled/SH1106.c:55:0
	.fnstart
	.cfi_sections .debug_frame
	.cfi_startproc
@ %bb.0:
	.save	{r4, lr}
	push	{r4, lr}
	.cfi_def_cfa_offset 8
	.cfi_offset lr, -4
	.cfi_offset r4, -8
	.pad	#24
	sub	sp, #24
	.cfi_def_cfa_offset 32
                                        @ kill: def $r4 killed $r3
                                        @ kill: def $r4 killed $r1
                                        @ kill: def $r4 killed $r0
	add	r4, sp, #20
	strb	r0, [r4]
	add	r0, sp, #16
	strb	r1, [r0]
	str	r2, [sp, #12]
	add	r0, sp, #8
	strh	r3, [r0]
.Ltmp0:
	.loc	2 59 14 prologue_end            @ source/oled/SH1106.c:59:14
	ldr	r0, [sp, #16]
	.loc	2 59 12 is_stmt 0               @ source/oled/SH1106.c:59:12
	ldr	r1, __arm_cp.0_0
	strb	r0, [r1]
	mov	r1, sp
	movs	r0, #0
.Ltmp1:
	.loc	2 60 7 is_stmt 1                @ source/oled/SH1106.c:60:7
	strb	r0, [r1]
	.loc	2 60 6 is_stmt 0                @ source/oled/SH1106.c:60:6
	b	.LBB0_1
.LBB0_1:                                @ =>This Inner Loop Header: Depth=1
	.loc	2 0 6                           @ source/oled/SH1106.c:0:6
	mov	r0, sp
.Ltmp2:
	.loc	2 60 10                         @ source/oled/SH1106.c:60:10
	ldrb	r0, [r0]
	add	r1, sp, #8
	.loc	2 60 12                         @ source/oled/SH1106.c:60:12
	ldrh	r1, [r1]
.Ltmp3:
	.loc	2 60 2                          @ source/oled/SH1106.c:60:2
	cmp	r0, r1
	bge	.LBB0_4
	b	.LBB0_2
.LBB0_2:                                @   in Loop: Header=BB0_1 Depth=1
.Ltmp4:
	.loc	2 61 19 is_stmt 1               @ source/oled/SH1106.c:61:19
	ldr	r0, [sp, #12]
	mov	r1, sp
	.loc	2 61 24 is_stmt 0               @ source/oled/SH1106.c:61:24
	ldrb	r1, [r1]
	.loc	2 61 19                         @ source/oled/SH1106.c:61:19
	ldrb	r0, [r0, r1]
	.loc	2 61 5                          @ source/oled/SH1106.c:61:5
	ldr	r2, __arm_cp.0_0
	.loc	2 61 13                         @ source/oled/SH1106.c:61:13
	adds	r1, r1, r2
	.loc	2 61 17                         @ source/oled/SH1106.c:61:17
	strb	r0, [r1, #1]
	.loc	2 61 5                          @ source/oled/SH1106.c:61:5
	b	.LBB0_3
.LBB0_3:                                @   in Loop: Header=BB0_1 Depth=1
	.loc	2 60 19 is_stmt 1               @ source/oled/SH1106.c:60:19
	ldr	r0, [sp]
	adds	r0, r0, #1
	mov	r1, sp
	strb	r0, [r1]
	.loc	2 60 2 is_stmt 0                @ source/oled/SH1106.c:60:2
	b	.LBB0_1
.Ltmp5:
.LBB0_4:
	.loc	2 63 28 is_stmt 1               @ source/oled/SH1106.c:63:28
	ldr	r0, [sp, #8]
	.loc	2 63 33 is_stmt 0               @ source/oled/SH1106.c:63:33
	adds	r0, r0, #1
	.loc	2 63 2                          @ source/oled/SH1106.c:63:2
	uxth	r2, r0
	ldr	r0, __arm_cp.0_1
	ldr	r1, __arm_cp.0_0
	bl	i2c_write
	.loc	2 64 2 is_stmt 1                @ source/oled/SH1106.c:64:2
	b	.LBB0_5
.LBB0_5:                                @ =>This Inner Loop Header: Depth=1
	.loc	2 64 13 is_stmt 0               @ source/oled/SH1106.c:64:13
	ldr	r0, __arm_cp.0_1
	ldrb	r0, [r0]
	.loc	2 64 2                          @ source/oled/SH1106.c:64:2
	cbz	r0, .LBB0_7
	b	.LBB0_6
.LBB0_6:                                @   in Loop: Header=BB0_5 Depth=1
	b	.LBB0_5
.LBB0_7:
	.loc	2 65 1 epilogue_begin is_stmt 1 @ source/oled/SH1106.c:65:1
	add	sp, #24
	pop	{r4, pc}
.Ltmp6:
	.loc	2 0 1 is_stmt 0                 @ :0:1
.Ltmp7:
	.p2align	2
@ %bb.8:
__arm_cp.0_0:
	.long	pixbuf
.Lcpi_end0:
	.size	__arm_cp.0_0, .Lcpi_end0-__arm_cp.0_0
__arm_cp.0_1:
	.long	i2c0
.Lcpi_end1:
	.size	__arm_cp.0_1, .Lcpi_end1-__arm_cp.0_1
.Lfunc_end0:
	.size	SH1106_I2C_WriteMulti, .Lfunc_end0-SH1106_I2C_WriteMulti
	.cfi_endproc
	.cantunwind
	.fnend
                                        @ -- End function
	.section	.text.SH1106_I2C_Write,"ax",%progbits
	.hidden	SH1106_I2C_Write                @ -- Begin function SH1106_I2C_Write
	.globl	SH1106_I2C_Write
	.p2align	2
	.type	SH1106_I2C_Write,%function
	.code	16                              @ @SH1106_I2C_Write
	.thumb_func
SH1106_I2C_Write:
.Lfunc_begin1:
	.loc	2 69 0 is_stmt 1                @ source/oled/SH1106.c:69:0
	.fnstart
	.cfi_startproc
@ %bb.0:
	.save	{r7, lr}
	push	{r7, lr}
	.cfi_def_cfa_offset 8
	.cfi_offset lr, -4
	.cfi_offset r7, -8
	.pad	#16
	sub	sp, #16
	.cfi_def_cfa_offset 24
                                        @ kill: def $r3 killed $r2
                                        @ kill: def $r3 killed $r1
                                        @ kill: def $r3 killed $r0
	add	r3, sp, #12
	strb	r0, [r3]
	add	r0, sp, #8
	strb	r1, [r0]
	add	r0, sp, #4
	strb	r2, [r0]
.Ltmp8:
	.loc	2 71 10 prologue_end            @ source/oled/SH1106.c:71:10
	ldr	r0, [sp, #8]
	mov	r1, sp
	.loc	2 71 8 is_stmt 0                @ source/oled/SH1106.c:71:8
	strb	r0, [r1]
	.loc	2 72 10 is_stmt 1               @ source/oled/SH1106.c:72:10
	ldr	r0, [sp, #4]
	.loc	2 72 8 is_stmt 0                @ source/oled/SH1106.c:72:8
	strb	r0, [r1, #1]
	.loc	2 74 2 is_stmt 1                @ source/oled/SH1106.c:74:2
	b	.LBB1_1
.LBB1_1:                                @ =>This Inner Loop Header: Depth=1
	.loc	2 74 13 is_stmt 0               @ source/oled/SH1106.c:74:13
	ldr	r0, __arm_cp.1_0
	ldrb	r0, [r0]
	.loc	2 74 2                          @ source/oled/SH1106.c:74:2
	cbz	r0, .LBB1_3
	b	.LBB1_2
.LBB1_2:                                @   in Loop: Header=BB1_1 Depth=1
	b	.LBB1_1
.LBB1_3:
	.loc	2 75 2 is_stmt 1                @ source/oled/SH1106.c:75:2
	ldr	r0, __arm_cp.1_0
	mov	r1, sp
	movs	r2, #2
	bl	i2c_write
	movs	r0, #10
	.loc	2 76 2                          @ source/oled/SH1106.c:76:2
	bl	wait_ms
	.loc	2 77 1 epilogue_begin           @ source/oled/SH1106.c:77:1
	add	sp, #16
	pop	{r7, pc}
.Ltmp9:
	.loc	2 0 1 is_stmt 0                 @ :0:1
.Ltmp10:
	.p2align	2
@ %bb.4:
__arm_cp.1_0:
	.long	i2c0
.Lcpi_end2:
	.size	__arm_cp.1_0, .Lcpi_end2-__arm_cp.1_0
.Lfunc_end1:
	.size	SH1106_I2C_Write, .Lfunc_end1-SH1106_I2C_Write
	.cfi_endproc
	.cantunwind
	.fnend
                                        @ -- End function
	.section	.text.SH1106_Init,"ax",%progbits
	.hidden	SH1106_Init                     @ -- Begin function SH1106_Init
	.globl	SH1106_Init
	.p2align	2
	.type	SH1106_Init,%function
	.code	16                              @ @SH1106_Init
	.thumb_func
SH1106_Init:
.Lfunc_begin2:
	.loc	2 81 0 is_stmt 1                @ source/oled/SH1106.c:81:0
	.fnstart
	.cfi_startproc
@ %bb.0:
	.save	{r7, lr}
	push	{r7, lr}
	.cfi_def_cfa_offset 8
	.cfi_offset lr, -4
	.cfi_offset r7, -8
	.pad	#16
	sub	sp, #16
	.cfi_def_cfa_offset 24
	ldr	r0, __arm_cp.2_0
.Ltmp11:
	.loc	2 84 11 prologue_end            @ source/oled/SH1106.c:84:11
	str	r0, [sp, #12]
	.loc	2 85 2                          @ source/oled/SH1106.c:85:2
	b	.LBB2_1
.LBB2_1:                                @ =>This Inner Loop Header: Depth=1
	.loc	2 85 8 is_stmt 0                @ source/oled/SH1106.c:85:8
	ldr	r0, [sp, #12]
	.loc	2 85 2                          @ source/oled/SH1106.c:85:2
	cbz	r0, .LBB2_3
	b	.LBB2_2
.LBB2_2:                                @   in Loop: Header=BB2_1 Depth=1
	.loc	2 86 4 is_stmt 1                @ source/oled/SH1106.c:86:4
	ldr	r0, [sp, #12]
	subs	r0, r0, #1
	str	r0, [sp, #12]
	.loc	2 85 2                          @ source/oled/SH1106.c:85:2
	b	.LBB2_1
.LBB2_3:
	.loc	2 0 2 is_stmt 0                 @ source/oled/SH1106.c:0:2
	movs	r0, #61
	str	r0, [sp, #4]                    @ 4-byte Spill
	movs	r1, #0
	str	r1, [sp, #8]                    @ 4-byte Spill
	movs	r2, #174
	.loc	2 89 2 is_stmt 1                @ source/oled/SH1106.c:89:2
	bl	SH1106_I2C_Write
	ldr	r0, [sp, #4]                    @ 4-byte Reload
	ldr	r1, [sp, #8]                    @ 4-byte Reload
	movs	r2, #176
	.loc	2 90 2                          @ source/oled/SH1106.c:90:2
	bl	SH1106_I2C_Write
	ldr	r0, [sp, #4]                    @ 4-byte Reload
	ldr	r1, [sp, #8]                    @ 4-byte Reload
	movs	r2, #129
	.loc	2 91 2                          @ source/oled/SH1106.c:91:2
	bl	SH1106_I2C_Write
	ldr	r0, [sp, #4]                    @ 4-byte Reload
	ldr	r1, [sp, #8]                    @ 4-byte Reload
	movs	r2, #255
	.loc	2 92 2                          @ source/oled/SH1106.c:92:2
	bl	SH1106_I2C_Write
	ldr	r0, [sp, #4]                    @ 4-byte Reload
	ldr	r1, [sp, #8]                    @ 4-byte Reload
	movs	r2, #161
	.loc	2 93 2                          @ source/oled/SH1106.c:93:2
	bl	SH1106_I2C_Write
	ldr	r0, [sp, #4]                    @ 4-byte Reload
	ldr	r1, [sp, #8]                    @ 4-byte Reload
	movs	r2, #166
	.loc	2 94 2                          @ source/oled/SH1106.c:94:2
	bl	SH1106_I2C_Write
	ldr	r0, [sp, #4]                    @ 4-byte Reload
	ldr	r1, [sp, #8]                    @ 4-byte Reload
	movs	r2, #168
	.loc	2 95 2                          @ source/oled/SH1106.c:95:2
	bl	SH1106_I2C_Write
	ldr	r0, [sp, #4]                    @ 4-byte Reload
	ldr	r1, [sp, #8]                    @ 4-byte Reload
	movs	r2, #63
	.loc	2 96 2                          @ source/oled/SH1106.c:96:2
	bl	SH1106_I2C_Write
	ldr	r0, [sp, #4]                    @ 4-byte Reload
	ldr	r1, [sp, #8]                    @ 4-byte Reload
	movs	r2, #173
	.loc	2 97 2                          @ source/oled/SH1106.c:97:2
	bl	SH1106_I2C_Write
	ldr	r0, [sp, #4]                    @ 4-byte Reload
	ldr	r1, [sp, #8]                    @ 4-byte Reload
	movs	r2, #139
	.loc	2 98 2                          @ source/oled/SH1106.c:98:2
	bl	SH1106_I2C_Write
	ldr	r0, [sp, #4]                    @ 4-byte Reload
	ldr	r1, [sp, #8]                    @ 4-byte Reload
	movs	r2, #50
	.loc	2 99 2                          @ source/oled/SH1106.c:99:2
	bl	SH1106_I2C_Write
	ldr	r0, [sp, #4]                    @ 4-byte Reload
	ldr	r1, [sp, #8]                    @ 4-byte Reload
	movs	r2, #200
	.loc	2 100 2                         @ source/oled/SH1106.c:100:2
	bl	SH1106_I2C_Write
	ldr	r0, [sp, #4]                    @ 4-byte Reload
	ldr	r1, [sp, #8]                    @ 4-byte Reload
	movs	r2, #211
	.loc	2 101 2                         @ source/oled/SH1106.c:101:2
	bl	SH1106_I2C_Write
	ldr	r0, [sp, #4]                    @ 4-byte Reload
	ldr	r2, [sp, #8]                    @ 4-byte Reload
	.loc	2 102 2                         @ source/oled/SH1106.c:102:2
	mov	r1, r2
	bl	SH1106_I2C_Write
	ldr	r0, [sp, #4]                    @ 4-byte Reload
	ldr	r1, [sp, #8]                    @ 4-byte Reload
	movs	r2, #213
	.loc	2 103 2                         @ source/oled/SH1106.c:103:2
	bl	SH1106_I2C_Write
	ldr	r0, [sp, #4]                    @ 4-byte Reload
	ldr	r1, [sp, #8]                    @ 4-byte Reload
	movs	r2, #128
	.loc	2 104 2                         @ source/oled/SH1106.c:104:2
	bl	SH1106_I2C_Write
	ldr	r0, [sp, #4]                    @ 4-byte Reload
	ldr	r1, [sp, #8]                    @ 4-byte Reload
	movs	r2, #217
	.loc	2 105 2                         @ source/oled/SH1106.c:105:2
	bl	SH1106_I2C_Write
	ldr	r0, [sp, #4]                    @ 4-byte Reload
	ldr	r1, [sp, #8]                    @ 4-byte Reload
	movs	r2, #31
	.loc	2 106 2                         @ source/oled/SH1106.c:106:2
	bl	SH1106_I2C_Write
	ldr	r0, [sp, #4]                    @ 4-byte Reload
	ldr	r1, [sp, #8]                    @ 4-byte Reload
	movs	r2, #218
	.loc	2 107 2                         @ source/oled/SH1106.c:107:2
	bl	SH1106_I2C_Write
	ldr	r0, [sp, #4]                    @ 4-byte Reload
	ldr	r1, [sp, #8]                    @ 4-byte Reload
	movs	r2, #18
	.loc	2 108 2                         @ source/oled/SH1106.c:108:2
	bl	SH1106_I2C_Write
	ldr	r0, [sp, #4]                    @ 4-byte Reload
	ldr	r1, [sp, #8]                    @ 4-byte Reload
	movs	r2, #219
	.loc	2 109 2                         @ source/oled/SH1106.c:109:2
	bl	SH1106_I2C_Write
	ldr	r0, [sp, #4]                    @ 4-byte Reload
	ldr	r1, [sp, #8]                    @ 4-byte Reload
	movs	r2, #64
	.loc	2 110 2                         @ source/oled/SH1106.c:110:2
	bl	SH1106_I2C_Write
	ldr	r0, [sp, #4]                    @ 4-byte Reload
	ldr	r1, [sp, #8]                    @ 4-byte Reload
	movs	r2, #175
	.loc	2 111 2                         @ source/oled/SH1106.c:111:2
	bl	SH1106_I2C_Write
	ldr	r0, [sp, #8]                    @ 4-byte Reload
	.loc	2 115 2                         @ source/oled/SH1106.c:115:2
	bl	SH1106_Fill
	.loc	2 118 2                         @ source/oled/SH1106.c:118:2
	bl	SH1106_UpdateScreen
	ldr	r0, [sp, #8]                    @ 4-byte Reload
	.loc	2 124 18                        @ source/oled/SH1106.c:124:18
	ldr	r1, __arm_cp.2_1
	strh	r0, [r1]
	.loc	2 125 18                        @ source/oled/SH1106.c:125:18
	strh	r0, [r1, #2]
	movs	r0, #1
	.loc	2 128 21                        @ source/oled/SH1106.c:128:21
	strb	r0, [r1, #5]
	.loc	2 131 2 epilogue_begin          @ source/oled/SH1106.c:131:2
	add	sp, #16
	pop	{r7, pc}
.Ltmp12:
	.loc	2 0 2 is_stmt 0                 @ :0:2
.Ltmp13:
	.p2align	2
@ %bb.4:
__arm_cp.2_0:
	.long	2500                            @ 0x9c4
.Lcpi_end3:
	.size	__arm_cp.2_0, .Lcpi_end3-__arm_cp.2_0
__arm_cp.2_1:
	.long	SH1106
.Lcpi_end4:
	.size	__arm_cp.2_1, .Lcpi_end4-__arm_cp.2_1
.Lfunc_end2:
	.size	SH1106_Init, .Lfunc_end2-SH1106_Init
	.cfi_endproc
	.cantunwind
	.fnend
                                        @ -- End function
	.section	.text.SH1106_Fill,"ax",%progbits
	.hidden	SH1106_Fill                     @ -- Begin function SH1106_Fill
	.globl	SH1106_Fill
	.p2align	2
	.type	SH1106_Fill,%function
	.code	16                              @ @SH1106_Fill
	.thumb_func
SH1106_Fill:
.Lfunc_begin3:
	.loc	2 186 0 is_stmt 1               @ source/oled/SH1106.c:186:0
	.fnstart
	.cfi_startproc
@ %bb.0:
	.save	{r7, lr}
	push	{r7, lr}
	.cfi_def_cfa_offset 8
	.cfi_offset lr, -4
	.cfi_offset r7, -8
	.pad	#16
	sub	sp, #16
	.cfi_def_cfa_offset 24
	str	r0, [sp, #12]
.Ltmp14:
	.loc	2 188 9 prologue_end            @ source/oled/SH1106.c:188:9
	ldr	r0, __arm_cp.3_0
	ldr	r0, [r0]
	.loc	2 188 25 is_stmt 0              @ source/oled/SH1106.c:188:25
	str	r0, [sp]                        @ 4-byte Spill
	ldr	r1, [sp, #12]
	str	r1, [sp, #4]                    @ 4-byte Spill
	movs	r0, #255
	.loc	2 188 24                        @ source/oled/SH1106.c:188:24
	str	r0, [sp, #8]                    @ 4-byte Spill
	cbnz	r1, .LBB3_2
@ %bb.1:
	.loc	2 0 24                          @ source/oled/SH1106.c:0:24
	ldr	r0, [sp, #4]                    @ 4-byte Reload
	str	r0, [sp, #8]                    @ 4-byte Spill
.LBB3_2:
	.loc	2 188 24                        @ source/oled/SH1106.c:188:24
	ldr	r0, [sp]                        @ 4-byte Reload
	ldr	r2, [sp, #8]                    @ 4-byte Reload
	movw	r1, #1024
	.loc	2 188 2                         @ source/oled/SH1106.c:188:2
	bl	__aeabi_memset
	.loc	2 189 1 epilogue_begin is_stmt 1 @ source/oled/SH1106.c:189:1
	add	sp, #16
	pop	{r7, pc}
.Ltmp15:
	.loc	2 0 1 is_stmt 0                 @ :0:1
.Ltmp16:
	.p2align	2
@ %bb.3:
__arm_cp.3_0:
	.long	SH1106_Buffer
.Lcpi_end5:
	.size	__arm_cp.3_0, .Lcpi_end5-__arm_cp.3_0
.Lfunc_end3:
	.size	SH1106_Fill, .Lfunc_end3-SH1106_Fill
	.cfi_endproc
	.cantunwind
	.fnend
                                        @ -- End function
	.section	.text.SH1106_UpdateScreen,"ax",%progbits
	.hidden	SH1106_UpdateScreen             @ -- Begin function SH1106_UpdateScreen
	.globl	SH1106_UpdateScreen
	.p2align	2
	.type	SH1106_UpdateScreen,%function
	.code	16                              @ @SH1106_UpdateScreen
	.thumb_func
SH1106_UpdateScreen:
.Lfunc_begin4:
	.loc	2 134 0 is_stmt 1               @ source/oled/SH1106.c:134:0
	.fnstart
	.cfi_startproc
@ %bb.0:
	.save	{r7, lr}
	push	{r7, lr}
	.cfi_def_cfa_offset 8
	.cfi_offset lr, -4
	.cfi_offset r7, -8
	.pad	#24
	sub	sp, #24
	.cfi_def_cfa_offset 32
	add	r0, sp, #20
	str	r0, [sp, #12]                   @ 4-byte Spill
	add	r1, sp, #20
	movs	r0, #0
.Ltmp17:
	.loc	2 137 9 prologue_end            @ source/oled/SH1106.c:137:9
	strb	r0, [r1]
	.loc	2 137 7 is_stmt 0               @ source/oled/SH1106.c:137:7
	b	.LBB4_1
.LBB4_1:                                @ =>This Inner Loop Header: Depth=1
	.loc	2 0 7                           @ source/oled/SH1106.c:0:7
	add	r0, sp, #20
.Ltmp18:
	.loc	2 137 14                        @ source/oled/SH1106.c:137:14
	ldrb	r0, [r0]
.Ltmp19:
	.loc	2 137 2                         @ source/oled/SH1106.c:137:2
	cmp	r0, #7
	bgt	.LBB4_4
	b	.LBB4_2
.LBB4_2:                                @   in Loop: Header=BB4_1 Depth=1
.Ltmp20:
	.loc	2 138 3 is_stmt 1               @ source/oled/SH1106.c:138:3
	ldr	r0, [sp, #12]                   @ 4-byte Reload
	ldr	r0, [r0]
	adds	r0, #176
	uxtb	r2, r0
	movs	r0, #61
	str	r0, [sp, #8]                    @ 4-byte Spill
	movs	r1, #0
	str	r1, [sp, #4]                    @ 4-byte Spill
	bl	SH1106_I2C_Write
	ldr	r1, [sp, #4]                    @ 4-byte Reload
	ldr	r0, [sp, #8]                    @ 4-byte Reload
	movs	r2, #2
	.loc	2 139 3                         @ source/oled/SH1106.c:139:3
	bl	SH1106_I2C_Write
	ldr	r1, [sp, #4]                    @ 4-byte Reload
	ldr	r0, [sp, #8]                    @ 4-byte Reload
	movs	r2, #16
	.loc	2 140 3                         @ source/oled/SH1106.c:140:3
	bl	SH1106_I2C_Write
	ldr	r0, [sp, #8]                    @ 4-byte Reload
	.loc	2 143 49                        @ source/oled/SH1106.c:143:49
	ldr	r1, __arm_cp.4_0
	ldr	r1, [r1]
	add	r2, sp, #20
	.loc	2 143 78 is_stmt 0              @ source/oled/SH1106.c:143:78
	ldrb	r2, [r2]
	.loc	2 143 76                        @ source/oled/SH1106.c:143:76
	lsls	r2, r2, #7
	.loc	2 143 49                        @ source/oled/SH1106.c:143:49
	adds	r2, r1, r2
	movs	r1, #64
	movs	r3, #128
	.loc	2 143 3                         @ source/oled/SH1106.c:143:3
	bl	SH1106_I2C_WriteMulti
	.loc	2 151 2 is_stmt 1               @ source/oled/SH1106.c:151:2
	b	.LBB4_3
.Ltmp21:
.LBB4_3:                                @   in Loop: Header=BB4_1 Depth=1
	.loc	2 137 22                        @ source/oled/SH1106.c:137:22
	ldr	r0, [sp, #12]                   @ 4-byte Reload
	ldr	r0, [r0]
	adds	r0, r0, #1
	add	r1, sp, #20
	strb	r0, [r1]
	.loc	2 137 2 is_stmt 0               @ source/oled/SH1106.c:137:2
	b	.LBB4_1
.Ltmp22:
.LBB4_4:
	.loc	2 152 1 epilogue_begin is_stmt 1 @ source/oled/SH1106.c:152:1
	add	sp, #24
	pop	{r7, pc}
.Ltmp23:
	.loc	2 0 1 is_stmt 0                 @ :0:1
.Ltmp24:
	.p2align	2
@ %bb.5:
__arm_cp.4_0:
	.long	SH1106_Buffer
.Lcpi_end6:
	.size	__arm_cp.4_0, .Lcpi_end6-__arm_cp.4_0
.Lfunc_end4:
	.size	SH1106_UpdateScreen, .Lfunc_end4-SH1106_UpdateScreen
	.cfi_endproc
	.cantunwind
	.fnend
                                        @ -- End function
	.section	.text.SH1106_ToggleInvert,"ax",%progbits
	.hidden	SH1106_ToggleInvert             @ -- Begin function SH1106_ToggleInvert
	.globl	SH1106_ToggleInvert
	.p2align	2
	.type	SH1106_ToggleInvert,%function
	.code	16                              @ @SH1106_ToggleInvert
	.thumb_func
SH1106_ToggleInvert:
.Lfunc_begin5:
	.loc	2 154 0 is_stmt 1               @ source/oled/SH1106.c:154:0
	.fnstart
	.cfi_startproc
@ %bb.0:
	.pad	#4
	sub	sp, #4
	.cfi_def_cfa_offset 4
.Ltmp25:
	.loc	2 158 28 prologue_end           @ source/oled/SH1106.c:158:28
	ldr	r1, __arm_cp.5_0
	ldrb	r0, [r1, #4]
	.loc	2 158 20 is_stmt 0              @ source/oled/SH1106.c:158:20
	rsbs	r2, r0, #0
	adcs	r0, r2
	.loc	2 158 18                        @ source/oled/SH1106.c:158:18
	strb	r0, [r1, #4]
	mov	r1, sp
	movs	r0, #0
.Ltmp26:
	.loc	2 161 9 is_stmt 1               @ source/oled/SH1106.c:161:9
	strh	r0, [r1]
	.loc	2 161 7 is_stmt 0               @ source/oled/SH1106.c:161:7
	b	.LBB5_1
.LBB5_1:                                @ =>This Inner Loop Header: Depth=1
	.loc	2 0 7                           @ source/oled/SH1106.c:0:7
	mov	r0, sp
.Ltmp27:
	.loc	2 161 14                        @ source/oled/SH1106.c:161:14
	ldrh	r0, [r0]
	ldr	r1, __arm_cp.5_1
.Ltmp28:
	.loc	2 161 2                         @ source/oled/SH1106.c:161:2
	cmp	r0, r1
	bgt	.LBB5_4
	b	.LBB5_2
.LBB5_2:                                @   in Loop: Header=BB5_1 Depth=1
.Ltmp29:
	.loc	2 162 23 is_stmt 1              @ source/oled/SH1106.c:162:23
	ldr	r0, __arm_cp.5_2
	ldr	r1, [r0]
	mov	r0, sp
	.loc	2 162 37 is_stmt 0              @ source/oled/SH1106.c:162:37
	ldrh	r2, [r0]
	.loc	2 162 23                        @ source/oled/SH1106.c:162:23
	ldrb	r0, [r1, r2]
	.loc	2 162 22                        @ source/oled/SH1106.c:162:22
	mvns	r0, r0
	.loc	2 162 20                        @ source/oled/SH1106.c:162:20
	strb	r0, [r1, r2]
	.loc	2 163 2 is_stmt 1               @ source/oled/SH1106.c:163:2
	b	.LBB5_3
.Ltmp30:
.LBB5_3:                                @   in Loop: Header=BB5_1 Depth=1
	.loc	2 161 41                        @ source/oled/SH1106.c:161:41
	ldr	r0, [sp]
	adds	r0, r0, #1
	mov	r1, sp
	strh	r0, [r1]
	.loc	2 161 2 is_stmt 0               @ source/oled/SH1106.c:161:2
	b	.LBB5_1
.Ltmp31:
.LBB5_4:
	.loc	2 164 1 epilogue_begin is_stmt 1 @ source/oled/SH1106.c:164:1
	add	sp, #4
	bx	lr
.Ltmp32:
	.loc	2 0 1 is_stmt 0                 @ :0:1
.Ltmp33:
	.p2align	2
@ %bb.5:
__arm_cp.5_0:
	.long	SH1106
.Lcpi_end7:
	.size	__arm_cp.5_0, .Lcpi_end7-__arm_cp.5_0
__arm_cp.5_1:
	.long	1023                            @ 0x3ff
.Lcpi_end8:
	.size	__arm_cp.5_1, .Lcpi_end8-__arm_cp.5_1
__arm_cp.5_2:
	.long	SH1106_Buffer
.Lcpi_end9:
	.size	__arm_cp.5_2, .Lcpi_end9-__arm_cp.5_2
.Lfunc_end5:
	.size	SH1106_ToggleInvert, .Lfunc_end5-SH1106_ToggleInvert
	.cfi_endproc
	.cantunwind
	.fnend
                                        @ -- End function
	.section	.text.SH1106_Test,"ax",%progbits
	.hidden	SH1106_Test                     @ -- Begin function SH1106_Test
	.globl	SH1106_Test
	.p2align	2
	.type	SH1106_Test,%function
	.code	16                              @ @SH1106_Test
	.thumb_func
SH1106_Test:
.Lfunc_begin6:
	.loc	2 166 0 is_stmt 1               @ source/oled/SH1106.c:166:0
	.fnstart
	.cfi_startproc
@ %bb.0:
	.pad	#12
	sub	sp, #12
	.cfi_def_cfa_offset 12
	add	r1, sp, #8
	movs	r0, #255
.Ltmp34:
	.loc	2 168 10 prologue_end           @ source/oled/SH1106.c:168:10
	strb	r0, [r1]
	add	r1, sp, #4
	movs	r0, #0
.Ltmp35:
	.loc	2 172 9                         @ source/oled/SH1106.c:172:9
	strb	r0, [r1]
	.loc	2 172 6 is_stmt 0               @ source/oled/SH1106.c:172:6
	b	.LBB6_1
.LBB6_1:                                @ =>This Loop Header: Depth=1
                                        @     Child Loop BB6_3 Depth 2
	.loc	2 0 6                           @ source/oled/SH1106.c:0:6
	add	r0, sp, #4
.Ltmp36:
	.loc	2 172 12                        @ source/oled/SH1106.c:172:12
	ldrb	r0, [r0]
.Ltmp37:
	.loc	2 172 2                         @ source/oled/SH1106.c:172:2
	cmp	r0, #7
	bgt	.LBB6_10
	b	.LBB6_2
.LBB6_2:                                @   in Loop: Header=BB6_1 Depth=1
	.loc	2 0 2                           @ source/oled/SH1106.c:0:2
	mov	r1, sp
	movs	r0, #0
.Ltmp38:
	.loc	2 174 10 is_stmt 1              @ source/oled/SH1106.c:174:10
	strb	r0, [r1]
	.loc	2 174 7 is_stmt 0               @ source/oled/SH1106.c:174:7
	b	.LBB6_3
.LBB6_3:                                @   Parent Loop BB6_1 Depth=1
                                        @ =>  This Inner Loop Header: Depth=2
	.loc	2 0 7                           @ source/oled/SH1106.c:0:7
	mov	r0, sp
.Ltmp39:
	.loc	2 174 13                        @ source/oled/SH1106.c:174:13
	ldrb	r0, [r0]
.Ltmp40:
	.loc	2 174 3                         @ source/oled/SH1106.c:174:3
	cmp	r0, #127
	bgt	.LBB6_8
	b	.LBB6_4
.LBB6_4:                                @   in Loop: Header=BB6_3 Depth=2
	.loc	2 0 3                           @ source/oled/SH1106.c:0:3
	mov	r0, sp
.Ltmp41:
	.loc	2 175 8 is_stmt 1               @ source/oled/SH1106.c:175:8
	ldrb	r0, [r0]
.Ltmp42:
	.loc	2 175 7 is_stmt 0               @ source/oled/SH1106.c:175:7
	lsls	r0, r0, #29
	cbnz	r0, .LBB6_6
	b	.LBB6_5
.LBB6_5:                                @   in Loop: Header=BB6_3 Depth=2
.Ltmp43:
	.loc	2 175 25                        @ source/oled/SH1106.c:175:25
	ldr	r0, [sp, #8]
	.loc	2 175 24                        @ source/oled/SH1106.c:175:24
	mvns	r0, r0
	add	r1, sp, #8
	.loc	2 175 22                        @ source/oled/SH1106.c:175:22
	strb	r0, [r1]
	.loc	2 175 20                        @ source/oled/SH1106.c:175:20
	b	.LBB6_6
.Ltmp44:
.LBB6_6:                                @   in Loop: Header=BB6_3 Depth=2
	.loc	2 176 35 is_stmt 1              @ source/oled/SH1106.c:176:35
	ldr	r0, [sp, #8]
	.loc	2 176 4 is_stmt 0               @ source/oled/SH1106.c:176:4
	ldr	r1, __arm_cp.6_0
	ldr	r1, [r1]
	add	r2, sp, #4
	.loc	2 176 18                        @ source/oled/SH1106.c:176:18
	ldrb	r2, [r2]
	.loc	2 176 21                        @ source/oled/SH1106.c:176:21
	lsls	r2, r2, #7
	mov	r3, sp
	.loc	2 176 28                        @ source/oled/SH1106.c:176:28
	ldrb	r3, [r3]
	.loc	2 176 26                        @ source/oled/SH1106.c:176:26
	adds	r2, r2, r3
	.loc	2 176 33                        @ source/oled/SH1106.c:176:33
	strb	r0, [r1, r2]
	.loc	2 177 3 is_stmt 1               @ source/oled/SH1106.c:177:3
	b	.LBB6_7
.Ltmp45:
.LBB6_7:                                @   in Loop: Header=BB6_3 Depth=2
	.loc	2 174 24                        @ source/oled/SH1106.c:174:24
	ldr	r0, [sp]
	adds	r0, r0, #1
	mov	r1, sp
	strb	r0, [r1]
	.loc	2 174 3 is_stmt 0               @ source/oled/SH1106.c:174:3
	b	.LBB6_3
.Ltmp46:
.LBB6_8:                                @   in Loop: Header=BB6_1 Depth=1
	.loc	2 178 8 is_stmt 1               @ source/oled/SH1106.c:178:8
	ldr	r0, [sp, #8]
	.loc	2 178 7 is_stmt 0               @ source/oled/SH1106.c:178:7
	mvns	r0, r0
	add	r1, sp, #8
	.loc	2 178 5                         @ source/oled/SH1106.c:178:5
	strb	r0, [r1]
	.loc	2 179 2 is_stmt 1               @ source/oled/SH1106.c:179:2
	b	.LBB6_9
.Ltmp47:
.LBB6_9:                                @   in Loop: Header=BB6_1 Depth=1
	.loc	2 172 21                        @ source/oled/SH1106.c:172:21
	ldr	r0, [sp, #4]
	adds	r0, r0, #1
	add	r1, sp, #4
	strb	r0, [r1]
	.loc	2 172 2 is_stmt 0               @ source/oled/SH1106.c:172:2
	b	.LBB6_1
.Ltmp48:
.LBB6_10:
	.loc	2 184 1 epilogue_begin is_stmt 1 @ source/oled/SH1106.c:184:1
	add	sp, #12
	bx	lr
.Ltmp49:
	.loc	2 0 1 is_stmt 0                 @ :0:1
.Ltmp50:
	.p2align	2
@ %bb.11:
__arm_cp.6_0:
	.long	SH1106_Buffer
.Lcpi_end10:
	.size	__arm_cp.6_0, .Lcpi_end10-__arm_cp.6_0
.Lfunc_end6:
	.size	SH1106_Test, .Lfunc_end6-SH1106_Test
	.cfi_endproc
	.cantunwind
	.fnend
                                        @ -- End function
	.section	.text.SH1106_DrawPixel,"ax",%progbits
	.hidden	SH1106_DrawPixel                @ -- Begin function SH1106_DrawPixel
	.globl	SH1106_DrawPixel
	.p2align	2
	.type	SH1106_DrawPixel,%function
	.code	16                              @ @SH1106_DrawPixel
	.thumb_func
SH1106_DrawPixel:
.Lfunc_begin7:
	.loc	2 191 0 is_stmt 1               @ source/oled/SH1106.c:191:0
	.fnstart
	.cfi_startproc
@ %bb.0:
	.pad	#12
	sub	sp, #12
	.cfi_def_cfa_offset 12
	mov	r3, r0
                                        @ kill: def $r0 killed $r1
                                        @ kill: def $r0 killed $r3
	add	r0, sp, #8
	strh	r3, [r0]
	add	r3, sp, #4
	strh	r1, [r3]
	str	r2, [sp]
.Ltmp51:
	.loc	2 193 3 prologue_end            @ source/oled/SH1106.c:193:3
	ldrh	r0, [r0]
	.loc	2 193 21 is_stmt 0              @ source/oled/SH1106.c:193:21
	cmp	r0, #127
	bgt	.LBB7_2
	b	.LBB7_1
.LBB7_1:
	.loc	2 0 21                          @ source/oled/SH1106.c:0:21
	add	r0, sp, #4
	.loc	2 194 3 is_stmt 1               @ source/oled/SH1106.c:194:3
	ldrh	r0, [r0]
.Ltmp52:
	.loc	2 193 3                         @ source/oled/SH1106.c:193:3
	cmp	r0, #64
	blt	.LBB7_3
	b	.LBB7_2
.LBB7_2:
.Ltmp53:
	.loc	2 197 3                         @ source/oled/SH1106.c:197:3
	b	.LBB7_8
.Ltmp54:
.LBB7_3:
	.loc	2 201 13                        @ source/oled/SH1106.c:201:13
	ldr	r0, __arm_cp.7_0
	ldrb	r0, [r0, #4]
.Ltmp55:
	.loc	2 201 6 is_stmt 0               @ source/oled/SH1106.c:201:6
	cbz	r0, .LBB7_5
	b	.LBB7_4
.LBB7_4:
.Ltmp56:
	.loc	2 202 28 is_stmt 1              @ source/oled/SH1106.c:202:28
	ldr	r0, [sp]
	.loc	2 202 27 is_stmt 0              @ source/oled/SH1106.c:202:27
	rsbs	r1, r0, #0
	adcs	r0, r1
	.loc	2 202 9                         @ source/oled/SH1106.c:202:9
	str	r0, [sp]
	.loc	2 203 2 is_stmt 1               @ source/oled/SH1106.c:203:2
	b	.LBB7_5
.Ltmp57:
.LBB7_5:
	.loc	2 206 6                         @ source/oled/SH1106.c:206:6
	ldr	r0, [sp]
.Ltmp58:
	.loc	2 206 6 is_stmt 0               @ source/oled/SH1106.c:206:6
	cmp	r0, #1
	bne	.LBB7_7
	b	.LBB7_6
.LBB7_6:
	.loc	2 0 6                           @ source/oled/SH1106.c:0:6
	add	r0, sp, #4
.Ltmp59:
	.loc	2 207 54 is_stmt 1              @ source/oled/SH1106.c:207:54
	ldrh	r2, [r0]
	movs	r1, #7
	.loc	2 207 56 is_stmt 0              @ source/oled/SH1106.c:207:56
	mov	r0, r2
	ands	r0, r1
	movs	r3, #1
	.loc	2 207 50                        @ source/oled/SH1106.c:207:50
	lsls	r3, r0
	.loc	2 207 3                         @ source/oled/SH1106.c:207:3
	ldr	r0, __arm_cp.7_1
	ldr	r1, [r0]
	add	r0, sp, #8
	.loc	2 207 17                        @ source/oled/SH1106.c:207:17
	ldrh	r0, [r0]
	.loc	2 207 29                        @ source/oled/SH1106.c:207:29
	lsrs	r2, r2, #3
	lsls	r2, r2, #7
	.loc	2 207 19                        @ source/oled/SH1106.c:207:19
	adds	r2, r0, r2
	.loc	2 207 45                        @ source/oled/SH1106.c:207:45
	ldrb	r0, [r1, r2]
	orrs	r0, r3
	strb	r0, [r1, r2]
	.loc	2 208 2 is_stmt 1               @ source/oled/SH1106.c:208:2
	b	.LBB7_8
.Ltmp60:
.LBB7_7:
	.loc	2 0 2 is_stmt 0                 @ source/oled/SH1106.c:0:2
	add	r0, sp, #4
.Ltmp61:
	.loc	2 209 56 is_stmt 1              @ source/oled/SH1106.c:209:56
	ldrh	r2, [r0]
	movs	r1, #7
	.loc	2 209 58 is_stmt 0              @ source/oled/SH1106.c:209:58
	mov	r0, r2
	ands	r0, r1
	movs	r3, #1
	.loc	2 209 52                        @ source/oled/SH1106.c:209:52
	lsls	r3, r0
	.loc	2 209 3                         @ source/oled/SH1106.c:209:3
	ldr	r0, __arm_cp.7_1
	ldr	r1, [r0]
	add	r0, sp, #8
	.loc	2 209 17                        @ source/oled/SH1106.c:209:17
	ldrh	r0, [r0]
	.loc	2 209 29                        @ source/oled/SH1106.c:209:29
	lsrs	r2, r2, #3
	lsls	r2, r2, #7
	.loc	2 209 19                        @ source/oled/SH1106.c:209:19
	adds	r2, r0, r2
	.loc	2 209 45                        @ source/oled/SH1106.c:209:45
	ldrb	r0, [r1, r2]
	bics	r0, r3
	strb	r0, [r1, r2]
	b	.LBB7_8
.Ltmp62:
.LBB7_8:
	.loc	2 211 1 epilogue_begin is_stmt 1 @ source/oled/SH1106.c:211:1
	add	sp, #12
	bx	lr
.Ltmp63:
	.loc	2 0 1 is_stmt 0                 @ :0:1
.Ltmp64:
	.p2align	2
@ %bb.9:
__arm_cp.7_0:
	.long	SH1106
.Lcpi_end11:
	.size	__arm_cp.7_0, .Lcpi_end11-__arm_cp.7_0
__arm_cp.7_1:
	.long	SH1106_Buffer
.Lcpi_end12:
	.size	__arm_cp.7_1, .Lcpi_end12-__arm_cp.7_1
.Lfunc_end7:
	.size	SH1106_DrawPixel, .Lfunc_end7-SH1106_DrawPixel
	.cfi_endproc
	.cantunwind
	.fnend
                                        @ -- End function
	.section	.text.SH1106_GotoXY,"ax",%progbits
	.hidden	SH1106_GotoXY                   @ -- Begin function SH1106_GotoXY
	.globl	SH1106_GotoXY
	.p2align	2
	.type	SH1106_GotoXY,%function
	.code	16                              @ @SH1106_GotoXY
	.thumb_func
SH1106_GotoXY:
.Lfunc_begin8:
	.loc	2 213 0 is_stmt 1               @ source/oled/SH1106.c:213:0
	.fnstart
	.cfi_startproc
@ %bb.0:
	.pad	#8
	sub	sp, #8
	.cfi_def_cfa_offset 8
                                        @ kill: def $r2 killed $r1
                                        @ kill: def $r2 killed $r0
	add	r2, sp, #4
	strh	r0, [r2]
	mov	r0, sp
	strh	r1, [r0]
.Ltmp65:
	.loc	2 215 20 prologue_end           @ source/oled/SH1106.c:215:20
	ldr	r0, [sp, #4]
	.loc	2 215 18 is_stmt 0              @ source/oled/SH1106.c:215:18
	ldr	r1, __arm_cp.8_0
	strh	r0, [r1]
	.loc	2 216 20 is_stmt 1              @ source/oled/SH1106.c:216:20
	ldr	r0, [sp]
	.loc	2 216 18 is_stmt 0              @ source/oled/SH1106.c:216:18
	strh	r0, [r1, #2]
	.loc	2 217 1 epilogue_begin is_stmt 1 @ source/oled/SH1106.c:217:1
	add	sp, #8
	bx	lr
.Ltmp66:
	.loc	2 0 1 is_stmt 0                 @ :0:1
.Ltmp67:
	.p2align	2
@ %bb.1:
__arm_cp.8_0:
	.long	SH1106
.Lcpi_end13:
	.size	__arm_cp.8_0, .Lcpi_end13-__arm_cp.8_0
.Lfunc_end8:
	.size	SH1106_GotoXY, .Lfunc_end8-SH1106_GotoXY
	.cfi_endproc
	.cantunwind
	.fnend
                                        @ -- End function
	.section	.text.SH1106_Putc,"ax",%progbits
	.hidden	SH1106_Putc                     @ -- Begin function SH1106_Putc
	.globl	SH1106_Putc
	.p2align	2
	.type	SH1106_Putc,%function
	.code	16                              @ @SH1106_Putc
	.thumb_func
SH1106_Putc:
.Lfunc_begin9:
	.loc	2 219 0 is_stmt 1               @ source/oled/SH1106.c:219:0
	.fnstart
	.cfi_startproc
@ %bb.0:
	.save	{r7, lr}
	push	{r7, lr}
	.cfi_def_cfa_offset 8
	.cfi_offset lr, -4
	.cfi_offset r7, -8
	.pad	#32
	sub	sp, #32
	.cfi_def_cfa_offset 40
                                        @ kill: def $r3 killed $r0
	add	r3, sp, #24
	strb	r0, [r3]
	str	r1, [sp, #20]
	str	r2, [sp, #16]
.Ltmp68:
	.loc	2 224 27 prologue_end           @ source/oled/SH1106.c:224:27
	ldr	r0, __arm_cp.9_0
	ldrh	r0, [r0]
	.loc	2 224 38 is_stmt 0              @ source/oled/SH1106.c:224:38
	ldr	r1, [sp, #20]
	.loc	2 224 44                        @ source/oled/SH1106.c:224:44
	ldrb	r1, [r1]
	.loc	2 224 36                        @ source/oled/SH1106.c:224:36
	adds	r0, r0, r1
	.loc	2 224 55                        @ source/oled/SH1106.c:224:55
	cmp	r0, #127
	bgt	.LBB9_2
	b	.LBB9_1
.LBB9_1:
	.loc	2 225 28 is_stmt 1              @ source/oled/SH1106.c:225:28
	ldr	r0, __arm_cp.9_0
	ldrh	r0, [r0, #2]
	.loc	2 225 39 is_stmt 0              @ source/oled/SH1106.c:225:39
	ldr	r1, [sp, #20]
	.loc	2 225 45                        @ source/oled/SH1106.c:225:45
	ldrb	r1, [r1, #1]
	.loc	2 225 37                        @ source/oled/SH1106.c:225:37
	adds	r0, r0, r1
.Ltmp69:
	.loc	2 224 3 is_stmt 1               @ source/oled/SH1106.c:224:3
	cmp	r0, #64
	blt	.LBB9_3
	b	.LBB9_2
.LBB9_2:
	.loc	2 0 3 is_stmt 0                 @ source/oled/SH1106.c:0:3
	add	r1, sp, #28
	movs	r0, #0
.Ltmp70:
	.loc	2 228 3 is_stmt 1               @ source/oled/SH1106.c:228:3
	strb	r0, [r1]
	b	.LBB9_15
.Ltmp71:
.LBB9_3:
	.loc	2 0 3 is_stmt 0                 @ source/oled/SH1106.c:0:3
	movs	r0, #0
.Ltmp72:
	.loc	2 232 9 is_stmt 1               @ source/oled/SH1106.c:232:9
	str	r0, [sp, #12]
	.loc	2 232 7 is_stmt 0               @ source/oled/SH1106.c:232:7
	b	.LBB9_4
.LBB9_4:                                @ =>This Loop Header: Depth=1
                                        @     Child Loop BB9_6 Depth 2
.Ltmp73:
	.loc	2 232 14                        @ source/oled/SH1106.c:232:14
	ldr	r0, [sp, #12]
	.loc	2 232 18                        @ source/oled/SH1106.c:232:18
	ldr	r1, [sp, #20]
	.loc	2 232 24                        @ source/oled/SH1106.c:232:24
	ldrb	r1, [r1, #1]
.Ltmp74:
	.loc	2 232 2                         @ source/oled/SH1106.c:232:2
	cmp	r0, r1
	bhs	.LBB9_14
	b	.LBB9_5
.LBB9_5:                                @   in Loop: Header=BB9_4 Depth=1
.Ltmp75:
	.loc	2 233 7 is_stmt 1               @ source/oled/SH1106.c:233:7
	ldr	r1, [sp, #20]
	.loc	2 233 13 is_stmt 0              @ source/oled/SH1106.c:233:13
	ldr	r0, [r1, #4]
	add	r2, sp, #24
	.loc	2 233 19                        @ source/oled/SH1106.c:233:19
	ldrb	r2, [r2]
	.loc	2 233 22                        @ source/oled/SH1106.c:233:22
	subs	r2, #32
	.loc	2 233 36                        @ source/oled/SH1106.c:233:36
	ldrb	r1, [r1, #1]
	.loc	2 233 28                        @ source/oled/SH1106.c:233:28
	muls	r1, r2, r1
	.loc	2 233 49                        @ source/oled/SH1106.c:233:49
	ldr	r2, [sp, #12]
	.loc	2 233 47                        @ source/oled/SH1106.c:233:47
	adds	r1, r1, r2
	.loc	2 233 7                         @ source/oled/SH1106.c:233:7
	lsls	r1, r1, #1
	ldrh	r0, [r0, r1]
	.loc	2 233 5                         @ source/oled/SH1106.c:233:5
	str	r0, [sp, #8]
	movs	r0, #0
.Ltmp76:
	.loc	2 234 10 is_stmt 1              @ source/oled/SH1106.c:234:10
	str	r0, [sp, #4]
	.loc	2 234 8 is_stmt 0               @ source/oled/SH1106.c:234:8
	b	.LBB9_6
.LBB9_6:                                @   Parent Loop BB9_4 Depth=1
                                        @ =>  This Inner Loop Header: Depth=2
.Ltmp77:
	.loc	2 234 15                        @ source/oled/SH1106.c:234:15
	ldr	r0, [sp, #4]
	.loc	2 234 19                        @ source/oled/SH1106.c:234:19
	ldr	r1, [sp, #20]
	.loc	2 234 25                        @ source/oled/SH1106.c:234:25
	ldrb	r1, [r1]
.Ltmp78:
	.loc	2 234 3                         @ source/oled/SH1106.c:234:3
	cmp	r0, r1
	bhs	.LBB9_12
	b	.LBB9_7
.LBB9_7:                                @   in Loop: Header=BB9_6 Depth=2
.Ltmp79:
	.loc	2 235 9 is_stmt 1               @ source/oled/SH1106.c:235:9
	ldr	r0, [sp, #8]
	.loc	2 235 14 is_stmt 0              @ source/oled/SH1106.c:235:14
	ldr	r1, [sp, #4]
	.loc	2 235 11                        @ source/oled/SH1106.c:235:11
	lsls	r0, r1
.Ltmp80:
	.loc	2 235 8                         @ source/oled/SH1106.c:235:8
	lsls	r0, r0, #16
	cmp	r0, #0
	bpl	.LBB9_9
	b	.LBB9_8
.LBB9_8:                                @   in Loop: Header=BB9_6 Depth=2
.Ltmp81:
	.loc	2 236 29 is_stmt 1              @ source/oled/SH1106.c:236:29
	ldr	r1, __arm_cp.9_0
	.loc	2 236 22 is_stmt 0              @ source/oled/SH1106.c:236:22
	ldrh	r0, [r1]
	.loc	2 236 40                        @ source/oled/SH1106.c:236:40
	ldr	r2, [sp, #4]
	.loc	2 236 38                        @ source/oled/SH1106.c:236:38
	adds	r0, r0, r2
	.loc	2 236 44                        @ source/oled/SH1106.c:236:44
	ldrh	r1, [r1, #2]
	.loc	2 236 62                        @ source/oled/SH1106.c:236:62
	ldr	r2, [sp, #12]
	.loc	2 236 60                        @ source/oled/SH1106.c:236:60
	adds	r1, r1, r2
	.loc	2 236 83                        @ source/oled/SH1106.c:236:83
	ldr	r2, [sp, #16]
	.loc	2 236 5                         @ source/oled/SH1106.c:236:5
	uxth	r0, r0
	uxth	r1, r1
	bl	SH1106_DrawPixel
	.loc	2 237 4 is_stmt 1               @ source/oled/SH1106.c:237:4
	b	.LBB9_10
.Ltmp82:
.LBB9_9:                                @   in Loop: Header=BB9_6 Depth=2
	.loc	2 238 29                        @ source/oled/SH1106.c:238:29
	ldr	r1, __arm_cp.9_0
	.loc	2 238 22 is_stmt 0              @ source/oled/SH1106.c:238:22
	ldrh	r0, [r1]
	.loc	2 238 40                        @ source/oled/SH1106.c:238:40
	ldr	r2, [sp, #4]
	.loc	2 238 38                        @ source/oled/SH1106.c:238:38
	adds	r0, r0, r2
	.loc	2 238 44                        @ source/oled/SH1106.c:238:44
	ldrh	r1, [r1, #2]
	.loc	2 238 62                        @ source/oled/SH1106.c:238:62
	ldr	r2, [sp, #12]
	.loc	2 238 60                        @ source/oled/SH1106.c:238:60
	adds	r1, r1, r2
	.loc	2 238 83                        @ source/oled/SH1106.c:238:83
	ldr	r2, [sp, #16]
	.loc	2 238 82                        @ source/oled/SH1106.c:238:82
	rsbs	r3, r2, #0
	adcs	r2, r3
	.loc	2 238 5                         @ source/oled/SH1106.c:238:5
	uxth	r0, r0
	uxth	r1, r1
	bl	SH1106_DrawPixel
	b	.LBB9_10
.Ltmp83:
.LBB9_10:                               @   in Loop: Header=BB9_6 Depth=2
	.loc	2 240 3 is_stmt 1               @ source/oled/SH1106.c:240:3
	b	.LBB9_11
.Ltmp84:
.LBB9_11:                               @   in Loop: Header=BB9_6 Depth=2
	.loc	2 234 37                        @ source/oled/SH1106.c:234:37
	ldr	r0, [sp, #4]
	adds	r0, r0, #1
	str	r0, [sp, #4]
	.loc	2 234 3 is_stmt 0               @ source/oled/SH1106.c:234:3
	b	.LBB9_6
.Ltmp85:
.LBB9_12:                               @   in Loop: Header=BB9_4 Depth=1
	.loc	2 241 2 is_stmt 1               @ source/oled/SH1106.c:241:2
	b	.LBB9_13
.Ltmp86:
.LBB9_13:                               @   in Loop: Header=BB9_4 Depth=1
	.loc	2 232 37                        @ source/oled/SH1106.c:232:37
	ldr	r0, [sp, #12]
	adds	r0, r0, #1
	str	r0, [sp, #12]
	.loc	2 232 2 is_stmt 0               @ source/oled/SH1106.c:232:2
	b	.LBB9_4
.Ltmp87:
.LBB9_14:
	.loc	2 244 21 is_stmt 1              @ source/oled/SH1106.c:244:21
	ldr	r0, [sp, #20]
	.loc	2 244 27 is_stmt 0              @ source/oled/SH1106.c:244:27
	ldrb	r2, [r0]
	.loc	2 244 18                        @ source/oled/SH1106.c:244:18
	ldr	r1, __arm_cp.9_0
	ldrh	r0, [r1]
	adds	r0, r0, r2
	strh	r0, [r1]
	.loc	2 247 9 is_stmt 1               @ source/oled/SH1106.c:247:9
	ldr	r0, [sp, #24]
	add	r1, sp, #28
	.loc	2 247 2 is_stmt 0               @ source/oled/SH1106.c:247:2
	strb	r0, [r1]
	b	.LBB9_15
.LBB9_15:
	.loc	2 0 2                           @ source/oled/SH1106.c:0:2
	add	r0, sp, #28
	.loc	2 248 1 is_stmt 1               @ source/oled/SH1106.c:248:1
	ldrb	r0, [r0]
	.loc	2 248 1 epilogue_begin is_stmt 0 @ source/oled/SH1106.c:248:1
	add	sp, #32
	pop	{r7, pc}
.Ltmp88:
	.loc	2 0 1                           @ :0:1
.Ltmp89:
	.p2align	2
@ %bb.16:
__arm_cp.9_0:
	.long	SH1106
.Lcpi_end14:
	.size	__arm_cp.9_0, .Lcpi_end14-__arm_cp.9_0
.Lfunc_end9:
	.size	SH1106_Putc, .Lfunc_end9-SH1106_Putc
	.cfi_endproc
	.cantunwind
	.fnend
                                        @ -- End function
	.section	.text.SH1106_Puts,"ax",%progbits
	.hidden	SH1106_Puts                     @ -- Begin function SH1106_Puts
	.globl	SH1106_Puts
	.p2align	1
	.type	SH1106_Puts,%function
	.code	16                              @ @SH1106_Puts
	.thumb_func
SH1106_Puts:
.Lfunc_begin10:
	.loc	2 250 0 is_stmt 1               @ source/oled/SH1106.c:250:0
	.fnstart
	.cfi_startproc
@ %bb.0:
	.save	{r7, lr}
	push	{r7, lr}
	.cfi_def_cfa_offset 8
	.cfi_offset lr, -4
	.cfi_offset r7, -8
	.pad	#16
	sub	sp, #16
	.cfi_def_cfa_offset 24
	str	r0, [sp, #8]
	str	r1, [sp, #4]
	str	r2, [sp]
.Ltmp90:
	.loc	2 252 2 prologue_end            @ source/oled/SH1106.c:252:2
	b	.LBB10_1
.LBB10_1:                               @ =>This Inner Loop Header: Depth=1
	.loc	2 252 10 is_stmt 0              @ source/oled/SH1106.c:252:10
	ldr	r0, [sp, #8]
	.loc	2 252 9                         @ source/oled/SH1106.c:252:9
	ldrb	r0, [r0]
	.loc	2 252 2                         @ source/oled/SH1106.c:252:2
	cbz	r0, .LBB10_5
	b	.LBB10_2
.LBB10_2:                               @   in Loop: Header=BB10_1 Depth=1
.Ltmp91:
	.loc	2 254 20 is_stmt 1              @ source/oled/SH1106.c:254:20
	ldr	r0, [sp, #8]
	.loc	2 254 19 is_stmt 0              @ source/oled/SH1106.c:254:19
	ldrb	r0, [r0]
	.loc	2 254 25                        @ source/oled/SH1106.c:254:25
	ldr	r1, [sp, #4]
	.loc	2 254 31                        @ source/oled/SH1106.c:254:31
	ldr	r2, [sp]
	.loc	2 254 7                         @ source/oled/SH1106.c:254:7
	bl	SH1106_Putc
	.loc	2 254 42                        @ source/oled/SH1106.c:254:42
	ldr	r1, [sp, #8]
	.loc	2 254 41                        @ source/oled/SH1106.c:254:41
	ldrb	r1, [r1]
.Ltmp92:
	.loc	2 254 7                         @ source/oled/SH1106.c:254:7
	cmp	r0, r1
	beq	.LBB10_4
	b	.LBB10_3
.LBB10_3:
.Ltmp93:
	.loc	2 256 12 is_stmt 1              @ source/oled/SH1106.c:256:12
	ldr	r0, [sp, #8]
	.loc	2 256 11 is_stmt 0              @ source/oled/SH1106.c:256:11
	ldrb	r0, [r0]
	add	r1, sp, #12
	.loc	2 256 4                         @ source/oled/SH1106.c:256:4
	strb	r0, [r1]
	b	.LBB10_6
.Ltmp94:
.LBB10_4:                               @   in Loop: Header=BB10_1 Depth=1
	.loc	2 260 6 is_stmt 1               @ source/oled/SH1106.c:260:6
	ldr	r0, [sp, #8]
	adds	r0, r0, #1
	str	r0, [sp, #8]
.Ltmp95:
	.loc	2 252 2                         @ source/oled/SH1106.c:252:2
	b	.LBB10_1
.LBB10_5:
	.loc	2 264 10                        @ source/oled/SH1106.c:264:10
	ldr	r0, [sp, #8]
	.loc	2 264 9 is_stmt 0               @ source/oled/SH1106.c:264:9
	ldrb	r0, [r0]
	add	r1, sp, #12
	.loc	2 264 2                         @ source/oled/SH1106.c:264:2
	strb	r0, [r1]
	b	.LBB10_6
.LBB10_6:
	.loc	2 0 2                           @ source/oled/SH1106.c:0:2
	add	r0, sp, #12
	.loc	2 265 1 is_stmt 1               @ source/oled/SH1106.c:265:1
	ldrb	r0, [r0]
	.loc	2 265 1 epilogue_begin is_stmt 0 @ source/oled/SH1106.c:265:1
	add	sp, #16
	pop	{r7, pc}
.Ltmp96:
.Lfunc_end10:
	.size	SH1106_Puts, .Lfunc_end10-SH1106_Puts
	.cfi_endproc
	.cantunwind
	.fnend
                                        @ -- End function
	.section	.text.SH1106_DrawLine,"ax",%progbits
	.hidden	SH1106_DrawLine                 @ -- Begin function SH1106_DrawLine
	.globl	SH1106_DrawLine
	.p2align	1
	.type	SH1106_DrawLine,%function
	.code	16                              @ @SH1106_DrawLine
	.thumb_func
SH1106_DrawLine:
.Lfunc_begin11:
	.loc	2 268 0 is_stmt 1               @ source/oled/SH1106.c:268:0
	.fnstart
	.cfi_startproc
@ %bb.0:
	.save	{r4, lr}
	push	{r4, lr}
	.cfi_def_cfa_offset 8
	.cfi_offset lr, -4
	.cfi_offset r4, -8
	.pad	#88
	sub	sp, #88
	.cfi_def_cfa_offset 96
	mov	r4, r0
	ldr	r0, [sp, #96]
                                        @ kill: def $r0 killed $r3
                                        @ kill: def $r0 killed $r2
                                        @ kill: def $r0 killed $r1
                                        @ kill: def $r0 killed $r4
	add	r0, sp, #84
	strh	r4, [r0]
	add	r4, sp, #80
	strh	r1, [r4]
	add	r1, sp, #76
	strh	r2, [r1]
	add	r1, sp, #72
	strh	r3, [r1]
.Ltmp97:
	.loc	2 272 6 prologue_end            @ source/oled/SH1106.c:272:6
	ldrh	r0, [r0]
.Ltmp98:
	.loc	2 272 6 is_stmt 0               @ source/oled/SH1106.c:272:6
	cmp	r0, #128
	blt	.LBB11_2
	b	.LBB11_1
.LBB11_1:
	.loc	2 0 6                           @ source/oled/SH1106.c:0:6
	add	r1, sp, #84
	movs	r0, #127
.Ltmp99:
	.loc	2 273 6 is_stmt 1               @ source/oled/SH1106.c:273:6
	strh	r0, [r1]
	.loc	2 274 2                         @ source/oled/SH1106.c:274:2
	b	.LBB11_2
.Ltmp100:
.LBB11_2:
	.loc	2 0 2 is_stmt 0                 @ source/oled/SH1106.c:0:2
	add	r0, sp, #76
.Ltmp101:
	.loc	2 275 6 is_stmt 1               @ source/oled/SH1106.c:275:6
	ldrh	r0, [r0]
.Ltmp102:
	.loc	2 275 6 is_stmt 0               @ source/oled/SH1106.c:275:6
	cmp	r0, #128
	blt	.LBB11_4
	b	.LBB11_3
.LBB11_3:
	.loc	2 0 6                           @ source/oled/SH1106.c:0:6
	add	r1, sp, #76
	movs	r0, #127
.Ltmp103:
	.loc	2 276 6 is_stmt 1               @ source/oled/SH1106.c:276:6
	strh	r0, [r1]
	.loc	2 277 2                         @ source/oled/SH1106.c:277:2
	b	.LBB11_4
.Ltmp104:
.LBB11_4:
	.loc	2 0 2 is_stmt 0                 @ source/oled/SH1106.c:0:2
	add	r0, sp, #80
.Ltmp105:
	.loc	2 278 6 is_stmt 1               @ source/oled/SH1106.c:278:6
	ldrh	r0, [r0]
.Ltmp106:
	.loc	2 278 6 is_stmt 0               @ source/oled/SH1106.c:278:6
	cmp	r0, #64
	blt	.LBB11_6
	b	.LBB11_5
.LBB11_5:
	.loc	2 0 6                           @ source/oled/SH1106.c:0:6
	add	r1, sp, #80
	movs	r0, #63
.Ltmp107:
	.loc	2 279 6 is_stmt 1               @ source/oled/SH1106.c:279:6
	strh	r0, [r1]
	.loc	2 280 2                         @ source/oled/SH1106.c:280:2
	b	.LBB11_6
.Ltmp108:
.LBB11_6:
	.loc	2 0 2 is_stmt 0                 @ source/oled/SH1106.c:0:2
	add	r0, sp, #72
.Ltmp109:
	.loc	2 281 6 is_stmt 1               @ source/oled/SH1106.c:281:6
	ldrh	r0, [r0]
.Ltmp110:
	.loc	2 281 6 is_stmt 0               @ source/oled/SH1106.c:281:6
	cmp	r0, #64
	blt	.LBB11_8
	b	.LBB11_7
.LBB11_7:
	.loc	2 0 6                           @ source/oled/SH1106.c:0:6
	add	r1, sp, #72
	movs	r0, #63
.Ltmp111:
	.loc	2 282 6 is_stmt 1               @ source/oled/SH1106.c:282:6
	strh	r0, [r1]
	.loc	2 283 2                         @ source/oled/SH1106.c:283:2
	b	.LBB11_8
.Ltmp112:
.LBB11_8:
	.loc	2 0 2 is_stmt 0                 @ source/oled/SH1106.c:0:2
	add	r0, sp, #84
	.loc	2 285 8 is_stmt 1               @ source/oled/SH1106.c:285:8
	ldrh	r0, [r0]
	add	r1, sp, #76
	.loc	2 285 13 is_stmt 0              @ source/oled/SH1106.c:285:13
	ldrh	r1, [r1]
	.loc	2 285 7                         @ source/oled/SH1106.c:285:7
	cmp	r0, r1
	bge	.LBB11_10
	b	.LBB11_9
.LBB11_9:
	.loc	2 0 7                           @ source/oled/SH1106.c:0:7
	add	r0, sp, #76
	.loc	2 285 20                        @ source/oled/SH1106.c:285:20
	ldrh	r0, [r0]
	add	r1, sp, #84
	.loc	2 285 25                        @ source/oled/SH1106.c:285:25
	ldrh	r1, [r1]
	.loc	2 285 23                        @ source/oled/SH1106.c:285:23
	subs	r0, r0, r1
	.loc	2 285 7                         @ source/oled/SH1106.c:285:7
	str	r0, [sp, #36]                   @ 4-byte Spill
	b	.LBB11_11
.LBB11_10:
	.loc	2 0 7                           @ source/oled/SH1106.c:0:7
	add	r0, sp, #84
	.loc	2 285 32                        @ source/oled/SH1106.c:285:32
	ldrh	r0, [r0]
	add	r1, sp, #76
	.loc	2 285 37                        @ source/oled/SH1106.c:285:37
	ldrh	r1, [r1]
	.loc	2 285 35                        @ source/oled/SH1106.c:285:35
	subs	r0, r0, r1
	.loc	2 285 7                         @ source/oled/SH1106.c:285:7
	str	r0, [sp, #36]                   @ 4-byte Spill
	b	.LBB11_11
.LBB11_11:
	ldr	r0, [sp, #36]                   @ 4-byte Reload
	add	r1, sp, #68
	.loc	2 285 5                         @ source/oled/SH1106.c:285:5
	strh	r0, [r1]
	add	r0, sp, #80
	.loc	2 286 8 is_stmt 1               @ source/oled/SH1106.c:286:8
	ldrh	r0, [r0]
	add	r1, sp, #72
	.loc	2 286 13 is_stmt 0              @ source/oled/SH1106.c:286:13
	ldrh	r1, [r1]
	.loc	2 286 7                         @ source/oled/SH1106.c:286:7
	cmp	r0, r1
	bge	.LBB11_13
	b	.LBB11_12
.LBB11_12:
	.loc	2 0 7                           @ source/oled/SH1106.c:0:7
	add	r0, sp, #72
	.loc	2 286 20                        @ source/oled/SH1106.c:286:20
	ldrh	r0, [r0]
	add	r1, sp, #80
	.loc	2 286 25                        @ source/oled/SH1106.c:286:25
	ldrh	r1, [r1]
	.loc	2 286 23                        @ source/oled/SH1106.c:286:23
	subs	r0, r0, r1
	.loc	2 286 7                         @ source/oled/SH1106.c:286:7
	str	r0, [sp, #32]                   @ 4-byte Spill
	b	.LBB11_14
.LBB11_13:
	.loc	2 0 7                           @ source/oled/SH1106.c:0:7
	add	r0, sp, #80
	.loc	2 286 32                        @ source/oled/SH1106.c:286:32
	ldrh	r0, [r0]
	add	r1, sp, #72
	.loc	2 286 37                        @ source/oled/SH1106.c:286:37
	ldrh	r1, [r1]
	.loc	2 286 35                        @ source/oled/SH1106.c:286:35
	subs	r0, r0, r1
	.loc	2 286 7                         @ source/oled/SH1106.c:286:7
	str	r0, [sp, #32]                   @ 4-byte Spill
	b	.LBB11_14
.LBB11_14:
	ldr	r0, [sp, #32]                   @ 4-byte Reload
	add	r1, sp, #64
	.loc	2 286 5                         @ source/oled/SH1106.c:286:5
	str	r1, [sp, #12]                   @ 4-byte Spill
	strh	r0, [r1]
	add	r0, sp, #84
	.loc	2 287 8 is_stmt 1               @ source/oled/SH1106.c:287:8
	ldrh	r1, [r0]
	add	r0, sp, #76
	.loc	2 287 13 is_stmt 0              @ source/oled/SH1106.c:287:13
	ldrh	r2, [r0]
	movs	r0, #0
	str	r0, [sp, #16]                   @ 4-byte Spill
	mvns	r0, r0
	str	r0, [sp, #20]                   @ 4-byte Spill
	movs	r0, #1
	.loc	2 287 7                         @ source/oled/SH1106.c:287:7
	str	r0, [sp, #24]                   @ 4-byte Spill
	cmp	r1, r2
	str	r0, [sp, #28]                   @ 4-byte Spill
	blt	.LBB11_16
@ %bb.15:
	.loc	2 0 7                           @ source/oled/SH1106.c:0:7
	ldr	r0, [sp, #20]                   @ 4-byte Reload
	str	r0, [sp, #28]                   @ 4-byte Spill
.LBB11_16:
	.loc	2 287 7                         @ source/oled/SH1106.c:287:7
	ldr	r0, [sp, #24]                   @ 4-byte Reload
	ldr	r1, [sp, #28]                   @ 4-byte Reload
	add	r2, sp, #60
	.loc	2 287 5                         @ source/oled/SH1106.c:287:5
	strh	r1, [r2]
	add	r1, sp, #80
	.loc	2 288 8 is_stmt 1               @ source/oled/SH1106.c:288:8
	ldrh	r1, [r1]
	add	r2, sp, #72
	.loc	2 288 13 is_stmt 0              @ source/oled/SH1106.c:288:13
	ldrh	r2, [r2]
	.loc	2 288 7                         @ source/oled/SH1106.c:288:7
	cmp	r1, r2
	str	r0, [sp, #8]                    @ 4-byte Spill
	blt	.LBB11_18
@ %bb.17:
	.loc	2 0 7                           @ source/oled/SH1106.c:0:7
	ldr	r0, [sp, #20]                   @ 4-byte Reload
	str	r0, [sp, #8]                    @ 4-byte Spill
.LBB11_18:
	.loc	2 288 7                         @ source/oled/SH1106.c:288:7
	ldr	r1, [sp, #12]                   @ 4-byte Reload
	ldr	r2, [sp, #16]                   @ 4-byte Reload
	ldr	r0, [sp, #8]                    @ 4-byte Reload
	add	r3, sp, #56
	.loc	2 288 5                         @ source/oled/SH1106.c:288:5
	strh	r0, [r3]
	add	r0, sp, #68
	.loc	2 289 10 is_stmt 1              @ source/oled/SH1106.c:289:10
	ldrsh	r0, [r0, r2]
	.loc	2 289 15 is_stmt 0              @ source/oled/SH1106.c:289:15
	ldrsh	r1, [r1, r2]
	.loc	2 289 9                         @ source/oled/SH1106.c:289:9
	cmp	r0, r1
	ble	.LBB11_20
	b	.LBB11_19
.LBB11_19:
	.loc	2 289 21                        @ source/oled/SH1106.c:289:21
	movs	r1, #0
	add	r0, sp, #68
	ldrsh	r0, [r0, r1]
	.loc	2 289 9                         @ source/oled/SH1106.c:289:9
	str	r0, [sp, #4]                    @ 4-byte Spill
	b	.LBB11_21
.LBB11_20:
	.loc	2 289 27                        @ source/oled/SH1106.c:289:27
	movs	r1, #0
	add	r0, sp, #64
	ldrsh	r0, [r0, r1]
	.loc	2 289 26                        @ source/oled/SH1106.c:289:26
	rsbs	r0, r0, #0
	.loc	2 289 9                         @ source/oled/SH1106.c:289:9
	str	r0, [sp, #4]                    @ 4-byte Spill
	b	.LBB11_21
.LBB11_21:
	ldr	r0, [sp, #4]                    @ 4-byte Reload
	.loc	2 289 31                        @ source/oled/SH1106.c:289:31
	lsrs	r1, r0, #31
	adds	r0, r0, r1
	lsrs	r0, r0, #1
	add	r1, sp, #52
	.loc	2 289 6                         @ source/oled/SH1106.c:289:6
	strh	r0, [r1]
.Ltmp113:
	.loc	2 291 6 is_stmt 1               @ source/oled/SH1106.c:291:6
	movs	r1, #0
	add	r0, sp, #68
	ldrsh	r0, [r0, r1]
.Ltmp114:
	.loc	2 291 6 is_stmt 0               @ source/oled/SH1106.c:291:6
	cbnz	r0, .LBB11_31
	b	.LBB11_22
.LBB11_22:
	.loc	2 0 6                           @ source/oled/SH1106.c:0:6
	add	r0, sp, #72
.Ltmp115:
	.loc	2 292 7 is_stmt 1               @ source/oled/SH1106.c:292:7
	ldrh	r0, [r0]
	add	r1, sp, #80
	.loc	2 292 12 is_stmt 0              @ source/oled/SH1106.c:292:12
	ldrh	r1, [r1]
.Ltmp116:
	.loc	2 292 7                         @ source/oled/SH1106.c:292:7
	cmp	r0, r1
	bge	.LBB11_24
	b	.LBB11_23
.LBB11_23:
.Ltmp117:
	.loc	2 293 10 is_stmt 1              @ source/oled/SH1106.c:293:10
	ldr	r0, [sp, #72]
	add	r1, sp, #40
	.loc	2 293 8 is_stmt 0               @ source/oled/SH1106.c:293:8
	strh	r0, [r1]
	.loc	2 294 9 is_stmt 1               @ source/oled/SH1106.c:294:9
	ldr	r0, [sp, #80]
	add	r1, sp, #72
	.loc	2 294 7 is_stmt 0               @ source/oled/SH1106.c:294:7
	strh	r0, [r1]
	.loc	2 295 9 is_stmt 1               @ source/oled/SH1106.c:295:9
	ldr	r0, [sp, #40]
	add	r1, sp, #80
	.loc	2 295 7 is_stmt 0               @ source/oled/SH1106.c:295:7
	strh	r0, [r1]
	.loc	2 296 3 is_stmt 1               @ source/oled/SH1106.c:296:3
	b	.LBB11_24
.Ltmp118:
.LBB11_24:
	.loc	2 0 3 is_stmt 0                 @ source/oled/SH1106.c:0:3
	add	r0, sp, #76
.Ltmp119:
	.loc	2 298 7 is_stmt 1               @ source/oled/SH1106.c:298:7
	ldrh	r0, [r0]
	add	r1, sp, #84
	.loc	2 298 12 is_stmt 0              @ source/oled/SH1106.c:298:12
	ldrh	r1, [r1]
.Ltmp120:
	.loc	2 298 7                         @ source/oled/SH1106.c:298:7
	cmp	r0, r1
	bge	.LBB11_26
	b	.LBB11_25
.LBB11_25:
.Ltmp121:
	.loc	2 299 10 is_stmt 1              @ source/oled/SH1106.c:299:10
	ldr	r0, [sp, #76]
	add	r1, sp, #40
	.loc	2 299 8 is_stmt 0               @ source/oled/SH1106.c:299:8
	strh	r0, [r1]
	.loc	2 300 9 is_stmt 1               @ source/oled/SH1106.c:300:9
	ldr	r0, [sp, #84]
	add	r1, sp, #76
	.loc	2 300 7 is_stmt 0               @ source/oled/SH1106.c:300:7
	strh	r0, [r1]
	.loc	2 301 9 is_stmt 1               @ source/oled/SH1106.c:301:9
	ldr	r0, [sp, #40]
	add	r1, sp, #84
	.loc	2 301 7 is_stmt 0               @ source/oled/SH1106.c:301:7
	strh	r0, [r1]
	.loc	2 302 3 is_stmt 1               @ source/oled/SH1106.c:302:3
	b	.LBB11_26
.Ltmp122:
.LBB11_26:
	.loc	2 305 12                        @ source/oled/SH1106.c:305:12
	ldr	r0, [sp, #80]
	add	r1, sp, #44
	.loc	2 305 10 is_stmt 0              @ source/oled/SH1106.c:305:10
	strh	r0, [r1]
	.loc	2 305 8                         @ source/oled/SH1106.c:305:8
	b	.LBB11_27
.LBB11_27:                              @ =>This Inner Loop Header: Depth=1
.Ltmp123:
	.loc	2 305 16                        @ source/oled/SH1106.c:305:16
	movs	r1, #0
	add	r0, sp, #44
	ldrsh	r0, [r0, r1]
	add	r1, sp, #72
	.loc	2 305 21                        @ source/oled/SH1106.c:305:21
	ldrh	r1, [r1]
.Ltmp124:
	.loc	2 305 3                         @ source/oled/SH1106.c:305:3
	cmp	r0, r1
	bgt	.LBB11_30
	b	.LBB11_28
.LBB11_28:                              @   in Loop: Header=BB11_27 Depth=1
	.loc	2 0 3                           @ source/oled/SH1106.c:0:3
	add	r0, sp, #84
.Ltmp125:
	.loc	2 306 21 is_stmt 1              @ source/oled/SH1106.c:306:21
	ldrh	r0, [r0]
	add	r1, sp, #44
	.loc	2 306 25 is_stmt 0              @ source/oled/SH1106.c:306:25
	ldrh	r1, [r1]
	.loc	2 306 28                        @ source/oled/SH1106.c:306:28
	ldr	r2, [sp, #96]
	.loc	2 306 4                         @ source/oled/SH1106.c:306:4
	bl	SH1106_DrawPixel
	.loc	2 307 3 is_stmt 1               @ source/oled/SH1106.c:307:3
	b	.LBB11_29
.Ltmp126:
.LBB11_29:                              @   in Loop: Header=BB11_27 Depth=1
	.loc	2 305 26                        @ source/oled/SH1106.c:305:26
	ldr	r0, [sp, #44]
	adds	r0, r0, #1
	add	r1, sp, #44
	strh	r0, [r1]
	.loc	2 305 3 is_stmt 0               @ source/oled/SH1106.c:305:3
	b	.LBB11_27
.Ltmp127:
.LBB11_30:
	.loc	2 310 3 is_stmt 1               @ source/oled/SH1106.c:310:3
	b	.LBB11_50
.Ltmp128:
.LBB11_31:
	.loc	2 313 6                         @ source/oled/SH1106.c:313:6
	movs	r1, #0
	add	r0, sp, #64
	ldrsh	r0, [r0, r1]
.Ltmp129:
	.loc	2 313 6 is_stmt 0               @ source/oled/SH1106.c:313:6
	cbnz	r0, .LBB11_41
	b	.LBB11_32
.LBB11_32:
	.loc	2 0 6                           @ source/oled/SH1106.c:0:6
	add	r0, sp, #72
.Ltmp130:
	.loc	2 314 7 is_stmt 1               @ source/oled/SH1106.c:314:7
	ldrh	r0, [r0]
	add	r1, sp, #80
	.loc	2 314 12 is_stmt 0              @ source/oled/SH1106.c:314:12
	ldrh	r1, [r1]
.Ltmp131:
	.loc	2 314 7                         @ source/oled/SH1106.c:314:7
	cmp	r0, r1
	bge	.LBB11_34
	b	.LBB11_33
.LBB11_33:
.Ltmp132:
	.loc	2 315 10 is_stmt 1              @ source/oled/SH1106.c:315:10
	ldr	r0, [sp, #72]
	add	r1, sp, #40
	.loc	2 315 8 is_stmt 0               @ source/oled/SH1106.c:315:8
	strh	r0, [r1]
	.loc	2 316 9 is_stmt 1               @ source/oled/SH1106.c:316:9
	ldr	r0, [sp, #80]
	add	r1, sp, #72
	.loc	2 316 7 is_stmt 0               @ source/oled/SH1106.c:316:7
	strh	r0, [r1]
	.loc	2 317 9 is_stmt 1               @ source/oled/SH1106.c:317:9
	ldr	r0, [sp, #40]
	add	r1, sp, #80
	.loc	2 317 7 is_stmt 0               @ source/oled/SH1106.c:317:7
	strh	r0, [r1]
	.loc	2 318 3 is_stmt 1               @ source/oled/SH1106.c:318:3
	b	.LBB11_34
.Ltmp133:
.LBB11_34:
	.loc	2 0 3 is_stmt 0                 @ source/oled/SH1106.c:0:3
	add	r0, sp, #76
.Ltmp134:
	.loc	2 320 7 is_stmt 1               @ source/oled/SH1106.c:320:7
	ldrh	r0, [r0]
	add	r1, sp, #84
	.loc	2 320 12 is_stmt 0              @ source/oled/SH1106.c:320:12
	ldrh	r1, [r1]
.Ltmp135:
	.loc	2 320 7                         @ source/oled/SH1106.c:320:7
	cmp	r0, r1
	bge	.LBB11_36
	b	.LBB11_35
.LBB11_35:
.Ltmp136:
	.loc	2 321 10 is_stmt 1              @ source/oled/SH1106.c:321:10
	ldr	r0, [sp, #76]
	add	r1, sp, #40
	.loc	2 321 8 is_stmt 0               @ source/oled/SH1106.c:321:8
	strh	r0, [r1]
	.loc	2 322 9 is_stmt 1               @ source/oled/SH1106.c:322:9
	ldr	r0, [sp, #84]
	add	r1, sp, #76
	.loc	2 322 7 is_stmt 0               @ source/oled/SH1106.c:322:7
	strh	r0, [r1]
	.loc	2 323 9 is_stmt 1               @ source/oled/SH1106.c:323:9
	ldr	r0, [sp, #40]
	add	r1, sp, #84
	.loc	2 323 7 is_stmt 0               @ source/oled/SH1106.c:323:7
	strh	r0, [r1]
	.loc	2 324 3 is_stmt 1               @ source/oled/SH1106.c:324:3
	b	.LBB11_36
.Ltmp137:
.LBB11_36:
	.loc	2 327 12                        @ source/oled/SH1106.c:327:12
	ldr	r0, [sp, #84]
	add	r1, sp, #44
	.loc	2 327 10 is_stmt 0              @ source/oled/SH1106.c:327:10
	strh	r0, [r1]
	.loc	2 327 8                         @ source/oled/SH1106.c:327:8
	b	.LBB11_37
.LBB11_37:                              @ =>This Inner Loop Header: Depth=1
.Ltmp138:
	.loc	2 327 16                        @ source/oled/SH1106.c:327:16
	movs	r1, #0
	add	r0, sp, #44
	ldrsh	r0, [r0, r1]
	add	r1, sp, #76
	.loc	2 327 21                        @ source/oled/SH1106.c:327:21
	ldrh	r1, [r1]
.Ltmp139:
	.loc	2 327 3                         @ source/oled/SH1106.c:327:3
	cmp	r0, r1
	bgt	.LBB11_40
	b	.LBB11_38
.LBB11_38:                              @   in Loop: Header=BB11_37 Depth=1
	.loc	2 0 3                           @ source/oled/SH1106.c:0:3
	add	r0, sp, #44
.Ltmp140:
	.loc	2 328 21 is_stmt 1              @ source/oled/SH1106.c:328:21
	ldrh	r0, [r0]
	add	r1, sp, #80
	.loc	2 328 24 is_stmt 0              @ source/oled/SH1106.c:328:24
	ldrh	r1, [r1]
	.loc	2 328 28                        @ source/oled/SH1106.c:328:28
	ldr	r2, [sp, #96]
	.loc	2 328 4                         @ source/oled/SH1106.c:328:4
	bl	SH1106_DrawPixel
	.loc	2 329 3 is_stmt 1               @ source/oled/SH1106.c:329:3
	b	.LBB11_39
.Ltmp141:
.LBB11_39:                              @   in Loop: Header=BB11_37 Depth=1
	.loc	2 327 26                        @ source/oled/SH1106.c:327:26
	ldr	r0, [sp, #44]
	adds	r0, r0, #1
	add	r1, sp, #44
	strh	r0, [r1]
	.loc	2 327 3 is_stmt 0               @ source/oled/SH1106.c:327:3
	b	.LBB11_37
.Ltmp142:
.LBB11_40:
	.loc	2 332 3 is_stmt 1               @ source/oled/SH1106.c:332:3
	b	.LBB11_50
.Ltmp143:
.LBB11_41:
	.loc	2 335 2                         @ source/oled/SH1106.c:335:2
	b	.LBB11_42
.LBB11_42:                              @ =>This Inner Loop Header: Depth=1
	.loc	2 0 2 is_stmt 0                 @ source/oled/SH1106.c:0:2
	add	r0, sp, #84
.Ltmp144:
	.loc	2 336 20 is_stmt 1              @ source/oled/SH1106.c:336:20
	str	r0, [sp]                        @ 4-byte Spill
	ldrh	r0, [r0]
	add	r1, sp, #80
	.loc	2 336 24 is_stmt 0              @ source/oled/SH1106.c:336:24
	ldrh	r1, [r1]
	.loc	2 336 28                        @ source/oled/SH1106.c:336:28
	ldr	r2, [sp, #96]
	.loc	2 336 3                         @ source/oled/SH1106.c:336:3
	bl	SH1106_DrawPixel
	ldr	r0, [sp]                        @ 4-byte Reload
.Ltmp145:
	.loc	2 337 7 is_stmt 1               @ source/oled/SH1106.c:337:7
	ldrh	r0, [r0]
	add	r1, sp, #76
	.loc	2 337 13 is_stmt 0              @ source/oled/SH1106.c:337:13
	ldrh	r1, [r1]
	.loc	2 337 16                        @ source/oled/SH1106.c:337:16
	cmp	r0, r1
	bne	.LBB11_45
	b	.LBB11_43
.LBB11_43:                              @   in Loop: Header=BB11_42 Depth=1
	.loc	2 0 16                          @ source/oled/SH1106.c:0:16
	add	r0, sp, #80
	.loc	2 337 19                        @ source/oled/SH1106.c:337:19
	ldrh	r0, [r0]
	add	r1, sp, #72
	.loc	2 337 25                        @ source/oled/SH1106.c:337:25
	ldrh	r1, [r1]
.Ltmp146:
	.loc	2 337 7                         @ source/oled/SH1106.c:337:7
	cmp	r0, r1
	bne	.LBB11_45
	b	.LBB11_44
.LBB11_44:
.Ltmp147:
	.loc	2 338 4 is_stmt 1               @ source/oled/SH1106.c:338:4
	b	.LBB11_50
.Ltmp148:
.LBB11_45:                              @   in Loop: Header=BB11_42 Depth=1
	.loc	2 340 8                         @ source/oled/SH1106.c:340:8
	ldr	r1, [sp, #52]
	add	r0, sp, #48
	.loc	2 340 6 is_stmt 0               @ source/oled/SH1106.c:340:6
	strh	r1, [r0]
	movs	r2, #0
.Ltmp149:
	.loc	2 341 7 is_stmt 1               @ source/oled/SH1106.c:341:7
	ldrsh	r0, [r0, r2]
	add	r1, sp, #68
	.loc	2 341 13 is_stmt 0              @ source/oled/SH1106.c:341:13
	ldrsh	r1, [r1, r2]
	.loc	2 341 12                        @ source/oled/SH1106.c:341:12
	rsbs	r1, r1, #0
.Ltmp150:
	.loc	2 341 7                         @ source/oled/SH1106.c:341:7
	cmp	r0, r1
	ble	.LBB11_47
	b	.LBB11_46
.LBB11_46:                              @   in Loop: Header=BB11_42 Depth=1
.Ltmp151:
	.loc	2 342 11 is_stmt 1              @ source/oled/SH1106.c:342:11
	ldr	r1, [sp, #64]
	.loc	2 342 8 is_stmt 0               @ source/oled/SH1106.c:342:8
	ldr	r0, [sp, #52]
	subs	r0, r0, r1
	add	r1, sp, #52
	strh	r0, [r1]
	.loc	2 343 10 is_stmt 1              @ source/oled/SH1106.c:343:10
	ldr	r1, [sp, #60]
	.loc	2 343 7 is_stmt 0               @ source/oled/SH1106.c:343:7
	ldr	r0, [sp, #84]
	adds	r0, r0, r1
	add	r1, sp, #84
	strh	r0, [r1]
	.loc	2 344 3 is_stmt 1               @ source/oled/SH1106.c:344:3
	b	.LBB11_47
.Ltmp152:
.LBB11_47:                              @   in Loop: Header=BB11_42 Depth=1
	.loc	2 345 7                         @ source/oled/SH1106.c:345:7
	movs	r2, #0
	add	r0, sp, #48
	ldrsh	r0, [r0, r2]
	add	r1, sp, #64
	.loc	2 345 12 is_stmt 0              @ source/oled/SH1106.c:345:12
	ldrsh	r1, [r1, r2]
.Ltmp153:
	.loc	2 345 7                         @ source/oled/SH1106.c:345:7
	cmp	r0, r1
	bge	.LBB11_49
	b	.LBB11_48
.LBB11_48:                              @   in Loop: Header=BB11_42 Depth=1
.Ltmp154:
	.loc	2 346 11 is_stmt 1              @ source/oled/SH1106.c:346:11
	ldr	r1, [sp, #68]
	.loc	2 346 8 is_stmt 0               @ source/oled/SH1106.c:346:8
	ldr	r0, [sp, #52]
	adds	r0, r0, r1
	add	r1, sp, #52
	strh	r0, [r1]
	.loc	2 347 10 is_stmt 1              @ source/oled/SH1106.c:347:10
	ldr	r1, [sp, #56]
	.loc	2 347 7 is_stmt 0               @ source/oled/SH1106.c:347:7
	ldr	r0, [sp, #80]
	adds	r0, r0, r1
	add	r1, sp, #80
	strh	r0, [r1]
	.loc	2 348 3 is_stmt 1               @ source/oled/SH1106.c:348:3
	b	.LBB11_49
.Ltmp155:
.LBB11_49:                              @   in Loop: Header=BB11_42 Depth=1
	.loc	2 335 2                         @ source/oled/SH1106.c:335:2
	b	.LBB11_42
.LBB11_50:
	.loc	2 350 1 epilogue_begin          @ source/oled/SH1106.c:350:1
	add	sp, #88
	pop	{r4, pc}
.Ltmp156:
.Lfunc_end11:
	.size	SH1106_DrawLine, .Lfunc_end11-SH1106_DrawLine
	.cfi_endproc
	.cantunwind
	.fnend
                                        @ -- End function
	.section	.text.SH1106_DrawRectangle,"ax",%progbits
	.hidden	SH1106_DrawRectangle            @ -- Begin function SH1106_DrawRectangle
	.globl	SH1106_DrawRectangle
	.p2align	1
	.type	SH1106_DrawRectangle,%function
	.code	16                              @ @SH1106_DrawRectangle
	.thumb_func
SH1106_DrawRectangle:
.Lfunc_begin12:
	.loc	2 352 0                         @ source/oled/SH1106.c:352:0
	.fnstart
	.cfi_startproc
@ %bb.0:
	.save	{r4, lr}
	push	{r4, lr}
	.cfi_def_cfa_offset 8
	.cfi_offset lr, -4
	.cfi_offset r4, -8
	.pad	#32
	sub	sp, #32
	.cfi_def_cfa_offset 40
	mov	r4, r0
	ldr	r0, [sp, #40]
                                        @ kill: def $r0 killed $r3
                                        @ kill: def $r0 killed $r2
                                        @ kill: def $r0 killed $r1
                                        @ kill: def $r0 killed $r4
	add	r0, sp, #28
	strh	r4, [r0]
	add	r4, sp, #24
	strh	r1, [r4]
	add	r1, sp, #20
	strh	r2, [r1]
	add	r1, sp, #16
	strh	r3, [r1]
.Ltmp157:
	.loc	2 355 3 prologue_end            @ source/oled/SH1106.c:355:3
	ldrh	r0, [r0]
	.loc	2 355 21 is_stmt 0              @ source/oled/SH1106.c:355:21
	cmp	r0, #127
	bgt	.LBB12_2
	b	.LBB12_1
.LBB12_1:
	.loc	2 0 21                          @ source/oled/SH1106.c:0:21
	add	r0, sp, #24
	.loc	2 356 3 is_stmt 1               @ source/oled/SH1106.c:356:3
	ldrh	r0, [r0]
.Ltmp158:
	.loc	2 355 3                         @ source/oled/SH1106.c:355:3
	cmp	r0, #64
	blt	.LBB12_3
	b	.LBB12_2
.LBB12_2:
.Ltmp159:
	.loc	2 359 3                         @ source/oled/SH1106.c:359:3
	b	.LBB12_8
.Ltmp160:
.LBB12_3:
	.loc	2 0 3 is_stmt 0                 @ source/oled/SH1106.c:0:3
	add	r0, sp, #28
.Ltmp161:
	.loc	2 363 7 is_stmt 1               @ source/oled/SH1106.c:363:7
	ldrh	r0, [r0]
	add	r1, sp, #20
	.loc	2 363 11 is_stmt 0              @ source/oled/SH1106.c:363:11
	ldrh	r1, [r1]
	.loc	2 363 9                         @ source/oled/SH1106.c:363:9
	adds	r0, r0, r1
.Ltmp162:
	.loc	2 363 6                         @ source/oled/SH1106.c:363:6
	cmp	r0, #128
	blt	.LBB12_5
	b	.LBB12_4
.LBB12_4:
.Ltmp163:
	.loc	2 364 22 is_stmt 1              @ source/oled/SH1106.c:364:22
	ldr	r1, [sp, #28]
	movs	r0, #128
	.loc	2 364 20 is_stmt 0              @ source/oled/SH1106.c:364:20
	subs	r0, r0, r1
	add	r1, sp, #20
	.loc	2 364 5                         @ source/oled/SH1106.c:364:5
	strh	r0, [r1]
	.loc	2 365 2 is_stmt 1               @ source/oled/SH1106.c:365:2
	b	.LBB12_5
.Ltmp164:
.LBB12_5:
	.loc	2 0 2 is_stmt 0                 @ source/oled/SH1106.c:0:2
	add	r0, sp, #24
.Ltmp165:
	.loc	2 366 7 is_stmt 1               @ source/oled/SH1106.c:366:7
	ldrh	r0, [r0]
	add	r1, sp, #16
	.loc	2 366 11 is_stmt 0              @ source/oled/SH1106.c:366:11
	ldrh	r1, [r1]
	.loc	2 366 9                         @ source/oled/SH1106.c:366:9
	adds	r0, r0, r1
.Ltmp166:
	.loc	2 366 6                         @ source/oled/SH1106.c:366:6
	cmp	r0, #64
	blt	.LBB12_7
	b	.LBB12_6
.LBB12_6:
.Ltmp167:
	.loc	2 367 23 is_stmt 1              @ source/oled/SH1106.c:367:23
	ldr	r1, [sp, #24]
	movs	r0, #64
	.loc	2 367 21 is_stmt 0              @ source/oled/SH1106.c:367:21
	subs	r0, r0, r1
	add	r1, sp, #16
	.loc	2 367 5                         @ source/oled/SH1106.c:367:5
	strh	r0, [r1]
	.loc	2 368 2 is_stmt 1               @ source/oled/SH1106.c:368:2
	b	.LBB12_7
.Ltmp168:
.LBB12_7:
	.loc	2 0 2 is_stmt 0                 @ source/oled/SH1106.c:0:2
	add	r0, sp, #28
	.loc	2 371 18 is_stmt 1              @ source/oled/SH1106.c:371:18
	str	r0, [sp, #8]                    @ 4-byte Spill
	ldrh	r0, [r0]
	add	r1, sp, #24
	.loc	2 371 21 is_stmt 0              @ source/oled/SH1106.c:371:21
	str	r1, [sp, #12]                   @ 4-byte Spill
	ldrh	r3, [r1]
	.loc	2 371 28                        @ source/oled/SH1106.c:371:28
	ldr	r1, [sp, #20]
	.loc	2 371 26                        @ source/oled/SH1106.c:371:26
	adds	r1, r0, r1
	.loc	2 371 34                        @ source/oled/SH1106.c:371:34
	ldr	r2, [sp, #40]
	.loc	2 371 2                         @ source/oled/SH1106.c:371:2
	str	r2, [sp]
	uxth	r2, r1
	mov	r1, r3
	bl	SH1106_DrawLine
	ldr	r0, [sp, #8]                    @ 4-byte Reload
	.loc	2 372 18 is_stmt 1              @ source/oled/SH1106.c:372:18
	ldrh	r0, [r0]
	.loc	2 372 21 is_stmt 0              @ source/oled/SH1106.c:372:21
	ldr	r1, [sp, #24]
	.loc	2 372 25                        @ source/oled/SH1106.c:372:25
	ldr	r2, [sp, #16]
	.loc	2 372 23                        @ source/oled/SH1106.c:372:23
	adds	r1, r1, r2
	.loc	2 372 32                        @ source/oled/SH1106.c:372:32
	ldr	r2, [sp, #20]
	.loc	2 372 30                        @ source/oled/SH1106.c:372:30
	adds	r2, r0, r2
	.loc	2 372 42                        @ source/oled/SH1106.c:372:42
	ldr	r3, [sp, #40]
	.loc	2 372 2                         @ source/oled/SH1106.c:372:2
	str	r3, [sp]
	uxth	r2, r2
	uxth	r3, r1
	mov	r1, r3
	bl	SH1106_DrawLine
	ldr	r1, [sp, #8]                    @ 4-byte Reload
	ldr	r0, [sp, #12]                   @ 4-byte Reload
	.loc	2 373 18 is_stmt 1              @ source/oled/SH1106.c:373:18
	ldrh	r2, [r1]
	.loc	2 373 21 is_stmt 0              @ source/oled/SH1106.c:373:21
	ldrh	r1, [r0]
	.loc	2 373 31                        @ source/oled/SH1106.c:373:31
	ldr	r0, [sp, #16]
	.loc	2 373 29                        @ source/oled/SH1106.c:373:29
	adds	r0, r1, r0
	.loc	2 373 34                        @ source/oled/SH1106.c:373:34
	ldr	r3, [sp, #40]
	.loc	2 373 2                         @ source/oled/SH1106.c:373:2
	str	r3, [sp]
	uxth	r3, r0
	mov	r0, r2
	bl	SH1106_DrawLine
	ldr	r0, [sp, #12]                   @ 4-byte Reload
	.loc	2 374 18 is_stmt 1              @ source/oled/SH1106.c:374:18
	ldr	r1, [sp, #28]
	.loc	2 374 22 is_stmt 0              @ source/oled/SH1106.c:374:22
	ldr	r2, [sp, #20]
	.loc	2 374 20                        @ source/oled/SH1106.c:374:20
	adds	r2, r1, r2
	.loc	2 374 25                        @ source/oled/SH1106.c:374:25
	ldrh	r1, [r0]
	.loc	2 374 39                        @ source/oled/SH1106.c:374:39
	ldr	r0, [sp, #16]
	.loc	2 374 37                        @ source/oled/SH1106.c:374:37
	adds	r0, r1, r0
	.loc	2 374 42                        @ source/oled/SH1106.c:374:42
	ldr	r3, [sp, #40]
	.loc	2 374 2                         @ source/oled/SH1106.c:374:2
	str	r3, [sp]
	uxth	r2, r2
	uxth	r3, r0
	mov	r0, r2
	bl	SH1106_DrawLine
	.loc	2 375 1 is_stmt 1               @ source/oled/SH1106.c:375:1
	b	.LBB12_8
.LBB12_8:
	.loc	2 375 1 epilogue_begin is_stmt 0 @ source/oled/SH1106.c:375:1
	add	sp, #32
	pop	{r4, pc}
.Ltmp169:
.Lfunc_end12:
	.size	SH1106_DrawRectangle, .Lfunc_end12-SH1106_DrawRectangle
	.cfi_endproc
	.cantunwind
	.fnend
                                        @ -- End function
	.section	.text.SH1106_DrawFilledRectangle,"ax",%progbits
	.hidden	SH1106_DrawFilledRectangle      @ -- Begin function SH1106_DrawFilledRectangle
	.globl	SH1106_DrawFilledRectangle
	.p2align	1
	.type	SH1106_DrawFilledRectangle,%function
	.code	16                              @ @SH1106_DrawFilledRectangle
	.thumb_func
SH1106_DrawFilledRectangle:
.Lfunc_begin13:
	.loc	2 377 0 is_stmt 1               @ source/oled/SH1106.c:377:0
	.fnstart
	.cfi_startproc
@ %bb.0:
	.save	{r4, lr}
	push	{r4, lr}
	.cfi_def_cfa_offset 8
	.cfi_offset lr, -4
	.cfi_offset r4, -8
	.pad	#24
	sub	sp, #24
	.cfi_def_cfa_offset 32
	mov	r4, r0
	ldr	r0, [sp, #32]
                                        @ kill: def $r0 killed $r3
                                        @ kill: def $r0 killed $r2
                                        @ kill: def $r0 killed $r1
                                        @ kill: def $r0 killed $r4
	add	r0, sp, #20
	strh	r4, [r0]
	add	r4, sp, #16
	strh	r1, [r4]
	add	r1, sp, #12
	strh	r2, [r1]
	add	r1, sp, #8
	strh	r3, [r1]
.Ltmp170:
	.loc	2 382 3 prologue_end            @ source/oled/SH1106.c:382:3
	ldrh	r0, [r0]
	.loc	2 382 21 is_stmt 0              @ source/oled/SH1106.c:382:21
	cmp	r0, #127
	bgt	.LBB13_2
	b	.LBB13_1
.LBB13_1:
	.loc	2 0 21                          @ source/oled/SH1106.c:0:21
	add	r0, sp, #16
	.loc	2 383 3 is_stmt 1               @ source/oled/SH1106.c:383:3
	ldrh	r0, [r0]
.Ltmp171:
	.loc	2 382 3                         @ source/oled/SH1106.c:382:3
	cmp	r0, #64
	blt	.LBB13_3
	b	.LBB13_2
.LBB13_2:
.Ltmp172:
	.loc	2 386 3                         @ source/oled/SH1106.c:386:3
	b	.LBB13_11
.Ltmp173:
.LBB13_3:
	.loc	2 0 3 is_stmt 0                 @ source/oled/SH1106.c:0:3
	add	r0, sp, #20
.Ltmp174:
	.loc	2 390 7 is_stmt 1               @ source/oled/SH1106.c:390:7
	ldrh	r0, [r0]
	add	r1, sp, #12
	.loc	2 390 11 is_stmt 0              @ source/oled/SH1106.c:390:11
	ldrh	r1, [r1]
	.loc	2 390 9                         @ source/oled/SH1106.c:390:9
	adds	r0, r0, r1
.Ltmp175:
	.loc	2 390 6                         @ source/oled/SH1106.c:390:6
	cmp	r0, #128
	blt	.LBB13_5
	b	.LBB13_4
.LBB13_4:
.Ltmp176:
	.loc	2 391 22 is_stmt 1              @ source/oled/SH1106.c:391:22
	ldr	r1, [sp, #20]
	movs	r0, #128
	.loc	2 391 20 is_stmt 0              @ source/oled/SH1106.c:391:20
	subs	r0, r0, r1
	add	r1, sp, #12
	.loc	2 391 5                         @ source/oled/SH1106.c:391:5
	strh	r0, [r1]
	.loc	2 392 2 is_stmt 1               @ source/oled/SH1106.c:392:2
	b	.LBB13_5
.Ltmp177:
.LBB13_5:
	.loc	2 0 2 is_stmt 0                 @ source/oled/SH1106.c:0:2
	add	r0, sp, #16
.Ltmp178:
	.loc	2 393 7 is_stmt 1               @ source/oled/SH1106.c:393:7
	ldrh	r0, [r0]
	add	r1, sp, #8
	.loc	2 393 11 is_stmt 0              @ source/oled/SH1106.c:393:11
	ldrh	r1, [r1]
	.loc	2 393 9                         @ source/oled/SH1106.c:393:9
	adds	r0, r0, r1
.Ltmp179:
	.loc	2 393 6                         @ source/oled/SH1106.c:393:6
	cmp	r0, #64
	blt	.LBB13_7
	b	.LBB13_6
.LBB13_6:
.Ltmp180:
	.loc	2 394 23 is_stmt 1              @ source/oled/SH1106.c:394:23
	ldr	r1, [sp, #16]
	movs	r0, #64
	.loc	2 394 21 is_stmt 0              @ source/oled/SH1106.c:394:21
	subs	r0, r0, r1
	add	r1, sp, #8
	.loc	2 394 5                         @ source/oled/SH1106.c:394:5
	strh	r0, [r1]
	.loc	2 395 2 is_stmt 1               @ source/oled/SH1106.c:395:2
	b	.LBB13_7
.Ltmp181:
.LBB13_7:
	.loc	2 0 2 is_stmt 0                 @ source/oled/SH1106.c:0:2
	add	r1, sp, #4
	movs	r0, #0
.Ltmp182:
	.loc	2 398 9 is_stmt 1               @ source/oled/SH1106.c:398:9
	strb	r0, [r1]
	.loc	2 398 7 is_stmt 0               @ source/oled/SH1106.c:398:7
	b	.LBB13_8
.LBB13_8:                               @ =>This Inner Loop Header: Depth=1
	.loc	2 0 7                           @ source/oled/SH1106.c:0:7
	add	r0, sp, #4
.Ltmp183:
	.loc	2 398 14                        @ source/oled/SH1106.c:398:14
	ldrb	r0, [r0]
	add	r1, sp, #8
	.loc	2 398 19                        @ source/oled/SH1106.c:398:19
	ldrh	r1, [r1]
.Ltmp184:
	.loc	2 398 2                         @ source/oled/SH1106.c:398:2
	cmp	r0, r1
	bgt	.LBB13_11
	b	.LBB13_9
.LBB13_9:                               @   in Loop: Header=BB13_8 Depth=1
	.loc	2 0 2                           @ source/oled/SH1106.c:0:2
	add	r0, sp, #20
.Ltmp185:
	.loc	2 400 19 is_stmt 1              @ source/oled/SH1106.c:400:19
	ldrh	r0, [r0]
	.loc	2 400 22 is_stmt 0              @ source/oled/SH1106.c:400:22
	ldr	r1, [sp, #16]
	add	r2, sp, #4
	.loc	2 400 26                        @ source/oled/SH1106.c:400:26
	ldrb	r2, [r2]
	.loc	2 400 24                        @ source/oled/SH1106.c:400:24
	adds	r1, r1, r2
	.loc	2 400 33                        @ source/oled/SH1106.c:400:33
	ldr	r2, [sp, #12]
	.loc	2 400 31                        @ source/oled/SH1106.c:400:31
	adds	r2, r0, r2
	.loc	2 400 43                        @ source/oled/SH1106.c:400:43
	ldr	r3, [sp, #32]
	.loc	2 400 3                         @ source/oled/SH1106.c:400:3
	str	r3, [sp]
	uxth	r2, r2
	uxth	r3, r1
	mov	r1, r3
	bl	SH1106_DrawLine
	.loc	2 401 2 is_stmt 1               @ source/oled/SH1106.c:401:2
	b	.LBB13_10
.Ltmp186:
.LBB13_10:                              @   in Loop: Header=BB13_8 Depth=1
	.loc	2 398 23                        @ source/oled/SH1106.c:398:23
	ldr	r0, [sp, #4]
	adds	r0, r0, #1
	add	r1, sp, #4
	strb	r0, [r1]
	.loc	2 398 2 is_stmt 0               @ source/oled/SH1106.c:398:2
	b	.LBB13_8
.Ltmp187:
.LBB13_11:
	.loc	2 402 1 epilogue_begin is_stmt 1 @ source/oled/SH1106.c:402:1
	add	sp, #24
	pop	{r4, pc}
.Ltmp188:
.Lfunc_end13:
	.size	SH1106_DrawFilledRectangle, .Lfunc_end13-SH1106_DrawFilledRectangle
	.cfi_endproc
	.cantunwind
	.fnend
                                        @ -- End function
	.section	.text.SH1106_DrawTriangle,"ax",%progbits
	.hidden	SH1106_DrawTriangle             @ -- Begin function SH1106_DrawTriangle
	.globl	SH1106_DrawTriangle
	.p2align	1
	.type	SH1106_DrawTriangle,%function
	.code	16                              @ @SH1106_DrawTriangle
	.thumb_func
SH1106_DrawTriangle:
.Lfunc_begin14:
	.loc	2 404 0                         @ source/oled/SH1106.c:404:0
	.fnstart
	.cfi_startproc
@ %bb.0:
	.save	{r4, r5, r6, lr}
	push	{r4, r5, r6, lr}
	.cfi_def_cfa_offset 16
	.cfi_offset lr, -4
	.cfi_offset r6, -8
	.cfi_offset r5, -12
	.cfi_offset r4, -16
	.pad	#56
	sub	sp, #56
	.cfi_def_cfa_offset 72
	mov	r6, r3
	mov	r3, r2
	mov	r2, r1
	mov	r1, r0
	ldr	r0, [sp, #80]
	ldr	r4, [sp, #76]
	ldr	r5, [sp, #72]
                                        @ kill: def $r0 killed $r6
                                        @ kill: def $r0 killed $r3
                                        @ kill: def $r0 killed $r2
                                        @ kill: def $r0 killed $r1
	add	r0, sp, #52
	str	r0, [sp, #24]                   @ 4-byte Spill
	strh	r1, [r0]
	add	r1, sp, #48
	str	r1, [sp, #28]                   @ 4-byte Spill
	strh	r2, [r1]
	add	r2, sp, #44
	str	r2, [sp, #8]                    @ 4-byte Spill
	strh	r3, [r2]
	add	r3, sp, #40
	str	r3, [sp, #12]                   @ 4-byte Spill
	strh	r6, [r3]
	add	r6, sp, #36
	str	r6, [sp, #16]                   @ 4-byte Spill
	strh	r5, [r6]
	add	r5, sp, #32
	str	r5, [sp, #20]                   @ 4-byte Spill
	strh	r4, [r5]
.Ltmp189:
	.loc	2 406 18 prologue_end           @ source/oled/SH1106.c:406:18
	ldrh	r0, [r0]
	.loc	2 406 22 is_stmt 0              @ source/oled/SH1106.c:406:22
	ldrh	r1, [r1]
	.loc	2 406 26                        @ source/oled/SH1106.c:406:26
	ldrh	r2, [r2]
	.loc	2 406 30                        @ source/oled/SH1106.c:406:30
	ldrh	r3, [r3]
	.loc	2 406 34                        @ source/oled/SH1106.c:406:34
	ldr	r4, [sp, #80]
	.loc	2 406 2                         @ source/oled/SH1106.c:406:2
	str	r4, [sp]
	bl	SH1106_DrawLine
	ldr	r0, [sp, #8]                    @ 4-byte Reload
	ldr	r1, [sp, #12]                   @ 4-byte Reload
	ldr	r2, [sp, #16]                   @ 4-byte Reload
	ldr	r3, [sp, #20]                   @ 4-byte Reload
	.loc	2 407 18 is_stmt 1              @ source/oled/SH1106.c:407:18
	ldrh	r0, [r0]
	.loc	2 407 22 is_stmt 0              @ source/oled/SH1106.c:407:22
	ldrh	r1, [r1]
	.loc	2 407 26                        @ source/oled/SH1106.c:407:26
	ldrh	r2, [r2]
	.loc	2 407 30                        @ source/oled/SH1106.c:407:30
	ldrh	r3, [r3]
	.loc	2 407 34                        @ source/oled/SH1106.c:407:34
	ldr	r4, [sp, #80]
	.loc	2 407 2                         @ source/oled/SH1106.c:407:2
	str	r4, [sp]
	bl	SH1106_DrawLine
	ldr	r0, [sp, #16]                   @ 4-byte Reload
	ldr	r1, [sp, #20]                   @ 4-byte Reload
	ldr	r2, [sp, #24]                   @ 4-byte Reload
	ldr	r3, [sp, #28]                   @ 4-byte Reload
	.loc	2 408 18 is_stmt 1              @ source/oled/SH1106.c:408:18
	ldrh	r0, [r0]
	.loc	2 408 22 is_stmt 0              @ source/oled/SH1106.c:408:22
	ldrh	r1, [r1]
	.loc	2 408 26                        @ source/oled/SH1106.c:408:26
	ldrh	r2, [r2]
	.loc	2 408 30                        @ source/oled/SH1106.c:408:30
	ldrh	r3, [r3]
	.loc	2 408 34                        @ source/oled/SH1106.c:408:34
	ldr	r4, [sp, #80]
	.loc	2 408 2                         @ source/oled/SH1106.c:408:2
	str	r4, [sp]
	bl	SH1106_DrawLine
	.loc	2 409 1 epilogue_begin is_stmt 1 @ source/oled/SH1106.c:409:1
	add	sp, #56
	pop	{r4, r5, r6, pc}
.Ltmp190:
.Lfunc_end14:
	.size	SH1106_DrawTriangle, .Lfunc_end14-SH1106_DrawTriangle
	.cfi_endproc
	.cantunwind
	.fnend
                                        @ -- End function
	.section	.text.SH1106_DrawFilledTriangle,"ax",%progbits
	.hidden	SH1106_DrawFilledTriangle       @ -- Begin function SH1106_DrawFilledTriangle
	.globl	SH1106_DrawFilledTriangle
	.p2align	2
	.type	SH1106_DrawFilledTriangle,%function
	.code	16                              @ @SH1106_DrawFilledTriangle
	.thumb_func
SH1106_DrawFilledTriangle:
.Lfunc_begin15:
	.loc	2 412 0                         @ source/oled/SH1106.c:412:0
	.fnstart
	.cfi_startproc
@ %bb.0:
	.save	{r4, r5, r6, lr}
	push	{r4, r5, r6, lr}
	.cfi_def_cfa_offset 16
	.cfi_offset lr, -4
	.cfi_offset r6, -8
	.cfi_offset r5, -12
	.cfi_offset r4, -16
	.pad	#96
	sub	sp, #96
	.cfi_def_cfa_offset 112
	mov	r4, r3
	mov	r5, r2
	str	r1, [sp, #12]                   @ 4-byte Spill
	mov	r6, r0
	ldr	r0, [sp, #12]                   @ 4-byte Reload
	ldr	r1, [sp, #120]
	ldr	r2, [sp, #116]
	ldr	r3, [sp, #112]
                                        @ kill: def $r1 killed $r4
                                        @ kill: def $r1 killed $r5
                                        @ kill: def $r1 killed $r0
                                        @ kill: def $r1 killed $r6
	add	r1, sp, #92
	strh	r6, [r1]
	add	r6, sp, #88
	strh	r0, [r6]
	add	r0, sp, #84
	strh	r5, [r0]
	add	r5, sp, #80
	strh	r4, [r5]
	add	r4, sp, #76
	strh	r3, [r4]
	add	r3, sp, #72
	strh	r2, [r3]
	add	r3, sp, #68
	movs	r2, #0
.Ltmp191:
	.loc	2 413 10 prologue_end           @ source/oled/SH1106.c:413:10
	str	r2, [sp, #16]                   @ 4-byte Spill
	strh	r2, [r3]
	add	r3, sp, #64
	.loc	2 413 22 is_stmt 0              @ source/oled/SH1106.c:413:22
	strh	r2, [r3]
	add	r3, sp, #60
	.loc	2 413 34                        @ source/oled/SH1106.c:413:34
	strh	r2, [r3]
	add	r3, sp, #56
	.loc	2 413 41                        @ source/oled/SH1106.c:413:41
	strh	r2, [r3]
	add	r3, sp, #52
	.loc	2 413 48                        @ source/oled/SH1106.c:413:48
	strh	r2, [r3]
	add	r3, sp, #48
	.loc	2 413 59                        @ source/oled/SH1106.c:413:59
	strh	r2, [r3]
	add	r3, sp, #44
	.loc	2 414 2 is_stmt 1               @ source/oled/SH1106.c:414:2
	strh	r2, [r3]
	add	r3, sp, #40
	.loc	2 414 13 is_stmt 0              @ source/oled/SH1106.c:414:13
	strh	r2, [r3]
	add	r3, sp, #36
	.loc	2 414 24                        @ source/oled/SH1106.c:414:24
	strh	r2, [r3]
	add	r3, sp, #32
	.loc	2 414 33                        @ source/oled/SH1106.c:414:33
	strh	r2, [r3]
	add	r3, sp, #28
	.loc	2 414 42                        @ source/oled/SH1106.c:414:42
	strh	r2, [r3]
	add	r3, sp, #24
	.loc	2 414 54                        @ source/oled/SH1106.c:414:54
	strh	r2, [r3]
	add	r3, sp, #20
	.loc	2 415 2 is_stmt 1               @ source/oled/SH1106.c:415:2
	strh	r2, [r3]
	.loc	2 417 11                        @ source/oled/SH1106.c:417:11
	ldrh	r0, [r0]
	ldrh	r1, [r1]
	subs	r0, r0, r1
	cmp	r0, #1
	blt	.LBB15_2
	b	.LBB15_1
.LBB15_1:
	.loc	2 0 11 is_stmt 0                @ source/oled/SH1106.c:0:11
	add	r0, sp, #84
	.loc	2 417 11                        @ source/oled/SH1106.c:417:11
	ldrh	r0, [r0]
	add	r1, sp, #92
	ldrh	r1, [r1]
	subs	r0, r0, r1
	str	r0, [sp, #8]                    @ 4-byte Spill
	b	.LBB15_3
.LBB15_2:
	.loc	2 0 11                          @ source/oled/SH1106.c:0:11
	add	r0, sp, #84
	.loc	2 417 11                        @ source/oled/SH1106.c:417:11
	ldrh	r1, [r0]
	add	r0, sp, #92
	ldrh	r0, [r0]
	subs	r0, r0, r1
	str	r0, [sp, #8]                    @ 4-byte Spill
	b	.LBB15_3
.LBB15_3:
	ldr	r0, [sp, #8]                    @ 4-byte Reload
	add	r1, sp, #68
	.loc	2 417 9                         @ source/oled/SH1106.c:417:9
	strh	r0, [r1]
	add	r0, sp, #80
	.loc	2 418 11 is_stmt 1              @ source/oled/SH1106.c:418:11
	ldrh	r0, [r0]
	add	r1, sp, #88
	ldrh	r1, [r1]
	subs	r0, r0, r1
	cmp	r0, #1
	blt	.LBB15_5
	b	.LBB15_4
.LBB15_4:
	.loc	2 0 11 is_stmt 0                @ source/oled/SH1106.c:0:11
	add	r0, sp, #80
	.loc	2 418 11                        @ source/oled/SH1106.c:418:11
	ldrh	r0, [r0]
	add	r1, sp, #88
	ldrh	r1, [r1]
	subs	r0, r0, r1
	str	r0, [sp, #4]                    @ 4-byte Spill
	b	.LBB15_6
.LBB15_5:
	.loc	2 0 11                          @ source/oled/SH1106.c:0:11
	add	r0, sp, #80
	.loc	2 418 11                        @ source/oled/SH1106.c:418:11
	ldrh	r1, [r0]
	add	r0, sp, #88
	ldrh	r0, [r0]
	subs	r0, r0, r1
	str	r0, [sp, #4]                    @ 4-byte Spill
	b	.LBB15_6
.LBB15_6:
	ldr	r0, [sp, #4]                    @ 4-byte Reload
	add	r1, sp, #64
	.loc	2 418 9                         @ source/oled/SH1106.c:418:9
	strh	r0, [r1]
	.loc	2 419 6 is_stmt 1               @ source/oled/SH1106.c:419:6
	ldr	r0, [sp, #92]
	add	r1, sp, #60
	.loc	2 419 4 is_stmt 0               @ source/oled/SH1106.c:419:4
	strh	r0, [r1]
	.loc	2 420 6 is_stmt 1               @ source/oled/SH1106.c:420:6
	ldr	r0, [sp, #88]
	add	r1, sp, #56
	.loc	2 420 4 is_stmt 0               @ source/oled/SH1106.c:420:4
	strh	r0, [r1]
	add	r0, sp, #84
.Ltmp192:
	.loc	2 422 6 is_stmt 1               @ source/oled/SH1106.c:422:6
	ldrh	r0, [r0]
	add	r1, sp, #92
	.loc	2 422 12 is_stmt 0              @ source/oled/SH1106.c:422:12
	ldrh	r1, [r1]
.Ltmp193:
	.loc	2 422 6                         @ source/oled/SH1106.c:422:6
	cmp	r0, r1
	blt	.LBB15_8
	b	.LBB15_7
.LBB15_7:
	.loc	2 0 6                           @ source/oled/SH1106.c:0:6
	add	r1, sp, #52
	movs	r0, #1
.Ltmp194:
	.loc	2 423 9 is_stmt 1               @ source/oled/SH1106.c:423:9
	strh	r0, [r1]
	add	r1, sp, #48
	.loc	2 424 9                         @ source/oled/SH1106.c:424:9
	strh	r0, [r1]
	.loc	2 425 2                         @ source/oled/SH1106.c:425:2
	b	.LBB15_9
.Ltmp195:
.LBB15_8:
	.loc	2 0 2 is_stmt 0                 @ source/oled/SH1106.c:0:2
	add	r1, sp, #52
	ldr	r0, __arm_cp.15_0
.Ltmp196:
	.loc	2 426 9 is_stmt 1               @ source/oled/SH1106.c:426:9
	strh	r0, [r1]
	add	r1, sp, #48
	.loc	2 427 9                         @ source/oled/SH1106.c:427:9
	strh	r0, [r1]
	b	.LBB15_9
.Ltmp197:
.LBB15_9:
	.loc	2 0 9 is_stmt 0                 @ source/oled/SH1106.c:0:9
	add	r0, sp, #80
.Ltmp198:
	.loc	2 430 6 is_stmt 1               @ source/oled/SH1106.c:430:6
	ldrh	r0, [r0]
	add	r1, sp, #88
	.loc	2 430 12 is_stmt 0              @ source/oled/SH1106.c:430:12
	ldrh	r1, [r1]
.Ltmp199:
	.loc	2 430 6                         @ source/oled/SH1106.c:430:6
	cmp	r0, r1
	blt	.LBB15_11
	b	.LBB15_10
.LBB15_10:
	.loc	2 0 6                           @ source/oled/SH1106.c:0:6
	add	r1, sp, #44
	movs	r0, #1
.Ltmp200:
	.loc	2 431 9 is_stmt 1               @ source/oled/SH1106.c:431:9
	strh	r0, [r1]
	add	r1, sp, #40
	.loc	2 432 9                         @ source/oled/SH1106.c:432:9
	strh	r0, [r1]
	.loc	2 433 2                         @ source/oled/SH1106.c:433:2
	b	.LBB15_12
.Ltmp201:
.LBB15_11:
	.loc	2 0 2 is_stmt 0                 @ source/oled/SH1106.c:0:2
	add	r1, sp, #44
	ldr	r0, __arm_cp.15_0
.Ltmp202:
	.loc	2 434 9 is_stmt 1               @ source/oled/SH1106.c:434:9
	strh	r0, [r1]
	add	r1, sp, #40
	.loc	2 435 9                         @ source/oled/SH1106.c:435:9
	strh	r0, [r1]
	b	.LBB15_12
.Ltmp203:
.LBB15_12:
	.loc	2 438 6                         @ source/oled/SH1106.c:438:6
	movs	r2, #0
	add	r0, sp, #68
	ldrsh	r0, [r0, r2]
	add	r1, sp, #64
	.loc	2 438 16 is_stmt 0              @ source/oled/SH1106.c:438:16
	ldrsh	r1, [r1, r2]
.Ltmp204:
	.loc	2 438 6                         @ source/oled/SH1106.c:438:6
	cmp	r0, r1
	blt	.LBB15_14
	b	.LBB15_13
.LBB15_13:
	.loc	2 0 6                           @ source/oled/SH1106.c:0:6
	add	r0, sp, #52
	movs	r1, #0
.Ltmp205:
	.loc	2 439 9 is_stmt 1               @ source/oled/SH1106.c:439:9
	strh	r1, [r0]
	add	r0, sp, #40
	.loc	2 440 9                         @ source/oled/SH1106.c:440:9
	strh	r1, [r0]
	.loc	2 441 9                         @ source/oled/SH1106.c:441:9
	ldr	r0, [sp, #68]
	add	r2, sp, #36
	.loc	2 441 7 is_stmt 0               @ source/oled/SH1106.c:441:7
	strh	r0, [r2]
	add	r0, sp, #68
	.loc	2 442 9 is_stmt 1               @ source/oled/SH1106.c:442:9
	ldrsh	r0, [r0, r1]
	.loc	2 442 16 is_stmt 0              @ source/oled/SH1106.c:442:16
	lsrs	r1, r0, #31
	adds	r0, r0, r1
	lsrs	r0, r0, #1
	add	r1, sp, #32
	.loc	2 442 7                         @ source/oled/SH1106.c:442:7
	strh	r0, [r1]
	.loc	2 443 12 is_stmt 1              @ source/oled/SH1106.c:443:12
	ldr	r0, [sp, #64]
	add	r1, sp, #28
	.loc	2 443 10 is_stmt 0              @ source/oled/SH1106.c:443:10
	strh	r0, [r1]
	.loc	2 444 15 is_stmt 1              @ source/oled/SH1106.c:444:15
	ldr	r0, [sp, #68]
	add	r1, sp, #24
	.loc	2 444 13 is_stmt 0              @ source/oled/SH1106.c:444:13
	strh	r0, [r1]
	.loc	2 445 2 is_stmt 1               @ source/oled/SH1106.c:445:2
	b	.LBB15_15
.Ltmp206:
.LBB15_14:
	.loc	2 0 2 is_stmt 0                 @ source/oled/SH1106.c:0:2
	add	r0, sp, #48
	movs	r1, #0
.Ltmp207:
	.loc	2 446 9 is_stmt 1               @ source/oled/SH1106.c:446:9
	strh	r1, [r0]
	add	r0, sp, #44
	.loc	2 447 9                         @ source/oled/SH1106.c:447:9
	strh	r1, [r0]
	.loc	2 448 9                         @ source/oled/SH1106.c:448:9
	ldr	r0, [sp, #64]
	add	r2, sp, #36
	.loc	2 448 7 is_stmt 0               @ source/oled/SH1106.c:448:7
	strh	r0, [r2]
	add	r0, sp, #64
	.loc	2 449 9 is_stmt 1               @ source/oled/SH1106.c:449:9
	ldrsh	r0, [r0, r1]
	.loc	2 449 16 is_stmt 0              @ source/oled/SH1106.c:449:16
	lsrs	r1, r0, #31
	adds	r0, r0, r1
	lsrs	r0, r0, #1
	add	r1, sp, #32
	.loc	2 449 7                         @ source/oled/SH1106.c:449:7
	strh	r0, [r1]
	.loc	2 450 12 is_stmt 1              @ source/oled/SH1106.c:450:12
	ldr	r0, [sp, #68]
	add	r1, sp, #28
	.loc	2 450 10 is_stmt 0              @ source/oled/SH1106.c:450:10
	strh	r0, [r1]
	.loc	2 451 15 is_stmt 1              @ source/oled/SH1106.c:451:15
	ldr	r0, [sp, #64]
	add	r1, sp, #24
	.loc	2 451 13 is_stmt 0              @ source/oled/SH1106.c:451:13
	strh	r0, [r1]
	b	.LBB15_15
.Ltmp208:
.LBB15_15:
	.loc	2 0 13                          @ source/oled/SH1106.c:0:13
	add	r1, sp, #20
	movs	r0, #0
.Ltmp209:
	.loc	2 454 16 is_stmt 1              @ source/oled/SH1106.c:454:16
	strh	r0, [r1]
	.loc	2 454 7 is_stmt 0               @ source/oled/SH1106.c:454:7
	b	.LBB15_16
.LBB15_16:                              @ =>This Inner Loop Header: Depth=1
.Ltmp210:
	.loc	2 454 21                        @ source/oled/SH1106.c:454:21
	movs	r2, #0
	add	r0, sp, #20
	ldrsh	r0, [r0, r2]
	add	r1, sp, #24
	.loc	2 454 33                        @ source/oled/SH1106.c:454:33
	ldrsh	r1, [r1, r2]
.Ltmp211:
	.loc	2 454 2                         @ source/oled/SH1106.c:454:2
	cmp	r0, r1
	bgt	.LBB15_21
	b	.LBB15_17
.LBB15_17:                              @   in Loop: Header=BB15_16 Depth=1
	.loc	2 0 2                           @ source/oled/SH1106.c:0:2
	add	r0, sp, #60
.Ltmp212:
	.loc	2 455 19 is_stmt 1              @ source/oled/SH1106.c:455:19
	ldrh	r0, [r0]
	add	r1, sp, #56
	.loc	2 455 22 is_stmt 0              @ source/oled/SH1106.c:455:22
	ldrh	r1, [r1]
	add	r2, sp, #76
	.loc	2 455 25                        @ source/oled/SH1106.c:455:25
	ldrh	r2, [r2]
	add	r3, sp, #72
	.loc	2 455 29                        @ source/oled/SH1106.c:455:29
	ldrh	r3, [r3]
	.loc	2 455 33                        @ source/oled/SH1106.c:455:33
	ldr	r4, [sp, #120]
	.loc	2 455 3                         @ source/oled/SH1106.c:455:3
	str	r4, [sp]
	bl	SH1106_DrawLine
	.loc	2 457 10 is_stmt 1              @ source/oled/SH1106.c:457:10
	ldr	r1, [sp, #28]
	.loc	2 457 7 is_stmt 0               @ source/oled/SH1106.c:457:7
	ldr	r0, [sp, #32]
	adds	r1, r0, r1
	add	r0, sp, #32
	strh	r1, [r0]
	movs	r2, #0
.Ltmp213:
	.loc	2 458 7 is_stmt 1               @ source/oled/SH1106.c:458:7
	ldrsh	r0, [r0, r2]
	add	r1, sp, #36
	.loc	2 458 14 is_stmt 0              @ source/oled/SH1106.c:458:14
	ldrsh	r1, [r1, r2]
.Ltmp214:
	.loc	2 458 7                         @ source/oled/SH1106.c:458:7
	cmp	r0, r1
	blt	.LBB15_19
	b	.LBB15_18
.LBB15_18:                              @   in Loop: Header=BB15_16 Depth=1
.Ltmp215:
	.loc	2 459 11 is_stmt 1              @ source/oled/SH1106.c:459:11
	ldr	r1, [sp, #36]
	.loc	2 459 8 is_stmt 0               @ source/oled/SH1106.c:459:8
	ldr	r0, [sp, #32]
	subs	r0, r0, r1
	add	r1, sp, #32
	strh	r0, [r1]
	.loc	2 460 9 is_stmt 1               @ source/oled/SH1106.c:460:9
	ldr	r1, [sp, #52]
	.loc	2 460 6 is_stmt 0               @ source/oled/SH1106.c:460:6
	ldr	r0, [sp, #60]
	adds	r0, r0, r1
	add	r1, sp, #60
	strh	r0, [r1]
	.loc	2 461 9 is_stmt 1               @ source/oled/SH1106.c:461:9
	ldr	r1, [sp, #44]
	.loc	2 461 6 is_stmt 0               @ source/oled/SH1106.c:461:6
	ldr	r0, [sp, #56]
	adds	r0, r0, r1
	add	r1, sp, #56
	strh	r0, [r1]
	.loc	2 462 3 is_stmt 1               @ source/oled/SH1106.c:462:3
	b	.LBB15_19
.Ltmp216:
.LBB15_19:                              @   in Loop: Header=BB15_16 Depth=1
	.loc	2 463 8                         @ source/oled/SH1106.c:463:8
	ldr	r1, [sp, #48]
	.loc	2 463 5 is_stmt 0               @ source/oled/SH1106.c:463:5
	ldr	r0, [sp, #60]
	adds	r0, r0, r1
	add	r1, sp, #60
	strh	r0, [r1]
	.loc	2 464 8 is_stmt 1               @ source/oled/SH1106.c:464:8
	ldr	r1, [sp, #40]
	.loc	2 464 5 is_stmt 0               @ source/oled/SH1106.c:464:5
	ldr	r0, [sp, #56]
	adds	r0, r0, r1
	add	r1, sp, #56
	strh	r0, [r1]
	.loc	2 465 2 is_stmt 1               @ source/oled/SH1106.c:465:2
	b	.LBB15_20
.Ltmp217:
.LBB15_20:                              @   in Loop: Header=BB15_16 Depth=1
	.loc	2 454 52                        @ source/oled/SH1106.c:454:52
	ldr	r0, [sp, #20]
	adds	r0, r0, #1
	add	r1, sp, #20
	strh	r0, [r1]
	.loc	2 454 2 is_stmt 0               @ source/oled/SH1106.c:454:2
	b	.LBB15_16
.Ltmp218:
.LBB15_21:
	.loc	2 466 1 epilogue_begin is_stmt 1 @ source/oled/SH1106.c:466:1
	add	sp, #96
	pop	{r4, r5, r6, pc}
.Ltmp219:
	.loc	2 0 1 is_stmt 0                 @ :0:1
.Ltmp220:
	.p2align	2
@ %bb.22:
__arm_cp.15_0:
	.long	65535                           @ 0xffff
.Lcpi_end15:
	.size	__arm_cp.15_0, .Lcpi_end15-__arm_cp.15_0
.Lfunc_end15:
	.size	SH1106_DrawFilledTriangle, .Lfunc_end15-SH1106_DrawFilledTriangle
	.cfi_endproc
	.cantunwind
	.fnend
                                        @ -- End function
	.section	.text.SH1106_DrawCircle,"ax",%progbits
	.hidden	SH1106_DrawCircle               @ -- Begin function SH1106_DrawCircle
	.globl	SH1106_DrawCircle
	.p2align	1
	.type	SH1106_DrawCircle,%function
	.code	16                              @ @SH1106_DrawCircle
	.thumb_func
SH1106_DrawCircle:
.Lfunc_begin16:
	.loc	2 468 0 is_stmt 1               @ source/oled/SH1106.c:468:0
	.fnstart
	.cfi_startproc
@ %bb.0:
	.save	{r4, lr}
	push	{r4, lr}
	.cfi_def_cfa_offset 8
	.cfi_offset lr, -4
	.cfi_offset r4, -8
	.pad	#48
	sub	sp, #48
	.cfi_def_cfa_offset 56
	mov	r4, r0
                                        @ kill: def $r0 killed $r2
                                        @ kill: def $r0 killed $r1
                                        @ kill: def $r0 killed $r4
	add	r0, sp, #44
	str	r0, [sp, #4]                    @ 4-byte Spill
	strh	r4, [r0]
	add	r4, sp, #40
	str	r4, [sp, #8]                    @ 4-byte Spill
	strh	r1, [r4]
	add	r1, sp, #36
	strh	r2, [r1]
	str	r3, [sp, #32]
.Ltmp221:
	.loc	2 469 18 prologue_end           @ source/oled/SH1106.c:469:18
	ldr	r2, [sp, #36]
	movs	r1, #1
	.loc	2 469 16 is_stmt 0              @ source/oled/SH1106.c:469:16
	subs	r2, r1, r2
	add	r3, sp, #28
	.loc	2 469 10                        @ source/oled/SH1106.c:469:10
	strh	r2, [r3]
	add	r2, sp, #24
	.loc	2 470 10 is_stmt 1              @ source/oled/SH1106.c:470:10
	strh	r1, [r2]
	.loc	2 471 23                        @ source/oled/SH1106.c:471:23
	ldr	r1, [sp, #36]
	.loc	2 471 21 is_stmt 0              @ source/oled/SH1106.c:471:21
	lsls	r1, r1, #1
	rsbs	r1, r1, #0
	add	r2, sp, #20
	.loc	2 471 10                        @ source/oled/SH1106.c:471:10
	strh	r1, [r2]
	add	r2, sp, #16
	movs	r1, #0
	.loc	2 472 10 is_stmt 1              @ source/oled/SH1106.c:472:10
	strh	r1, [r2]
	.loc	2 473 14                        @ source/oled/SH1106.c:473:14
	ldr	r1, [sp, #36]
	add	r2, sp, #12
	.loc	2 473 10 is_stmt 0              @ source/oled/SH1106.c:473:10
	strh	r1, [r2]
	.loc	2 475 22 is_stmt 1              @ source/oled/SH1106.c:475:22
	ldrh	r0, [r0]
	.loc	2 475 26 is_stmt 0              @ source/oled/SH1106.c:475:26
	ldr	r1, [sp, #40]
	.loc	2 475 31                        @ source/oled/SH1106.c:475:31
	ldr	r2, [sp, #36]
	.loc	2 475 29                        @ source/oled/SH1106.c:475:29
	adds	r1, r1, r2
	.loc	2 475 34                        @ source/oled/SH1106.c:475:34
	ldr	r2, [sp, #32]
	.loc	2 475 5                         @ source/oled/SH1106.c:475:5
	uxth	r1, r1
	bl	SH1106_DrawPixel
	ldr	r0, [sp, #4]                    @ 4-byte Reload
	.loc	2 476 22 is_stmt 1              @ source/oled/SH1106.c:476:22
	ldrh	r0, [r0]
	.loc	2 476 26 is_stmt 0              @ source/oled/SH1106.c:476:26
	ldr	r1, [sp, #40]
	.loc	2 476 31                        @ source/oled/SH1106.c:476:31
	ldr	r2, [sp, #36]
	.loc	2 476 29                        @ source/oled/SH1106.c:476:29
	subs	r1, r1, r2
	.loc	2 476 34                        @ source/oled/SH1106.c:476:34
	ldr	r2, [sp, #32]
	.loc	2 476 5                         @ source/oled/SH1106.c:476:5
	uxth	r1, r1
	bl	SH1106_DrawPixel
	ldr	r1, [sp, #8]                    @ 4-byte Reload
	.loc	2 477 22 is_stmt 1              @ source/oled/SH1106.c:477:22
	ldr	r0, [sp, #44]
	.loc	2 477 27 is_stmt 0              @ source/oled/SH1106.c:477:27
	ldr	r2, [sp, #36]
	.loc	2 477 25                        @ source/oled/SH1106.c:477:25
	adds	r0, r0, r2
	.loc	2 477 30                        @ source/oled/SH1106.c:477:30
	ldrh	r1, [r1]
	.loc	2 477 34                        @ source/oled/SH1106.c:477:34
	ldr	r2, [sp, #32]
	.loc	2 477 5                         @ source/oled/SH1106.c:477:5
	uxth	r0, r0
	bl	SH1106_DrawPixel
	ldr	r1, [sp, #8]                    @ 4-byte Reload
	.loc	2 478 22 is_stmt 1              @ source/oled/SH1106.c:478:22
	ldr	r0, [sp, #44]
	.loc	2 478 27 is_stmt 0              @ source/oled/SH1106.c:478:27
	ldr	r2, [sp, #36]
	.loc	2 478 25                        @ source/oled/SH1106.c:478:25
	subs	r0, r0, r2
	.loc	2 478 30                        @ source/oled/SH1106.c:478:30
	ldrh	r1, [r1]
	.loc	2 478 34                        @ source/oled/SH1106.c:478:34
	ldr	r2, [sp, #32]
	.loc	2 478 5                         @ source/oled/SH1106.c:478:5
	uxth	r0, r0
	bl	SH1106_DrawPixel
	.loc	2 480 5 is_stmt 1               @ source/oled/SH1106.c:480:5
	b	.LBB16_1
.LBB16_1:                               @ =>This Inner Loop Header: Depth=1
	.loc	2 480 12 is_stmt 0              @ source/oled/SH1106.c:480:12
	movs	r2, #0
	add	r0, sp, #16
	ldrsh	r0, [r0, r2]
	add	r1, sp, #12
	.loc	2 480 16                        @ source/oled/SH1106.c:480:16
	ldrsh	r1, [r1, r2]
	.loc	2 480 5                         @ source/oled/SH1106.c:480:5
	cmp	r0, r1
	bge	.LBB16_5
	b	.LBB16_2
.LBB16_2:                               @   in Loop: Header=BB16_1 Depth=1
.Ltmp222:
	.loc	2 481 13 is_stmt 1              @ source/oled/SH1106.c:481:13
	movs	r1, #0
	add	r0, sp, #28
	ldrsh	r0, [r0, r1]
.Ltmp223:
	.loc	2 481 13 is_stmt 0              @ source/oled/SH1106.c:481:13
	cmp	r0, #0
	bmi	.LBB16_4
	b	.LBB16_3
.LBB16_3:                               @   in Loop: Header=BB16_1 Depth=1
.Ltmp224:
	.loc	2 482 14 is_stmt 1              @ source/oled/SH1106.c:482:14
	ldr	r0, [sp, #12]
	subs	r0, r0, #1
	add	r1, sp, #12
	strh	r0, [r1]
	.loc	2 483 19                        @ source/oled/SH1106.c:483:19
	ldr	r0, [sp, #20]
	adds	r0, r0, #2
	add	r1, sp, #20
	strh	r0, [r1]
	.loc	2 484 18                        @ source/oled/SH1106.c:484:18
	ldr	r1, [sp, #20]
	.loc	2 484 15 is_stmt 0              @ source/oled/SH1106.c:484:15
	ldr	r0, [sp, #28]
	adds	r0, r0, r1
	add	r1, sp, #28
	strh	r0, [r1]
	.loc	2 485 9 is_stmt 1               @ source/oled/SH1106.c:485:9
	b	.LBB16_4
.Ltmp225:
.LBB16_4:                               @   in Loop: Header=BB16_1 Depth=1
	.loc	2 486 10                        @ source/oled/SH1106.c:486:10
	ldr	r0, [sp, #16]
	adds	r0, r0, #1
	add	r1, sp, #16
	strh	r0, [r1]
	.loc	2 487 15                        @ source/oled/SH1106.c:487:15
	ldr	r0, [sp, #24]
	adds	r0, r0, #2
	add	r1, sp, #24
	strh	r0, [r1]
	.loc	2 488 14                        @ source/oled/SH1106.c:488:14
	ldr	r1, [sp, #24]
	.loc	2 488 11 is_stmt 0              @ source/oled/SH1106.c:488:11
	ldr	r0, [sp, #28]
	adds	r0, r0, r1
	add	r1, sp, #28
	strh	r0, [r1]
	.loc	2 490 26 is_stmt 1              @ source/oled/SH1106.c:490:26
	ldr	r0, [sp, #44]
	.loc	2 490 31 is_stmt 0              @ source/oled/SH1106.c:490:31
	ldr	r1, [sp, #16]
	.loc	2 490 29                        @ source/oled/SH1106.c:490:29
	adds	r0, r0, r1
	.loc	2 490 34                        @ source/oled/SH1106.c:490:34
	ldr	r1, [sp, #40]
	.loc	2 490 39                        @ source/oled/SH1106.c:490:39
	ldr	r2, [sp, #12]
	.loc	2 490 37                        @ source/oled/SH1106.c:490:37
	adds	r1, r1, r2
	.loc	2 490 42                        @ source/oled/SH1106.c:490:42
	ldr	r2, [sp, #32]
	.loc	2 490 9                         @ source/oled/SH1106.c:490:9
	uxth	r0, r0
	uxth	r1, r1
	bl	SH1106_DrawPixel
	.loc	2 491 26 is_stmt 1              @ source/oled/SH1106.c:491:26
	ldr	r0, [sp, #44]
	.loc	2 491 31 is_stmt 0              @ source/oled/SH1106.c:491:31
	ldr	r1, [sp, #16]
	.loc	2 491 29                        @ source/oled/SH1106.c:491:29
	subs	r0, r0, r1
	.loc	2 491 34                        @ source/oled/SH1106.c:491:34
	ldr	r1, [sp, #40]
	.loc	2 491 39                        @ source/oled/SH1106.c:491:39
	ldr	r2, [sp, #12]
	.loc	2 491 37                        @ source/oled/SH1106.c:491:37
	adds	r1, r1, r2
	.loc	2 491 42                        @ source/oled/SH1106.c:491:42
	ldr	r2, [sp, #32]
	.loc	2 491 9                         @ source/oled/SH1106.c:491:9
	uxth	r0, r0
	uxth	r1, r1
	bl	SH1106_DrawPixel
	.loc	2 492 26 is_stmt 1              @ source/oled/SH1106.c:492:26
	ldr	r0, [sp, #44]
	.loc	2 492 31 is_stmt 0              @ source/oled/SH1106.c:492:31
	ldr	r1, [sp, #16]
	.loc	2 492 29                        @ source/oled/SH1106.c:492:29
	adds	r0, r0, r1
	.loc	2 492 34                        @ source/oled/SH1106.c:492:34
	ldr	r1, [sp, #40]
	.loc	2 492 39                        @ source/oled/SH1106.c:492:39
	ldr	r2, [sp, #12]
	.loc	2 492 37                        @ source/oled/SH1106.c:492:37
	subs	r1, r1, r2
	.loc	2 492 42                        @ source/oled/SH1106.c:492:42
	ldr	r2, [sp, #32]
	.loc	2 492 9                         @ source/oled/SH1106.c:492:9
	uxth	r0, r0
	uxth	r1, r1
	bl	SH1106_DrawPixel
	.loc	2 493 26 is_stmt 1              @ source/oled/SH1106.c:493:26
	ldr	r0, [sp, #44]
	.loc	2 493 31 is_stmt 0              @ source/oled/SH1106.c:493:31
	ldr	r1, [sp, #16]
	.loc	2 493 29                        @ source/oled/SH1106.c:493:29
	subs	r0, r0, r1
	.loc	2 493 34                        @ source/oled/SH1106.c:493:34
	ldr	r1, [sp, #40]
	.loc	2 493 39                        @ source/oled/SH1106.c:493:39
	ldr	r2, [sp, #12]
	.loc	2 493 37                        @ source/oled/SH1106.c:493:37
	subs	r1, r1, r2
	.loc	2 493 42                        @ source/oled/SH1106.c:493:42
	ldr	r2, [sp, #32]
	.loc	2 493 9                         @ source/oled/SH1106.c:493:9
	uxth	r0, r0
	uxth	r1, r1
	bl	SH1106_DrawPixel
	.loc	2 495 26 is_stmt 1              @ source/oled/SH1106.c:495:26
	ldr	r0, [sp, #44]
	.loc	2 495 31 is_stmt 0              @ source/oled/SH1106.c:495:31
	ldr	r1, [sp, #12]
	.loc	2 495 29                        @ source/oled/SH1106.c:495:29
	adds	r0, r0, r1
	.loc	2 495 34                        @ source/oled/SH1106.c:495:34
	ldr	r1, [sp, #40]
	.loc	2 495 39                        @ source/oled/SH1106.c:495:39
	ldr	r2, [sp, #16]
	.loc	2 495 37                        @ source/oled/SH1106.c:495:37
	adds	r1, r1, r2
	.loc	2 495 42                        @ source/oled/SH1106.c:495:42
	ldr	r2, [sp, #32]
	.loc	2 495 9                         @ source/oled/SH1106.c:495:9
	uxth	r0, r0
	uxth	r1, r1
	bl	SH1106_DrawPixel
	.loc	2 496 26 is_stmt 1              @ source/oled/SH1106.c:496:26
	ldr	r0, [sp, #44]
	.loc	2 496 31 is_stmt 0              @ source/oled/SH1106.c:496:31
	ldr	r1, [sp, #12]
	.loc	2 496 29                        @ source/oled/SH1106.c:496:29
	subs	r0, r0, r1
	.loc	2 496 34                        @ source/oled/SH1106.c:496:34
	ldr	r1, [sp, #40]
	.loc	2 496 39                        @ source/oled/SH1106.c:496:39
	ldr	r2, [sp, #16]
	.loc	2 496 37                        @ source/oled/SH1106.c:496:37
	adds	r1, r1, r2
	.loc	2 496 42                        @ source/oled/SH1106.c:496:42
	ldr	r2, [sp, #32]
	.loc	2 496 9                         @ source/oled/SH1106.c:496:9
	uxth	r0, r0
	uxth	r1, r1
	bl	SH1106_DrawPixel
	.loc	2 497 26 is_stmt 1              @ source/oled/SH1106.c:497:26
	ldr	r0, [sp, #44]
	.loc	2 497 31 is_stmt 0              @ source/oled/SH1106.c:497:31
	ldr	r1, [sp, #12]
	.loc	2 497 29                        @ source/oled/SH1106.c:497:29
	adds	r0, r0, r1
	.loc	2 497 34                        @ source/oled/SH1106.c:497:34
	ldr	r1, [sp, #40]
	.loc	2 497 39                        @ source/oled/SH1106.c:497:39
	ldr	r2, [sp, #16]
	.loc	2 497 37                        @ source/oled/SH1106.c:497:37
	subs	r1, r1, r2
	.loc	2 497 42                        @ source/oled/SH1106.c:497:42
	ldr	r2, [sp, #32]
	.loc	2 497 9                         @ source/oled/SH1106.c:497:9
	uxth	r0, r0
	uxth	r1, r1
	bl	SH1106_DrawPixel
	.loc	2 498 26 is_stmt 1              @ source/oled/SH1106.c:498:26
	ldr	r0, [sp, #44]
	.loc	2 498 31 is_stmt 0              @ source/oled/SH1106.c:498:31
	ldr	r1, [sp, #12]
	.loc	2 498 29                        @ source/oled/SH1106.c:498:29
	subs	r0, r0, r1
	.loc	2 498 34                        @ source/oled/SH1106.c:498:34
	ldr	r1, [sp, #40]
	.loc	2 498 39                        @ source/oled/SH1106.c:498:39
	ldr	r2, [sp, #16]
	.loc	2 498 37                        @ source/oled/SH1106.c:498:37
	subs	r1, r1, r2
	.loc	2 498 42                        @ source/oled/SH1106.c:498:42
	ldr	r2, [sp, #32]
	.loc	2 498 9                         @ source/oled/SH1106.c:498:9
	uxth	r0, r0
	uxth	r1, r1
	bl	SH1106_DrawPixel
.Ltmp226:
	.loc	2 480 5 is_stmt 1               @ source/oled/SH1106.c:480:5
	b	.LBB16_1
.LBB16_5:
	.loc	2 500 1 epilogue_begin          @ source/oled/SH1106.c:500:1
	add	sp, #48
	pop	{r4, pc}
.Ltmp227:
.Lfunc_end16:
	.size	SH1106_DrawCircle, .Lfunc_end16-SH1106_DrawCircle
	.cfi_endproc
	.cantunwind
	.fnend
                                        @ -- End function
	.section	.text.SH1106_DrawFilledCircle,"ax",%progbits
	.hidden	SH1106_DrawFilledCircle         @ -- Begin function SH1106_DrawFilledCircle
	.globl	SH1106_DrawFilledCircle
	.p2align	1
	.type	SH1106_DrawFilledCircle,%function
	.code	16                              @ @SH1106_DrawFilledCircle
	.thumb_func
SH1106_DrawFilledCircle:
.Lfunc_begin17:
	.loc	2 502 0                         @ source/oled/SH1106.c:502:0
	.fnstart
	.cfi_startproc
@ %bb.0:
	.save	{r4, lr}
	push	{r4, lr}
	.cfi_def_cfa_offset 8
	.cfi_offset lr, -4
	.cfi_offset r4, -8
	.pad	#72
	sub	sp, #72
	.cfi_def_cfa_offset 80
	mov	r4, r0
                                        @ kill: def $r0 killed $r2
                                        @ kill: def $r0 killed $r1
                                        @ kill: def $r0 killed $r4
	add	r0, sp, #68
	str	r0, [sp, #20]                   @ 4-byte Spill
	strh	r4, [r0]
	add	r4, sp, #64
	str	r4, [sp, #32]                   @ 4-byte Spill
	strh	r1, [r4]
	add	r1, sp, #60
	str	r1, [sp, #28]                   @ 4-byte Spill
	strh	r2, [r1]
	str	r3, [sp, #56]
.Ltmp228:
	.loc	2 503 18 prologue_end           @ source/oled/SH1106.c:503:18
	ldr	r2, [sp, #60]
	movs	r1, #1
	.loc	2 503 16 is_stmt 0              @ source/oled/SH1106.c:503:16
	subs	r2, r1, r2
	add	r3, sp, #52
	.loc	2 503 10                        @ source/oled/SH1106.c:503:10
	strh	r2, [r3]
	add	r2, sp, #48
	.loc	2 504 10 is_stmt 1              @ source/oled/SH1106.c:504:10
	strh	r1, [r2]
	.loc	2 505 23                        @ source/oled/SH1106.c:505:23
	ldr	r1, [sp, #60]
	.loc	2 505 21 is_stmt 0              @ source/oled/SH1106.c:505:21
	lsls	r1, r1, #1
	rsbs	r1, r1, #0
	add	r2, sp, #44
	.loc	2 505 10                        @ source/oled/SH1106.c:505:10
	strh	r1, [r2]
	add	r2, sp, #40
	movs	r1, #0
	.loc	2 506 10 is_stmt 1              @ source/oled/SH1106.c:506:10
	str	r1, [sp, #24]                   @ 4-byte Spill
	strh	r1, [r2]
	.loc	2 507 14                        @ source/oled/SH1106.c:507:14
	ldr	r1, [sp, #60]
	add	r2, sp, #36
	.loc	2 507 10 is_stmt 0              @ source/oled/SH1106.c:507:10
	strh	r1, [r2]
	.loc	2 509 22 is_stmt 1              @ source/oled/SH1106.c:509:22
	ldrh	r0, [r0]
	.loc	2 509 26 is_stmt 0              @ source/oled/SH1106.c:509:26
	ldr	r1, [sp, #64]
	.loc	2 509 31                        @ source/oled/SH1106.c:509:31
	ldr	r2, [sp, #60]
	.loc	2 509 29                        @ source/oled/SH1106.c:509:29
	adds	r1, r1, r2
	.loc	2 509 34                        @ source/oled/SH1106.c:509:34
	ldr	r2, [sp, #56]
	.loc	2 509 5                         @ source/oled/SH1106.c:509:5
	uxth	r1, r1
	bl	SH1106_DrawPixel
	ldr	r0, [sp, #20]                   @ 4-byte Reload
	.loc	2 510 22 is_stmt 1              @ source/oled/SH1106.c:510:22
	ldrh	r0, [r0]
	.loc	2 510 26 is_stmt 0              @ source/oled/SH1106.c:510:26
	ldr	r1, [sp, #64]
	.loc	2 510 31                        @ source/oled/SH1106.c:510:31
	ldr	r2, [sp, #60]
	.loc	2 510 29                        @ source/oled/SH1106.c:510:29
	subs	r1, r1, r2
	.loc	2 510 34                        @ source/oled/SH1106.c:510:34
	ldr	r2, [sp, #56]
	.loc	2 510 5                         @ source/oled/SH1106.c:510:5
	uxth	r1, r1
	bl	SH1106_DrawPixel
	ldr	r1, [sp, #32]                   @ 4-byte Reload
	.loc	2 511 22 is_stmt 1              @ source/oled/SH1106.c:511:22
	ldr	r0, [sp, #68]
	.loc	2 511 27 is_stmt 0              @ source/oled/SH1106.c:511:27
	ldr	r2, [sp, #60]
	.loc	2 511 25                        @ source/oled/SH1106.c:511:25
	adds	r0, r0, r2
	.loc	2 511 30                        @ source/oled/SH1106.c:511:30
	ldrh	r1, [r1]
	.loc	2 511 34                        @ source/oled/SH1106.c:511:34
	ldr	r2, [sp, #56]
	.loc	2 511 5                         @ source/oled/SH1106.c:511:5
	uxth	r0, r0
	bl	SH1106_DrawPixel
	ldr	r1, [sp, #32]                   @ 4-byte Reload
	.loc	2 512 22 is_stmt 1              @ source/oled/SH1106.c:512:22
	ldr	r0, [sp, #68]
	.loc	2 512 27 is_stmt 0              @ source/oled/SH1106.c:512:27
	ldr	r2, [sp, #60]
	.loc	2 512 25                        @ source/oled/SH1106.c:512:25
	subs	r0, r0, r2
	.loc	2 512 30                        @ source/oled/SH1106.c:512:30
	ldrh	r1, [r1]
	.loc	2 512 34                        @ source/oled/SH1106.c:512:34
	ldr	r2, [sp, #56]
	.loc	2 512 5                         @ source/oled/SH1106.c:512:5
	uxth	r0, r0
	bl	SH1106_DrawPixel
	ldr	r1, [sp, #20]                   @ 4-byte Reload
	ldr	r2, [sp, #24]                   @ 4-byte Reload
	ldr	r0, [sp, #28]                   @ 4-byte Reload
	ldr	r3, [sp, #32]                   @ 4-byte Reload
	.loc	2 513 21 is_stmt 1              @ source/oled/SH1106.c:513:21
	ldrsh	r1, [r1, r2]
	.loc	2 513 26 is_stmt 0              @ source/oled/SH1106.c:513:26
	ldrsh	r2, [r0, r2]
	.loc	2 513 24                        @ source/oled/SH1106.c:513:24
	subs	r0, r1, r2
	.loc	2 513 29                        @ source/oled/SH1106.c:513:29
	ldrh	r3, [r3]
	.loc	2 513 36                        @ source/oled/SH1106.c:513:36
	adds	r1, r1, r2
	.loc	2 513 45                        @ source/oled/SH1106.c:513:45
	ldr	r2, [sp, #56]
	.loc	2 513 5                         @ source/oled/SH1106.c:513:5
	str	r2, [sp]
	uxth	r0, r0
	uxth	r2, r1
	mov	r1, r3
	bl	SH1106_DrawLine
	.loc	2 515 5 is_stmt 1               @ source/oled/SH1106.c:515:5
	b	.LBB17_1
.LBB17_1:                               @ =>This Inner Loop Header: Depth=1
	.loc	2 515 12 is_stmt 0              @ source/oled/SH1106.c:515:12
	movs	r2, #0
	add	r0, sp, #40
	ldrsh	r0, [r0, r2]
	add	r1, sp, #36
	.loc	2 515 16                        @ source/oled/SH1106.c:515:16
	ldrsh	r1, [r1, r2]
	.loc	2 515 5                         @ source/oled/SH1106.c:515:5
	cmp	r0, r1
	bge	.LBB17_5
	b	.LBB17_2
.LBB17_2:                               @   in Loop: Header=BB17_1 Depth=1
.Ltmp229:
	.loc	2 516 13 is_stmt 1              @ source/oled/SH1106.c:516:13
	movs	r1, #0
	add	r0, sp, #52
	ldrsh	r0, [r0, r1]
.Ltmp230:
	.loc	2 516 13 is_stmt 0              @ source/oled/SH1106.c:516:13
	cmp	r0, #0
	bmi	.LBB17_4
	b	.LBB17_3
.LBB17_3:                               @   in Loop: Header=BB17_1 Depth=1
.Ltmp231:
	.loc	2 517 14 is_stmt 1              @ source/oled/SH1106.c:517:14
	ldr	r0, [sp, #36]
	subs	r0, r0, #1
	add	r1, sp, #36
	strh	r0, [r1]
	.loc	2 518 19                        @ source/oled/SH1106.c:518:19
	ldr	r0, [sp, #44]
	adds	r0, r0, #2
	add	r1, sp, #44
	strh	r0, [r1]
	.loc	2 519 18                        @ source/oled/SH1106.c:519:18
	ldr	r1, [sp, #44]
	.loc	2 519 15 is_stmt 0              @ source/oled/SH1106.c:519:15
	ldr	r0, [sp, #52]
	adds	r0, r0, r1
	add	r1, sp, #52
	strh	r0, [r1]
	.loc	2 520 9 is_stmt 1               @ source/oled/SH1106.c:520:9
	b	.LBB17_4
.Ltmp232:
.LBB17_4:                               @   in Loop: Header=BB17_1 Depth=1
	.loc	2 521 10                        @ source/oled/SH1106.c:521:10
	ldr	r0, [sp, #40]
	adds	r1, r0, #1
	add	r0, sp, #40
	str	r0, [sp, #4]                    @ 4-byte Spill
	strh	r1, [r0]
	.loc	2 522 15                        @ source/oled/SH1106.c:522:15
	ldr	r1, [sp, #48]
	adds	r1, r1, #2
	add	r2, sp, #48
	strh	r1, [r2]
	.loc	2 523 14                        @ source/oled/SH1106.c:523:14
	ldr	r2, [sp, #48]
	.loc	2 523 11 is_stmt 0              @ source/oled/SH1106.c:523:11
	ldr	r1, [sp, #52]
	adds	r1, r1, r2
	add	r2, sp, #52
	strh	r1, [r2]
	movs	r1, #0
	str	r1, [sp, #12]                   @ 4-byte Spill
	add	r2, sp, #68
	.loc	2 525 25 is_stmt 1              @ source/oled/SH1106.c:525:25
	str	r2, [sp, #8]                    @ 4-byte Spill
	ldrsh	r2, [r2, r1]
	.loc	2 525 30 is_stmt 0              @ source/oled/SH1106.c:525:30
	ldrsh	r3, [r0, r1]
	.loc	2 525 28                        @ source/oled/SH1106.c:525:28
	subs	r0, r2, r3
	.loc	2 525 33                        @ source/oled/SH1106.c:525:33
	ldr	r1, [sp, #64]
	.loc	2 525 38                        @ source/oled/SH1106.c:525:38
	ldr	r4, [sp, #36]
	.loc	2 525 36                        @ source/oled/SH1106.c:525:36
	adds	r1, r1, r4
	.loc	2 525 44                        @ source/oled/SH1106.c:525:44
	adds	r2, r2, r3
	.loc	2 525 57                        @ source/oled/SH1106.c:525:57
	ldr	r3, [sp, #56]
	.loc	2 525 9                         @ source/oled/SH1106.c:525:9
	str	r3, [sp]
	uxth	r0, r0
	uxth	r2, r2
	uxth	r3, r1
	mov	r1, r3
	bl	SH1106_DrawLine
	ldr	r0, [sp, #4]                    @ 4-byte Reload
	ldr	r2, [sp, #8]                    @ 4-byte Reload
	ldr	r1, [sp, #12]                   @ 4-byte Reload
	.loc	2 526 25 is_stmt 1              @ source/oled/SH1106.c:526:25
	ldrsh	r2, [r2, r1]
	.loc	2 526 30 is_stmt 0              @ source/oled/SH1106.c:526:30
	ldrsh	r3, [r0, r1]
	.loc	2 526 28                        @ source/oled/SH1106.c:526:28
	adds	r0, r2, r3
	.loc	2 526 33                        @ source/oled/SH1106.c:526:33
	ldr	r1, [sp, #64]
	.loc	2 526 38                        @ source/oled/SH1106.c:526:38
	ldr	r4, [sp, #36]
	.loc	2 526 36                        @ source/oled/SH1106.c:526:36
	subs	r1, r1, r4
	.loc	2 526 44                        @ source/oled/SH1106.c:526:44
	subs	r2, r2, r3
	.loc	2 526 57                        @ source/oled/SH1106.c:526:57
	ldr	r3, [sp, #56]
	.loc	2 526 9                         @ source/oled/SH1106.c:526:9
	str	r3, [sp]
	uxth	r0, r0
	uxth	r2, r2
	uxth	r3, r1
	mov	r1, r3
	bl	SH1106_DrawLine
	ldr	r0, [sp, #8]                    @ 4-byte Reload
	ldr	r1, [sp, #12]                   @ 4-byte Reload
	.loc	2 528 25 is_stmt 1              @ source/oled/SH1106.c:528:25
	ldrsh	r2, [r0, r1]
	add	r0, sp, #36
	.loc	2 528 30 is_stmt 0              @ source/oled/SH1106.c:528:30
	str	r0, [sp, #16]                   @ 4-byte Spill
	ldrsh	r3, [r0, r1]
	.loc	2 528 28                        @ source/oled/SH1106.c:528:28
	adds	r0, r2, r3
	.loc	2 528 33                        @ source/oled/SH1106.c:528:33
	ldr	r1, [sp, #64]
	.loc	2 528 38                        @ source/oled/SH1106.c:528:38
	ldr	r4, [sp, #40]
	.loc	2 528 36                        @ source/oled/SH1106.c:528:36
	adds	r1, r1, r4
	.loc	2 528 44                        @ source/oled/SH1106.c:528:44
	subs	r2, r2, r3
	.loc	2 528 57                        @ source/oled/SH1106.c:528:57
	ldr	r3, [sp, #56]
	.loc	2 528 9                         @ source/oled/SH1106.c:528:9
	str	r3, [sp]
	uxth	r0, r0
	uxth	r2, r2
	uxth	r3, r1
	mov	r1, r3
	bl	SH1106_DrawLine
	ldr	r2, [sp, #8]                    @ 4-byte Reload
	ldr	r1, [sp, #12]                   @ 4-byte Reload
	ldr	r0, [sp, #16]                   @ 4-byte Reload
	.loc	2 529 25 is_stmt 1              @ source/oled/SH1106.c:529:25
	ldrsh	r2, [r2, r1]
	.loc	2 529 30 is_stmt 0              @ source/oled/SH1106.c:529:30
	ldrsh	r3, [r0, r1]
	.loc	2 529 28                        @ source/oled/SH1106.c:529:28
	adds	r0, r2, r3
	.loc	2 529 33                        @ source/oled/SH1106.c:529:33
	ldr	r1, [sp, #64]
	.loc	2 529 38                        @ source/oled/SH1106.c:529:38
	ldr	r4, [sp, #40]
	.loc	2 529 36                        @ source/oled/SH1106.c:529:36
	subs	r1, r1, r4
	.loc	2 529 44                        @ source/oled/SH1106.c:529:44
	subs	r2, r2, r3
	.loc	2 529 57                        @ source/oled/SH1106.c:529:57
	ldr	r3, [sp, #56]
	.loc	2 529 9                         @ source/oled/SH1106.c:529:9
	str	r3, [sp]
	uxth	r0, r0
	uxth	r2, r2
	uxth	r3, r1
	mov	r1, r3
	bl	SH1106_DrawLine
.Ltmp233:
	.loc	2 515 5 is_stmt 1               @ source/oled/SH1106.c:515:5
	b	.LBB17_1
.LBB17_5:
	.loc	2 531 1 epilogue_begin          @ source/oled/SH1106.c:531:1
	add	sp, #72
	pop	{r4, pc}
.Ltmp234:
.Lfunc_end17:
	.size	SH1106_DrawFilledCircle, .Lfunc_end17-SH1106_DrawFilledCircle
	.cfi_endproc
	.cantunwind
	.fnend
                                        @ -- End function
	.section	.text.SH1106_Clear,"ax",%progbits
	.hidden	SH1106_Clear                    @ -- Begin function SH1106_Clear
	.globl	SH1106_Clear
	.p2align	1
	.type	SH1106_Clear,%function
	.code	16                              @ @SH1106_Clear
	.thumb_func
SH1106_Clear:
.Lfunc_begin18:
	.loc	2 536 0                         @ source/oled/SH1106.c:536:0
	.fnstart
	.cfi_startproc
@ %bb.0:
	.save	{r7, lr}
	push	{r7, lr}
	.cfi_def_cfa_offset 8
	.cfi_offset lr, -4
	.cfi_offset r7, -8
	movs	r0, #0
.Ltmp235:
	.loc	2 537 2 prologue_end            @ source/oled/SH1106.c:537:2
	bl	SH1106_Fill
	.loc	2 538 5                         @ source/oled/SH1106.c:538:5
	bl	SH1106_UpdateScreen
	.loc	2 539 1 epilogue_begin          @ source/oled/SH1106.c:539:1
	pop	{r7, pc}
.Ltmp236:
.Lfunc_end18:
	.size	SH1106_Clear, .Lfunc_end18-SH1106_Clear
	.cfi_endproc
	.cantunwind
	.fnend
                                        @ -- End function
	.section	.text.SH1106_ON,"ax",%progbits
	.hidden	SH1106_ON                       @ -- Begin function SH1106_ON
	.globl	SH1106_ON
	.p2align	1
	.type	SH1106_ON,%function
	.code	16                              @ @SH1106_ON
	.thumb_func
SH1106_ON:
.Lfunc_begin19:
	.loc	2 540 0                         @ source/oled/SH1106.c:540:0
	.fnstart
	.cfi_startproc
@ %bb.0:
	.save	{r7, lr}
	push	{r7, lr}
	.cfi_def_cfa_offset 8
	.cfi_offset lr, -4
	.cfi_offset r7, -8
	.pad	#8
	sub	sp, #8
	.cfi_def_cfa_offset 16
	movs	r0, #61
	str	r0, [sp]                        @ 4-byte Spill
	movs	r1, #0
	str	r1, [sp, #4]                    @ 4-byte Spill
	movs	r2, #141
.Ltmp237:
	.loc	2 541 2 prologue_end            @ source/oled/SH1106.c:541:2
	bl	SH1106_I2C_Write
	ldr	r0, [sp]                        @ 4-byte Reload
	ldr	r1, [sp, #4]                    @ 4-byte Reload
	movs	r2, #20
	.loc	2 542 2                         @ source/oled/SH1106.c:542:2
	bl	SH1106_I2C_Write
	ldr	r0, [sp]                        @ 4-byte Reload
	ldr	r1, [sp, #4]                    @ 4-byte Reload
	movs	r2, #175
	.loc	2 543 2                         @ source/oled/SH1106.c:543:2
	bl	SH1106_I2C_Write
	.loc	2 544 1 epilogue_begin          @ source/oled/SH1106.c:544:1
	add	sp, #8
	pop	{r7, pc}
.Ltmp238:
.Lfunc_end19:
	.size	SH1106_ON, .Lfunc_end19-SH1106_ON
	.cfi_endproc
	.cantunwind
	.fnend
                                        @ -- End function
	.section	.text.SH1106_OFF,"ax",%progbits
	.hidden	SH1106_OFF                      @ -- Begin function SH1106_OFF
	.globl	SH1106_OFF
	.p2align	1
	.type	SH1106_OFF,%function
	.code	16                              @ @SH1106_OFF
	.thumb_func
SH1106_OFF:
.Lfunc_begin20:
	.loc	2 545 0                         @ source/oled/SH1106.c:545:0
	.fnstart
	.cfi_startproc
@ %bb.0:
	.save	{r7, lr}
	push	{r7, lr}
	.cfi_def_cfa_offset 8
	.cfi_offset lr, -4
	.cfi_offset r7, -8
	.pad	#8
	sub	sp, #8
	.cfi_def_cfa_offset 16
	movs	r0, #61
	str	r0, [sp]                        @ 4-byte Spill
	movs	r1, #0
	str	r1, [sp, #4]                    @ 4-byte Spill
	movs	r2, #141
.Ltmp239:
	.loc	2 546 2 prologue_end            @ source/oled/SH1106.c:546:2
	bl	SH1106_I2C_Write
	ldr	r0, [sp]                        @ 4-byte Reload
	ldr	r1, [sp, #4]                    @ 4-byte Reload
	movs	r2, #16
	.loc	2 547 2                         @ source/oled/SH1106.c:547:2
	bl	SH1106_I2C_Write
	ldr	r0, [sp]                        @ 4-byte Reload
	ldr	r1, [sp, #4]                    @ 4-byte Reload
	movs	r2, #174
	.loc	2 548 2                         @ source/oled/SH1106.c:548:2
	bl	SH1106_I2C_Write
	.loc	2 549 1 epilogue_begin          @ source/oled/SH1106.c:549:1
	add	sp, #8
	pop	{r7, pc}
.Ltmp240:
.Lfunc_end20:
	.size	SH1106_OFF, .Lfunc_end20-SH1106_OFF
	.cfi_endproc
	.cantunwind
	.fnend
                                        @ -- End function
	.section	.text.SH1106_InvertDisplay,"ax",%progbits
	.hidden	SH1106_InvertDisplay            @ -- Begin function SH1106_InvertDisplay
	.globl	SH1106_InvertDisplay
	.p2align	1
	.type	SH1106_InvertDisplay,%function
	.code	16                              @ @SH1106_InvertDisplay
	.thumb_func
SH1106_InvertDisplay:
.Lfunc_begin21:
	.loc	2 553 0                         @ source/oled/SH1106.c:553:0
	.fnstart
	.cfi_startproc
@ %bb.0:
	.save	{r7, lr}
	push	{r7, lr}
	.cfi_def_cfa_offset 8
	.cfi_offset lr, -4
	.cfi_offset r7, -8
	.pad	#8
	sub	sp, #8
	.cfi_def_cfa_offset 16
	str	r0, [sp, #4]
.Ltmp241:
	.loc	2 554 7 prologue_end            @ source/oled/SH1106.c:554:7
	ldr	r0, [sp, #4]
.Ltmp242:
	.loc	2 554 7 is_stmt 0               @ source/oled/SH1106.c:554:7
	cbz	r0, .LBB21_2
	b	.LBB21_1
.LBB21_1:
	.loc	2 0 7                           @ source/oled/SH1106.c:0:7
	movs	r0, #61
	movs	r1, #0
	movs	r2, #167
.Ltmp243:
	.loc	2 554 10                        @ source/oled/SH1106.c:554:10
	bl	SH1106_I2C_Write
	b	.LBB21_3
.LBB21_2:
	.loc	2 0 10                          @ source/oled/SH1106.c:0:10
	movs	r0, #61
	movs	r1, #0
	movs	r2, #166
	.loc	2 556 8 is_stmt 1               @ source/oled/SH1106.c:556:8
	bl	SH1106_I2C_Write
	b	.LBB21_3
.Ltmp244:
.LBB21_3:
	.loc	2 558 1 epilogue_begin          @ source/oled/SH1106.c:558:1
	add	sp, #8
	pop	{r7, pc}
.Ltmp245:
.Lfunc_end21:
	.size	SH1106_InvertDisplay, .Lfunc_end21-SH1106_InvertDisplay
	.cfi_endproc
	.cantunwind
	.fnend
                                        @ -- End function
	.section	.text.SH1106_DrawBitmap,"ax",%progbits
	.hidden	SH1106_DrawBitmap               @ -- Begin function SH1106_DrawBitmap
	.globl	SH1106_DrawBitmap
	.p2align	1
	.type	SH1106_DrawBitmap,%function
	.code	16                              @ @SH1106_DrawBitmap
	.thumb_func
SH1106_DrawBitmap:
.Lfunc_begin22:
	.loc	2 560 0                         @ source/oled/SH1106.c:560:0
	.fnstart
	.cfi_startproc
@ %bb.0:
	.save	{r4, r5, r6, lr}
	push	{r4, r5, r6, lr}
	.cfi_def_cfa_offset 16
	.cfi_offset lr, -4
	.cfi_offset r6, -8
	.cfi_offset r5, -12
	.cfi_offset r4, -16
	.pad	#48
	sub	sp, #48
	.cfi_def_cfa_offset 64
	str	r2, [sp, #4]                    @ 4-byte Spill
	mov	r4, r1
	ldr	r1, [sp, #4]                    @ 4-byte Reload
	mov	r5, r0
	ldr	r0, [sp, #68]
	ldr	r2, [sp, #64]
                                        @ kill: def $r6 killed $r3
                                        @ kill: def $r6 killed $r4
                                        @ kill: def $r6 killed $r5
	add	r6, sp, #44
	strh	r5, [r6]
	add	r5, sp, #40
	strh	r4, [r5]
	str	r1, [sp, #36]
	add	r1, sp, #32
	strh	r3, [r1]
	add	r3, sp, #28
	strh	r2, [r3]
	add	r2, sp, #24
	strh	r0, [r2]
	movs	r0, #0
.Ltmp246:
	.loc	2 562 26 prologue_end           @ source/oled/SH1106.c:562:26
	ldrsh	r1, [r1, r0]
	.loc	2 562 28 is_stmt 0              @ source/oled/SH1106.c:562:28
	adds	r1, r1, #7
	.loc	2 562 33                        @ source/oled/SH1106.c:562:33
	lsrs	r2, r1, #29
	adds	r1, r1, r2
	lsrs	r1, r1, #3
	add	r2, sp, #20
	.loc	2 562 13                        @ source/oled/SH1106.c:562:13
	strh	r1, [r2]
	add	r1, sp, #16
	.loc	2 563 13 is_stmt 1              @ source/oled/SH1106.c:563:13
	strb	r0, [r1]
	add	r1, sp, #12
.Ltmp247:
	.loc	2 565 17                        @ source/oled/SH1106.c:565:17
	strh	r0, [r1]
	.loc	2 565 9 is_stmt 0               @ source/oled/SH1106.c:565:9
	b	.LBB22_1
.LBB22_1:                               @ =>This Loop Header: Depth=1
                                        @     Child Loop BB22_3 Depth 2
.Ltmp248:
	.loc	2 565 22                        @ source/oled/SH1106.c:565:22
	movs	r2, #0
	add	r0, sp, #12
	ldrsh	r0, [r0, r2]
	add	r1, sp, #28
	.loc	2 565 24                        @ source/oled/SH1106.c:565:24
	ldrsh	r1, [r1, r2]
.Ltmp249:
	.loc	2 565 5                         @ source/oled/SH1106.c:565:5
	cmp	r0, r1
	bge	.LBB22_13
	b	.LBB22_2
.LBB22_2:                               @   in Loop: Header=BB22_1 Depth=1
	.loc	2 0 5                           @ source/oled/SH1106.c:0:5
	add	r1, sp, #8
	movs	r0, #0
.Ltmp250:
	.loc	2 567 21 is_stmt 1              @ source/oled/SH1106.c:567:21
	strh	r0, [r1]
	.loc	2 567 13 is_stmt 0              @ source/oled/SH1106.c:567:13
	b	.LBB22_3
.LBB22_3:                               @   Parent Loop BB22_1 Depth=1
                                        @ =>  This Inner Loop Header: Depth=2
.Ltmp251:
	.loc	2 567 26                        @ source/oled/SH1106.c:567:26
	movs	r2, #0
	add	r0, sp, #8
	ldrsh	r0, [r0, r2]
	add	r1, sp, #32
	.loc	2 567 28                        @ source/oled/SH1106.c:567:28
	ldrsh	r1, [r1, r2]
.Ltmp252:
	.loc	2 567 9                         @ source/oled/SH1106.c:567:9
	cmp	r0, r1
	bge	.LBB22_11
	b	.LBB22_4
.LBB22_4:                               @   in Loop: Header=BB22_3 Depth=2
	.loc	2 0 9                           @ source/oled/SH1106.c:0:9
	add	r0, sp, #8
.Ltmp253:
	.loc	2 569 16 is_stmt 1              @ source/oled/SH1106.c:569:16
	ldrh	r0, [r0]
.Ltmp254:
	.loc	2 569 16 is_stmt 0              @ source/oled/SH1106.c:569:16
	lsls	r0, r0, #29
	cbz	r0, .LBB22_6
	b	.LBB22_5
.LBB22_5:                               @   in Loop: Header=BB22_3 Depth=2
.Ltmp255:
	.loc	2 571 21 is_stmt 1              @ source/oled/SH1106.c:571:21
	ldr	r0, [sp, #16]
	lsls	r0, r0, #1
	add	r1, sp, #16
	strb	r0, [r1]
	.loc	2 572 13                        @ source/oled/SH1106.c:572:13
	b	.LBB22_7
.Ltmp256:
.LBB22_6:                               @   in Loop: Header=BB22_3 Depth=2
	.loc	2 575 50                        @ source/oled/SH1106.c:575:50
	ldr	r0, [sp, #36]
	.loc	2 575 57 is_stmt 0              @ source/oled/SH1106.c:575:57
	movs	r3, #0
	add	r1, sp, #12
	ldrsh	r2, [r1, r3]
	add	r1, sp, #20
	.loc	2 575 61                        @ source/oled/SH1106.c:575:61
	ldrsh	r1, [r1, r3]
	.loc	2 575 59                        @ source/oled/SH1106.c:575:59
	muls	r1, r2, r1
	add	r2, sp, #8
	.loc	2 575 73                        @ source/oled/SH1106.c:575:73
	ldrsh	r2, [r2, r3]
	.loc	2 575 75                        @ source/oled/SH1106.c:575:75
	lsrs	r3, r2, #29
	adds	r2, r2, r3
	asrs	r2, r2, #3
	.loc	2 575 71                        @ source/oled/SH1106.c:575:71
	adds	r1, r1, r2
	.loc	2 575 24                        @ source/oled/SH1106.c:575:24
	ldrb	r0, [r0, r1]
	add	r1, sp, #16
	.loc	2 575 21                        @ source/oled/SH1106.c:575:21
	strb	r0, [r1]
	b	.LBB22_7
.Ltmp257:
.LBB22_7:                               @   in Loop: Header=BB22_3 Depth=2
	.loc	2 0 21                          @ source/oled/SH1106.c:0:21
	add	r0, sp, #16
.Ltmp258:
	.loc	2 577 16 is_stmt 1              @ source/oled/SH1106.c:577:16
	ldrb	r0, [r0]
.Ltmp259:
	.loc	2 577 16 is_stmt 0              @ source/oled/SH1106.c:577:16
	lsls	r0, r0, #24
	cmp	r0, #0
	bpl	.LBB22_9
	b	.LBB22_8
.LBB22_8:                               @   in Loop: Header=BB22_3 Depth=2
.Ltmp260:
	.loc	2 577 46                        @ source/oled/SH1106.c:577:46
	ldr	r0, [sp, #44]
	.loc	2 577 48                        @ source/oled/SH1106.c:577:48
	ldr	r1, [sp, #8]
	.loc	2 577 47                        @ source/oled/SH1106.c:577:47
	adds	r0, r0, r1
	add	r1, sp, #40
	.loc	2 577 51                        @ source/oled/SH1106.c:577:51
	ldrh	r1, [r1]
	add	r2, sp, #24
	.loc	2 577 54                        @ source/oled/SH1106.c:577:54
	ldrh	r2, [r2]
	.loc	2 577 29                        @ source/oled/SH1106.c:577:29
	uxth	r0, r0
	bl	SH1106_DrawPixel
	b	.LBB22_9
.Ltmp261:
.LBB22_9:                               @   in Loop: Header=BB22_3 Depth=2
	.loc	2 578 9 is_stmt 1               @ source/oled/SH1106.c:578:9
	b	.LBB22_10
.Ltmp262:
.LBB22_10:                              @   in Loop: Header=BB22_3 Depth=2
	.loc	2 567 32                        @ source/oled/SH1106.c:567:32
	ldr	r0, [sp, #8]
	adds	r0, r0, #1
	add	r1, sp, #8
	strh	r0, [r1]
	.loc	2 567 9 is_stmt 0               @ source/oled/SH1106.c:567:9
	b	.LBB22_3
.Ltmp263:
.LBB22_11:                              @   in Loop: Header=BB22_1 Depth=1
	.loc	2 579 5 is_stmt 1               @ source/oled/SH1106.c:579:5
	b	.LBB22_12
.Ltmp264:
.LBB22_12:                              @   in Loop: Header=BB22_1 Depth=1
	.loc	2 565 28                        @ source/oled/SH1106.c:565:28
	ldr	r0, [sp, #12]
	adds	r0, r0, #1
	add	r1, sp, #12
	strh	r0, [r1]
	.loc	2 565 33 is_stmt 0              @ source/oled/SH1106.c:565:33
	ldr	r0, [sp, #40]
	adds	r0, r0, #1
	add	r1, sp, #40
	strh	r0, [r1]
	.loc	2 565 5                         @ source/oled/SH1106.c:565:5
	b	.LBB22_1
.Ltmp265:
.LBB22_13:
	.loc	2 580 1 epilogue_begin is_stmt 1 @ source/oled/SH1106.c:580:1
	add	sp, #48
	pop	{r4, r5, r6, pc}
.Ltmp266:
.Lfunc_end22:
	.size	SH1106_DrawBitmap, .Lfunc_end22-SH1106_DrawBitmap
	.cfi_endproc
	.cantunwind
	.fnend
                                        @ -- End function
	.hidden	SH1106_Buffer_                  @ @SH1106_Buffer_
	.type	SH1106_Buffer_,%object
	.section	.bss.SH1106_Buffer_,"aw",%nobits
	.globl	SH1106_Buffer_
SH1106_Buffer_:
	.zero	1025
	.size	SH1106_Buffer_, 1025

	.hidden	SH1106_Buffer                   @ @SH1106_Buffer
	.type	SH1106_Buffer,%object
	.section	.data.SH1106_Buffer,"aw",%progbits
	.globl	SH1106_Buffer
	.p2align	2, 0x0
SH1106_Buffer:
	.long	SH1106_Buffer_+1
	.size	SH1106_Buffer, 4

	.hidden	pixbuf                          @ @pixbuf
	.type	pixbuf,%object
	.section	.bss.pixbuf,"aw",%nobits
	.globl	pixbuf
pixbuf:
	.zero	129
	.size	pixbuf, 129

	.type	SH1106,%object                  @ @SH1106
	.section	.bss.SH1106,"aw",%nobits
	.p2align	1, 0x0
SH1106:
	.zero	6
	.size	SH1106, 6

	.file	4 "D:\\work\\dheeraj\\local\\CEL\\CCC\\CCC_CPU0\\Code" "./source/oled/include\\fonts.h"
	.section	".note.GNU-stack","",%progbits
	.eabi_attribute	30, 6	@ Tag_ABI_optimization_goals
	.ARM_attribute	16, 1	@ Tag_AV_eba