	.text
	.syntax unified
	.eabi_attribute	67, "2.09"	@ Tag_conformance
	.cpu	cortex-m23
	.eabi_attribute	6, 16	@ Tag_CPU_arch
	.eabi_attribute	7, 77	@ Tag_CPU_arch_profile
	.eabi_attribute	8, 0	@ Tag_ARM_ISA_use
	.eabi_attribute	9, 3	@ Tag_THUMB_ISA_use
	.eabi_attribute	34, 0	@ Tag_CPU_unaligned_access
	.eabi_attribute	17, 1	@ Tag_ABI_PCS_GOT_use
	.eabi_attribute	20, 2	@ Tag_ABI_FP_denormal
	.eabi_attribute	21, 0	@ Tag_ABI_FP_exceptions
	.eabi_attribute	23, 1	@ Tag_ABI_FP_number_model
	.eabi_attribute	24, 1	@ Tag_ABI_align_needed
	.eabi_attribute	25, 1	@ Tag_ABI_align_preserved
	.eabi_attribute	38, 1	@ Tag_ABI_FP_16bit_format
	.eabi_attribute	18, 4	@ Tag_ABI_PCS_wchar_t
	.eabi_attribute	26, 2	@ Tag_ABI_enum_size
	.eabi_attribute	14, 0	@ Tag_ABI_PCS_R9_use
	.file	"spi.c"
	.file	1 "C:\\Users\\Anaya\\AppData\\Local\\Keil_v5\\ARM\\ARMCLANG\\bin\\..\\include" "stdint.h"
	.file	2 "D:\\work\\dheeraj\\local\\CEL\\CCC\\CCC_CPU0\\Code" "../../CCC_common/Library/Device/Nuvoton/M261/Include\\spi_reg.h"
	.file	3 "D:\\work\\dheeraj\\local\\CEL\\CCC\\CCC_CPU0\\Code" "../../CCC_common/Library/Device/Nuvoton/M261/Include\\clk_reg.h"
	.file	4 "D:\\work\\dheeraj\\local\\CEL\\CCC\\CCC_CPU0\\Code" "../../CCC_common/Library/Device/Nuvoton/M261/Include\\sys_reg.h"
	.section	.text.SPI_Open,"ax",%progbits
	.hidden	SPI_Open                        @ -- Begin function SPI_Open
	.globl	SPI_Open
	.p2align	2
	.type	SPI_Open,%function
	.code	16                              @ @SPI_Open
	.thumb_func
SPI_Open:
.Lfunc_begin0:
	.file	5 "D:\\work\\dheeraj\\local\\CEL\\CCC\\CCC_CPU0\\Code" "../../CCC_common/Library/StdDriver/src/spi.c"
	.loc	5 54 0                          @ ../../CCC_common/Library/StdDriver/src/spi.c:54:0
	.fnstart
	.cfi_sections .debug_frame
	.cfi_startproc
@ %bb.0:
	.save	{r4, lr}
	push	{r4, lr}
	.cfi_def_cfa_offset 8
	.cfi_offset lr, -4
	.cfi_offset r4, -8
	.pad	#40
	sub	sp, #40
	.cfi_def_cfa_offset 48
	ldr	r4, [sp, #48]
	str	r0, [sp, #36]
	str	r1, [sp, #32]
	str	r2, [sp, #28]
	str	r3, [sp, #24]
	movs	r0, #0
.Ltmp0:
	.loc	5 55 14 prologue_end            @ ../../CCC_common/Library/StdDriver/src/spi.c:55:14
	str	r0, [sp, #20]
	.loc	5 55 80 is_stmt 0               @ ../../CCC_common/Library/StdDriver/src/spi.c:55:80
	str	r0, [sp]
	.loc	5 58 5 is_stmt 1                @ ../../CCC_common/Library/StdDriver/src/spi.c:58:5
	ldr	r1, [sp, #36]
	.loc	5 58 17 is_stmt 0               @ ../../CCC_common/Library/StdDriver/src/spi.c:58:17
	ldr	r0, [r1, #96]
	movs	r2, #1
	bics	r0, r2
	str	r0, [r1, #96]
.Ltmp1:
	.loc	5 60 8 is_stmt 1                @ ../../CCC_common/Library/StdDriver/src/spi.c:60:8
	ldr	r0, [sp, #24]
.Ltmp2:
	.loc	5 60 8 is_stmt 0                @ ../../CCC_common/Library/StdDriver/src/spi.c:60:8
	cmp	r0, #32
	bne	.LBB0_2
	b	.LBB0_1
.LBB0_1:
	.loc	5 0 8                           @ ../../CCC_common/Library/StdDriver/src/spi.c:0:8
	movs	r0, #0
.Ltmp3:
	.loc	5 62 22 is_stmt 1               @ ../../CCC_common/Library/StdDriver/src/spi.c:62:22
	str	r0, [sp, #24]
	.loc	5 63 5                          @ ../../CCC_common/Library/StdDriver/src/spi.c:63:5
	b	.LBB0_2
.Ltmp4:
.LBB0_2:
	.loc	5 66 19                         @ ../../CCC_common/Library/StdDriver/src/spi.c:66:19
	bl	CLK_GetHCLKFreq
	.loc	5 66 17 is_stmt 0               @ ../../CCC_common/Library/StdDriver/src/spi.c:66:17
	str	r0, [sp, #12]
	.loc	5 68 20 is_stmt 1               @ ../../CCC_common/Library/StdDriver/src/spi.c:68:20
	bl	CLK_GetPCLK0Freq
	.loc	5 68 18 is_stmt 0               @ ../../CCC_common/Library/StdDriver/src/spi.c:68:18
	str	r0, [sp, #8]
	.loc	5 70 20 is_stmt 1               @ ../../CCC_common/Library/StdDriver/src/spi.c:70:20
	bl	CLK_GetPCLK1Freq
	.loc	5 70 18 is_stmt 0               @ ../../CCC_common/Library/StdDriver/src/spi.c:70:18
	str	r0, [sp, #4]
.Ltmp5:
	.loc	5 72 8 is_stmt 1                @ ../../CCC_common/Library/StdDriver/src/spi.c:72:8
	ldr	r0, [sp, #32]
.Ltmp6:
	.loc	5 72 8 is_stmt 0                @ ../../CCC_common/Library/StdDriver/src/spi.c:72:8
	cbz	r0, .LBB0_3
	b	.LBB0_72
.LBB0_3:
.Ltmp7:
	.loc	5 75 9 is_stmt 1                @ ../../CCC_common/Library/StdDriver/src/spi.c:75:9
	ldr	r1, [sp, #36]
	movs	r0, #0
	.loc	5 75 20 is_stmt 0               @ ../../CCC_common/Library/StdDriver/src/spi.c:75:20
	str	r0, [r1, #8]
	.loc	5 78 20 is_stmt 1               @ ../../CCC_common/Library/StdDriver/src/spi.c:78:20
	ldr	r0, [sp, #32]
	.loc	5 78 38 is_stmt 0               @ ../../CCC_common/Library/StdDriver/src/spi.c:78:38
	ldr	r1, [sp, #24]
	.loc	5 78 51                         @ ../../CCC_common/Library/StdDriver/src/spi.c:78:51
	lsls	r1, r1, #8
	.loc	5 78 35                         @ ../../CCC_common/Library/StdDriver/src/spi.c:78:35
	orrs	r0, r1
	.loc	5 78 77                         @ ../../CCC_common/Library/StdDriver/src/spi.c:78:77
	ldr	r1, [sp, #28]
	.loc	5 78 74                         @ ../../CCC_common/Library/StdDriver/src/spi.c:78:74
	orrs	r0, r1
	movs	r1, #1
	.loc	5 78 89                         @ ../../CCC_common/Library/StdDriver/src/spi.c:78:89
	orrs	r0, r1
	.loc	5 78 9                          @ ../../CCC_common/Library/StdDriver/src/spi.c:78:9
	ldr	r1, [sp, #36]
	.loc	5 78 18                         @ ../../CCC_common/Library/StdDriver/src/spi.c:78:18
	str	r0, [r1]
.Ltmp8:
	.loc	5 80 12 is_stmt 1               @ ../../CCC_common/Library/StdDriver/src/spi.c:80:12
	ldr	r0, [sp, #48]
	.loc	5 80 27 is_stmt 0               @ ../../CCC_common/Library/StdDriver/src/spi.c:80:27
	ldr	r1, [sp, #12]
.Ltmp9:
	.loc	5 80 12                         @ ../../CCC_common/Library/StdDriver/src/spi.c:80:12
	cmp	r0, r1
	blo	.LBB0_14
	b	.LBB0_4
.LBB0_4:
.Ltmp10:
	.loc	5 83 16 is_stmt 1               @ ../../CCC_common/Library/StdDriver/src/spi.c:83:16
	ldr	r0, [sp, #36]
	ldr	r1, __arm_cp.0_0
.Ltmp11:
	.loc	5 83 16 is_stmt 0               @ ../../CCC_common/Library/StdDriver/src/spi.c:83:16
	cmp	r0, r1
	bne	.LBB0_6
	b	.LBB0_5
.LBB0_5:
	.loc	5 0 16                          @ ../../CCC_common/Library/StdDriver/src/spi.c:0:16
	ldr	r1, __arm_cp.0_3
.Ltmp12:
	.loc	5 85 38 is_stmt 1               @ ../../CCC_common/Library/StdDriver/src/spi.c:85:38
	ldr	r0, [r1]
	movs	r2, #32
	.loc	5 85 46 is_stmt 0               @ ../../CCC_common/Library/StdDriver/src/spi.c:85:46
	orrs	r0, r2
	movs	r2, #16
	.loc	5 85 76                         @ ../../CCC_common/Library/StdDriver/src/spi.c:85:76
	bics	r0, r2
	.loc	5 85 30                         @ ../../CCC_common/Library/StdDriver/src/spi.c:85:30
	str	r0, [r1]
	.loc	5 86 13 is_stmt 1               @ ../../CCC_common/Library/StdDriver/src/spi.c:86:13
	b	.LBB0_13
.Ltmp13:
.LBB0_6:
	.loc	5 87 21                         @ ../../CCC_common/Library/StdDriver/src/spi.c:87:21
	ldr	r0, [sp, #36]
	ldr	r1, __arm_cp.0_1
.Ltmp14:
	.loc	5 87 21 is_stmt 0               @ ../../CCC_common/Library/StdDriver/src/spi.c:87:21
	cmp	r0, r1
	bne	.LBB0_8
	b	.LBB0_7
.LBB0_7:
	.loc	5 0 21                          @ ../../CCC_common/Library/StdDriver/src/spi.c:0:21
	ldr	r1, __arm_cp.0_3
.Ltmp15:
	.loc	5 89 38 is_stmt 1               @ ../../CCC_common/Library/StdDriver/src/spi.c:89:38
	ldr	r0, [r1]
	movs	r2, #128
	.loc	5 89 46 is_stmt 0               @ ../../CCC_common/Library/StdDriver/src/spi.c:89:46
	orrs	r0, r2
	movs	r2, #64
	.loc	5 89 76                         @ ../../CCC_common/Library/StdDriver/src/spi.c:89:76
	bics	r0, r2
	.loc	5 89 30                         @ ../../CCC_common/Library/StdDriver/src/spi.c:89:30
	str	r0, [r1]
	.loc	5 90 13 is_stmt 1               @ ../../CCC_common/Library/StdDriver/src/spi.c:90:13
	b	.LBB0_12
.Ltmp16:
.LBB0_8:
	.loc	5 91 21                         @ ../../CCC_common/Library/StdDriver/src/spi.c:91:21
	ldr	r0, [sp, #36]
	ldr	r1, __arm_cp.0_2
.Ltmp17:
	.loc	5 91 21 is_stmt 0               @ ../../CCC_common/Library/StdDriver/src/spi.c:91:21
	cmp	r0, r1
	bne	.LBB0_10
	b	.LBB0_9
.LBB0_9:
	.loc	5 0 21                          @ ../../CCC_common/Library/StdDriver/src/spi.c:0:21
	ldr	r1, __arm_cp.0_3
.Ltmp18:
	.loc	5 93 38 is_stmt 1               @ ../../CCC_common/Library/StdDriver/src/spi.c:93:38
	ldr	r0, [r1]
	movw	r2, #3072
	.loc	5 93 46 is_stmt 0               @ ../../CCC_common/Library/StdDriver/src/spi.c:93:46
	bics	r0, r2
	movw	r2, #2048
	.loc	5 93 76                         @ ../../CCC_common/Library/StdDriver/src/spi.c:93:76
	adds	r0, r0, r2
	.loc	5 93 30                         @ ../../CCC_common/Library/StdDriver/src/spi.c:93:30
	str	r0, [r1]
	.loc	5 94 13 is_stmt 1               @ ../../CCC_common/Library/StdDriver/src/spi.c:94:13
	b	.LBB0_11
.Ltmp19:
.LBB0_10:
	.loc	5 0 13 is_stmt 0                @ ../../CCC_common/Library/StdDriver/src/spi.c:0:13
	ldr	r1, __arm_cp.0_3
.Ltmp20:
	.loc	5 97 38 is_stmt 1               @ ../../CCC_common/Library/StdDriver/src/spi.c:97:38
	ldr	r0, [r1]
	movw	r2, #12288
	.loc	5 97 46 is_stmt 0               @ ../../CCC_common/Library/StdDriver/src/spi.c:97:46
	bics	r0, r2
	movw	r2, #8192
	.loc	5 97 76                         @ ../../CCC_common/Library/StdDriver/src/spi.c:97:76
	adds	r0, r0, r2
	.loc	5 97 30                         @ ../../CCC_common/Library/StdDriver/src/spi.c:97:30
	str	r0, [r1]
	b	.LBB0_11
.Ltmp21:
.LBB0_11:
	.loc	5 0 30                          @ ../../CCC_common/Library/StdDriver/src/spi.c:0:30
	b	.LBB0_12
.LBB0_12:
	b	.LBB0_13
.LBB0_13:
	.loc	5 99 9 is_stmt 1                @ ../../CCC_common/Library/StdDriver/src/spi.c:99:9
	b	.LBB0_14
.Ltmp22:
.LBB0_14:
	.loc	5 102 12                        @ ../../CCC_common/Library/StdDriver/src/spi.c:102:12
	ldr	r0, [sp, #36]
	ldr	r1, __arm_cp.0_0
.Ltmp23:
	.loc	5 102 12 is_stmt 0              @ ../../CCC_common/Library/StdDriver/src/spi.c:102:12
	cmp	r0, r1
	bne	.LBB0_25
	b	.LBB0_15
.LBB0_15:
	.loc	5 0 12                          @ ../../CCC_common/Library/StdDriver/src/spi.c:0:12
	ldr	r0, __arm_cp.0_8
.Ltmp24:
	.loc	5 104 17 is_stmt 1              @ ../../CCC_common/Library/StdDriver/src/spi.c:104:17
	bl	CLK_GetModuleClockSource
	.loc	5 104 55 is_stmt 0              @ ../../CCC_common/Library/StdDriver/src/spi.c:104:55
	lsls	r0, r0, #4
.Ltmp25:
	.loc	5 104 16                        @ ../../CCC_common/Library/StdDriver/src/spi.c:104:16
	cbnz	r0, .LBB0_17
	b	.LBB0_16
.LBB0_16:
	.loc	5 0 16                          @ ../../CCC_common/Library/StdDriver/src/spi.c:0:16
	ldr	r0, __arm_cp.0_5
.Ltmp26:
	.loc	5 106 27 is_stmt 1              @ ../../CCC_common/Library/StdDriver/src/spi.c:106:27
	str	r0, [sp, #20]
	.loc	5 107 13                        @ ../../CCC_common/Library/StdDriver/src/spi.c:107:13
	b	.LBB0_24
.Ltmp27:
.LBB0_17:
	.loc	5 0 13 is_stmt 0                @ ../../CCC_common/Library/StdDriver/src/spi.c:0:13
	ldr	r0, __arm_cp.0_8
.Ltmp28:
	.loc	5 108 22 is_stmt 1              @ ../../CCC_common/Library/StdDriver/src/spi.c:108:22
	bl	CLK_GetModuleClockSource
	.loc	5 108 60 is_stmt 0              @ ../../CCC_common/Library/StdDriver/src/spi.c:108:60
	lsls	r0, r0, #4
.Ltmp29:
	.loc	5 108 21                        @ ../../CCC_common/Library/StdDriver/src/spi.c:108:21
	cmp	r0, #16
	bne	.LBB0_19
	b	.LBB0_18
.LBB0_18:
.Ltmp30:
	.loc	5 110 29 is_stmt 1              @ ../../CCC_common/Library/StdDriver/src/spi.c:110:29
	bl	CLK_GetPLLClockFreq
	.loc	5 110 27 is_stmt 0              @ ../../CCC_common/Library/StdDriver/src/spi.c:110:27
	str	r0, [sp, #20]
	.loc	5 111 13 is_stmt 1              @ ../../CCC_common/Library/StdDriver/src/spi.c:111:13
	b	.LBB0_23
.Ltmp31:
.LBB0_19:
	.loc	5 0 13 is_stmt 0                @ ../../CCC_common/Library/StdDriver/src/spi.c:0:13
	ldr	r0, __arm_cp.0_8
.Ltmp32:
	.loc	5 112 22 is_stmt 1              @ ../../CCC_common/Library/StdDriver/src/spi.c:112:22
	bl	CLK_GetModuleClockSource
	.loc	5 112 60 is_stmt 0              @ ../../CCC_common/Library/StdDriver/src/spi.c:112:60
	lsls	r0, r0, #4
.Ltmp33:
	.loc	5 112 21                        @ ../../CCC_common/Library/StdDriver/src/spi.c:112:21
	cmp	r0, #32
	bne	.LBB0_21
	b	.LBB0_20
.LBB0_20:
.Ltmp34:
	.loc	5 114 29 is_stmt 1              @ ../../CCC_common/Library/StdDriver/src/spi.c:114:29
	bl	CLK_GetPCLK1Freq
	.loc	5 114 27 is_stmt 0              @ ../../CCC_common/Library/StdDriver/src/spi.c:114:27
	str	r0, [sp, #20]
	.loc	5 115 13 is_stmt 1              @ ../../CCC_common/Library/StdDriver/src/spi.c:115:13
	b	.LBB0_22
.Ltmp35:
.LBB0_21:
	.loc	5 0 13 is_stmt 0                @ ../../CCC_common/Library/StdDriver/src/spi.c:0:13
	ldr	r0, __arm_cp.0_5
.Ltmp36:
	.loc	5 118 27 is_stmt 1              @ ../../CCC_common/Library/StdDriver/src/spi.c:118:27
	str	r0, [sp, #20]
	b	.LBB0_22
.Ltmp37:
.LBB0_22:
	.loc	5 0 27 is_stmt 0                @ ../../CCC_common/Library/StdDriver/src/spi.c:0:27
	b	.LBB0_23
.LBB0_23:
	b	.LBB0_24
.LBB0_24:
	.loc	5 120 9 is_stmt 1               @ ../../CCC_common/Library/StdDriver/src/spi.c:120:9
	b	.LBB0_59
.Ltmp38:
.LBB0_25:
	.loc	5 121 17                        @ ../../CCC_common/Library/StdDriver/src/spi.c:121:17
	ldr	r0, [sp, #36]
	ldr	r1, __arm_cp.0_1
.Ltmp39:
	.loc	5 121 17 is_stmt 0              @ ../../CCC_common/Library/StdDriver/src/spi.c:121:17
	cmp	r0, r1
	bne	.LBB0_36
	b	.LBB0_26
.LBB0_26:
	.loc	5 0 17                          @ ../../CCC_common/Library/StdDriver/src/spi.c:0:17
	ldr	r0, __arm_cp.0_7
.Ltmp40:
	.loc	5 123 17 is_stmt 1              @ ../../CCC_common/Library/StdDriver/src/spi.c:123:17
	bl	CLK_GetModuleClockSource
	.loc	5 123 55 is_stmt 0              @ ../../CCC_common/Library/StdDriver/src/spi.c:123:55
	lsls	r0, r0, #6
.Ltmp41:
	.loc	5 123 16                        @ ../../CCC_common/Library/StdDriver/src/spi.c:123:16
	cbnz	r0, .LBB0_28
	b	.LBB0_27
.LBB0_27:
	.loc	5 0 16                          @ ../../CCC_common/Library/StdDriver/src/spi.c:0:16
	ldr	r0, __arm_cp.0_5
.Ltmp42:
	.loc	5 125 27 is_stmt 1              @ ../../CCC_common/Library/StdDriver/src/spi.c:125:27
	str	r0, [sp, #20]
	.loc	5 126 13                        @ ../../CCC_common/Library/StdDriver/src/spi.c:126:13
	b	.LBB0_35
.Ltmp43:
.LBB0_28:
	.loc	5 0 13 is_stmt 0                @ ../../CCC_common/Library/StdDriver/src/spi.c:0:13
	ldr	r0, __arm_cp.0_7
.Ltmp44:
	.loc	5 127 22 is_stmt 1              @ ../../CCC_common/Library/StdDriver/src/spi.c:127:22
	bl	CLK_GetModuleClockSource
	.loc	5 127 60 is_stmt 0              @ ../../CCC_common/Library/StdDriver/src/spi.c:127:60
	lsls	r0, r0, #6
.Ltmp45:
	.loc	5 127 21                        @ ../../CCC_common/Library/StdDriver/src/spi.c:127:21
	cmp	r0, #64
	bne	.LBB0_30
	b	.LBB0_29
.LBB0_29:
.Ltmp46:
	.loc	5 129 29 is_stmt 1              @ ../../CCC_common/Library/StdDriver/src/spi.c:129:29
	bl	CLK_GetPLLClockFreq
	.loc	5 129 27 is_stmt 0              @ ../../CCC_common/Library/StdDriver/src/spi.c:129:27
	str	r0, [sp, #20]
	.loc	5 130 13 is_stmt 1              @ ../../CCC_common/Library/StdDriver/src/spi.c:130:13
	b	.LBB0_34
.Ltmp47:
.LBB0_30:
	.loc	5 0 13 is_stmt 0                @ ../../CCC_common/Library/StdDriver/src/spi.c:0:13
	ldr	r0, __arm_cp.0_7
.Ltmp48:
	.loc	5 131 22 is_stmt 1              @ ../../CCC_common/Library/StdDriver/src/spi.c:131:22
	bl	CLK_GetModuleClockSource
	.loc	5 131 60 is_stmt 0              @ ../../CCC_common/Library/StdDriver/src/spi.c:131:60
	lsls	r0, r0, #6
.Ltmp49:
	.loc	5 131 21                        @ ../../CCC_common/Library/StdDriver/src/spi.c:131:21
	cmp	r0, #128
	bne	.LBB0_32
	b	.LBB0_31
.LBB0_31:
.Ltmp50:
	.loc	5 133 29 is_stmt 1              @ ../../CCC_common/Library/StdDriver/src/spi.c:133:29
	bl	CLK_GetPCLK0Freq
	.loc	5 133 27 is_stmt 0              @ ../../CCC_common/Library/StdDriver/src/spi.c:133:27
	str	r0, [sp, #20]
	.loc	5 134 13 is_stmt 1              @ ../../CCC_common/Library/StdDriver/src/spi.c:134:13
	b	.LBB0_33
.Ltmp51:
.LBB0_32:
	.loc	5 0 13 is_stmt 0                @ ../../CCC_common/Library/StdDriver/src/spi.c:0:13
	ldr	r0, __arm_cp.0_5
.Ltmp52:
	.loc	5 137 27 is_stmt 1              @ ../../CCC_common/Library/StdDriver/src/spi.c:137:27
	str	r0, [sp, #20]
	b	.LBB0_33
.Ltmp53:
.LBB0_33:
	.loc	5 0 27 is_stmt 0                @ ../../CCC_common/Library/StdDriver/src/spi.c:0:27
	b	.LBB0_34
.LBB0_34:
	b	.LBB0_35
.LBB0_35:
	.loc	5 139 9 is_stmt 1               @ ../../CCC_common/Library/StdDriver/src/spi.c:139:9
	b	.LBB0_58
.Ltmp54:
.LBB0_36:
	.loc	5 140 17                        @ ../../CCC_common/Library/StdDriver/src/spi.c:140:17
	ldr	r0, [sp, #36]
	ldr	r1, __arm_cp.0_2
.Ltmp55:
	.loc	5 140 17 is_stmt 0              @ ../../CCC_common/Library/StdDriver/src/spi.c:140:17
	cmp	r0, r1
	bne	.LBB0_47
	b	.LBB0_37
.LBB0_37:
	.loc	5 0 17                          @ ../../CCC_common/Library/StdDriver/src/spi.c:0:17
	ldr	r0, __arm_cp.0_6
.Ltmp56:
	.loc	5 142 17 is_stmt 1              @ ../../CCC_common/Library/StdDriver/src/spi.c:142:17
	bl	CLK_GetModuleClockSource
	.loc	5 142 55 is_stmt 0              @ ../../CCC_common/Library/StdDriver/src/spi.c:142:55
	lsls	r0, r0, #10
.Ltmp57:
	.loc	5 142 16                        @ ../../CCC_common/Library/StdDriver/src/spi.c:142:16
	cbnz	r0, .LBB0_39
	b	.LBB0_38
.LBB0_38:
	.loc	5 0 16                          @ ../../CCC_common/Library/StdDriver/src/spi.c:0:16
	ldr	r0, __arm_cp.0_5
.Ltmp58:
	.loc	5 144 27 is_stmt 1              @ ../../CCC_common/Library/StdDriver/src/spi.c:144:27
	str	r0, [sp, #20]
	.loc	5 145 13                        @ ../../CCC_common/Library/StdDriver/src/spi.c:145:13
	b	.LBB0_46
.Ltmp59:
.LBB0_39:
	.loc	5 0 13 is_stmt 0                @ ../../CCC_common/Library/StdDriver/src/spi.c:0:13
	ldr	r0, __arm_cp.0_6
.Ltmp60:
	.loc	5 146 22 is_stmt 1              @ ../../CCC_common/Library/StdDriver/src/spi.c:146:22
	bl	CLK_GetModuleClockSource
	.loc	5 146 60 is_stmt 0              @ ../../CCC_common/Library/StdDriver/src/spi.c:146:60
	lsls	r0, r0, #10
	movw	r1, #1024
.Ltmp61:
	.loc	5 146 21                        @ ../../CCC_common/Library/StdDriver/src/spi.c:146:21
	cmp	r0, r1
	bne	.LBB0_41
	b	.LBB0_40
.LBB0_40:
.Ltmp62:
	.loc	5 148 29 is_stmt 1              @ ../../CCC_common/Library/StdDriver/src/spi.c:148:29
	bl	CLK_GetPLLClockFreq
	.loc	5 148 27 is_stmt 0              @ ../../CCC_common/Library/StdDriver/src/spi.c:148:27
	str	r0, [sp, #20]
	.loc	5 149 13 is_stmt 1              @ ../../CCC_common/Library/StdDriver/src/spi.c:149:13
	b	.LBB0_45
.Ltmp63:
.LBB0_41:
	.loc	5 0 13 is_stmt 0                @ ../../CCC_common/Library/StdDriver/src/spi.c:0:13
	ldr	r0, __arm_cp.0_6
.Ltmp64:
	.loc	5 150 22 is_stmt 1              @ ../../CCC_common/Library/StdDriver/src/spi.c:150:22
	bl	CLK_GetModuleClockSource
	.loc	5 150 60 is_stmt 0              @ ../../CCC_common/Library/StdDriver/src/spi.c:150:60
	lsls	r0, r0, #10
	movw	r1, #2048
.Ltmp65:
	.loc	5 150 21                        @ ../../CCC_common/Library/StdDriver/src/spi.c:150:21
	cmp	r0, r1
	bne	.LBB0_43
	b	.LBB0_42
.LBB0_42:
.Ltmp66:
	.loc	5 152 29 is_stmt 1              @ ../../CCC_common/Library/StdDriver/src/spi.c:152:29
	bl	CLK_GetPCLK1Freq
	.loc	5 152 27 is_stmt 0              @ ../../CCC_common/Library/StdDriver/src/spi.c:152:27
	str	r0, [sp, #20]
	.loc	5 153 13 is_stmt 1              @ ../../CCC_common/Library/StdDriver/src/spi.c:153:13
	b	.LBB0_44
.Ltmp67:
.LBB0_43:
	.loc	5 0 13 is_stmt 0                @ ../../CCC_common/Library/StdDriver/src/spi.c:0:13
	ldr	r0, __arm_cp.0_5
.Ltmp68:
	.loc	5 156 27 is_stmt 1              @ ../../CCC_common/Library/StdDriver/src/spi.c:156:27
	str	r0, [sp, #20]
	b	.LBB0_44
.Ltmp69:
.LBB0_44:
	.loc	5 0 27 is_stmt 0                @ ../../CCC_common/Library/StdDriver/src/spi.c:0:27
	b	.LBB0_45
.LBB0_45:
	b	.LBB0_46
.LBB0_46:
	.loc	5 158 9 is_stmt 1               @ ../../CCC_common/Library/StdDriver/src/spi.c:158:9
	b	.LBB0_57
.Ltmp70:
.LBB0_47:
	.loc	5 0 9 is_stmt 0                 @ ../../CCC_common/Library/StdDriver/src/spi.c:0:9
	ldr	r0, __arm_cp.0_4
.Ltmp71:
	.loc	5 161 17 is_stmt 1              @ ../../CCC_common/Library/StdDriver/src/spi.c:161:17
	bl	CLK_GetModuleClockSource
	.loc	5 161 55 is_stmt 0              @ ../../CCC_common/Library/StdDriver/src/spi.c:161:55
	lsls	r0, r0, #12
.Ltmp72:
	.loc	5 161 16                        @ ../../CCC_common/Library/StdDriver/src/spi.c:161:16
	cbnz	r0, .LBB0_49
	b	.LBB0_48
.LBB0_48:
	.loc	5 0 16                          @ ../../CCC_common/Library/StdDriver/src/spi.c:0:16
	ldr	r0, __arm_cp.0_5
.Ltmp73:
	.loc	5 163 27 is_stmt 1              @ ../../CCC_common/Library/StdDriver/src/spi.c:163:27
	str	r0, [sp, #20]
	.loc	5 164 13                        @ ../../CCC_common/Library/StdDriver/src/spi.c:164:13
	b	.LBB0_56
.Ltmp74:
.LBB0_49:
	.loc	5 0 13 is_stmt 0                @ ../../CCC_common/Library/StdDriver/src/spi.c:0:13
	ldr	r0, __arm_cp.0_4
.Ltmp75:
	.loc	5 165 22 is_stmt 1              @ ../../CCC_common/Library/StdDriver/src/spi.c:165:22
	bl	CLK_GetModuleClockSource
	.loc	5 165 60 is_stmt 0              @ ../../CCC_common/Library/StdDriver/src/spi.c:165:60
	lsls	r0, r0, #12
	movw	r1, #4096
.Ltmp76:
	.loc	5 165 21                        @ ../../CCC_common/Library/StdDriver/src/spi.c:165:21
	cmp	r0, r1
	bne	.LBB0_51
	b	.LBB0_50
.LBB0_50:
.Ltmp77:
	.loc	5 167 29 is_stmt 1              @ ../../CCC_common/Library/StdDriver/src/spi.c:167:29
	bl	CLK_GetPLLClockFreq
	.loc	5 167 27 is_stmt 0              @ ../../CCC_common/Library/StdDriver/src/spi.c:167:27
	str	r0, [sp, #20]
	.loc	5 168 13 is_stmt 1              @ ../../CCC_common/Library/StdDriver/src/spi.c:168:13
	b	.LBB0_55
.Ltmp78:
.LBB0_51:
	.loc	5 0 13 is_stmt 0                @ ../../CCC_common/Library/StdDriver/src/spi.c:0:13
	ldr	r0, __arm_cp.0_4
.Ltmp79:
	.loc	5 169 22 is_stmt 1              @ ../../CCC_common/Library/StdDriver/src/spi.c:169:22
	bl	CLK_GetModuleClockSource
	.loc	5 169 60 is_stmt 0              @ ../../CCC_common/Library/StdDriver/src/spi.c:169:60
	lsls	r0, r0, #12
	movw	r1, #8192
.Ltmp80:
	.loc	5 169 21                        @ ../../CCC_common/Library/StdDriver/src/spi.c:169:21
	cmp	r0, r1
	bne	.LBB0_53
	b	.LBB0_52
.LBB0_52:
.Ltmp81:
	.loc	5 171 29 is_stmt 1              @ ../../CCC_common/Library/StdDriver/src/spi.c:171:29
	bl	CLK_GetPCLK0Freq
	.loc	5 171 27 is_stmt 0              @ ../../CCC_common/Library/StdDriver/src/spi.c:171:27
	str	r0, [sp, #20]
	.loc	5 172 13 is_stmt 1              @ ../../CCC_common/Library/StdDriver/src/spi.c:172:13
	b	.LBB0_54
.Ltmp82:
.LBB0_53:
	.loc	5 0 13 is_stmt 0                @ ../../CCC_common/Library/StdDriver/src/spi.c:0:13
	ldr	r0, __arm_cp.0_5
.Ltmp83:
	.loc	5 175 27 is_stmt 1              @ ../../CCC_common/Library/StdDriver/src/spi.c:175:27
	str	r0, [sp, #20]
	b	.LBB0_54
.Ltmp84:
.LBB0_54:
	.loc	5 0 27 is_stmt 0                @ ../../CCC_common/Library/StdDriver/src/spi.c:0:27
	b	.LBB0_55
.LBB0_55:
	b	.LBB0_56
.LBB0_56:
	b	.LBB0_57
.LBB0_57:
	b	.LBB0_58
.LBB0_58:
	b	.LBB0_59
.LBB0_59:
.Ltmp85:
	.loc	5 179 12 is_stmt 1              @ ../../CCC_common/Library/StdDriver/src/spi.c:179:12
	ldr	r0, [sp, #48]
	.loc	5 179 27 is_stmt 0              @ ../../CCC_common/Library/StdDriver/src/spi.c:179:27
	ldr	r1, [sp, #12]
.Ltmp86:
	.loc	5 179 12                        @ ../../CCC_common/Library/StdDriver/src/spi.c:179:12
	cmp	r0, r1
	blo	.LBB0_61
	b	.LBB0_60
.LBB0_60:
.Ltmp87:
	.loc	5 182 13 is_stmt 1              @ ../../CCC_common/Library/StdDriver/src/spi.c:182:13
	ldr	r1, [sp, #36]
	movs	r0, #0
	.loc	5 182 25 is_stmt 0              @ ../../CCC_common/Library/StdDriver/src/spi.c:182:25
	str	r0, [r1, #4]
	.loc	5 184 27 is_stmt 1              @ ../../CCC_common/Library/StdDriver/src/spi.c:184:27
	ldr	r0, [sp, #20]
	.loc	5 184 25 is_stmt 0              @ ../../CCC_common/Library/StdDriver/src/spi.c:184:25
	str	r0, [sp]
	.loc	5 185 9 is_stmt 1               @ ../../CCC_common/Library/StdDriver/src/spi.c:185:9
	b	.LBB0_71
.Ltmp88:
.LBB0_61:
	.loc	5 186 17                        @ ../../CCC_common/Library/StdDriver/src/spi.c:186:17
	ldr	r0, [sp, #48]
	.loc	5 186 32 is_stmt 0              @ ../../CCC_common/Library/StdDriver/src/spi.c:186:32
	ldr	r1, [sp, #20]
.Ltmp89:
	.loc	5 186 17                        @ ../../CCC_common/Library/StdDriver/src/spi.c:186:17
	cmp	r0, r1
	blo	.LBB0_63
	b	.LBB0_62
.LBB0_62:
.Ltmp90:
	.loc	5 189 13 is_stmt 1              @ ../../CCC_common/Library/StdDriver/src/spi.c:189:13
	ldr	r1, [sp, #36]
	movs	r0, #0
	.loc	5 189 25 is_stmt 0              @ ../../CCC_common/Library/StdDriver/src/spi.c:189:25
	str	r0, [r1, #4]
	.loc	5 191 27 is_stmt 1              @ ../../CCC_common/Library/StdDriver/src/spi.c:191:27
	ldr	r0, [sp, #20]
	.loc	5 191 25 is_stmt 0              @ ../../CCC_common/Library/StdDriver/src/spi.c:191:25
	str	r0, [sp]
	.loc	5 192 9 is_stmt 1               @ ../../CCC_common/Library/StdDriver/src/spi.c:192:9
	b	.LBB0_70
.Ltmp91:
.LBB0_63:
	.loc	5 193 17                        @ ../../CCC_common/Library/StdDriver/src/spi.c:193:17
	ldr	r0, [sp, #48]
.Ltmp92:
	.loc	5 193 17 is_stmt 0              @ ../../CCC_common/Library/StdDriver/src/spi.c:193:17
	cbnz	r0, .LBB0_65
	b	.LBB0_64
.LBB0_64:
.Ltmp93:
	.loc	5 196 13 is_stmt 1              @ ../../CCC_common/Library/StdDriver/src/spi.c:196:13
	ldr	r1, [sp, #36]
	.loc	5 196 25 is_stmt 0              @ ../../CCC_common/Library/StdDriver/src/spi.c:196:25
	ldr	r0, [r1, #4]
	ldr	r2, __arm_cp.0_10
	orrs	r0, r2
	str	r0, [r1, #4]
	.loc	5 198 28 is_stmt 1              @ ../../CCC_common/Library/StdDriver/src/spi.c:198:28
	ldr	r0, [sp, #20]
	.loc	5 198 38 is_stmt 0              @ ../../CCC_common/Library/StdDriver/src/spi.c:198:38
	lsrs	r0, r0, #9
	.loc	5 198 25                        @ ../../CCC_common/Library/StdDriver/src/spi.c:198:25
	str	r0, [sp]
	.loc	5 199 9 is_stmt 1               @ ../../CCC_common/Library/StdDriver/src/spi.c:199:9
	b	.LBB0_69
.Ltmp94:
.LBB0_65:
	.loc	5 202 25                        @ ../../CCC_common/Library/StdDriver/src/spi.c:202:25
	ldr	r2, [sp, #20]
	movs	r1, #10
	.loc	5 202 35 is_stmt 0              @ ../../CCC_common/Library/StdDriver/src/spi.c:202:35
	mov	r0, r1
	muls	r0, r2, r0
	.loc	5 202 45                        @ ../../CCC_common/Library/StdDriver/src/spi.c:202:45
	ldr	r2, [sp, #48]
	.loc	5 202 43                        @ ../../CCC_common/Library/StdDriver/src/spi.c:202:43
	udiv	r0, r0, r2
	.loc	5 202 57                        @ ../../CCC_common/Library/StdDriver/src/spi.c:202:57
	adds	r0, r0, #5
	.loc	5 202 64                        @ ../../CCC_common/Library/StdDriver/src/spi.c:202:64
	udiv	r0, r0, r1
	.loc	5 202 72                        @ ../../CCC_common/Library/StdDriver/src/spi.c:202:72
	subs	r0, r0, #1
	.loc	5 202 20                        @ ../../CCC_common/Library/StdDriver/src/spi.c:202:20
	str	r0, [sp, #16]
.Ltmp95:
	.loc	5 203 16 is_stmt 1              @ ../../CCC_common/Library/StdDriver/src/spi.c:203:16
	ldr	r0, [sp, #16]
.Ltmp96:
	.loc	5 203 16 is_stmt 0              @ ../../CCC_common/Library/StdDriver/src/spi.c:203:16
	lsrs	r0, r0, #9
	cbz	r0, .LBB0_67
	b	.LBB0_66
.LBB0_66:
	.loc	5 0 16                          @ ../../CCC_common/Library/StdDriver/src/spi.c:0:16
	ldr	r2, __arm_cp.0_10
.Ltmp97:
	.loc	5 205 24 is_stmt 1              @ ../../CCC_common/Library/StdDriver/src/spi.c:205:24
	str	r2, [sp, #16]
	.loc	5 206 17                        @ ../../CCC_common/Library/StdDriver/src/spi.c:206:17
	ldr	r1, [sp, #36]
	.loc	5 206 29 is_stmt 0              @ ../../CCC_common/Library/StdDriver/src/spi.c:206:29
	ldr	r0, [r1, #4]
	orrs	r0, r2
	str	r0, [r1, #4]
	.loc	5 208 32 is_stmt 1              @ ../../CCC_common/Library/StdDriver/src/spi.c:208:32
	ldr	r0, [sp, #20]
	.loc	5 208 42 is_stmt 0              @ ../../CCC_common/Library/StdDriver/src/spi.c:208:42
	lsrs	r0, r0, #9
	.loc	5 208 29                        @ ../../CCC_common/Library/StdDriver/src/spi.c:208:29
	str	r0, [sp]
	.loc	5 209 13 is_stmt 1              @ ../../CCC_common/Library/StdDriver/src/spi.c:209:13
	b	.LBB0_68
.Ltmp98:
.LBB0_67:
	.loc	5 212 32                        @ ../../CCC_common/Library/StdDriver/src/spi.c:212:32
	ldr	r0, [sp, #36]
	.loc	5 212 37 is_stmt 0              @ ../../CCC_common/Library/StdDriver/src/spi.c:212:37
	ldr	r0, [r0, #4]
	ldr	r1, __arm_cp.0_9
	.loc	5 212 44                        @ ../../CCC_common/Library/StdDriver/src/spi.c:212:44
	ands	r0, r1
	.loc	5 212 76                        @ ../../CCC_common/Library/StdDriver/src/spi.c:212:76
	ldr	r1, [sp, #16]
	.loc	5 212 73                        @ ../../CCC_common/Library/StdDriver/src/spi.c:212:73
	orrs	r0, r1
	.loc	5 212 17                        @ ../../CCC_common/Library/StdDriver/src/spi.c:212:17
	ldr	r1, [sp, #36]
	.loc	5 212 29                        @ ../../CCC_common/Library/StdDriver/src/spi.c:212:29
	str	r0, [r1, #4]
	.loc	5 214 32 is_stmt 1              @ ../../CCC_common/Library/StdDriver/src/spi.c:214:32
	ldr	r0, [sp, #20]
	.loc	5 214 45 is_stmt 0              @ ../../CCC_common/Library/StdDriver/src/spi.c:214:45
	ldr	r1, [sp, #16]
	.loc	5 214 52                        @ ../../CCC_common/Library/StdDriver/src/spi.c:214:52
	adds	r1, r1, #1
	.loc	5 214 42                        @ ../../CCC_common/Library/StdDriver/src/spi.c:214:42
	udiv	r0, r0, r1
	.loc	5 214 29                        @ ../../CCC_common/Library/StdDriver/src/spi.c:214:29
	str	r0, [sp]
	b	.LBB0_68
.Ltmp99:
.LBB0_68:
	.loc	5 0 29                          @ ../../CCC_common/Library/StdDriver/src/spi.c:0:29
	b	.LBB0_69
.LBB0_69:
	b	.LBB0_70
.LBB0_70:
	b	.LBB0_71
.LBB0_71:
	.loc	5 217 5 is_stmt 1               @ ../../CCC_common/Library/StdDriver/src/spi.c:217:5
	b	.LBB0_82
.Ltmp100:
.LBB0_72:
	.loc	5 221 9                         @ ../../CCC_common/Library/StdDriver/src/spi.c:221:9
	ldr	r1, [sp, #36]
	movs	r0, #0
	.loc	5 221 20 is_stmt 0              @ ../../CCC_common/Library/StdDriver/src/spi.c:221:20
	str	r0, [r1, #8]
	.loc	5 224 20 is_stmt 1              @ ../../CCC_common/Library/StdDriver/src/spi.c:224:20
	ldr	r1, [sp, #32]
	.loc	5 224 38 is_stmt 0              @ ../../CCC_common/Library/StdDriver/src/spi.c:224:38
	ldr	r2, [sp, #24]
	.loc	5 224 51                        @ ../../CCC_common/Library/StdDriver/src/spi.c:224:51
	lsls	r2, r2, #8
	.loc	5 224 35                        @ ../../CCC_common/Library/StdDriver/src/spi.c:224:35
	orrs	r1, r2
	.loc	5 224 77                        @ ../../CCC_common/Library/StdDriver/src/spi.c:224:77
	ldr	r2, [sp, #28]
	.loc	5 224 74                        @ ../../CCC_common/Library/StdDriver/src/spi.c:224:74
	orrs	r1, r2
	movs	r2, #1
	.loc	5 224 89                        @ ../../CCC_common/Library/StdDriver/src/spi.c:224:89
	orrs	r1, r2
	.loc	5 224 9                         @ ../../CCC_common/Library/StdDriver/src/spi.c:224:9
	ldr	r2, [sp, #36]
	.loc	5 224 18                        @ ../../CCC_common/Library/StdDriver/src/spi.c:224:18
	str	r1, [r2]
	.loc	5 227 9 is_stmt 1               @ ../../CCC_common/Library/StdDriver/src/spi.c:227:9
	ldr	r1, [sp, #36]
	.loc	5 227 21 is_stmt 0              @ ../../CCC_common/Library/StdDriver/src/spi.c:227:21
	str	r0, [r1, #4]
.Ltmp101:
	.loc	5 230 12 is_stmt 1              @ ../../CCC_common/Library/StdDriver/src/spi.c:230:12
	ldr	r0, [sp, #36]
	ldr	r1, __arm_cp.0_0
.Ltmp102:
	.loc	5 230 12 is_stmt 0              @ ../../CCC_common/Library/StdDriver/src/spi.c:230:12
	cmp	r0, r1
	bne	.LBB0_74
	b	.LBB0_73
.LBB0_73:
	.loc	5 0 12                          @ ../../CCC_common/Library/StdDriver/src/spi.c:0:12
	ldr	r1, __arm_cp.0_3
.Ltmp103:
	.loc	5 232 34 is_stmt 1              @ ../../CCC_common/Library/StdDriver/src/spi.c:232:34
	ldr	r0, [r1]
	movs	r2, #32
	.loc	5 232 42 is_stmt 0              @ ../../CCC_common/Library/StdDriver/src/spi.c:232:42
	orrs	r0, r2
	movs	r2, #16
	.loc	5 232 72                        @ ../../CCC_common/Library/StdDriver/src/spi.c:232:72
	bics	r0, r2
	.loc	5 232 26                        @ ../../CCC_common/Library/StdDriver/src/spi.c:232:26
	str	r0, [r1]
	.loc	5 234 27 is_stmt 1              @ ../../CCC_common/Library/StdDriver/src/spi.c:234:27
	ldr	r0, [sp, #4]
	.loc	5 234 25 is_stmt 0              @ ../../CCC_common/Library/StdDriver/src/spi.c:234:25
	str	r0, [sp]
	.loc	5 235 9 is_stmt 1               @ ../../CCC_common/Library/StdDriver/src/spi.c:235:9
	b	.LBB0_81
.Ltmp104:
.LBB0_74:
	.loc	5 236 17                        @ ../../CCC_common/Library/StdDriver/src/spi.c:236:17
	ldr	r0, [sp, #36]
	ldr	r1, __arm_cp.0_1
.Ltmp105:
	.loc	5 236 17 is_stmt 0              @ ../../CCC_common/Library/StdDriver/src/spi.c:236:17
	cmp	r0, r1
	bne	.LBB0_76
	b	.LBB0_75
.LBB0_75:
	.loc	5 0 17                          @ ../../CCC_common/Library/StdDriver/src/spi.c:0:17
	ldr	r1, __arm_cp.0_3
.Ltmp106:
	.loc	5 238 34 is_stmt 1              @ ../../CCC_common/Library/StdDriver/src/spi.c:238:34
	ldr	r0, [r1]
	movs	r2, #128
	.loc	5 238 42 is_stmt 0              @ ../../CCC_common/Library/StdDriver/src/spi.c:238:42
	orrs	r0, r2
	movs	r2, #64
	.loc	5 238 72                        @ ../../CCC_common/Library/StdDriver/src/spi.c:238:72
	bics	r0, r2
	.loc	5 238 26                        @ ../../CCC_common/Library/StdDriver/src/spi.c:238:26
	str	r0, [r1]
	.loc	5 240 27 is_stmt 1              @ ../../CCC_common/Library/StdDriver/src/spi.c:240:27
	ldr	r0, [sp, #8]
	.loc	5 240 25 is_stmt 0              @ ../../CCC_common/Library/StdDriver/src/spi.c:240:25
	str	r0, [sp]
	.loc	5 241 9 is_stmt 1               @ ../../CCC_common/Library/StdDriver/src/spi.c:241:9
	b	.LBB0_80
.Ltmp107:
.LBB0_76:
	.loc	5 242 17                        @ ../../CCC_common/Library/StdDriver/src/spi.c:242:17
	ldr	r0, [sp, #36]
	ldr	r1, __arm_cp.0_2
.Ltmp108:
	.loc	5 242 17 is_stmt 0              @ ../../CCC_common/Library/StdDriver/src/spi.c:242:17
	cmp	r0, r1
	bne	.LBB0_78
	b	.LBB0_77
.LBB0_77:
	.loc	5 0 17                          @ ../../CCC_common/Library/StdDriver/src/spi.c:0:17
	ldr	r1, __arm_cp.0_3
.Ltmp109:
	.loc	5 244 34 is_stmt 1              @ ../../CCC_common/Library/StdDriver/src/spi.c:244:34
	ldr	r0, [r1]
	movw	r2, #3072
	.loc	5 244 42 is_stmt 0              @ ../../CCC_common/Library/StdDriver/src/spi.c:244:42
	bics	r0, r2
	movw	r2, #2048
	.loc	5 244 72                        @ ../../CCC_common/Library/StdDriver/src/spi.c:244:72
	adds	r0, r0, r2
	.loc	5 244 26                        @ ../../CCC_common/Library/StdDriver/src/spi.c:244:26
	str	r0, [r1]
	.loc	5 246 27 is_stmt 1              @ ../../CCC_common/Library/StdDriver/src/spi.c:246:27
	ldr	r0, [sp, #4]
	.loc	5 246 25 is_stmt 0              @ ../../CCC_common/Library/StdDriver/src/spi.c:246:25
	str	r0, [sp]
	.loc	5 247 9 is_stmt 1               @ ../../CCC_common/Library/StdDriver/src/spi.c:247:9
	b	.LBB0_79
.Ltmp110:
.LBB0_78:
	.loc	5 0 9 is_stmt 0                 @ ../../CCC_common/Library/StdDriver/src/spi.c:0:9
	ldr	r1, __arm_cp.0_3
.Ltmp111:
	.loc	5 250 34 is_stmt 1              @ ../../CCC_common/Library/StdDriver/src/spi.c:250:34
	ldr	r0, [r1]
	movw	r2, #12288
	.loc	5 250 42 is_stmt 0              @ ../../CCC_common/Library/StdDriver/src/spi.c:250:42
	bics	r0, r2
	movw	r2, #8192
	.loc	5 250 72                        @ ../../CCC_common/Library/StdDriver/src/spi.c:250:72
	adds	r0, r0, r2
	.loc	5 250 26                        @ ../../CCC_common/Library/StdDriver/src/spi.c:250:26
	str	r0, [r1]
	.loc	5 252 27 is_stmt 1              @ ../../CCC_common/Library/StdDriver/src/spi.c:252:27
	ldr	r0, [sp, #8]
	.loc	5 252 25 is_stmt 0              @ ../../CCC_common/Library/StdDriver/src/spi.c:252:25
	str	r0, [sp]
	b	.LBB0_79
.Ltmp112:
.LBB0_79:
	.loc	5 0 25                          @ ../../CCC_common/Library/StdDriver/src/spi.c:0:25
	b	.LBB0_80
.LBB0_80:
	b	.LBB0_81
.LBB0_81:
	b	.LBB0_82
.LBB0_82:
	.loc	5 256 12 is_stmt 1              @ ../../CCC_common/Library/StdDriver/src/spi.c:256:12
	ldr	r0, [sp]
	.loc	5 256 5 epilogue_begin is_stmt 0 @ ../../CCC_common/Library/StdDriver/src/spi.c:256:5
	add	sp, #40
	pop	{r4, pc}
.Ltmp113:
	.loc	5 0 5                           @ :0:5
.Ltmp114:
	.p2align	2
@ %bb.83:
__arm_cp.0_0:
	.long	1074139136                      @ 0x40061000
.Lcpi_end0:
	.size	__arm_cp.0_0, .Lcpi_end0-__arm_cp.0_0
__arm_cp.0_1:
	.long	1074143232                      @ 0x40062000
.Lcpi_end1:
	.size	__arm_cp.0_1, .Lcpi_end1-__arm_cp.0_1
__arm_cp.0_2:
	.long	1074147328                      @ 0x40063000
.Lcpi_end2:
	.size	__arm_cp.0_2, .Lcpi_end2-__arm_cp.0_2
__arm_cp.0_3:
	.long	1073742360                      @ 0x40000218
.Lcpi_end3:
	.size	__arm_cp.0_3, .Lcpi_end3-__arm_cp.0_3
__arm_cp.0_4:
	.long	2797600774                      @ 0xa6c00006
.Lcpi_end4:
	.size	__arm_cp.0_4, .Lcpi_end4-__arm_cp.0_4
__arm_cp.0_5:
	.long	12000000                        @ 0xb71b00
.Lcpi_end5:
	.size	__arm_cp.0_5, .Lcpi_end5-__arm_cp.0_5
__arm_cp.0_6:
	.long	1721761807                      @ 0x66a0000f
.Lcpi_end6:
	.size	__arm_cp.0_6, .Lcpi_end6-__arm_cp.0_6
__arm_cp.0_7:
	.long	1717567502                      @ 0x6660000e
.Lcpi_end7:
	.size	__arm_cp.0_7, .Lcpi_end7-__arm_cp.0_7
__arm_cp.0_8:
	.long	1715470349                      @ 0x6640000d
.Lcpi_end8:
	.size	__arm_cp.0_8, .Lcpi_end8-__arm_cp.0_8
__arm_cp.0_9:
	.long	4294966784                      @ 0xfffffe00
.Lcpi_end9:
	.size	__arm_cp.0_9, .Lcpi_end9-__arm_cp.0_9
__arm_cp.0_10:
	.long	511                             @ 0x1ff
.Lcpi_end10:
	.size	__arm_cp.0_10, .Lcpi_end10-__arm_cp.0_10
.Lfunc_end0:
	.size	SPI_Open, .Lfunc_end0-SPI_Open
	.cfi_endproc
	.cantunwind
	.fnend
                                        @ -- End function
	.section	.text.SPI_Close,"ax",%progbits
	.hidden	SPI_Close                       @ -- Begin function SPI_Close
	.globl	SPI_Close
	.p2align	1
	.type	SPI_Close,%function
	.code	16                              @ @SPI_Close
	.thumb_func
SPI_Close:
.Lfunc_begin1:
	.loc	5 266 0 is_stmt 1               @ ../../CCC_common/Library/StdDriver/src/spi.c:266:0
	.fnstart
	.cfi_startproc
@ %bb.0:
	.pad	#4
	sub	sp, #4
	.cfi_def_cfa_offset 4
	str	r0, [sp]
.Ltmp115:
	.loc	5 267 5 prologue_end            @ ../../CCC_common/Library/StdDriver/src/spi.c:267:5
	ldr	r1, [sp]
	.loc	5 267 14 is_stmt 0              @ ../../CCC_common/Library/StdDriver/src/spi.c:267:14
	ldr	r0, [r1]
	movs	r2, #1
	bics	r0, r2
	str	r0, [r1]
	.loc	5 268 1 epilogue_begin is_stmt 1 @ ../../CCC_common/Library/StdDriver/src/spi.c:268:1
	add	sp, #4
	bx	lr
.Ltmp116:
.Lfunc_end1:
	.size	SPI_Close, .Lfunc_end1-SPI_Close
	.cfi_endproc
	.cantunwind
	.fnend
                                        @ -- End function
	.section	.text.SPI_ClearRxFIFO,"ax",%progbits
	.hidden	SPI_ClearRxFIFO                 @ -- Begin function SPI_ClearRxFIFO
	.globl	SPI_ClearRxFIFO
	.p2align	1
	.type	SPI_ClearRxFIFO,%function
	.code	16                              @ @SPI_ClearRxFIFO
	.thumb_func
SPI_ClearRxFIFO:
.Lfunc_begin2:
	.loc	5 277 0                         @ ../../CCC_common/Library/StdDriver/src/spi.c:277:0
	.fnstart
	.cfi_startproc
@ %bb.0:
	.pad	#4
	sub	sp, #4
	.cfi_def_cfa_offset 4
	str	r0, [sp]
.Ltmp117:
	.loc	5 278 5 prologue_end            @ ../../CCC_common/Library/StdDriver/src/spi.c:278:5
	ldr	r1, [sp]
	.loc	5 278 18 is_stmt 0              @ ../../CCC_common/Library/StdDriver/src/spi.c:278:18
	ldr	r0, [r1, #16]
	movw	r2, #256
	orrs	r0, r2
	str	r0, [r1, #16]
	.loc	5 279 1 epilogue_begin is_stmt 1 @ ../../CCC_common/Library/StdDriver/src/spi.c:279:1
	add	sp, #4
	bx	lr
.Ltmp118:
.Lfunc_end2:
	.size	SPI_ClearRxFIFO, .Lfunc_end2-SPI_ClearRxFIFO
	.cfi_endproc
	.cantunwind
	.fnend
                                        @ -- End function
	.section	.text.SPI_ClearTxFIFO,"ax",%progbits
	.hidden	SPI_ClearTxFIFO                 @ -- Begin function SPI_ClearTxFIFO
	.globl	SPI_ClearTxFIFO
	.p2align	1
	.type	SPI_ClearTxFIFO,%function
	.code	16                              @ @SPI_ClearTxFIFO
	.thumb_func
SPI_ClearTxFIFO:
.Lfunc_begin3:
	.loc	5 289 0                         @ ../../CCC_common/Library/StdDriver/src/spi.c:289:0
	.fnstart
	.cfi_startproc
@ %bb.0:
	.pad	#4
	sub	sp, #4
	.cfi_def_cfa_offset 4
	str	r0, [sp]
.Ltmp119:
	.loc	5 290 5 prologue_end            @ ../../CCC_common/Library/StdDriver/src/spi.c:290:5
	ldr	r1, [sp]
	.loc	5 290 18 is_stmt 0              @ ../../CCC_common/Library/StdDriver/src/spi.c:290:18
	ldr	r0, [r1, #16]
	movw	r2, #512
	orrs	r0, r2
	str	r0, [r1, #16]
	.loc	5 291 1 epilogue_begin is_stmt 1 @ ../../CCC_common/Library/StdDriver/src/spi.c:291:1
	add	sp, #4
	bx	lr
.Ltmp120:
.Lfunc_end3:
	.size	SPI_ClearTxFIFO, .Lfunc_end3-SPI_ClearTxFIFO
	.cfi_endproc
	.cantunwind
	.fnend
                                        @ -- End function
	.section	.text.SPI_DisableAutoSS,"ax",%progbits
	.hidden	SPI_DisableAutoSS               @ -- Begin function SPI_DisableAutoSS
	.globl	SPI_DisableAutoSS
	.p2align	1
	.type	SPI_DisableAutoSS,%function
	.code	16                              @ @SPI_DisableAutoSS
	.thumb_func
SPI_DisableAutoSS:
.Lfunc_begin4:
	.loc	5 300 0                         @ ../../CCC_common/Library/StdDriver/src/spi.c:300:0
	.fnstart
	.cfi_startproc
@ %bb.0:
	.pad	#4
	sub	sp, #4
	.cfi_def_cfa_offset 4
	str	r0, [sp]
.Ltmp121:
	.loc	5 301 5 prologue_end            @ ../../CCC_common/Library/StdDriver/src/spi.c:301:5
	ldr	r1, [sp]
	.loc	5 301 16 is_stmt 0              @ ../../CCC_common/Library/StdDriver/src/spi.c:301:16
	ldr	r0, [r1, #8]
	movs	r2, #9
	bics	r0, r2
	str	r0, [r1, #8]
	.loc	5 302 1 epilogue_begin is_stmt 1 @ ../../CCC_common/Library/StdDriver/src/spi.c:302:1
	add	sp, #4
	bx	lr
.Ltmp122:
.Lfunc_end4:
	.size	SPI_DisableAutoSS, .Lfunc_end4-SPI_DisableAutoSS
	.cfi_endproc
	.cantunwind
	.fnend
                                        @ -- End function
	.section	.text.SPI_EnableAutoSS,"ax",%progbits
	.hidden	SPI_EnableAutoSS                @ -- Begin function SPI_EnableAutoSS
	.globl	SPI_EnableAutoSS
	.p2align	1
	.type	SPI_EnableAutoSS,%function
	.code	16                              @ @SPI_EnableAutoSS
	.thumb_func
SPI_EnableAutoSS:
.Lfunc_begin5:
	.loc	5 314 0                         @ ../../CCC_common/Library/StdDriver/src/spi.c:314:0
	.fnstart
	.cfi_startproc
@ %bb.0:
	.pad	#12
	sub	sp, #12
	.cfi_def_cfa_offset 12
	str	r0, [sp, #8]
	str	r1, [sp, #4]
	str	r2, [sp]
.Ltmp123:
	.loc	5 315 19 prologue_end           @ ../../CCC_common/Library/StdDriver/src/spi.c:315:19
	ldr	r0, [sp, #8]
	.loc	5 315 24 is_stmt 0              @ ../../CCC_common/Library/StdDriver/src/spi.c:315:24
	ldr	r1, [r0, #8]
	movs	r0, #5
	.loc	5 315 30                        @ ../../CCC_common/Library/StdDriver/src/spi.c:315:30
	bics	r1, r0
	.loc	5 315 106                       @ ../../CCC_common/Library/StdDriver/src/spi.c:315:106
	ldr	r0, [sp, #4]
	.loc	5 315 121                       @ ../../CCC_common/Library/StdDriver/src/spi.c:315:121
	ldr	r2, [sp]
	.loc	5 315 119                       @ ../../CCC_common/Library/StdDriver/src/spi.c:315:119
	orrs	r0, r2
	.loc	5 315 136                       @ ../../CCC_common/Library/StdDriver/src/spi.c:315:136
	orrs	r0, r1
	movs	r1, #8
	.loc	5 315 103                       @ ../../CCC_common/Library/StdDriver/src/spi.c:315:103
	orrs	r0, r1
	.loc	5 315 5                         @ ../../CCC_common/Library/StdDriver/src/spi.c:315:5
	ldr	r1, [sp, #8]
	.loc	5 315 16                        @ ../../CCC_common/Library/StdDriver/src/spi.c:315:16
	str	r0, [r1, #8]
	.loc	5 316 1 epilogue_begin is_stmt 1 @ ../../CCC_common/Library/StdDriver/src/spi.c:316:1
	add	sp, #12
	bx	lr
.Ltmp124:
.Lfunc_end5:
	.size	SPI_EnableAutoSS, .Lfunc_end5-SPI_EnableAutoSS
	.cfi_endproc
	.cantunwind
	.fnend
                                        @ -- End function
	.section	.text.SPI_SetBusClock,"ax",%progbits
	.hidden	SPI_SetBusClock                 @ -- Begin function SPI_SetBusClock
	.globl	SPI_SetBusClock
	.p2align	2
	.type	SPI_SetBusClock,%function
	.code	16                              @ @SPI_SetBusClock
	.thumb_func
SPI_SetBusClock:
.Lfunc_begin6:
	.loc	5 333 0                         @ ../../CCC_common/Library/StdDriver/src/spi.c:333:0
	.fnstart
	.cfi_startproc
@ %bb.0:
	.save	{r7, lr}
	push	{r7, lr}
	.cfi_def_cfa_offset 8
	.cfi_offset lr, -4
	.cfi_offset r7, -8
	.pad	#24
	sub	sp, #24
	.cfi_def_cfa_offset 32
	str	r0, [sp, #20]
	str	r1, [sp, #16]
.Ltmp125:
	.loc	5 338 19 prologue_end           @ ../../CCC_common/Library/StdDriver/src/spi.c:338:19
	bl	CLK_GetHCLKFreq
	.loc	5 338 17 is_stmt 0              @ ../../CCC_common/Library/StdDriver/src/spi.c:338:17
	str	r0, [sp, #8]
.Ltmp126:
	.loc	5 340 8 is_stmt 1               @ ../../CCC_common/Library/StdDriver/src/spi.c:340:8
	ldr	r0, [sp, #16]
	.loc	5 340 23 is_stmt 0              @ ../../CCC_common/Library/StdDriver/src/spi.c:340:23
	ldr	r1, [sp, #8]
.Ltmp127:
	.loc	5 340 8                         @ ../../CCC_common/Library/StdDriver/src/spi.c:340:8
	cmp	r0, r1
	blo	.LBB6_11
	b	.LBB6_1
.LBB6_1:
.Ltmp128:
	.loc	5 343 12 is_stmt 1              @ ../../CCC_common/Library/StdDriver/src/spi.c:343:12
	ldr	r0, [sp, #20]
	ldr	r1, __arm_cp.6_0
.Ltmp129:
	.loc	5 343 12 is_stmt 0              @ ../../CCC_common/Library/StdDriver/src/spi.c:343:12
	cmp	r0, r1
	bne	.LBB6_3
	b	.LBB6_2
.LBB6_2:
	.loc	5 0 12                          @ ../../CCC_common/Library/StdDriver/src/spi.c:0:12
	ldr	r1, __arm_cp.6_3
.Ltmp130:
	.loc	5 345 34 is_stmt 1              @ ../../CCC_common/Library/StdDriver/src/spi.c:345:34
	ldr	r0, [r1]
	movs	r2, #32
	.loc	5 345 42 is_stmt 0              @ ../../CCC_common/Library/StdDriver/src/spi.c:345:42
	orrs	r0, r2
	movs	r2, #16
	.loc	5 345 72                        @ ../../CCC_common/Library/StdDriver/src/spi.c:345:72
	bics	r0, r2
	.loc	5 345 26                        @ ../../CCC_common/Library/StdDriver/src/spi.c:345:26
	str	r0, [r1]
	.loc	5 346 9 is_stmt 1               @ ../../CCC_common/Library/StdDriver/src/spi.c:346:9
	b	.LBB6_10
.Ltmp131:
.LBB6_3:
	.loc	5 347 17                        @ ../../CCC_common/Library/StdDriver/src/spi.c:347:17
	ldr	r0, [sp, #20]
	ldr	r1, __arm_cp.6_1
.Ltmp132:
	.loc	5 347 17 is_stmt 0              @ ../../CCC_common/Library/StdDriver/src/spi.c:347:17
	cmp	r0, r1
	bne	.LBB6_5
	b	.LBB6_4
.LBB6_4:
	.loc	5 0 17                          @ ../../CCC_common/Library/StdDriver/src/spi.c:0:17
	ldr	r1, __arm_cp.6_3
.Ltmp133:
	.loc	5 349 34 is_stmt 1              @ ../../CCC_common/Library/StdDriver/src/spi.c:349:34
	ldr	r0, [r1]
	movs	r2, #128
	.loc	5 349 42 is_stmt 0              @ ../../CCC_common/Library/StdDriver/src/spi.c:349:42
	orrs	r0, r2
	movs	r2, #64
	.loc	5 349 72                        @ ../../CCC_common/Library/StdDriver/src/spi.c:349:72
	bics	r0, r2
	.loc	5 349 26                        @ ../../CCC_common/Library/StdDriver/src/spi.c:349:26
	str	r0, [r1]
	.loc	5 350 9 is_stmt 1               @ ../../CCC_common/Library/StdDriver/src/spi.c:350:9
	b	.LBB6_9
.Ltmp134:
.LBB6_5:
	.loc	5 351 17                        @ ../../CCC_common/Library/StdDriver/src/spi.c:351:17
	ldr	r0, [sp, #20]
	ldr	r1, __arm_cp.6_2
.Ltmp135:
	.loc	5 351 17 is_stmt 0              @ ../../CCC_common/Library/StdDriver/src/spi.c:351:17
	cmp	r0, r1
	bne	.LBB6_7
	b	.LBB6_6
.LBB6_6:
	.loc	5 0 17                          @ ../../CCC_common/Library/StdDriver/src/spi.c:0:17
	ldr	r1, __arm_cp.6_3
.Ltmp136:
	.loc	5 353 34 is_stmt 1              @ ../../CCC_common/Library/StdDriver/src/spi.c:353:34
	ldr	r0, [r1]
	movw	r2, #3072
	.loc	5 353 42 is_stmt 0              @ ../../CCC_common/Library/StdDriver/src/spi.c:353:42
	bics	r0, r2
	movw	r2, #2048
	.loc	5 353 72                        @ ../../CCC_common/Library/StdDriver/src/spi.c:353:72
	adds	r0, r0, r2
	.loc	5 353 26                        @ ../../CCC_common/Library/StdDriver/src/spi.c:353:26
	str	r0, [r1]
	.loc	5 354 9 is_stmt 1               @ ../../CCC_common/Library/StdDriver/src/spi.c:354:9
	b	.LBB6_8
.Ltmp137:
.LBB6_7:
	.loc	5 0 9 is_stmt 0                 @ ../../CCC_common/Library/StdDriver/src/spi.c:0:9
	ldr	r1, __arm_cp.6_3
.Ltmp138:
	.loc	5 357 34 is_stmt 1              @ ../../CCC_common/Library/StdDriver/src/spi.c:357:34
	ldr	r0, [r1]
	movw	r2, #12288
	.loc	5 357 42 is_stmt 0              @ ../../CCC_common/Library/StdDriver/src/spi.c:357:42
	bics	r0, r2
	movw	r2, #8192
	.loc	5 357 72                        @ ../../CCC_common/Library/StdDriver/src/spi.c:357:72
	adds	r0, r0, r2
	.loc	5 357 26                        @ ../../CCC_common/Library/StdDriver/src/spi.c:357:26
	str	r0, [r1]
	b	.LBB6_8
.Ltmp139:
.LBB6_8:
	.loc	5 0 26                          @ ../../CCC_common/Library/StdDriver/src/spi.c:0:26
	b	.LBB6_9
.LBB6_9:
	b	.LBB6_10
.LBB6_10:
	.loc	5 359 5 is_stmt 1               @ ../../CCC_common/Library/StdDriver/src/spi.c:359:5
	b	.LBB6_11
.Ltmp140:
.LBB6_11:
	.loc	5 362 8                         @ ../../CCC_common/Library/StdDriver/src/spi.c:362:8
	ldr	r0, [sp, #20]
	ldr	r1, __arm_cp.6_0
.Ltmp141:
	.loc	5 362 8 is_stmt 0               @ ../../CCC_common/Library/StdDriver/src/spi.c:362:8
	cmp	r0, r1
	bne	.LBB6_22
	b	.LBB6_12
.LBB6_12:
	.loc	5 0 8                           @ ../../CCC_common/Library/StdDriver/src/spi.c:0:8
	ldr	r0, __arm_cp.6_8
.Ltmp142:
	.loc	5 364 13 is_stmt 1              @ ../../CCC_common/Library/StdDriver/src/spi.c:364:13
	bl	CLK_GetModuleClockSource
	.loc	5 364 51 is_stmt 0              @ ../../CCC_common/Library/StdDriver/src/spi.c:364:51
	lsls	r0, r0, #4
.Ltmp143:
	.loc	5 364 12                        @ ../../CCC_common/Library/StdDriver/src/spi.c:364:12
	cbnz	r0, .LBB6_14
	b	.LBB6_13
.LBB6_13:
	.loc	5 0 12                          @ ../../CCC_common/Library/StdDriver/src/spi.c:0:12
	ldr	r0, __arm_cp.6_5
.Ltmp144:
	.loc	5 366 23 is_stmt 1              @ ../../CCC_common/Library/StdDriver/src/spi.c:366:23
	str	r0, [sp, #12]
	.loc	5 367 9                         @ ../../CCC_common/Library/StdDriver/src/spi.c:367:9
	b	.LBB6_21
.Ltmp145:
.LBB6_14:
	.loc	5 0 9 is_stmt 0                 @ ../../CCC_common/Library/StdDriver/src/spi.c:0:9
	ldr	r0, __arm_cp.6_8
.Ltmp146:
	.loc	5 368 18 is_stmt 1              @ ../../CCC_common/Library/StdDriver/src/spi.c:368:18
	bl	CLK_GetModuleClockSource
	.loc	5 368 56 is_stmt 0              @ ../../CCC_common/Library/StdDriver/src/spi.c:368:56
	lsls	r0, r0, #4
.Ltmp147:
	.loc	5 368 17                        @ ../../CCC_common/Library/StdDriver/src/spi.c:368:17
	cmp	r0, #16
	bne	.LBB6_16
	b	.LBB6_15
.LBB6_15:
.Ltmp148:
	.loc	5 370 25 is_stmt 1              @ ../../CCC_common/Library/StdDriver/src/spi.c:370:25
	bl	CLK_GetPLLClockFreq
	.loc	5 370 23 is_stmt 0              @ ../../CCC_common/Library/StdDriver/src/spi.c:370:23
	str	r0, [sp, #12]
	.loc	5 371 9 is_stmt 1               @ ../../CCC_common/Library/StdDriver/src/spi.c:371:9
	b	.LBB6_20
.Ltmp149:
.LBB6_16:
	.loc	5 0 9 is_stmt 0                 @ ../../CCC_common/Library/StdDriver/src/spi.c:0:9
	ldr	r0, __arm_cp.6_8
.Ltmp150:
	.loc	5 372 18 is_stmt 1              @ ../../CCC_common/Library/StdDriver/src/spi.c:372:18
	bl	CLK_GetModuleClockSource
	.loc	5 372 56 is_stmt 0              @ ../../CCC_common/Library/StdDriver/src/spi.c:372:56
	lsls	r0, r0, #4
.Ltmp151:
	.loc	5 372 17                        @ ../../CCC_common/Library/StdDriver/src/spi.c:372:17
	cmp	r0, #32
	bne	.LBB6_18
	b	.LBB6_17
.LBB6_17:
.Ltmp152:
	.loc	5 374 25 is_stmt 1              @ ../../CCC_common/Library/StdDriver/src/spi.c:374:25
	bl	CLK_GetPCLK1Freq
	.loc	5 374 23 is_stmt 0              @ ../../CCC_common/Library/StdDriver/src/spi.c:374:23
	str	r0, [sp, #12]
	.loc	5 375 9 is_stmt 1               @ ../../CCC_common/Library/StdDriver/src/spi.c:375:9
	b	.LBB6_19
.Ltmp153:
.LBB6_18:
	.loc	5 0 9 is_stmt 0                 @ ../../CCC_common/Library/StdDriver/src/spi.c:0:9
	ldr	r0, __arm_cp.6_5
.Ltmp154:
	.loc	5 378 23 is_stmt 1              @ ../../CCC_common/Library/StdDriver/src/spi.c:378:23
	str	r0, [sp, #12]
	b	.LBB6_19
.Ltmp155:
.LBB6_19:
	.loc	5 0 23 is_stmt 0                @ ../../CCC_common/Library/StdDriver/src/spi.c:0:23
	b	.LBB6_20
.LBB6_20:
	b	.LBB6_21
.LBB6_21:
	.loc	5 380 5 is_stmt 1               @ ../../CCC_common/Library/StdDriver/src/spi.c:380:5
	b	.LBB6_56
.Ltmp156:
.LBB6_22:
	.loc	5 381 13                        @ ../../CCC_common/Library/StdDriver/src/spi.c:381:13
	ldr	r0, [sp, #20]
	ldr	r1, __arm_cp.6_1
.Ltmp157:
	.loc	5 381 13 is_stmt 0              @ ../../CCC_common/Library/StdDriver/src/spi.c:381:13
	cmp	r0, r1
	bne	.LBB6_33
	b	.LBB6_23
.LBB6_23:
	.loc	5 0 13                          @ ../../CCC_common/Library/StdDriver/src/spi.c:0:13
	ldr	r0, __arm_cp.6_7
.Ltmp158:
	.loc	5 383 13 is_stmt 1              @ ../../CCC_common/Library/StdDriver/src/spi.c:383:13
	bl	CLK_GetModuleClockSource
	.loc	5 383 51 is_stmt 0              @ ../../CCC_common/Library/StdDriver/src/spi.c:383:51
	lsls	r0, r0, #6
.Ltmp159:
	.loc	5 383 12                        @ ../../CCC_common/Library/StdDriver/src/spi.c:383:12
	cbnz	r0, .LBB6_25
	b	.LBB6_24
.LBB6_24:
	.loc	5 0 12                          @ ../../CCC_common/Library/StdDriver/src/spi.c:0:12
	ldr	r0, __arm_cp.6_5
.Ltmp160:
	.loc	5 385 23 is_stmt 1              @ ../../CCC_common/Library/StdDriver/src/spi.c:385:23
	str	r0, [sp, #12]
	.loc	5 386 9                         @ ../../CCC_common/Library/StdDriver/src/spi.c:386:9
	b	.LBB6_32
.Ltmp161:
.LBB6_25:
	.loc	5 0 9 is_stmt 0                 @ ../../CCC_common/Library/StdDriver/src/spi.c:0:9
	ldr	r0, __arm_cp.6_7
.Ltmp162:
	.loc	5 387 18 is_stmt 1              @ ../../CCC_common/Library/StdDriver/src/spi.c:387:18
	bl	CLK_GetModuleClockSource
	.loc	5 387 56 is_stmt 0              @ ../../CCC_common/Library/StdDriver/src/spi.c:387:56
	lsls	r0, r0, #6
.Ltmp163:
	.loc	5 387 17                        @ ../../CCC_common/Library/StdDriver/src/spi.c:387:17
	cmp	r0, #64
	bne	.LBB6_27
	b	.LBB6_26
.LBB6_26:
.Ltmp164:
	.loc	5 389 25 is_stmt 1              @ ../../CCC_common/Library/StdDriver/src/spi.c:389:25
	bl	CLK_GetPLLClockFreq
	.loc	5 389 23 is_stmt 0              @ ../../CCC_common/Library/StdDriver/src/spi.c:389:23
	str	r0, [sp, #12]
	.loc	5 390 9 is_stmt 1               @ ../../CCC_common/Library/StdDriver/src/spi.c:390:9
	b	.LBB6_31
.Ltmp165:
.LBB6_27:
	.loc	5 0 9 is_stmt 0                 @ ../../CCC_common/Library/StdDriver/src/spi.c:0:9
	ldr	r0, __arm_cp.6_7
.Ltmp166:
	.loc	5 391 18 is_stmt 1              @ ../../CCC_common/Library/StdDriver/src/spi.c:391:18
	bl	CLK_GetModuleClockSource
	.loc	5 391 56 is_stmt 0              @ ../../CCC_common/Library/StdDriver/src/spi.c:391:56
	lsls	r0, r0, #6
.Ltmp167:
	.loc	5 391 17                        @ ../../CCC_common/Library/StdDriver/src/spi.c:391:17
	cmp	r0, #128
	bne	.LBB6_29
	b	.LBB6_28
.LBB6_28:
.Ltmp168:
	.loc	5 393 25 is_stmt 1              @ ../../CCC_common/Library/StdDriver/src/spi.c:393:25
	bl	CLK_GetPCLK0Freq
	.loc	5 393 23 is_stmt 0              @ ../../CCC_common/Library/StdDriver/src/spi.c:393:23
	str	r0, [sp, #12]
	.loc	5 394 9 is_stmt 1               @ ../../CCC_common/Library/StdDriver/src/spi.c:394:9
	b	.LBB6_30
.Ltmp169:
.LBB6_29:
	.loc	5 0 9 is_stmt 0                 @ ../../CCC_common/Library/StdDriver/src/spi.c:0:9
	ldr	r0, __arm_cp.6_5
.Ltmp170:
	.loc	5 397 23 is_stmt 1              @ ../../CCC_common/Library/StdDriver/src/spi.c:397:23
	str	r0, [sp, #12]
	b	.LBB6_30
.Ltmp171:
.LBB6_30:
	.loc	5 0 23 is_stmt 0                @ ../../CCC_common/Library/StdDriver/src/spi.c:0:23
	b	.LBB6_31
.LBB6_31:
	b	.LBB6_32
.LBB6_32:
	.loc	5 399 5 is_stmt 1               @ ../../CCC_common/Library/StdDriver/src/spi.c:399:5
	b	.LBB6_55
.Ltmp172:
.LBB6_33:
	.loc	5 400 13                        @ ../../CCC_common/Library/StdDriver/src/spi.c:400:13
	ldr	r0, [sp, #20]
	ldr	r1, __arm_cp.6_2
.Ltmp173:
	.loc	5 400 13 is_stmt 0              @ ../../CCC_common/Library/StdDriver/src/spi.c:400:13
	cmp	r0, r1
	bne	.LBB6_44
	b	.LBB6_34
.LBB6_34:
	.loc	5 0 13                          @ ../../CCC_common/Library/StdDriver/src/spi.c:0:13
	ldr	r0, __arm_cp.6_6
.Ltmp174:
	.loc	5 402 13 is_stmt 1              @ ../../CCC_common/Library/StdDriver/src/spi.c:402:13
	bl	CLK_GetModuleClockSource
	.loc	5 402 51 is_stmt 0              @ ../../CCC_common/Library/StdDriver/src/spi.c:402:51
	lsls	r0, r0, #10
.Ltmp175:
	.loc	5 402 12                        @ ../../CCC_common/Library/StdDriver/src/spi.c:402:12
	cbnz	r0, .LBB6_36
	b	.LBB6_35
.LBB6_35:
	.loc	5 0 12                          @ ../../CCC_common/Library/StdDriver/src/spi.c:0:12
	ldr	r0, __arm_cp.6_5
.Ltmp176:
	.loc	5 404 23 is_stmt 1              @ ../../CCC_common/Library/StdDriver/src/spi.c:404:23
	str	r0, [sp, #12]
	.loc	5 405 9                         @ ../../CCC_common/Library/StdDriver/src/spi.c:405:9
	b	.LBB6_43
.Ltmp177:
.LBB6_36:
	.loc	5 0 9 is_stmt 0                 @ ../../CCC_common/Library/StdDriver/src/spi.c:0:9
	ldr	r0, __arm_cp.6_6
.Ltmp178:
	.loc	5 406 18 is_stmt 1              @ ../../CCC_common/Library/StdDriver/src/spi.c:406:18
	bl	CLK_GetModuleClockSource
	.loc	5 406 56 is_stmt 0              @ ../../CCC_common/Library/StdDriver/src/spi.c:406:56
	lsls	r0, r0, #10
	movw	r1, #1024
.Ltmp179:
	.loc	5 406 17                        @ ../../CCC_common/Library/StdDriver/src/spi.c:406:17
	cmp	r0, r1
	bne	.LBB6_38
	b	.LBB6_37
.LBB6_37:
.Ltmp180:
	.loc	5 408 25 is_stmt 1              @ ../../CCC_common/Library/StdDriver/src/spi.c:408:25
	bl	CLK_GetPLLClockFreq
	.loc	5 408 23 is_stmt 0              @ ../../CCC_common/Library/StdDriver/src/spi.c:408:23
	str	r0, [sp, #12]
	.loc	5 409 9 is_stmt 1               @ ../../CCC_common/Library/StdDriver/src/spi.c:409:9
	b	.LBB6_42
.Ltmp181:
.LBB6_38:
	.loc	5 0 9 is_stmt 0                 @ ../../CCC_common/Library/StdDriver/src/spi.c:0:9
	ldr	r0, __arm_cp.6_6
.Ltmp182:
	.loc	5 410 18 is_stmt 1              @ ../../CCC_common/Library/StdDriver/src/spi.c:410:18
	bl	CLK_GetModuleClockSource
	.loc	5 410 56 is_stmt 0              @ ../../CCC_common/Library/StdDriver/src/spi.c:410:56
	lsls	r0, r0, #10
	movw	r1, #2048
.Ltmp183:
	.loc	5 410 17                        @ ../../CCC_common/Library/StdDriver/src/spi.c:410:17
	cmp	r0, r1
	bne	.LBB6_40
	b	.LBB6_39
.LBB6_39:
.Ltmp184:
	.loc	5 412 25 is_stmt 1              @ ../../CCC_common/Library/StdDriver/src/spi.c:412:25
	bl	CLK_GetPCLK1Freq
	.loc	5 412 23 is_stmt 0              @ ../../CCC_common/Library/StdDriver/src/spi.c:412:23
	str	r0, [sp, #12]
	.loc	5 413 9 is_stmt 1               @ ../../CCC_common/Library/StdDriver/src/spi.c:413:9
	b	.LBB6_41
.Ltmp185:
.LBB6_40:
	.loc	5 0 9 is_stmt 0                 @ ../../CCC_common/Library/StdDriver/src/spi.c:0:9
	ldr	r0, __arm_cp.6_5
.Ltmp186:
	.loc	5 416 23 is_stmt 1              @ ../../CCC_common/Library/StdDriver/src/spi.c:416:23
	str	r0, [sp, #12]
	b	.LBB6_41
.Ltmp187:
.LBB6_41:
	.loc	5 0 23 is_stmt 0                @ ../../CCC_common/Library/StdDriver/src/spi.c:0:23
	b	.LBB6_42
.LBB6_42:
	b	.LBB6_43
.LBB6_43:
	.loc	5 418 5 is_stmt 1               @ ../../CCC_common/Library/StdDriver/src/spi.c:418:5
	b	.LBB6_54
.Ltmp188:
.LBB6_44:
	.loc	5 0 5 is_stmt 0                 @ ../../CCC_common/Library/StdDriver/src/spi.c:0:5
	ldr	r0, __arm_cp.6_4
.Ltmp189:
	.loc	5 421 13 is_stmt 1              @ ../../CCC_common/Library/StdDriver/src/spi.c:421:13
	bl	CLK_GetModuleClockSource
	.loc	5 421 51 is_stmt 0              @ ../../CCC_common/Library/StdDriver/src/spi.c:421:51
	lsls	r0, r0, #12
.Ltmp190:
	.loc	5 421 12                        @ ../../CCC_common/Library/StdDriver/src/spi.c:421:12
	cbnz	r0, .LBB6_46
	b	.LBB6_45
.LBB6_45:
	.loc	5 0 12                          @ ../../CCC_common/Library/StdDriver/src/spi.c:0:12
	ldr	r0, __arm_cp.6_5
.Ltmp191:
	.loc	5 423 23 is_stmt 1              @ ../../CCC_common/Library/StdDriver/src/spi.c:423:23
	str	r0, [sp, #12]
	.loc	5 424 9                         @ ../../CCC_common/Library/StdDriver/src/spi.c:424:9
	b	.LBB6_53
.Ltmp192:
.LBB6_46:
	.loc	5 0 9 is_stmt 0                 @ ../../CCC_common/Library/StdDriver/src/spi.c:0:9
	ldr	r0, __arm_cp.6_4
.Ltmp193:
	.loc	5 425 18 is_stmt 1              @ ../../CCC_common/Library/StdDriver/src/spi.c:425:18
	bl	CLK_GetModuleClockSource
	.loc	5 425 56 is_stmt 0              @ ../../CCC_common/Library/StdDriver/src/spi.c:425:56
	lsls	r0, r0, #12
	movw	r1, #4096
.Ltmp194:
	.loc	5 425 17                        @ ../../CCC_common/Library/StdDriver/src/spi.c:425:17
	cmp	r0, r1
	bne	.LBB6_48
	b	.LBB6_47
.LBB6_47:
.Ltmp195:
	.loc	5 427 25 is_stmt 1              @ ../../CCC_common/Library/StdDriver/src/spi.c:427:25
	bl	CLK_GetPLLClockFreq
	.loc	5 427 23 is_stmt 0              @ ../../CCC_common/Library/StdDriver/src/spi.c:427:23
	str	r0, [sp, #12]
	.loc	5 428 9 is_stmt 1               @ ../../CCC_common/Library/StdDriver/src/spi.c:428:9
	b	.LBB6_52
.Ltmp196:
.LBB6_48:
	.loc	5 0 9 is_stmt 0                 @ ../../CCC_common/Library/StdDriver/src/spi.c:0:9
	ldr	r0, __arm_cp.6_4
.Ltmp197:
	.loc	5 429 18 is_stmt 1              @ ../../CCC_common/Library/StdDriver/src/spi.c:429:18
	bl	CLK_GetModuleClockSource
	.loc	5 429 56 is_stmt 0              @ ../../CCC_common/Library/StdDriver/src/spi.c:429:56
	lsls	r0, r0, #12
	movw	r1, #8192
.Ltmp198:
	.loc	5 429 17                        @ ../../CCC_common/Library/StdDriver/src/spi.c:429:17
	cmp	r0, r1
	bne	.LBB6_50
	b	.LBB6_49
.LBB6_49:
.Ltmp199:
	.loc	5 431 25 is_stmt 1              @ ../../CCC_common/Library/StdDriver/src/spi.c:431:25
	bl	CLK_GetPCLK0Freq
	.loc	5 431 23 is_stmt 0              @ ../../CCC_common/Library/StdDriver/src/spi.c:431:23
	str	r0, [sp, #12]
	.loc	5 432 9 is_stmt 1               @ ../../CCC_common/Library/StdDriver/src/spi.c:432:9
	b	.LBB6_51
.Ltmp200:
.LBB6_50:
	.loc	5 0 9 is_stmt 0                 @ ../../CCC_common/Library/StdDriver/src/spi.c:0:9
	ldr	r0, __arm_cp.6_5
.Ltmp201:
	.loc	5 435 23 is_stmt 1              @ ../../CCC_common/Library/StdDriver/src/spi.c:435:23
	str	r0, [sp, #12]
	b	.LBB6_51
.Ltmp202:
.LBB6_51:
	.loc	5 0 23 is_stmt 0                @ ../../CCC_common/Library/StdDriver/src/spi.c:0:23
	b	.LBB6_52
.LBB6_52:
	b	.LBB6_53
.LBB6_53:
	b	.LBB6_54
.LBB6_54:
	b	.LBB6_55
.LBB6_55:
	b	.LBB6_56
.LBB6_56:
.Ltmp203:
	.loc	5 439 8 is_stmt 1               @ ../../CCC_common/Library/StdDriver/src/spi.c:439:8
	ldr	r0, [sp, #16]
	.loc	5 439 23 is_stmt 0              @ ../../CCC_common/Library/StdDriver/src/spi.c:439:23
	ldr	r1, [sp, #8]
.Ltmp204:
	.loc	5 439 8                         @ ../../CCC_common/Library/StdDriver/src/spi.c:439:8
	cmp	r0, r1
	blo	.LBB6_58
	b	.LBB6_57
.LBB6_57:
.Ltmp205:
	.loc	5 442 9 is_stmt 1               @ ../../CCC_common/Library/StdDriver/src/spi.c:442:9
	ldr	r1, [sp, #20]
	movs	r0, #0
	.loc	5 442 21 is_stmt 0              @ ../../CCC_common/Library/StdDriver/src/spi.c:442:21
	str	r0, [r1, #4]
	.loc	5 444 23 is_stmt 1              @ ../../CCC_common/Library/StdDriver/src/spi.c:444:23
	ldr	r0, [sp, #12]
	.loc	5 444 21 is_stmt 0              @ ../../CCC_common/Library/StdDriver/src/spi.c:444:21
	str	r0, [sp]
	.loc	5 445 5 is_stmt 1               @ ../../CCC_common/Library/StdDriver/src/spi.c:445:5
	b	.LBB6_68
.Ltmp206:
.LBB6_58:
	.loc	5 446 13                        @ ../../CCC_common/Library/StdDriver/src/spi.c:446:13
	ldr	r0, [sp, #16]
	.loc	5 446 28 is_stmt 0              @ ../../CCC_common/Library/StdDriver/src/spi.c:446:28
	ldr	r1, [sp, #12]
.Ltmp207:
	.loc	5 446 13                        @ ../../CCC_common/Library/StdDriver/src/spi.c:446:13
	cmp	r0, r1
	blo	.LBB6_60
	b	.LBB6_59
.LBB6_59:
.Ltmp208:
	.loc	5 449 9 is_stmt 1               @ ../../CCC_common/Library/StdDriver/src/spi.c:449:9
	ldr	r1, [sp, #20]
	movs	r0, #0
	.loc	5 449 21 is_stmt 0              @ ../../CCC_common/Library/StdDriver/src/spi.c:449:21
	str	r0, [r1, #4]
	.loc	5 451 23 is_stmt 1              @ ../../CCC_common/Library/StdDriver/src/spi.c:451:23
	ldr	r0, [sp, #12]
	.loc	5 451 21 is_stmt 0              @ ../../CCC_common/Library/StdDriver/src/spi.c:451:21
	str	r0, [sp]
	.loc	5 452 5 is_stmt 1               @ ../../CCC_common/Library/StdDriver/src/spi.c:452:5
	b	.LBB6_67
.Ltmp209:
.LBB6_60:
	.loc	5 453 13                        @ ../../CCC_common/Library/StdDriver/src/spi.c:453:13
	ldr	r0, [sp, #16]
.Ltmp210:
	.loc	5 453 13 is_stmt 0              @ ../../CCC_common/Library/StdDriver/src/spi.c:453:13
	cbnz	r0, .LBB6_62
	b	.LBB6_61
.LBB6_61:
.Ltmp211:
	.loc	5 456 9 is_stmt 1               @ ../../CCC_common/Library/StdDriver/src/spi.c:456:9
	ldr	r1, [sp, #20]
	.loc	5 456 21 is_stmt 0              @ ../../CCC_common/Library/StdDriver/src/spi.c:456:21
	ldr	r0, [r1, #4]
	ldr	r2, __arm_cp.6_10
	orrs	r0, r2
	str	r0, [r1, #4]
	.loc	5 458 24 is_stmt 1              @ ../../CCC_common/Library/StdDriver/src/spi.c:458:24
	ldr	r0, [sp, #12]
	.loc	5 458 34 is_stmt 0              @ ../../CCC_common/Library/StdDriver/src/spi.c:458:34
	lsrs	r0, r0, #9
	.loc	5 458 21                        @ ../../CCC_common/Library/StdDriver/src/spi.c:458:21
	str	r0, [sp]
	.loc	5 459 5 is_stmt 1               @ ../../CCC_common/Library/StdDriver/src/spi.c:459:5
	b	.LBB6_66
.Ltmp212:
.LBB6_62:
	.loc	5 462 21                        @ ../../CCC_common/Library/StdDriver/src/spi.c:462:21
	ldr	r2, [sp, #12]
	movs	r1, #10
	.loc	5 462 31 is_stmt 0              @ ../../CCC_common/Library/StdDriver/src/spi.c:462:31
	mov	r0, r1
	muls	r0, r2, r0
	.loc	5 462 41                        @ ../../CCC_common/Library/StdDriver/src/spi.c:462:41
	ldr	r2, [sp, #16]
	.loc	5 462 39                        @ ../../CCC_common/Library/StdDriver/src/spi.c:462:39
	udiv	r0, r0, r2
	.loc	5 462 53                        @ ../../CCC_common/Library/StdDriver/src/spi.c:462:53
	adds	r0, r0, #5
	.loc	5 462 60                        @ ../../CCC_common/Library/StdDriver/src/spi.c:462:60
	udiv	r0, r0, r1
	.loc	5 462 68                        @ ../../CCC_common/Library/StdDriver/src/spi.c:462:68
	subs	r0, r0, #1
	.loc	5 462 16                        @ ../../CCC_common/Library/StdDriver/src/spi.c:462:16
	str	r0, [sp, #4]
.Ltmp213:
	.loc	5 463 12 is_stmt 1              @ ../../CCC_common/Library/StdDriver/src/spi.c:463:12
	ldr	r0, [sp, #4]
.Ltmp214:
	.loc	5 463 12 is_stmt 0              @ ../../CCC_common/Library/StdDriver/src/spi.c:463:12
	lsrs	r0, r0, #9
	cbz	r0, .LBB6_64
	b	.LBB6_63
.LBB6_63:
	.loc	5 0 12                          @ ../../CCC_common/Library/StdDriver/src/spi.c:0:12
	ldr	r2, __arm_cp.6_10
.Ltmp215:
	.loc	5 465 20 is_stmt 1              @ ../../CCC_common/Library/StdDriver/src/spi.c:465:20
	str	r2, [sp, #4]
	.loc	5 466 13                        @ ../../CCC_common/Library/StdDriver/src/spi.c:466:13
	ldr	r1, [sp, #20]
	.loc	5 466 25 is_stmt 0              @ ../../CCC_common/Library/StdDriver/src/spi.c:466:25
	ldr	r0, [r1, #4]
	orrs	r0, r2
	str	r0, [r1, #4]
	.loc	5 468 28 is_stmt 1              @ ../../CCC_common/Library/StdDriver/src/spi.c:468:28
	ldr	r0, [sp, #12]
	.loc	5 468 38 is_stmt 0              @ ../../CCC_common/Library/StdDriver/src/spi.c:468:38
	lsrs	r0, r0, #9
	.loc	5 468 25                        @ ../../CCC_common/Library/StdDriver/src/spi.c:468:25
	str	r0, [sp]
	.loc	5 469 9 is_stmt 1               @ ../../CCC_common/Library/StdDriver/src/spi.c:469:9
	b	.LBB6_65
.Ltmp216:
.LBB6_64:
	.loc	5 472 28                        @ ../../CCC_common/Library/StdDriver/src/spi.c:472:28
	ldr	r0, [sp, #20]
	.loc	5 472 33 is_stmt 0              @ ../../CCC_common/Library/StdDriver/src/spi.c:472:33
	ldr	r0, [r0, #4]
	ldr	r1, __arm_cp.6_9
	.loc	5 472 40                        @ ../../CCC_common/Library/StdDriver/src/spi.c:472:40
	ands	r0, r1
	.loc	5 472 72                        @ ../../CCC_common/Library/StdDriver/src/spi.c:472:72
	ldr	r1, [sp, #4]
	.loc	5 472 69                        @ ../../CCC_common/Library/StdDriver/src/spi.c:472:69
	orrs	r0, r1
	.loc	5 472 13                        @ ../../CCC_common/Library/StdDriver/src/spi.c:472:13
	ldr	r1, [sp, #20]
	.loc	5 472 25                        @ ../../CCC_common/Library/StdDriver/src/spi.c:472:25
	str	r0, [r1, #4]
	.loc	5 474 28 is_stmt 1              @ ../../CCC_common/Library/StdDriver/src/spi.c:474:28
	ldr	r0, [sp, #12]
	.loc	5 474 41 is_stmt 0              @ ../../CCC_common/Library/StdDriver/src/spi.c:474:41
	ldr	r1, [sp, #4]
	.loc	5 474 48                        @ ../../CCC_common/Library/StdDriver/src/spi.c:474:48
	adds	r1, r1, #1
	.loc	5 474 38                        @ ../../CCC_common/Library/StdDriver/src/spi.c:474:38
	udiv	r0, r0, r1
	.loc	5 474 25                        @ ../../CCC_common/Library/StdDriver/src/spi.c:474:25
	str	r0, [sp]
	b	.LBB6_65
.Ltmp217:
.LBB6_65:
	.loc	5 0 25                          @ ../../CCC_common/Library/StdDriver/src/spi.c:0:25
	b	.LBB6_66
.LBB6_66:
	b	.LBB6_67
.LBB6_67:
	b	.LBB6_68
.LBB6_68:
	.loc	5 478 12 is_stmt 1              @ ../../CCC_common/Library/StdDriver/src/spi.c:478:12
	ldr	r0, [sp]
	.loc	5 478 5 epilogue_begin is_stmt 0 @ ../../CCC_common/Library/StdDriver/src/spi.c:478:5
	add	sp, #24
	pop	{r7, pc}
.Ltmp218:
	.loc	5 0 5                           @ :0:5
.Ltmp219:
	.p2align	2
@ %bb.69:
__arm_cp.6_0:
	.long	1074139136                      @ 0x40061000
.Lcpi_end11:
	.size	__arm_cp.6_0, .Lcpi_end11-__arm_cp.6_0
__arm_cp.6_1:
	.long	1074143232                      @ 0x40062000
.Lcpi_end12:
	.size	__arm_cp.6_1, .Lcpi_end12-__arm_cp.6_1
__arm_cp.6_2:
	.long	1074147328                      @ 0x40063000
.Lcpi_end13:
	.size	__arm_cp.6_2, .Lcpi_end13-__arm_cp.6_2
__arm_cp.6_3:
	.long	1073742360                      @ 0x40000218
.Lcpi_end14:
	.size	__arm_cp.6_3, .Lcpi_end14-__arm_cp.6_3
__arm_cp.6_4:
	.long	2797600774                      @ 0xa6c00006
.Lcpi_end15:
	.size	__arm_cp.6_4, .Lcpi_end15-__arm_cp.6_4
__arm_cp.6_5:
	.long	12000000                        @ 0xb71b00
.Lcpi_end16:
	.size	__arm_cp.6_5, .Lcpi_end16-__arm_cp.6_5
__arm_cp.6_6:
	.long	1721761807                      @ 0x66a0000f
.Lcpi_end17:
	.size	__arm_cp.6_6, .Lcpi_end17-__arm_cp.6_6
__arm_cp.6_7:
	.long	1717567502                      @ 0x6660000e
.Lcpi_end18:
	.size	__arm_cp.6_7, .Lcpi_end18-__arm_cp.6_7
__arm_cp.6_8:
	.long	1715470349                      @ 0x6640000d
.Lcpi_end19:
	.size	__arm_cp.6_8, .Lcpi_end19-__arm_cp.6_8
__arm_cp.6_9:
	.long	4294966784                      @ 0xfffffe00
.Lcpi_end20:
	.size	__arm_cp.6_9, .Lcpi_end20-__arm_cp.6_9
__arm_cp.6_10:
	.long	511                             @ 0x1ff
.Lcpi_end21:
	.size	__arm_cp.6_10, .Lcpi_end21-__arm_cp.6_10
.Lfunc_end6:
	.size	SPI_SetBusClock, .Lfunc_end6-SPI_SetBusClock
	.cfi_endproc
	.cantunwind
	.fnend
                                        @ -- End function
	.section	.text.SPI_SetFIFO,"ax",%progbits
	.hidden	SPI_SetFIFO                     @ -- Begin function SPI_SetFIFO
	.globl	SPI_SetFIFO
	.p2align	1
	.type	SPI_SetFIFO,%function
	.code	16                              @ @SPI_SetFIFO
	.thumb_func
SPI_SetFIFO:
.Lfunc_begin7:
	.loc	5 490 0 is_stmt 1               @ ../../CCC_common/Library/StdDriver/src/spi.c:490:0
	.fnstart
	.cfi_startproc
@ %bb.0:
	.pad	#12
	sub	sp, #12
	.cfi_def_cfa_offset 12
	str	r0, [sp, #8]
	str	r1, [sp, #4]
	str	r2, [sp]
.Ltmp220:
	.loc	5 491 21 prologue_end           @ ../../CCC_common/Library/StdDriver/src/spi.c:491:21
	ldr	r0, [sp, #8]
	.loc	5 491 26 is_stmt 0              @ ../../CCC_common/Library/StdDriver/src/spi.c:491:26
	ldr	r0, [r0, #16]
	movs	r1, #119
	lsls	r1, r1, #24
	.loc	5 491 34                        @ ../../CCC_common/Library/StdDriver/src/spi.c:491:34
	bics	r0, r1
	.loc	5 492 21 is_stmt 1              @ ../../CCC_common/Library/StdDriver/src/spi.c:492:21
	ldr	r1, [sp, #4]
	.loc	5 492 36 is_stmt 0              @ ../../CCC_common/Library/StdDriver/src/spi.c:492:36
	lsls	r1, r1, #28
	.loc	5 491 84 is_stmt 1              @ ../../CCC_common/Library/StdDriver/src/spi.c:491:84
	orrs	r0, r1
	.loc	5 493 21                        @ ../../CCC_common/Library/StdDriver/src/spi.c:493:21
	ldr	r1, [sp]
	.loc	5 493 36 is_stmt 0              @ ../../CCC_common/Library/StdDriver/src/spi.c:493:36
	lsls	r1, r1, #24
	.loc	5 492 61 is_stmt 1              @ ../../CCC_common/Library/StdDriver/src/spi.c:492:61
	orrs	r0, r1
	.loc	5 491 5                         @ ../../CCC_common/Library/StdDriver/src/spi.c:491:5
	ldr	r1, [sp, #8]
	.loc	5 491 18 is_stmt 0              @ ../../CCC_common/Library/StdDriver/src/spi.c:491:18
	str	r0, [r1, #16]
	.loc	5 494 1 epilogue_begin is_stmt 1 @ ../../CCC_common/Library/StdDriver/src/spi.c:494:1
	add	sp, #12
	bx	lr
.Ltmp221:
.Lfunc_end7:
	.size	SPI_SetFIFO, .Lfunc_end7-SPI_SetFIFO
	.cfi_endproc
	.cantunwind
	.fnend
                                        @ -- End function
	.section	.text.SPI_GetBusClock,"ax",%progbits
	.hidden	SPI_GetBusClock                 @ -- Begin function SPI_GetBusClock
	.globl	SPI_GetBusClock
	.p2align	2
	.type	SPI_GetBusClock,%function
	.code	16                              @ @SPI_GetBusClock
	.thumb_func
SPI_GetBusClock:
.Lfunc_begin8:
	.loc	5 503 0                         @ ../../CCC_common/Library/StdDriver/src/spi.c:503:0
	.fnstart
	.cfi_startproc
@ %bb.0:
	.save	{r7, lr}
	push	{r7, lr}
	.cfi_def_cfa_offset 8
	.cfi_offset lr, -4
	.cfi_offset r7, -8
	.pad	#16
	sub	sp, #16
	.cfi_def_cfa_offset 24
	str	r0, [sp, #12]
.Ltmp222:
	.loc	5 508 15 prologue_end           @ ../../CCC_common/Library/StdDriver/src/spi.c:508:15
	ldr	r0, [sp, #12]
	.loc	5 508 20 is_stmt 0              @ ../../CCC_common/Library/StdDriver/src/spi.c:508:20
	ldr	r0, [r0, #4]
	ldr	r1, __arm_cp.8_0
	.loc	5 508 27                        @ ../../CCC_common/Library/StdDriver/src/spi.c:508:27
	ands	r0, r1
	.loc	5 508 12                        @ ../../CCC_common/Library/StdDriver/src/spi.c:508:12
	str	r0, [sp, #8]
.Ltmp223:
	.loc	5 511 8 is_stmt 1               @ ../../CCC_common/Library/StdDriver/src/spi.c:511:8
	ldr	r0, [sp, #12]
	ldr	r1, __arm_cp.8_1
.Ltmp224:
	.loc	5 511 8 is_stmt 0               @ ../../CCC_common/Library/StdDriver/src/spi.c:511:8
	cmp	r0, r1
	bne	.LBB8_11
	b	.LBB8_1
.LBB8_1:
	.loc	5 0 8                           @ ../../CCC_common/Library/StdDriver/src/spi.c:0:8
	ldr	r0, __arm_cp.8_8
.Ltmp225:
	.loc	5 513 13 is_stmt 1              @ ../../CCC_common/Library/StdDriver/src/spi.c:513:13
	bl	CLK_GetModuleClockSource
	.loc	5 513 51 is_stmt 0              @ ../../CCC_common/Library/StdDriver/src/spi.c:513:51
	lsls	r0, r0, #4
.Ltmp226:
	.loc	5 513 12                        @ ../../CCC_common/Library/StdDriver/src/spi.c:513:12
	cbnz	r0, .LBB8_3
	b	.LBB8_2
.LBB8_2:
	.loc	5 0 12                          @ ../../CCC_common/Library/StdDriver/src/spi.c:0:12
	ldr	r0, __arm_cp.8_5
.Ltmp227:
	.loc	5 515 23 is_stmt 1              @ ../../CCC_common/Library/StdDriver/src/spi.c:515:23
	str	r0, [sp, #4]
	.loc	5 516 9                         @ ../../CCC_common/Library/StdDriver/src/spi.c:516:9
	b	.LBB8_10
.Ltmp228:
.LBB8_3:
	.loc	5 0 9 is_stmt 0                 @ ../../CCC_common/Library/StdDriver/src/spi.c:0:9
	ldr	r0, __arm_cp.8_8
.Ltmp229:
	.loc	5 517 18 is_stmt 1              @ ../../CCC_common/Library/StdDriver/src/spi.c:517:18
	bl	CLK_GetModuleClockSource
	.loc	5 517 56 is_stmt 0              @ ../../CCC_common/Library/StdDriver/src/spi.c:517:56
	lsls	r0, r0, #4
.Ltmp230:
	.loc	5 517 17                        @ ../../CCC_common/Library/StdDriver/src/spi.c:517:17
	cmp	r0, #16
	bne	.LBB8_5
	b	.LBB8_4
.LBB8_4:
.Ltmp231:
	.loc	5 519 25 is_stmt 1              @ ../../CCC_common/Library/StdDriver/src/spi.c:519:25
	bl	CLK_GetPLLClockFreq
	.loc	5 519 23 is_stmt 0              @ ../../CCC_common/Library/StdDriver/src/spi.c:519:23
	str	r0, [sp, #4]
	.loc	5 520 9 is_stmt 1               @ ../../CCC_common/Library/StdDriver/src/spi.c:520:9
	b	.LBB8_9
.Ltmp232:
.LBB8_5:
	.loc	5 0 9 is_stmt 0                 @ ../../CCC_common/Library/StdDriver/src/spi.c:0:9
	ldr	r0, __arm_cp.8_8
.Ltmp233:
	.loc	5 521 18 is_stmt 1              @ ../../CCC_common/Library/StdDriver/src/spi.c:521:18
	bl	CLK_GetModuleClockSource
	.loc	5 521 56 is_stmt 0              @ ../../CCC_common/Library/StdDriver/src/spi.c:521:56
	lsls	r0, r0, #4
.Ltmp234:
	.loc	5 521 17                        @ ../../CCC_common/Library/StdDriver/src/spi.c:521:17
	cmp	r0, #32
	bne	.LBB8_7
	b	.LBB8_6
.LBB8_6:
.Ltmp235:
	.loc	5 523 25 is_stmt 1              @ ../../CCC_common/Library/StdDriver/src/spi.c:523:25
	bl	CLK_GetPCLK1Freq
	.loc	5 523 23 is_stmt 0              @ ../../CCC_common/Library/StdDriver/src/spi.c:523:23
	str	r0, [sp, #4]
	.loc	5 524 9 is_stmt 1               @ ../../CCC_common/Library/StdDriver/src/spi.c:524:9
	b	.LBB8_8
.Ltmp236:
.LBB8_7:
	.loc	5 0 9 is_stmt 0                 @ ../../CCC_common/Library/StdDriver/src/spi.c:0:9
	ldr	r0, __arm_cp.8_5
.Ltmp237:
	.loc	5 527 23 is_stmt 1              @ ../../CCC_common/Library/StdDriver/src/spi.c:527:23
	str	r0, [sp, #4]
	b	.LBB8_8
.Ltmp238:
.LBB8_8:
	.loc	5 0 23 is_stmt 0                @ ../../CCC_common/Library/StdDriver/src/spi.c:0:23
	b	.LBB8_9
.LBB8_9:
	b	.LBB8_10
.LBB8_10:
	.loc	5 529 5 is_stmt 1               @ ../../CCC_common/Library/StdDriver/src/spi.c:529:5
	b	.LBB8_45
.Ltmp239:
.LBB8_11:
	.loc	5 530 13                        @ ../../CCC_common/Library/StdDriver/src/spi.c:530:13
	ldr	r0, [sp, #12]
	ldr	r1, __arm_cp.8_2
.Ltmp240:
	.loc	5 530 13 is_stmt 0              @ ../../CCC_common/Library/StdDriver/src/spi.c:530:13
	cmp	r0, r1
	bne	.LBB8_22
	b	.LBB8_12
.LBB8_12:
	.loc	5 0 13                          @ ../../CCC_common/Library/StdDriver/src/spi.c:0:13
	ldr	r0, __arm_cp.8_7
.Ltmp241:
	.loc	5 532 13 is_stmt 1              @ ../../CCC_common/Library/StdDriver/src/spi.c:532:13
	bl	CLK_GetModuleClockSource
	.loc	5 532 51 is_stmt 0              @ ../../CCC_common/Library/StdDriver/src/spi.c:532:51
	lsls	r0, r0, #6
.Ltmp242:
	.loc	5 532 12                        @ ../../CCC_common/Library/StdDriver/src/spi.c:532:12
	cbnz	r0, .LBB8_14
	b	.LBB8_13
.LBB8_13:
	.loc	5 0 12                          @ ../../CCC_common/Library/StdDriver/src/spi.c:0:12
	ldr	r0, __arm_cp.8_5
.Ltmp243:
	.loc	5 534 23 is_stmt 1              @ ../../CCC_common/Library/StdDriver/src/spi.c:534:23
	str	r0, [sp, #4]
	.loc	5 535 9                         @ ../../CCC_common/Library/StdDriver/src/spi.c:535:9
	b	.LBB8_21
.Ltmp244:
.LBB8_14:
	.loc	5 0 9 is_stmt 0                 @ ../../CCC_common/Library/StdDriver/src/spi.c:0:9
	ldr	r0, __arm_cp.8_7
.Ltmp245:
	.loc	5 536 18 is_stmt 1              @ ../../CCC_common/Library/StdDriver/src/spi.c:536:18
	bl	CLK_GetModuleClockSource
	.loc	5 536 56 is_stmt 0              @ ../../CCC_common/Library/StdDriver/src/spi.c:536:56
	lsls	r0, r0, #6
.Ltmp246:
	.loc	5 536 17                        @ ../../CCC_common/Library/StdDriver/src/spi.c:536:17
	cmp	r0, #64
	bne	.LBB8_16
	b	.LBB8_15
.LBB8_15:
.Ltmp247:
	.loc	5 538 25 is_stmt 1              @ ../../CCC_common/Library/StdDriver/src/spi.c:538:25
	bl	CLK_GetPLLClockFreq
	.loc	5 538 23 is_stmt 0              @ ../../CCC_common/Library/StdDriver/src/spi.c:538:23
	str	r0, [sp, #4]
	.loc	5 539 9 is_stmt 1               @ ../../CCC_common/Library/StdDriver/src/spi.c:539:9
	b	.LBB8_20
.Ltmp248:
.LBB8_16:
	.loc	5 0 9 is_stmt 0                 @ ../../CCC_common/Library/StdDriver/src/spi.c:0:9
	ldr	r0, __arm_cp.8_7
.Ltmp249:
	.loc	5 540 18 is_stmt 1              @ ../../CCC_common/Library/StdDriver/src/spi.c:540:18
	bl	CLK_GetModuleClockSource
	.loc	5 540 56 is_stmt 0              @ ../../CCC_common/Library/StdDriver/src/spi.c:540:56
	lsls	r0, r0, #6
.Ltmp250:
	.loc	5 540 17                        @ ../../CCC_common/Library/StdDriver/src/spi.c:540:17
	cmp	r0, #128
	bne	.LBB8_18
	b	.LBB8_17
.LBB8_17:
.Ltmp251:
	.loc	5 542 25 is_stmt 1              @ ../../CCC_common/Library/StdDriver/src/spi.c:542:25
	bl	CLK_GetPCLK0Freq
	.loc	5 542 23 is_stmt 0              @ ../../CCC_common/Library/StdDriver/src/spi.c:542:23
	str	r0, [sp, #4]
	.loc	5 543 9 is_stmt 1               @ ../../CCC_common/Library/StdDriver/src/spi.c:543:9
	b	.LBB8_19
.Ltmp252:
.LBB8_18:
	.loc	5 0 9 is_stmt 0                 @ ../../CCC_common/Library/StdDriver/src/spi.c:0:9
	ldr	r0, __arm_cp.8_5
.Ltmp253:
	.loc	5 546 23 is_stmt 1              @ ../../CCC_common/Library/StdDriver/src/spi.c:546:23
	str	r0, [sp, #4]
	b	.LBB8_19
.Ltmp254:
.LBB8_19:
	.loc	5 0 23 is_stmt 0                @ ../../CCC_common/Library/StdDriver/src/spi.c:0:23
	b	.LBB8_20
.LBB8_20:
	b	.LBB8_21
.LBB8_21:
	.loc	5 548 5 is_stmt 1               @ ../../CCC_common/Library/StdDriver/src/spi.c:548:5
	b	.LBB8_44
.Ltmp255:
.LBB8_22:
	.loc	5 549 13                        @ ../../CCC_common/Library/StdDriver/src/spi.c:549:13
	ldr	r0, [sp, #12]
	ldr	r1, __arm_cp.8_3
.Ltmp256:
	.loc	5 549 13 is_stmt 0              @ ../../CCC_common/Library/StdDriver/src/spi.c:549:13
	cmp	r0, r1
	bne	.LBB8_33
	b	.LBB8_23
.LBB8_23:
	.loc	5 0 13                          @ ../../CCC_common/Library/StdDriver/src/spi.c:0:13
	ldr	r0, __arm_cp.8_6
.Ltmp257:
	.loc	5 551 13 is_stmt 1              @ ../../CCC_common/Library/StdDriver/src/spi.c:551:13
	bl	CLK_GetModuleClockSource
	.loc	5 551 51 is_stmt 0              @ ../../CCC_common/Library/StdDriver/src/spi.c:551:51
	lsls	r0, r0, #10
.Ltmp258:
	.loc	5 551 12                        @ ../../CCC_common/Library/StdDriver/src/spi.c:551:12
	cbnz	r0, .LBB8_25
	b	.LBB8_24
.LBB8_24:
	.loc	5 0 12                          @ ../../CCC_common/Library/StdDriver/src/spi.c:0:12
	ldr	r0, __arm_cp.8_5
.Ltmp259:
	.loc	5 553 23 is_stmt 1              @ ../../CCC_common/Library/StdDriver/src/spi.c:553:23
	str	r0, [sp, #4]
	.loc	5 554 9                         @ ../../CCC_common/Library/StdDriver/src/spi.c:554:9
	b	.LBB8_32
.Ltmp260:
.LBB8_25:
	.loc	5 0 9 is_stmt 0                 @ ../../CCC_common/Library/StdDriver/src/spi.c:0:9
	ldr	r0, __arm_cp.8_6
.Ltmp261:
	.loc	5 555 18 is_stmt 1              @ ../../CCC_common/Library/StdDriver/src/spi.c:555:18
	bl	CLK_GetModuleClockSource
	.loc	5 555 56 is_stmt 0              @ ../../CCC_common/Library/StdDriver/src/spi.c:555:56
	lsls	r0, r0, #10
	movw	r1, #1024
.Ltmp262:
	.loc	5 555 17                        @ ../../CCC_common/Library/StdDriver/src/spi.c:555:17
	cmp	r0, r1
	bne	.LBB8_27
	b	.LBB8_26
.LBB8_26:
.Ltmp263:
	.loc	5 557 25 is_stmt 1              @ ../../CCC_common/Library/StdDriver/src/spi.c:557:25
	bl	CLK_GetPLLClockFreq
	.loc	5 557 23 is_stmt 0              @ ../../CCC_common/Library/StdDriver/src/spi.c:557:23
	str	r0, [sp, #4]
	.loc	5 558 9 is_stmt 1               @ ../../CCC_common/Library/StdDriver/src/spi.c:558:9
	b	.LBB8_31
.Ltmp264:
.LBB8_27:
	.loc	5 0 9 is_stmt 0                 @ ../../CCC_common/Library/StdDriver/src/spi.c:0:9
	ldr	r0, __arm_cp.8_6
.Ltmp265:
	.loc	5 559 18 is_stmt 1              @ ../../CCC_common/Library/StdDriver/src/spi.c:559:18
	bl	CLK_GetModuleClockSource
	.loc	5 559 56 is_stmt 0              @ ../../CCC_common/Library/StdDriver/src/spi.c:559:56
	lsls	r0, r0, #10
	movw	r1, #2048
.Ltmp266:
	.loc	5 559 17                        @ ../../CCC_common/Library/StdDriver/src/spi.c:559:17
	cmp	r0, r1
	bne	.LBB8_29
	b	.LBB8_28
.LBB8_28:
.Ltmp267:
	.loc	5 561 25 is_stmt 1              @ ../../CCC_common/Library/StdDriver/src/spi.c:561:25
	bl	CLK_GetPCLK1Freq
	.loc	5 561 23 is_stmt 0              @ ../../CCC_common/Library/StdDriver/src/spi.c:561:23
	str	r0, [sp, #4]
	.loc	5 562 9 is_stmt 1               @ ../../CCC_common/Library/StdDriver/src/spi.c:562:9
	b	.LBB8_30
.Ltmp268:
.LBB8_29:
	.loc	5 0 9 is_stmt 0                 @ ../../CCC_common/Library/StdDriver/src/spi.c:0:9
	ldr	r0, __arm_cp.8_5
.Ltmp269:
	.loc	5 565 23 is_stmt 1              @ ../../CCC_common/Library/StdDriver/src/spi.c:565:23
	str	r0, [sp, #4]
	b	.LBB8_30
.Ltmp270:
.LBB8_30:
	.loc	5 0 23 is_stmt 0                @ ../../CCC_common/Library/StdDriver/src/spi.c:0:23
	b	.LBB8_31
.LBB8_31:
	b	.LBB8_32
.LBB8_32:
	.loc	5 567 5 is_stmt 1               @ ../../CCC_common/Library/StdDriver/src/spi.c:567:5
	b	.LBB8_43
.Ltmp271:
.LBB8_33:
	.loc	5 0 5 is_stmt 0                 @ ../../CCC_common/Library/StdDriver/src/spi.c:0:5
	ldr	r0, __arm_cp.8_4
.Ltmp272:
	.loc	5 570 13 is_stmt 1              @ ../../CCC_common/Library/StdDriver/src/spi.c:570:13
	bl	CLK_GetModuleClockSource
	.loc	5 570 51 is_stmt 0              @ ../../CCC_common/Library/StdDriver/src/spi.c:570:51
	lsls	r0, r0, #12
.Ltmp273:
	.loc	5 570 12                        @ ../../CCC_common/Library/StdDriver/src/spi.c:570:12
	cbnz	r0, .LBB8_35
	b	.LBB8_34
.LBB8_34:
	.loc	5 0 12                          @ ../../CCC_common/Library/StdDriver/src/spi.c:0:12
	ldr	r0, __arm_cp.8_5
.Ltmp274:
	.loc	5 572 23 is_stmt 1              @ ../../CCC_common/Library/StdDriver/src/spi.c:572:23
	str	r0, [sp, #4]
	.loc	5 573 9                         @ ../../CCC_common/Library/StdDriver/src/spi.c:573:9
	b	.LBB8_42
.Ltmp275:
.LBB8_35:
	.loc	5 0 9 is_stmt 0                 @ ../../CCC_common/Library/StdDriver/src/spi.c:0:9
	ldr	r0, __arm_cp.8_4
.Ltmp276:
	.loc	5 574 18 is_stmt 1              @ ../../CCC_common/Library/StdDriver/src/spi.c:574:18
	bl	CLK_GetModuleClockSource
	.loc	5 574 56 is_stmt 0              @ ../../CCC_common/Library/StdDriver/src/spi.c:574:56
	lsls	r0, r0, #12
	movw	r1, #4096
.Ltmp277:
	.loc	5 574 17                        @ ../../CCC_common/Library/StdDriver/src/spi.c:574:17
	cmp	r0, r1
	bne	.LBB8_37
	b	.LBB8_36
.LBB8_36:
.Ltmp278:
	.loc	5 576 25 is_stmt 1              @ ../../CCC_common/Library/StdDriver/src/spi.c:576:25
	bl	CLK_GetPLLClockFreq
	.loc	5 576 23 is_stmt 0              @ ../../CCC_common/Library/StdDriver/src/spi.c:576:23
	str	r0, [sp, #4]
	.loc	5 577 9 is_stmt 1               @ ../../CCC_common/Library/StdDriver/src/spi.c:577:9
	b	.LBB8_41
.Ltmp279:
.LBB8_37:
	.loc	5 0 9 is_stmt 0                 @ ../../CCC_common/Library/StdDriver/src/spi.c:0:9
	ldr	r0, __arm_cp.8_4
.Ltmp280:
	.loc	5 578 18 is_stmt 1              @ ../../CCC_common/Library/StdDriver/src/spi.c:578:18
	bl	CLK_GetModuleClockSource
	.loc	5 578 56 is_stmt 0              @ ../../CCC_common/Library/StdDriver/src/spi.c:578:56
	lsls	r0, r0, #12
	movw	r1, #8192
.Ltmp281:
	.loc	5 578 17                        @ ../../CCC_common/Library/StdDriver/src/spi.c:578:17
	cmp	r0, r1
	bne	.LBB8_39
	b	.LBB8_38
.LBB8_38:
.Ltmp282:
	.loc	5 580 25 is_stmt 1              @ ../../CCC_common/Library/StdDriver/src/spi.c:580:25
	bl	CLK_GetPCLK0Freq
	.loc	5 580 23 is_stmt 0              @ ../../CCC_common/Library/StdDriver/src/spi.c:580:23
	str	r0, [sp, #4]
	.loc	5 581 9 is_stmt 1               @ ../../CCC_common/Library/StdDriver/src/spi.c:581:9
	b	.LBB8_40
.Ltmp283:
.LBB8_39:
	.loc	5 0 9 is_stmt 0                 @ ../../CCC_common/Library/StdDriver/src/spi.c:0:9
	ldr	r0, __arm_cp.8_5
.Ltmp284:
	.loc	5 584 23 is_stmt 1              @ ../../CCC_common/Library/StdDriver/src/spi.c:584:23
	str	r0, [sp, #4]
	b	.LBB8_40
.Ltmp285:
.LBB8_40:
	.loc	5 0 23 is_stmt 0                @ ../../CCC_common/Library/StdDriver/src/spi.c:0:23
	b	.LBB8_41
.LBB8_41:
	b	.LBB8_42
.LBB8_42:
	b	.LBB8_43
.LBB8_43:
	b	.LBB8_44
.LBB8_44:
	b	.LBB8_45
.LBB8_45:
	.loc	5 589 13 is_stmt 1              @ ../../CCC_common/Library/StdDriver/src/spi.c:589:13
	ldr	r0, [sp, #4]
	.loc	5 589 26 is_stmt 0              @ ../../CCC_common/Library/StdDriver/src/spi.c:589:26
	ldr	r1, [sp, #8]
	.loc	5 589 33                        @ ../../CCC_common/Library/StdDriver/src/spi.c:589:33
	adds	r1, r1, #1
	.loc	5 589 23                        @ ../../CCC_common/Library/StdDriver/src/spi.c:589:23
	udiv	r0, r0, r1
	.loc	5 589 5 epilogue_begin          @ ../../CCC_common/Library/StdDriver/src/spi.c:589:5
	add	sp, #16
	pop	{r7, pc}
.Ltmp286:
	.loc	5 0 5                           @ :0:5
.Ltmp287:
	.p2align	2
@ %bb.46:
__arm_cp.8_0:
	.long	511                             @ 0x1ff
.Lcpi_end22:
	.size	__arm_cp.8_0, .Lcpi_end22-__arm_cp.8_0
__arm_cp.8_1:
	.long	1074139136                      @ 0x40061000
.Lcpi_end23:
	.size	__arm_cp.8_1, .Lcpi_end23-__arm_cp.8_1
__arm_cp.8_2:
	.long	1074143232                      @ 0x40062000
.Lcpi_end24:
	.size	__arm_cp.8_2, .Lcpi_end24-__arm_cp.8_2
__arm_cp.8_3:
	.long	1074147328                      @ 0x40063000
.Lcpi_end25:
	.size	__arm_cp.8_3, .Lcpi_end25-__arm_cp.8_3
__arm_cp.8_4:
	.long	2797600774                      @ 0xa6c00006
.Lcpi_end26:
	.size	__arm_cp.8_4, .Lcpi_end26-__arm_cp.8_4
__arm_cp.8_5:
	.long	12000000                        @ 0xb71b00
.Lcpi_end27:
	.size	__arm_cp.8_5, .Lcpi_end27-__arm_cp.8_5
__arm_cp.8_6:
	.long	1721761807                      @ 0x66a0000f
.Lcpi_end28:
	.size	__arm_cp.8_6, .Lcpi_end28-__arm_cp.8_6
__arm_cp.8_7:
	.long	1717567502                      @ 0x6660000e
.Lcpi_end29:
	.size	__arm_cp.8_7, .Lcpi_end29-__arm_cp.8_7
__arm_cp.8_8:
	.long	1715470349                      @ 0x6640000d
.Lcpi_end30:
	.size	__arm_cp.8_8, .Lcpi_end30-__arm_cp.8_8
.Lfunc_end8:
	.size	SPI_GetBusClock, .Lfunc_end8-SPI_GetBusClock
	.cfi_endproc
	.cantunwind
	.fnend
                                        @ -- End function
	.section	.text.SPI_EnableInt,"ax",%progbits
	.hidden	SPI_EnableInt                   @ -- Begin function SPI_EnableInt
	.globl	SPI_EnableInt
	.p2align	1
	.type	SPI_EnableInt,%function
	.code	16                              @ @SPI_EnableInt
	.thumb_func
SPI_EnableInt:
.Lfunc_begin9:
	.loc	5 613 0 is_stmt 1               @ ../../CCC_common/Library/StdDriver/src/spi.c:613:0
	.fnstart
	.cfi_startproc
@ %bb.0:
	.pad	#8
	sub	sp, #8
	.cfi_def_cfa_offset 8
	str	r0, [sp, #4]
	str	r1, [sp]
	mov	r0, sp
.Ltmp288:
	.loc	5 615 8 prologue_end            @ ../../CCC_common/Library/StdDriver/src/spi.c:615:8
	ldrb	r0, [r0]
	lsls	r0, r0, #31
	cbz	r0, .LBB9_2
	b	.LBB9_1
.LBB9_1:
.Ltmp289:
	.loc	5 617 9                         @ ../../CCC_common/Library/StdDriver/src/spi.c:617:9
	ldr	r1, [sp, #4]
	.loc	5 617 18 is_stmt 0              @ ../../CCC_common/Library/StdDriver/src/spi.c:617:18
	ldr	r0, [r1]
	movs	r2, #1
	lsls	r2, r2, #17
	orrs	r0, r2
	str	r0, [r1]
	.loc	5 618 5 is_stmt 1               @ ../../CCC_common/Library/StdDriver/src/spi.c:618:5
	b	.LBB9_2
.Ltmp290:
.LBB9_2:
	.loc	5 0 5 is_stmt 0                 @ ../../CCC_common/Library/StdDriver/src/spi.c:0:5
	mov	r0, sp
	.loc	5 621 8 is_stmt 1               @ ../../CCC_common/Library/StdDriver/src/spi.c:621:8
	ldrb	r0, [r0]
	lsls	r0, r0, #30
	cmp	r0, #0
	bpl	.LBB9_4
	b	.LBB9_3
.LBB9_3:
.Ltmp291:
	.loc	5 623 9                         @ ../../CCC_common/Library/StdDriver/src/spi.c:623:9
	ldr	r1, [sp, #4]
	.loc	5 623 20 is_stmt 0              @ ../../CCC_common/Library/StdDriver/src/spi.c:623:20
	ldr	r0, [r1, #8]
	movw	r2, #4096
	orrs	r0, r2
	str	r0, [r1, #8]
	.loc	5 624 5 is_stmt 1               @ ../../CCC_common/Library/StdDriver/src/spi.c:624:5
	b	.LBB9_4
.Ltmp292:
.LBB9_4:
	.loc	5 0 5 is_stmt 0                 @ ../../CCC_common/Library/StdDriver/src/spi.c:0:5
	mov	r0, sp
	.loc	5 627 8 is_stmt 1               @ ../../CCC_common/Library/StdDriver/src/spi.c:627:8
	ldrb	r0, [r0]
	lsls	r0, r0, #29
	cmp	r0, #0
	bpl	.LBB9_6
	b	.LBB9_5
.LBB9_5:
.Ltmp293:
	.loc	5 629 9                         @ ../../CCC_common/Library/StdDriver/src/spi.c:629:9
	ldr	r1, [sp, #4]
	.loc	5 629 20 is_stmt 0              @ ../../CCC_common/Library/StdDriver/src/spi.c:629:20
	ldr	r0, [r1, #8]
	movw	r2, #8192
	orrs	r0, r2
	str	r0, [r1, #8]
	.loc	5 630 5 is_stmt 1               @ ../../CCC_common/Library/StdDriver/src/spi.c:630:5
	b	.LBB9_6
.Ltmp294:
.LBB9_6:
	.loc	5 0 5 is_stmt 0                 @ ../../CCC_common/Library/StdDriver/src/spi.c:0:5
	mov	r0, sp
	.loc	5 633 8 is_stmt 1               @ ../../CCC_common/Library/StdDriver/src/spi.c:633:8
	ldrb	r0, [r0]
	lsls	r0, r0, #28
	cmp	r0, #0
	bpl	.LBB9_8
	b	.LBB9_7
.LBB9_7:
.Ltmp295:
	.loc	5 635 9                         @ ../../CCC_common/Library/StdDriver/src/spi.c:635:9
	ldr	r1, [sp, #4]
	.loc	5 635 20 is_stmt 0              @ ../../CCC_common/Library/StdDriver/src/spi.c:635:20
	ldr	r0, [r1, #8]
	movw	r2, #512
	orrs	r0, r2
	str	r0, [r1, #8]
	.loc	5 636 5 is_stmt 1               @ ../../CCC_common/Library/StdDriver/src/spi.c:636:5
	b	.LBB9_8
.Ltmp296:
.LBB9_8:
	.loc	5 0 5 is_stmt 0                 @ ../../CCC_common/Library/StdDriver/src/spi.c:0:5
	mov	r0, sp
	.loc	5 639 8 is_stmt 1               @ ../../CCC_common/Library/StdDriver/src/spi.c:639:8
	ldrb	r0, [r0]
	lsls	r0, r0, #27
	cmp	r0, #0
	bpl	.LBB9_10
	b	.LBB9_9
.LBB9_9:
.Ltmp297:
	.loc	5 641 9                         @ ../../CCC_common/Library/StdDriver/src/spi.c:641:9
	ldr	r1, [sp, #4]
	.loc	5 641 20 is_stmt 0              @ ../../CCC_common/Library/StdDriver/src/spi.c:641:20
	ldr	r0, [r1, #8]
	movw	r2, #256
	orrs	r0, r2
	str	r0, [r1, #8]
	.loc	5 642 5 is_stmt 1               @ ../../CCC_common/Library/StdDriver/src/spi.c:642:5
	b	.LBB9_10
.Ltmp298:
.LBB9_10:
	.loc	5 0 5 is_stmt 0                 @ ../../CCC_common/Library/StdDriver/src/spi.c:0:5
	mov	r0, sp
	.loc	5 645 8 is_stmt 1               @ ../../CCC_common/Library/StdDriver/src/spi.c:645:8
	ldrb	r0, [r0]
	lsls	r0, r0, #25
	cmp	r0, #0
	bpl	.LBB9_12
	b	.LBB9_11
.LBB9_11:
.Ltmp299:
	.loc	5 647 9                         @ ../../CCC_common/Library/StdDriver/src/spi.c:647:9
	ldr	r1, [sp, #4]
	.loc	5 647 22 is_stmt 0              @ ../../CCC_common/Library/StdDriver/src/spi.c:647:22
	ldr	r0, [r1, #16]
	movs	r2, #128
	orrs	r0, r2
	str	r0, [r1, #16]
	.loc	5 648 5 is_stmt 1               @ ../../CCC_common/Library/StdDriver/src/spi.c:648:5
	b	.LBB9_12
.Ltmp300:
.LBB9_12:
	.loc	5 0 5 is_stmt 0                 @ ../../CCC_common/Library/StdDriver/src/spi.c:0:5
	mov	r0, sp
	.loc	5 651 8 is_stmt 1               @ ../../CCC_common/Library/StdDriver/src/spi.c:651:8
	ldrb	r0, [r0]
	lsls	r0, r0, #24
	cmp	r0, #0
	bpl	.LBB9_14
	b	.LBB9_13
.LBB9_13:
.Ltmp301:
	.loc	5 653 9                         @ ../../CCC_common/Library/StdDriver/src/spi.c:653:9
	ldr	r1, [sp, #4]
	.loc	5 653 22 is_stmt 0              @ ../../CCC_common/Library/StdDriver/src/spi.c:653:22
	ldr	r0, [r1, #16]
	movs	r2, #8
	orrs	r0, r2
	str	r0, [r1, #16]
	.loc	5 654 5 is_stmt 1               @ ../../CCC_common/Library/StdDriver/src/spi.c:654:5
	b	.LBB9_14
.Ltmp302:
.LBB9_14:
	.loc	5 0 5 is_stmt 0                 @ ../../CCC_common/Library/StdDriver/src/spi.c:0:5
	mov	r0, sp
	.loc	5 657 8 is_stmt 1               @ ../../CCC_common/Library/StdDriver/src/spi.c:657:8
	ldrb	r0, [r0, #1]
	lsls	r0, r0, #31
	cbz	r0, .LBB9_16
	b	.LBB9_15
.LBB9_15:
.Ltmp303:
	.loc	5 659 9                         @ ../../CCC_common/Library/StdDriver/src/spi.c:659:9
	ldr	r1, [sp, #4]
	.loc	5 659 22 is_stmt 0              @ ../../CCC_common/Library/StdDriver/src/spi.c:659:22
	ldr	r0, [r1, #16]
	movs	r2, #4
	orrs	r0, r2
	str	r0, [r1, #16]
	.loc	5 660 5 is_stmt 1               @ ../../CCC_common/Library/StdDriver/src/spi.c:660:5
	b	.LBB9_16
.Ltmp304:
.LBB9_16:
	.loc	5 0 5 is_stmt 0                 @ ../../CCC_common/Library/StdDriver/src/spi.c:0:5
	mov	r0, sp
	.loc	5 663 8 is_stmt 1               @ ../../CCC_common/Library/StdDriver/src/spi.c:663:8
	ldrb	r0, [r0, #1]
	lsls	r0, r0, #30
	cmp	r0, #0
	bpl	.LBB9_18
	b	.LBB9_17
.LBB9_17:
.Ltmp305:
	.loc	5 665 9                         @ ../../CCC_common/Library/StdDriver/src/spi.c:665:9
	ldr	r1, [sp, #4]
	.loc	5 665 22 is_stmt 0              @ ../../CCC_common/Library/StdDriver/src/spi.c:665:22
	ldr	r0, [r1, #16]
	movs	r2, #32
	orrs	r0, r2
	str	r0, [r1, #16]
	.loc	5 666 5 is_stmt 1               @ ../../CCC_common/Library/StdDriver/src/spi.c:666:5
	b	.LBB9_18
.Ltmp306:
.LBB9_18:
	.loc	5 0 5 is_stmt 0                 @ ../../CCC_common/Library/StdDriver/src/spi.c:0:5
	mov	r0, sp
	.loc	5 669 8 is_stmt 1               @ ../../CCC_common/Library/StdDriver/src/spi.c:669:8
	ldrb	r0, [r0, #1]
	lsls	r0, r0, #29
	cmp	r0, #0
	bpl	.LBB9_20
	b	.LBB9_19
.LBB9_19:
.Ltmp307:
	.loc	5 671 9                         @ ../../CCC_common/Library/StdDriver/src/spi.c:671:9
	ldr	r1, [sp, #4]
	.loc	5 671 22 is_stmt 0              @ ../../CCC_common/Library/StdDriver/src/spi.c:671:22
	ldr	r0, [r1, #16]
	movs	r2, #16
	orrs	r0, r2
	str	r0, [r1, #16]
	.loc	5 672 5 is_stmt 1               @ ../../CCC_common/Library/StdDriver/src/spi.c:672:5
	b	.LBB9_20
.Ltmp308:
.LBB9_20:
	.loc	5 673 1 epilogue_begin          @ ../../CCC_common/Library/StdDriver/src/spi.c:673:1
	add	sp, #8
	bx	lr
.Ltmp309:
.Lfunc_end9:
	.size	SPI_EnableInt, .Lfunc_end9-SPI_EnableInt
	.cfi_endproc
	.cantunwind
	.fnend
                                        @ -- End function
	.section	.text.SPI_DisableInt,"ax",%progbits
	.hidden	SPI_DisableInt                  @ -- Begin function SPI_DisableInt
	.globl	SPI_DisableInt
	.p2align	1
	.type	SPI_DisableInt,%function
	.code	16                              @ @SPI_DisableInt
	.thumb_func
SPI_DisableInt:
.Lfunc_begin10:
	.loc	5 696 0                         @ ../../CCC_common/Library/StdDriver/src/spi.c:696:0
	.fnstart
	.cfi_startproc
@ %bb.0:
	.pad	#8
	sub	sp, #8
	.cfi_def_cfa_offset 8
	str	r0, [sp, #4]
	str	r1, [sp]
	mov	r0, sp
.Ltmp310:
	.loc	5 698 8 prologue_end            @ ../../CCC_common/Library/StdDriver/src/spi.c:698:8
	ldrb	r0, [r0]
	lsls	r0, r0, #31
	cbz	r0, .LBB10_2
	b	.LBB10_1
.LBB10_1:
.Ltmp311:
	.loc	5 700 9                         @ ../../CCC_common/Library/StdDriver/src/spi.c:700:9
	ldr	r1, [sp, #4]
	.loc	5 700 18 is_stmt 0              @ ../../CCC_common/Library/StdDriver/src/spi.c:700:18
	ldr	r0, [r1]
	movs	r2, #1
	lsls	r2, r2, #17
	bics	r0, r2
	str	r0, [r1]
	.loc	5 701 5 is_stmt 1               @ ../../CCC_common/Library/StdDriver/src/spi.c:701:5
	b	.LBB10_2
.Ltmp312:
.LBB10_2:
	.loc	5 0 5 is_stmt 0                 @ ../../CCC_common/Library/StdDriver/src/spi.c:0:5
	mov	r0, sp
	.loc	5 704 8 is_stmt 1               @ ../../CCC_common/Library/StdDriver/src/spi.c:704:8
	ldrb	r0, [r0]
	lsls	r0, r0, #30
	cmp	r0, #0
	bpl	.LBB10_4
	b	.LBB10_3
.LBB10_3:
.Ltmp313:
	.loc	5 706 9                         @ ../../CCC_common/Library/StdDriver/src/spi.c:706:9
	ldr	r1, [sp, #4]
	.loc	5 706 20 is_stmt 0              @ ../../CCC_common/Library/StdDriver/src/spi.c:706:20
	ldr	r0, [r1, #8]
	movw	r2, #4096
	bics	r0, r2
	str	r0, [r1, #8]
	.loc	5 707 5 is_stmt 1               @ ../../CCC_common/Library/StdDriver/src/spi.c:707:5
	b	.LBB10_4
.Ltmp314:
.LBB10_4:
	.loc	5 0 5 is_stmt 0                 @ ../../CCC_common/Library/StdDriver/src/spi.c:0:5
	mov	r0, sp
	.loc	5 710 8 is_stmt 1               @ ../../CCC_common/Library/StdDriver/src/spi.c:710:8
	ldrb	r0, [r0]
	lsls	r0, r0, #29
	cmp	r0, #0
	bpl	.LBB10_6
	b	.LBB10_5
.LBB10_5:
.Ltmp315:
	.loc	5 712 9                         @ ../../CCC_common/Library/StdDriver/src/spi.c:712:9
	ldr	r1, [sp, #4]
	.loc	5 712 20 is_stmt 0              @ ../../CCC_common/Library/StdDriver/src/spi.c:712:20
	ldr	r0, [r1, #8]
	movw	r2, #8192
	bics	r0, r2
	str	r0, [r1, #8]
	.loc	5 713 5 is_stmt 1               @ ../../CCC_common/Library/StdDriver/src/spi.c:713:5
	b	.LBB10_6
.Ltmp316:
.LBB10_6:
	.loc	5 0 5 is_stmt 0                 @ ../../CCC_common/Library/StdDriver/src/spi.c:0:5
	mov	r0, sp
	.loc	5 716 8 is_stmt 1               @ ../../CCC_common/Library/StdDriver/src/spi.c:716:8
	ldrb	r0, [r0]
	lsls	r0, r0, #28
	cmp	r0, #0
	bpl	.LBB10_8
	b	.LBB10_7
.LBB10_7:
.Ltmp317:
	.loc	5 718 9                         @ ../../CCC_common/Library/StdDriver/src/spi.c:718:9
	ldr	r1, [sp, #4]
	.loc	5 718 20 is_stmt 0              @ ../../CCC_common/Library/StdDriver/src/spi.c:718:20
	ldr	r0, [r1, #8]
	movw	r2, #512
	bics	r0, r2
	str	r0, [r1, #8]
	.loc	5 719 5 is_stmt 1               @ ../../CCC_common/Library/StdDriver/src/spi.c:719:5
	b	.LBB10_8
.Ltmp318:
.LBB10_8:
	.loc	5 0 5 is_stmt 0                 @ ../../CCC_common/Library/StdDriver/src/spi.c:0:5
	mov	r0, sp
	.loc	5 722 8 is_stmt 1               @ ../../CCC_common/Library/StdDriver/src/spi.c:722:8
	ldrb	r0, [r0]
	lsls	r0, r0, #27
	cmp	r0, #0
	bpl	.LBB10_10
	b	.LBB10_9
.LBB10_9:
.Ltmp319:
	.loc	5 724 9                         @ ../../CCC_common/Library/StdDriver/src/spi.c:724:9
	ldr	r1, [sp, #4]
	.loc	5 724 20 is_stmt 0              @ ../../CCC_common/Library/StdDriver/src/spi.c:724:20
	ldr	r0, [r1, #8]
	movw	r2, #256
	bics	r0, r2
	str	r0, [r1, #8]
	.loc	5 725 5 is_stmt 1               @ ../../CCC_common/Library/StdDriver/src/spi.c:725:5
	b	.LBB10_10
.Ltmp320:
.LBB10_10:
	.loc	5 0 5 is_stmt 0                 @ ../../CCC_common/Library/StdDriver/src/spi.c:0:5
	mov	r0, sp
	.loc	5 728 8 is_stmt 1               @ ../../CCC_common/Library/StdDriver/src/spi.c:728:8
	ldrb	r0, [r0]
	lsls	r0, r0, #25
	cmp	r0, #0
	bpl	.LBB10_12
	b	.LBB10_11
.LBB10_11:
.Ltmp321:
	.loc	5 730 9                         @ ../../CCC_common/Library/StdDriver/src/spi.c:730:9
	ldr	r1, [sp, #4]
	.loc	5 730 22 is_stmt 0              @ ../../CCC_common/Library/StdDriver/src/spi.c:730:22
	ldr	r0, [r1, #16]
	movs	r2, #128
	bics	r0, r2
	str	r0, [r1, #16]
	.loc	5 731 5 is_stmt 1               @ ../../CCC_common/Library/StdDriver/src/spi.c:731:5
	b	.LBB10_12
.Ltmp322:
.LBB10_12:
	.loc	5 0 5 is_stmt 0                 @ ../../CCC_common/Library/StdDriver/src/spi.c:0:5
	mov	r0, sp
	.loc	5 734 8 is_stmt 1               @ ../../CCC_common/Library/StdDriver/src/spi.c:734:8
	ldrb	r0, [r0]
	lsls	r0, r0, #24
	cmp	r0, #0
	bpl	.LBB10_14
	b	.LBB10_13
.LBB10_13:
.Ltmp323:
	.loc	5 736 9                         @ ../../CCC_common/Library/StdDriver/src/spi.c:736:9
	ldr	r1, [sp, #4]
	.loc	5 736 22 is_stmt 0              @ ../../CCC_common/Library/StdDriver/src/spi.c:736:22
	ldr	r0, [r1, #16]
	movs	r2, #8
	bics	r0, r2
	str	r0, [r1, #16]
	.loc	5 737 5 is_stmt 1               @ ../../CCC_common/Library/StdDriver/src/spi.c:737:5
	b	.LBB10_14
.Ltmp324:
.LBB10_14:
	.loc	5 0 5 is_stmt 0                 @ ../../CCC_common/Library/StdDriver/src/spi.c:0:5
	mov	r0, sp
	.loc	5 740 8 is_stmt 1               @ ../../CCC_common/Library/StdDriver/src/spi.c:740:8
	ldrb	r0, [r0, #1]
	lsls	r0, r0, #31
	cbz	r0, .LBB10_16
	b	.LBB10_15
.LBB10_15:
.Ltmp325:
	.loc	5 742 9                         @ ../../CCC_common/Library/StdDriver/src/spi.c:742:9
	ldr	r1, [sp, #4]
	.loc	5 742 22 is_stmt 0              @ ../../CCC_common/Library/StdDriver/src/spi.c:742:22
	ldr	r0, [r1, #16]
	movs	r2, #4
	bics	r0, r2
	str	r0, [r1, #16]
	.loc	5 743 5 is_stmt 1               @ ../../CCC_common/Library/StdDriver/src/spi.c:743:5
	b	.LBB10_16
.Ltmp326:
.LBB10_16:
	.loc	5 0 5 is_stmt 0                 @ ../../CCC_common/Library/StdDriver/src/spi.c:0:5
	mov	r0, sp
	.loc	5 746 8 is_stmt 1               @ ../../CCC_common/Library/StdDriver/src/spi.c:746:8
	ldrb	r0, [r0, #1]
	lsls	r0, r0, #30
	cmp	r0, #0
	bpl	.LBB10_18
	b	.LBB10_17
.LBB10_17:
.Ltmp327:
	.loc	5 748 9                         @ ../../CCC_common/Library/StdDriver/src/spi.c:748:9
	ldr	r1, [sp, #4]
	.loc	5 748 22 is_stmt 0              @ ../../CCC_common/Library/StdDriver/src/spi.c:748:22
	ldr	r0, [r1, #16]
	movs	r2, #32
	bics	r0, r2
	str	r0, [r1, #16]
	.loc	5 749 5 is_stmt 1               @ ../../CCC_common/Library/StdDriver/src/spi.c:749:5
	b	.LBB10_18
.Ltmp328:
.LBB10_18:
	.loc	5 0 5 is_stmt 0                 @ ../../CCC_common/Library/StdDriver/src/spi.c:0:5
	mov	r0, sp
	.loc	5 752 8 is_stmt 1               @ ../../CCC_common/Library/StdDriver/src/spi.c:752:8
	ldrb	r0, [r0, #1]
	lsls	r0, r0, #29
	cmp	r0, #0
	bpl	.LBB10_20
	b	.LBB10_19
.LBB10_19:
.Ltmp329:
	.loc	5 754 9                         @ ../../CCC_common/Library/StdDriver/src/spi.c:754:9
	ldr	r1, [sp, #4]
	.loc	5 754 22 is_stmt 0              @ ../../CCC_common/Library/StdDriver/src/spi.c:754:22
	ldr	r0, [r1, #16]
	movs	r2, #16
	bics	r0, r2
	str	r0, [r1, #16]
	.loc	5 755 5 is_stmt 1               @ ../../CCC_common/Library/StdDriver/src/spi.c:755:5
	b	.LBB10_20
.Ltmp330:
.LBB10_20:
	.loc	5 756 1 epilogue_begin          @ ../../CCC_common/Library/StdDriver/src/spi.c:756:1
	add	sp, #8
	bx	lr
.Ltmp331:
.Lfunc_end10:
	.size	SPI_DisableInt, .Lfunc_end10-SPI_DisableInt
	.cfi_endproc
	.cantunwind
	.fnend
                                        @ -- End function
	.section	.text.SPI_GetIntFlag,"ax",%progbits
	.hidden	SPI_GetIntFlag                  @ -- Begin function SPI_GetIntFlag
	.globl	SPI_GetIntFlag
	.p2align	1
	.type	SPI_GetIntFlag,%function
	.code	16                              @ @SPI_GetIntFlag
	.thumb_func
SPI_GetIntFlag:
.Lfunc_begin11:
	.loc	5 779 0                         @ ../../CCC_common/Library/StdDriver/src/spi.c:779:0
	.fnstart
	.cfi_startproc
@ %bb.0:
	.pad	#16
	sub	sp, #16
	.cfi_def_cfa_offset 16
	str	r0, [sp, #12]
	str	r1, [sp, #8]
	movs	r0, #0
.Ltmp332:
	.loc	5 781 14 prologue_end           @ ../../CCC_common/Library/StdDriver/src/spi.c:781:14
	str	r0, [sp]
	.loc	5 783 20                        @ ../../CCC_common/Library/StdDriver/src/spi.c:783:20
	ldr	r0, [sp, #12]
	.loc	5 783 25 is_stmt 0              @ ../../CCC_common/Library/StdDriver/src/spi.c:783:25
	ldr	r0, [r0, #20]
	.loc	5 783 18                        @ ../../CCC_common/Library/StdDriver/src/spi.c:783:18
	str	r0, [sp, #4]
	add	r0, sp, #8
.Ltmp333:
	.loc	5 786 38 is_stmt 1              @ ../../CCC_common/Library/StdDriver/src/spi.c:786:38
	ldrb	r0, [r0]
	lsls	r0, r0, #31
	cbz	r0, .LBB11_3
	b	.LBB11_1
.Ltmp334:
.LBB11_1:
	.loc	5 0 38 is_stmt 0                @ ../../CCC_common/Library/StdDriver/src/spi.c:0:38
	add	r0, sp, #4
	.loc	5 786 8                         @ ../../CCC_common/Library/StdDriver/src/spi.c:786:8
	ldrb	r0, [r0]
	lsls	r0, r0, #30
	cmp	r0, #0
	bpl	.LBB11_3
	b	.LBB11_2
.LBB11_2:
.Ltmp335:
	.loc	5 788 20 is_stmt 1              @ ../../CCC_common/Library/StdDriver/src/spi.c:788:20
	ldr	r0, [sp]
	movs	r1, #1
	orrs	r0, r1
	str	r0, [sp]
	.loc	5 789 5                         @ ../../CCC_common/Library/StdDriver/src/spi.c:789:5
	b	.LBB11_3
.Ltmp336:
.LBB11_3:
	.loc	5 0 5 is_stmt 0                 @ ../../CCC_common/Library/StdDriver/src/spi.c:0:5
	add	r0, sp, #8
.Ltmp337:
	.loc	5 792 39 is_stmt 1              @ ../../CCC_common/Library/StdDriver/src/spi.c:792:39
	ldrb	r0, [r0]
	lsls	r0, r0, #30
	cmp	r0, #0
	bpl	.LBB11_6
	b	.LBB11_4
.Ltmp338:
.LBB11_4:
	.loc	5 0 39 is_stmt 0                @ ../../CCC_common/Library/StdDriver/src/spi.c:0:39
	add	r0, sp, #4
	.loc	5 792 8                         @ ../../CCC_common/Library/StdDriver/src/spi.c:792:8
	ldrb	r0, [r0]
	lsls	r0, r0, #29
	cmp	r0, #0
	bpl	.LBB11_6
	b	.LBB11_5
.LBB11_5:
.Ltmp339:
	.loc	5 794 20 is_stmt 1              @ ../../CCC_common/Library/StdDriver/src/spi.c:794:20
	ldr	r0, [sp]
	movs	r1, #2
	orrs	r0, r1
	str	r0, [sp]
	.loc	5 795 5                         @ ../../CCC_common/Library/StdDriver/src/spi.c:795:5
	b	.LBB11_6
.Ltmp340:
.LBB11_6:
	.loc	5 0 5 is_stmt 0                 @ ../../CCC_common/Library/StdDriver/src/spi.c:0:5
	add	r0, sp, #8
.Ltmp341:
	.loc	5 798 41 is_stmt 1              @ ../../CCC_common/Library/StdDriver/src/spi.c:798:41
	ldrb	r0, [r0]
	lsls	r0, r0, #29
	cmp	r0, #0
	bpl	.LBB11_9
	b	.LBB11_7
.Ltmp342:
.LBB11_7:
	.loc	5 0 41 is_stmt 0                @ ../../CCC_common/Library/StdDriver/src/spi.c:0:41
	add	r0, sp, #4
	.loc	5 798 8                         @ ../../CCC_common/Library/StdDriver/src/spi.c:798:8
	ldrb	r0, [r0]
	lsls	r0, r0, #28
	cmp	r0, #0
	bpl	.LBB11_9
	b	.LBB11_8
.LBB11_8:
.Ltmp343:
	.loc	5 800 20 is_stmt 1              @ ../../CCC_common/Library/StdDriver/src/spi.c:800:20
	ldr	r0, [sp]
	movs	r1, #4
	orrs	r0, r1
	str	r0, [sp]
	.loc	5 801 5                         @ ../../CCC_common/Library/StdDriver/src/spi.c:801:5
	b	.LBB11_9
.Ltmp344:
.LBB11_9:
	.loc	5 0 5 is_stmt 0                 @ ../../CCC_common/Library/StdDriver/src/spi.c:0:5
	add	r0, sp, #8
.Ltmp345:
	.loc	5 804 39 is_stmt 1              @ ../../CCC_common/Library/StdDriver/src/spi.c:804:39
	ldrb	r0, [r0]
	lsls	r0, r0, #28
	cmp	r0, #0
	bpl	.LBB11_12
	b	.LBB11_10
.Ltmp346:
.LBB11_10:
	.loc	5 0 39 is_stmt 0                @ ../../CCC_common/Library/StdDriver/src/spi.c:0:39
	add	r0, sp, #4
	.loc	5 804 8                         @ ../../CCC_common/Library/StdDriver/src/spi.c:804:8
	ldrb	r0, [r0]
	lsls	r0, r0, #24
	cmp	r0, #0
	bpl	.LBB11_12
	b	.LBB11_11
.LBB11_11:
.Ltmp347:
	.loc	5 806 20 is_stmt 1              @ ../../CCC_common/Library/StdDriver/src/spi.c:806:20
	ldr	r0, [sp]
	movs	r1, #8
	orrs	r0, r1
	str	r0, [sp]
	.loc	5 807 5                         @ ../../CCC_common/Library/StdDriver/src/spi.c:807:5
	b	.LBB11_12
.Ltmp348:
.LBB11_12:
	.loc	5 0 5 is_stmt 0                 @ ../../CCC_common/Library/StdDriver/src/spi.c:0:5
	add	r0, sp, #8
.Ltmp349:
	.loc	5 810 39 is_stmt 1              @ ../../CCC_common/Library/StdDriver/src/spi.c:810:39
	ldrb	r0, [r0]
	lsls	r0, r0, #27
	cmp	r0, #0
	bpl	.LBB11_15
	b	.LBB11_13
.Ltmp350:
.LBB11_13:
	.loc	5 0 39 is_stmt 0                @ ../../CCC_common/Library/StdDriver/src/spi.c:0:39
	add	r0, sp, #4
	.loc	5 810 8                         @ ../../CCC_common/Library/StdDriver/src/spi.c:810:8
	ldrb	r0, [r0]
	lsls	r0, r0, #25
	cmp	r0, #0
	bpl	.LBB11_15
	b	.LBB11_14
.LBB11_14:
.Ltmp351:
	.loc	5 812 20 is_stmt 1              @ ../../CCC_common/Library/StdDriver/src/spi.c:812:20
	ldr	r0, [sp]
	movs	r1, #16
	orrs	r0, r1
	str	r0, [sp]
	.loc	5 813 5                         @ ../../CCC_common/Library/StdDriver/src/spi.c:813:5
	b	.LBB11_15
.Ltmp352:
.LBB11_15:
	.loc	5 0 5 is_stmt 0                 @ ../../CCC_common/Library/StdDriver/src/spi.c:0:5
	add	r0, sp, #8
.Ltmp353:
	.loc	5 816 38 is_stmt 1              @ ../../CCC_common/Library/StdDriver/src/spi.c:816:38
	ldrb	r0, [r0]
	lsls	r0, r0, #25
	cmp	r0, #0
	bpl	.LBB11_18
	b	.LBB11_16
.Ltmp354:
.LBB11_16:
	.loc	5 0 38 is_stmt 0                @ ../../CCC_common/Library/StdDriver/src/spi.c:0:38
	add	r0, sp, #4
	.loc	5 816 8                         @ ../../CCC_common/Library/StdDriver/src/spi.c:816:8
	ldrb	r0, [r0, #2]
	lsls	r0, r0, #28
	cmp	r0, #0
	bpl	.LBB11_18
	b	.LBB11_17
.LBB11_17:
.Ltmp355:
	.loc	5 818 20 is_stmt 1              @ ../../CCC_common/Library/StdDriver/src/spi.c:818:20
	ldr	r0, [sp]
	movs	r1, #64
	orrs	r0, r1
	str	r0, [sp]
	.loc	5 819 5                         @ ../../CCC_common/Library/StdDriver/src/spi.c:819:5
	b	.LBB11_18
.Ltmp356:
.LBB11_18:
	.loc	5 0 5 is_stmt 0                 @ ../../CCC_common/Library/StdDriver/src/spi.c:0:5
	add	r0, sp, #8
.Ltmp357:
	.loc	5 822 43 is_stmt 1              @ ../../CCC_common/Library/StdDriver/src/spi.c:822:43
	ldrb	r0, [r0]
	lsls	r0, r0, #24
	cmp	r0, #0
	bpl	.LBB11_21
	b	.LBB11_19
.Ltmp358:
.LBB11_19:
	.loc	5 0 43 is_stmt 0                @ ../../CCC_common/Library/StdDriver/src/spi.c:0:43
	add	r0, sp, #4
	.loc	5 822 8                         @ ../../CCC_common/Library/StdDriver/src/spi.c:822:8
	ldrb	r0, [r0, #2]
	lsls	r0, r0, #29
	cmp	r0, #0
	bpl	.LBB11_21
	b	.LBB11_20
.LBB11_20:
.Ltmp359:
	.loc	5 824 20 is_stmt 1              @ ../../CCC_common/Library/StdDriver/src/spi.c:824:20
	ldr	r0, [sp]
	movs	r1, #128
	orrs	r0, r1
	str	r0, [sp]
	.loc	5 825 5                         @ ../../CCC_common/Library/StdDriver/src/spi.c:825:5
	b	.LBB11_21
.Ltmp360:
.LBB11_21:
	.loc	5 0 5 is_stmt 0                 @ ../../CCC_common/Library/StdDriver/src/spi.c:0:5
	add	r0, sp, #8
.Ltmp361:
	.loc	5 828 43 is_stmt 1              @ ../../CCC_common/Library/StdDriver/src/spi.c:828:43
	ldrb	r0, [r0, #1]
	lsls	r0, r0, #31
	cbz	r0, .LBB11_24
	b	.LBB11_22
.Ltmp362:
.LBB11_22:
	.loc	5 0 43 is_stmt 0                @ ../../CCC_common/Library/StdDriver/src/spi.c:0:43
	add	r0, sp, #4
	.loc	5 828 8                         @ ../../CCC_common/Library/StdDriver/src/spi.c:828:8
	ldrb	r0, [r0, #1]
	lsls	r0, r0, #29
	cmp	r0, #0
	bpl	.LBB11_24
	b	.LBB11_23
.LBB11_23:
.Ltmp363:
	.loc	5 830 20 is_stmt 1              @ ../../CCC_common/Library/StdDriver/src/spi.c:830:20
	ldr	r0, [sp]
	movw	r1, #256
	orrs	r0, r1
	str	r0, [sp]
	.loc	5 831 5                         @ ../../CCC_common/Library/StdDriver/src/spi.c:831:5
	b	.LBB11_24
.Ltmp364:
.LBB11_24:
	.loc	5 0 5 is_stmt 0                 @ ../../CCC_common/Library/StdDriver/src/spi.c:0:5
	add	r0, sp, #8
.Ltmp365:
	.loc	5 834 43 is_stmt 1              @ ../../CCC_common/Library/StdDriver/src/spi.c:834:43
	ldrb	r0, [r0, #1]
	lsls	r0, r0, #30
	cmp	r0, #0
	bpl	.LBB11_27
	b	.LBB11_25
.Ltmp366:
.LBB11_25:
	.loc	5 0 43 is_stmt 0                @ ../../CCC_common/Library/StdDriver/src/spi.c:0:43
	add	r0, sp, #4
	.loc	5 834 8                         @ ../../CCC_common/Library/StdDriver/src/spi.c:834:8
	ldrb	r0, [r0, #1]
	lsls	r0, r0, #28
	cmp	r0, #0
	bpl	.LBB11_27
	b	.LBB11_26
.LBB11_26:
.Ltmp367:
	.loc	5 836 20 is_stmt 1              @ ../../CCC_common/Library/StdDriver/src/spi.c:836:20
	ldr	r0, [sp]
	movw	r1, #512
	orrs	r0, r1
	str	r0, [sp]
	.loc	5 837 5                         @ ../../CCC_common/Library/StdDriver/src/spi.c:837:5
	b	.LBB11_27
.Ltmp368:
.LBB11_27:
	.loc	5 0 5 is_stmt 0                 @ ../../CCC_common/Library/StdDriver/src/spi.c:0:5
	add	r0, sp, #8
.Ltmp369:
	.loc	5 840 43 is_stmt 1              @ ../../CCC_common/Library/StdDriver/src/spi.c:840:43
	ldrb	r0, [r0, #1]
	lsls	r0, r0, #29
	cmp	r0, #0
	bpl	.LBB11_30
	b	.LBB11_28
.Ltmp370:
.LBB11_28:
	.loc	5 0 43 is_stmt 0                @ ../../CCC_common/Library/StdDriver/src/spi.c:0:43
	add	r0, sp, #4
	.loc	5 840 8                         @ ../../CCC_common/Library/StdDriver/src/spi.c:840:8
	ldrb	r0, [r0, #1]
	lsls	r0, r0, #27
	cmp	r0, #0
	bpl	.LBB11_30
	b	.LBB11_29
.LBB11_29:
.Ltmp371:
	.loc	5 842 20 is_stmt 1              @ ../../CCC_common/Library/StdDriver/src/spi.c:842:20
	ldr	r0, [sp]
	movw	r1, #1024
	orrs	r0, r1
	str	r0, [sp]
	.loc	5 843 5                         @ ../../CCC_common/Library/StdDriver/src/spi.c:843:5
	b	.LBB11_30
.Ltmp372:
.LBB11_30:
	.loc	5 845 12                        @ ../../CCC_common/Library/StdDriver/src/spi.c:845:12
	ldr	r0, [sp]
	.loc	5 845 5 epilogue_begin is_stmt 0 @ ../../CCC_common/Library/StdDriver/src/spi.c:845:5
	add	sp, #16
	bx	lr
.Ltmp373:
.Lfunc_end11:
	.size	SPI_GetIntFlag, .Lfunc_end11-SPI_GetIntFlag
	.cfi_endproc
	.cantunwind
	.fnend
                                        @ -- End function
	.section	.text.SPI_ClearIntFlag,"ax",%progbits
	.hidden	SPI_ClearIntFlag                @ -- Begin function SPI_ClearIntFlag
	.globl	SPI_ClearIntFlag
	.p2align	1
	.type	SPI_ClearIntFlag,%function
	.code	16                              @ @SPI_ClearIntFlag
	.thumb_func
SPI_ClearIntFlag:
.Lfunc_begin12:
	.loc	5 867 0 is_stmt 1               @ ../../CCC_common/Library/StdDriver/src/spi.c:867:0
	.fnstart
	.cfi_startproc
@ %bb.0:
	.pad	#8
	sub	sp, #8
	.cfi_def_cfa_offset 8
	str	r0, [sp, #4]
	str	r1, [sp]
	mov	r0, sp
.Ltmp374:
	.loc	5 868 8 prologue_end            @ ../../CCC_common/Library/StdDriver/src/spi.c:868:8
	ldrb	r0, [r0]
	lsls	r0, r0, #31
	cbz	r0, .LBB12_2
	b	.LBB12_1
.LBB12_1:
.Ltmp375:
	.loc	5 870 9                         @ ../../CCC_common/Library/StdDriver/src/spi.c:870:9
	ldr	r1, [sp, #4]
	movs	r0, #2
	.loc	5 870 21 is_stmt 0              @ ../../CCC_common/Library/StdDriver/src/spi.c:870:21
	str	r0, [r1, #20]
	.loc	5 871 5 is_stmt 1               @ ../../CCC_common/Library/StdDriver/src/spi.c:871:5
	b	.LBB12_2
.Ltmp376:
.LBB12_2:
	.loc	5 0 5 is_stmt 0                 @ ../../CCC_common/Library/StdDriver/src/spi.c:0:5
	mov	r0, sp
	.loc	5 873 8 is_stmt 1               @ ../../CCC_common/Library/StdDriver/src/spi.c:873:8
	ldrb	r0, [r0]
	lsls	r0, r0, #30
	cmp	r0, #0
	bpl	.LBB12_4
	b	.LBB12_3
.LBB12_3:
.Ltmp377:
	.loc	5 875 9                         @ ../../CCC_common/Library/StdDriver/src/spi.c:875:9
	ldr	r1, [sp, #4]
	movs	r0, #4
	.loc	5 875 21 is_stmt 0              @ ../../CCC_common/Library/StdDriver/src/spi.c:875:21
	str	r0, [r1, #20]
	.loc	5 876 5 is_stmt 1               @ ../../CCC_common/Library/StdDriver/src/spi.c:876:5
	b	.LBB12_4
.Ltmp378:
.LBB12_4:
	.loc	5 0 5 is_stmt 0                 @ ../../CCC_common/Library/StdDriver/src/spi.c:0:5
	mov	r0, sp
	.loc	5 878 8 is_stmt 1               @ ../../CCC_common/Library/StdDriver/src/spi.c:878:8
	ldrb	r0, [r0]
	lsls	r0, r0, #29
	cmp	r0, #0
	bpl	.LBB12_6
	b	.LBB12_5
.LBB12_5:
.Ltmp379:
	.loc	5 880 9                         @ ../../CCC_common/Library/StdDriver/src/spi.c:880:9
	ldr	r1, [sp, #4]
	movs	r0, #8
	.loc	5 880 21 is_stmt 0              @ ../../CCC_common/Library/StdDriver/src/spi.c:880:21
	str	r0, [r1, #20]
	.loc	5 881 5 is_stmt 1               @ ../../CCC_common/Library/StdDriver/src/spi.c:881:5
	b	.LBB12_6
.Ltmp380:
.LBB12_6:
	.loc	5 0 5 is_stmt 0                 @ ../../CCC_common/Library/StdDriver/src/spi.c:0:5
	mov	r0, sp
	.loc	5 883 8 is_stmt 1               @ ../../CCC_common/Library/StdDriver/src/spi.c:883:8
	ldrb	r0, [r0]
	lsls	r0, r0, #28
	cmp	r0, #0
	bpl	.LBB12_8
	b	.LBB12_7
.LBB12_7:
.Ltmp381:
	.loc	5 885 9                         @ ../../CCC_common/Library/StdDriver/src/spi.c:885:9
	ldr	r1, [sp, #4]
	movs	r0, #128
	.loc	5 885 21 is_stmt 0              @ ../../CCC_common/Library/StdDriver/src/spi.c:885:21
	str	r0, [r1, #20]
	.loc	5 886 5 is_stmt 1               @ ../../CCC_common/Library/StdDriver/src/spi.c:886:5
	b	.LBB12_8
.Ltmp382:
.LBB12_8:
	.loc	5 0 5 is_stmt 0                 @ ../../CCC_common/Library/StdDriver/src/spi.c:0:5
	mov	r0, sp
	.loc	5 888 8 is_stmt 1               @ ../../CCC_common/Library/StdDriver/src/spi.c:888:8
	ldrb	r0, [r0]
	lsls	r0, r0, #27
	cmp	r0, #0
	bpl	.LBB12_10
	b	.LBB12_9
.LBB12_9:
.Ltmp383:
	.loc	5 890 9                         @ ../../CCC_common/Library/StdDriver/src/spi.c:890:9
	ldr	r1, [sp, #4]
	movs	r0, #64
	.loc	5 890 21 is_stmt 0              @ ../../CCC_common/Library/StdDriver/src/spi.c:890:21
	str	r0, [r1, #20]
	.loc	5 891 5 is_stmt 1               @ ../../CCC_common/Library/StdDriver/src/spi.c:891:5
	b	.LBB12_10
.Ltmp384:
.LBB12_10:
	.loc	5 0 5 is_stmt 0                 @ ../../CCC_common/Library/StdDriver/src/spi.c:0:5
	mov	r0, sp
	.loc	5 893 8 is_stmt 1               @ ../../CCC_common/Library/StdDriver/src/spi.c:893:8
	ldrb	r0, [r0]
	lsls	r0, r0, #25
	cmp	r0, #0
	bpl	.LBB12_12
	b	.LBB12_11
.LBB12_11:
.Ltmp385:
	.loc	5 895 9                         @ ../../CCC_common/Library/StdDriver/src/spi.c:895:9
	ldr	r1, [sp, #4]
	movs	r0, #1
	lsls	r0, r0, #19
	.loc	5 895 21 is_stmt 0              @ ../../CCC_common/Library/StdDriver/src/spi.c:895:21
	str	r0, [r1, #20]
	.loc	5 896 5 is_stmt 1               @ ../../CCC_common/Library/StdDriver/src/spi.c:896:5
	b	.LBB12_12
.Ltmp386:
.LBB12_12:
	.loc	5 0 5 is_stmt 0                 @ ../../CCC_common/Library/StdDriver/src/spi.c:0:5
	mov	r0, sp
	.loc	5 898 8 is_stmt 1               @ ../../CCC_common/Library/StdDriver/src/spi.c:898:8
	ldrb	r0, [r0, #1]
	lsls	r0, r0, #30
	cmp	r0, #0
	bpl	.LBB12_14
	b	.LBB12_13
.LBB12_13:
.Ltmp387:
	.loc	5 900 9                         @ ../../CCC_common/Library/StdDriver/src/spi.c:900:9
	ldr	r1, [sp, #4]
	movw	r0, #2048
	.loc	5 900 21 is_stmt 0              @ ../../CCC_common/Library/StdDriver/src/spi.c:900:21
	str	r0, [r1, #20]
	.loc	5 901 5 is_stmt 1               @ ../../CCC_common/Library/StdDriver/src/spi.c:901:5
	b	.LBB12_14
.Ltmp388:
.LBB12_14:
	.loc	5 0 5 is_stmt 0                 @ ../../CCC_common/Library/StdDriver/src/spi.c:0:5
	mov	r0, sp
	.loc	5 903 8 is_stmt 1               @ ../../CCC_common/Library/StdDriver/src/spi.c:903:8
	ldrb	r0, [r0, #1]
	lsls	r0, r0, #29
	cmp	r0, #0
	bpl	.LBB12_16
	b	.LBB12_15
.LBB12_15:
.Ltmp389:
	.loc	5 905 9                         @ ../../CCC_common/Library/StdDriver/src/spi.c:905:9
	ldr	r1, [sp, #4]
	movw	r0, #4096
	.loc	5 905 21 is_stmt 0              @ ../../CCC_common/Library/StdDriver/src/spi.c:905:21
	str	r0, [r1, #20]
	.loc	5 906 5 is_stmt 1               @ ../../CCC_common/Library/StdDriver/src/spi.c:906:5
	b	.LBB12_16
.Ltmp390:
.LBB12_16:
	.loc	5 907 1 epilogue_begin          @ ../../CCC_common/Library/StdDriver/src/spi.c:907:1
	add	sp, #8
	bx	lr
.Ltmp391:
.Lfunc_end12:
	.size	SPI_ClearIntFlag, .Lfunc_end12-SPI_ClearIntFlag
	.cfi_endproc
	.cantunwind
	.fnend
                                        @ -- End function
	.section	.text.SPI_GetStatus,"ax",%progbits
	.hidden	SPI_GetStatus                   @ -- Begin function SPI_GetStatus
	.globl	SPI_GetStatus
	.p2align	1
	.type	SPI_GetStatus,%function
	.code	16                              @ @SPI_GetStatus
	.thumb_func
SPI_GetStatus:
.Lfunc_begin13:
	.loc	5 928 0                         @ ../../CCC_common/Library/StdDriver/src/spi.c:928:0
	.fnstart
	.cfi_startproc
@ %bb.0:
	.pad	#16
	sub	sp, #16
	.cfi_def_cfa_offset 16
	str	r0, [sp, #12]
	str	r1, [sp, #8]
	movs	r0, #0
.Ltmp392:
	.loc	5 930 14 prologue_end           @ ../../CCC_common/Library/StdDriver/src/spi.c:930:14
	str	r0, [sp]
	.loc	5 932 20                        @ ../../CCC_common/Library/StdDriver/src/spi.c:932:20
	ldr	r0, [sp, #12]
	.loc	5 932 25 is_stmt 0              @ ../../CCC_common/Library/StdDriver/src/spi.c:932:25
	ldr	r0, [r0, #20]
	.loc	5 932 18                        @ ../../CCC_common/Library/StdDriver/src/spi.c:932:18
	str	r0, [sp, #4]
	add	r0, sp, #8
.Ltmp393:
	.loc	5 935 34 is_stmt 1              @ ../../CCC_common/Library/StdDriver/src/spi.c:935:34
	ldrb	r0, [r0]
	lsls	r0, r0, #31
	cbz	r0, .LBB13_3
	b	.LBB13_1
.Ltmp394:
.LBB13_1:
	.loc	5 0 34 is_stmt 0                @ ../../CCC_common/Library/StdDriver/src/spi.c:0:34
	add	r0, sp, #4
	.loc	5 935 8                         @ ../../CCC_common/Library/StdDriver/src/spi.c:935:8
	ldrb	r0, [r0]
	lsls	r0, r0, #31
	cbz	r0, .LBB13_3
	b	.LBB13_2
.LBB13_2:
.Ltmp395:
	.loc	5 937 17 is_stmt 1              @ ../../CCC_common/Library/StdDriver/src/spi.c:937:17
	ldr	r0, [sp]
	movs	r1, #1
	orrs	r0, r1
	str	r0, [sp]
	.loc	5 938 5                         @ ../../CCC_common/Library/StdDriver/src/spi.c:938:5
	b	.LBB13_3
.Ltmp396:
.LBB13_3:
	.loc	5 0 5 is_stmt 0                 @ ../../CCC_common/Library/StdDriver/src/spi.c:0:5
	add	r0, sp, #8
.Ltmp397:
	.loc	5 941 38 is_stmt 1              @ ../../CCC_common/Library/StdDriver/src/spi.c:941:38
	ldrb	r0, [r0]
	lsls	r0, r0, #30
	cmp	r0, #0
	bpl	.LBB13_6
	b	.LBB13_4
.Ltmp398:
.LBB13_4:
	.loc	5 0 38 is_stmt 0                @ ../../CCC_common/Library/StdDriver/src/spi.c:0:38
	add	r0, sp, #4
	.loc	5 941 8                         @ ../../CCC_common/Library/StdDriver/src/spi.c:941:8
	ldrb	r0, [r0, #1]
	lsls	r0, r0, #31
	cbz	r0, .LBB13_6
	b	.LBB13_5
.LBB13_5:
.Ltmp399:
	.loc	5 943 17 is_stmt 1              @ ../../CCC_common/Library/StdDriver/src/spi.c:943:17
	ldr	r0, [sp]
	movs	r1, #2
	orrs	r0, r1
	str	r0, [sp]
	.loc	5 944 5                         @ ../../CCC_common/Library/StdDriver/src/spi.c:944:5
	b	.LBB13_6
.Ltmp400:
.LBB13_6:
	.loc	5 0 5 is_stmt 0                 @ ../../CCC_common/Library/StdDriver/src/spi.c:0:5
	add	r0, sp, #8
.Ltmp401:
	.loc	5 947 37 is_stmt 1              @ ../../CCC_common/Library/StdDriver/src/spi.c:947:37
	ldrb	r0, [r0]
	lsls	r0, r0, #29
	cmp	r0, #0
	bpl	.LBB13_9
	b	.LBB13_7
.Ltmp402:
.LBB13_7:
	.loc	5 0 37 is_stmt 0                @ ../../CCC_common/Library/StdDriver/src/spi.c:0:37
	add	r0, sp, #4
	.loc	5 947 8                         @ ../../CCC_common/Library/StdDriver/src/spi.c:947:8
	ldrb	r0, [r0, #1]
	lsls	r0, r0, #30
	cmp	r0, #0
	bpl	.LBB13_9
	b	.LBB13_8
.LBB13_8:
.Ltmp403:
	.loc	5 949 17 is_stmt 1              @ ../../CCC_common/Library/StdDriver/src/spi.c:949:17
	ldr	r0, [sp]
	movs	r1, #4
	orrs	r0, r1
	str	r0, [sp]
	.loc	5 950 5                         @ ../../CCC_common/Library/StdDriver/src/spi.c:950:5
	b	.LBB13_9
.Ltmp404:
.LBB13_9:
	.loc	5 0 5 is_stmt 0                 @ ../../CCC_common/Library/StdDriver/src/spi.c:0:5
	add	r0, sp, #8
.Ltmp405:
	.loc	5 953 38 is_stmt 1              @ ../../CCC_common/Library/StdDriver/src/spi.c:953:38
	ldrb	r0, [r0]
	lsls	r0, r0, #28
	cmp	r0, #0
	bpl	.LBB13_12
	b	.LBB13_10
.Ltmp406:
.LBB13_10:
	.loc	5 0 38 is_stmt 0                @ ../../CCC_common/Library/StdDriver/src/spi.c:0:38
	add	r0, sp, #4
	.loc	5 953 8                         @ ../../CCC_common/Library/StdDriver/src/spi.c:953:8
	ldrb	r0, [r0, #2]
	lsls	r0, r0, #31
	cbz	r0, .LBB13_12
	b	.LBB13_11
.LBB13_11:
.Ltmp407:
	.loc	5 955 17 is_stmt 1              @ ../../CCC_common/Library/StdDriver/src/spi.c:955:17
	ldr	r0, [sp]
	movs	r1, #8
	orrs	r0, r1
	str	r0, [sp]
	.loc	5 956 5                         @ ../../CCC_common/Library/StdDriver/src/spi.c:956:5
	b	.LBB13_12
.Ltmp408:
.LBB13_12:
	.loc	5 0 5 is_stmt 0                 @ ../../CCC_common/Library/StdDriver/src/spi.c:0:5
	add	r0, sp, #8
.Ltmp409:
	.loc	5 959 37 is_stmt 1              @ ../../CCC_common/Library/StdDriver/src/spi.c:959:37
	ldrb	r0, [r0]
	lsls	r0, r0, #27
	cmp	r0, #0
	bpl	.LBB13_15
	b	.LBB13_13
.Ltmp410:
.LBB13_13:
	.loc	5 0 37 is_stmt 0                @ ../../CCC_common/Library/StdDriver/src/spi.c:0:37
	add	r0, sp, #4
	.loc	5 959 8                         @ ../../CCC_common/Library/StdDriver/src/spi.c:959:8
	ldrb	r0, [r0, #2]
	lsls	r0, r0, #30
	cmp	r0, #0
	bpl	.LBB13_15
	b	.LBB13_14
.LBB13_14:
.Ltmp411:
	.loc	5 961 17 is_stmt 1              @ ../../CCC_common/Library/StdDriver/src/spi.c:961:17
	ldr	r0, [sp]
	movs	r1, #16
	orrs	r0, r1
	str	r0, [sp]
	.loc	5 962 5                         @ ../../CCC_common/Library/StdDriver/src/spi.c:962:5
	b	.LBB13_15
.Ltmp412:
.LBB13_15:
	.loc	5 0 5 is_stmt 0                 @ ../../CCC_common/Library/StdDriver/src/spi.c:0:5
	add	r0, sp, #8
.Ltmp413:
	.loc	5 965 40 is_stmt 1              @ ../../CCC_common/Library/StdDriver/src/spi.c:965:40
	ldrb	r0, [r0]
	lsls	r0, r0, #26
	cmp	r0, #0
	bpl	.LBB13_18
	b	.LBB13_16
.Ltmp414:
.LBB13_16:
	.loc	5 0 40 is_stmt 0                @ ../../CCC_common/Library/StdDriver/src/spi.c:0:40
	add	r0, sp, #4
	.loc	5 965 8                         @ ../../CCC_common/Library/StdDriver/src/spi.c:965:8
	ldrb	r0, [r0, #2]
	lsls	r0, r0, #24
	cmp	r0, #0
	bpl	.LBB13_18
	b	.LBB13_17
.LBB13_17:
.Ltmp415:
	.loc	5 967 17 is_stmt 1              @ ../../CCC_common/Library/StdDriver/src/spi.c:967:17
	ldr	r0, [sp]
	movs	r1, #32
	orrs	r0, r1
	str	r0, [sp]
	.loc	5 968 5                         @ ../../CCC_common/Library/StdDriver/src/spi.c:968:5
	b	.LBB13_18
.Ltmp416:
.LBB13_18:
	.loc	5 0 5 is_stmt 0                 @ ../../CCC_common/Library/StdDriver/src/spi.c:0:5
	add	r0, sp, #8
.Ltmp417:
	.loc	5 971 39 is_stmt 1              @ ../../CCC_common/Library/StdDriver/src/spi.c:971:39
	ldrb	r0, [r0]
	lsls	r0, r0, #25
	cmp	r0, #0
	bpl	.LBB13_21
	b	.LBB13_19
.Ltmp418:
.LBB13_19:
	.loc	5 0 39 is_stmt 0                @ ../../CCC_common/Library/StdDriver/src/spi.c:0:39
	add	r0, sp, #4
	.loc	5 971 8                         @ ../../CCC_common/Library/StdDriver/src/spi.c:971:8
	ldrb	r0, [r0, #1]
	lsls	r0, r0, #24
	cmp	r0, #0
	bpl	.LBB13_21
	b	.LBB13_20
.LBB13_20:
.Ltmp419:
	.loc	5 973 17 is_stmt 1              @ ../../CCC_common/Library/StdDriver/src/spi.c:973:17
	ldr	r0, [sp]
	movs	r1, #64
	orrs	r0, r1
	str	r0, [sp]
	.loc	5 974 5                         @ ../../CCC_common/Library/StdDriver/src/spi.c:974:5
	b	.LBB13_21
.Ltmp420:
.LBB13_21:
	.loc	5 0 5 is_stmt 0                 @ ../../CCC_common/Library/StdDriver/src/spi.c:0:5
	add	r0, sp, #8
.Ltmp421:
	.loc	5 977 40 is_stmt 1              @ ../../CCC_common/Library/StdDriver/src/spi.c:977:40
	ldrb	r0, [r0]
	lsls	r0, r0, #24
	cmp	r0, #0
	bpl	.LBB13_24
	b	.LBB13_22
.Ltmp422:
.LBB13_22:
	.loc	5 0 40 is_stmt 0                @ ../../CCC_common/Library/StdDriver/src/spi.c:0:40
	add	r0, sp, #4
	.loc	5 977 8                         @ ../../CCC_common/Library/StdDriver/src/spi.c:977:8
	ldrb	r0, [r0]
	lsls	r0, r0, #27
	cmp	r0, #0
	bpl	.LBB13_24
	b	.LBB13_23
.LBB13_23:
.Ltmp423:
	.loc	5 979 17 is_stmt 1              @ ../../CCC_common/Library/StdDriver/src/spi.c:979:17
	ldr	r0, [sp]
	movs	r1, #128
	orrs	r0, r1
	str	r0, [sp]
	.loc	5 980 5                         @ ../../CCC_common/Library/StdDriver/src/spi.c:980:5
	b	.LBB13_24
.Ltmp424:
.LBB13_24:
	.loc	5 982 12                        @ ../../CCC_common/Library/StdDriver/src/spi.c:982:12
	ldr	r0, [sp]
	.loc	5 982 5 epilogue_begin is_stmt 0 @ ../../CCC_common/Library/StdDriver/src/spi.c:982:5
	add	sp, #16
	bx	lr
.Ltmp425:
.Lfunc_end13:
	.size	SPI_GetStatus, .Lfunc_end13-SPI_GetStatus
	.cfi_endproc
	.cantunwind
	.fnend
                                        @ -- End function
	.section	.text.SPII2S_Open,"ax",%progbits
	.hidden	SPII2S_Open                     @ -- Begin function SPII2S_Open
	.globl	SPII2S_Open
	.p2align	2
	.type	SPII2S_Open,%function
	.code	16                              @ @SPII2S_Open
	.thumb_func
SPII2S_Open:
.Lfunc_begin14:
	.loc	5 1104 0 is_stmt 1              @ ../../CCC_common/Library/StdDriver/src/spi.c:1104:0
	.fnstart
	.cfi_startproc
@ %bb.0:
	.save	{r4, lr}
	push	{r4, lr}
	.cfi_def_cfa_offset 8
	.cfi_offset lr, -4
	.cfi_offset r4, -8
	.pad	#40
	sub	sp, #40
	.cfi_def_cfa_offset 48
	ldr	r4, [sp, #52]
	ldr	r4, [sp, #48]
	str	r0, [sp, #36]
	str	r1, [sp, #32]
	str	r2, [sp, #28]
	str	r3, [sp, #24]
.Ltmp426:
	.loc	5 1110 8 prologue_end           @ ../../CCC_common/Library/StdDriver/src/spi.c:1110:8
	ldr	r0, [sp, #36]
	ldr	r1, __arm_cp.14_0
.Ltmp427:
	.loc	5 1110 8 is_stmt 0              @ ../../CCC_common/Library/StdDriver/src/spi.c:1110:8
	cmp	r0, r1
	bne	.LBB14_2
	b	.LBB14_1
.LBB14_1:
	.loc	5 0 8                           @ ../../CCC_common/Library/StdDriver/src/spi.c:0:8
	ldr	r1, __arm_cp.14_4
.Ltmp428:
	.loc	5 1112 21 is_stmt 1             @ ../../CCC_common/Library/StdDriver/src/spi.c:1112:21
	ldr	r0, [r1]
	movw	r2, #8192
	orrs	r0, r2
	str	r0, [r1]
	.loc	5 1113 21                       @ ../../CCC_common/Library/StdDriver/src/spi.c:1113:21
	ldr	r0, [r1]
	bics	r0, r2
	str	r0, [r1]
	.loc	5 1114 5                        @ ../../CCC_common/Library/StdDriver/src/spi.c:1114:5
	b	.LBB14_9
.Ltmp429:
.LBB14_2:
	.loc	5 1115 13                       @ ../../CCC_common/Library/StdDriver/src/spi.c:1115:13
	ldr	r0, [sp, #36]
	ldr	r1, __arm_cp.14_1
.Ltmp430:
	.loc	5 1115 13 is_stmt 0             @ ../../CCC_common/Library/StdDriver/src/spi.c:1115:13
	cmp	r0, r1
	bne	.LBB14_4
	b	.LBB14_3
.LBB14_3:
	.loc	5 0 13                          @ ../../CCC_common/Library/StdDriver/src/spi.c:0:13
	ldr	r1, __arm_cp.14_4
.Ltmp431:
	.loc	5 1117 21 is_stmt 1             @ ../../CCC_common/Library/StdDriver/src/spi.c:1117:21
	ldr	r0, [r1]
	movw	r2, #16384
	orrs	r0, r2
	str	r0, [r1]
	.loc	5 1118 21                       @ ../../CCC_common/Library/StdDriver/src/spi.c:1118:21
	ldr	r0, [r1]
	bics	r0, r2
	str	r0, [r1]
	.loc	5 1119 5                        @ ../../CCC_common/Library/StdDriver/src/spi.c:1119:5
	b	.LBB14_8
.Ltmp432:
.LBB14_4:
	.loc	5 1120 13                       @ ../../CCC_common/Library/StdDriver/src/spi.c:1120:13
	ldr	r0, [sp, #36]
	ldr	r1, __arm_cp.14_2
.Ltmp433:
	.loc	5 1120 13 is_stmt 0             @ ../../CCC_common/Library/StdDriver/src/spi.c:1120:13
	cmp	r0, r1
	bne	.LBB14_6
	b	.LBB14_5
.LBB14_5:
	.loc	5 0 13                          @ ../../CCC_common/Library/StdDriver/src/spi.c:0:13
	ldr	r1, __arm_cp.14_4
.Ltmp434:
	.loc	5 1122 21 is_stmt 1             @ ../../CCC_common/Library/StdDriver/src/spi.c:1122:21
	ldr	r0, [r1]
	movw	r2, #32768
	orrs	r0, r2
	str	r0, [r1]
	.loc	5 1123 21                       @ ../../CCC_common/Library/StdDriver/src/spi.c:1123:21
	ldr	r0, [r1]
	bics	r0, r2
	str	r0, [r1]
	.loc	5 1124 5                        @ ../../CCC_common/Library/StdDriver/src/spi.c:1124:5
	b	.LBB14_7
.Ltmp435:
.LBB14_6:
	.loc	5 0 5 is_stmt 0                 @ ../../CCC_common/Library/StdDriver/src/spi.c:0:5
	ldr	r1, __arm_cp.14_3
.Ltmp436:
	.loc	5 1127 21 is_stmt 1             @ ../../CCC_common/Library/StdDriver/src/spi.c:1127:21
	ldr	r0, [r1]
	movs	r2, #64
	orrs	r0, r2
	str	r0, [r1]
	.loc	5 1128 21                       @ ../../CCC_common/Library/StdDriver/src/spi.c:1128:21
	ldr	r0, [r1]
	bics	r0, r2
	str	r0, [r1]
	b	.LBB14_7
.Ltmp437:
.LBB14_7:
	.loc	5 0 21 is_stmt 0                @ ../../CCC_common/Library/StdDriver/src/spi.c:0:21
	b	.LBB14_8
.LBB14_8:
	b	.LBB14_9
.LBB14_9:
	.loc	5 1132 19 is_stmt 1             @ ../../CCC_common/Library/StdDriver/src/spi.c:1132:19
	ldr	r0, [sp, #32]
	.loc	5 1132 36 is_stmt 0             @ ../../CCC_common/Library/StdDriver/src/spi.c:1132:36
	ldr	r1, [sp, #24]
	.loc	5 1132 34                       @ ../../CCC_common/Library/StdDriver/src/spi.c:1132:34
	orrs	r0, r1
	.loc	5 1132 51                       @ ../../CCC_common/Library/StdDriver/src/spi.c:1132:51
	ldr	r1, [sp, #48]
	.loc	5 1132 49                       @ ../../CCC_common/Library/StdDriver/src/spi.c:1132:49
	orrs	r0, r1
	.loc	5 1132 65                       @ ../../CCC_common/Library/StdDriver/src/spi.c:1132:65
	ldr	r1, [sp, #52]
	.loc	5 1132 63                       @ ../../CCC_common/Library/StdDriver/src/spi.c:1132:63
	orrs	r0, r1
	.loc	5 1132 5                        @ ../../CCC_common/Library/StdDriver/src/spi.c:1132:5
	ldr	r1, [sp, #36]
	.loc	5 1132 17                       @ ../../CCC_common/Library/StdDriver/src/spi.c:1132:17
	str	r0, [r1, #96]
	.loc	5 1134 5 is_stmt 1              @ ../../CCC_common/Library/StdDriver/src/spi.c:1134:5
	ldr	r1, [sp, #36]
	movs	r0, #33
	lsls	r0, r0, #24
	.loc	5 1134 18 is_stmt 0             @ ../../CCC_common/Library/StdDriver/src/spi.c:1134:18
	str	r0, [r1, #16]
.Ltmp438:
	.loc	5 1136 8 is_stmt 1              @ ../../CCC_common/Library/StdDriver/src/spi.c:1136:8
	ldr	r0, [sp, #32]
.Ltmp439:
	.loc	5 1136 8 is_stmt 0              @ ../../CCC_common/Library/StdDriver/src/spi.c:1136:8
	cbnz	r0, .LBB14_11
	b	.LBB14_10
.LBB14_10:
.Ltmp440:
	.loc	5 1139 47 is_stmt 1             @ ../../CCC_common/Library/StdDriver/src/spi.c:1139:47
	ldr	r0, [sp, #36]
	.loc	5 1139 21 is_stmt 0             @ ../../CCC_common/Library/StdDriver/src/spi.c:1139:21
	bl	SPII2S_GetSourceClockFreq
	.loc	5 1139 19                       @ ../../CCC_common/Library/StdDriver/src/spi.c:1139:19
	str	r0, [sp, #12]
	.loc	5 1142 22 is_stmt 1             @ ../../CCC_common/Library/StdDriver/src/spi.c:1142:22
	ldr	r1, [sp, #28]
	.loc	5 1142 40 is_stmt 0             @ ../../CCC_common/Library/StdDriver/src/spi.c:1142:40
	ldr	r0, [sp, #24]
	.loc	5 1142 53                       @ ../../CCC_common/Library/StdDriver/src/spi.c:1142:53
	lsrs	r0, r0, #4
	.loc	5 1142 80                       @ ../../CCC_common/Library/StdDriver/src/spi.c:1142:80
	adds	r0, r0, #1
	.loc	5 1142 36                       @ ../../CCC_common/Library/StdDriver/src/spi.c:1142:36
	muls	r0, r1, r0
	.loc	5 1142 87                       @ ../../CCC_common/Library/StdDriver/src/spi.c:1142:87
	lsls	r0, r0, #4
	.loc	5 1142 20                       @ ../../CCC_common/Library/StdDriver/src/spi.c:1142:20
	str	r0, [sp, #16]
	.loc	5 1143 27 is_stmt 1             @ ../../CCC_common/Library/StdDriver/src/spi.c:1143:27
	ldr	r2, [sp, #12]
	movs	r1, #10
	.loc	5 1143 37 is_stmt 0             @ ../../CCC_common/Library/StdDriver/src/spi.c:1143:37
	mov	r0, r1
	muls	r0, r2, r0
	.loc	5 1143 47                       @ ../../CCC_common/Library/StdDriver/src/spi.c:1143:47
	ldr	r2, [sp, #16]
	.loc	5 1143 45                       @ ../../CCC_common/Library/StdDriver/src/spi.c:1143:45
	udiv	r0, r0, r2
	.loc	5 1143 59                       @ ../../CCC_common/Library/StdDriver/src/spi.c:1143:59
	lsrs	r0, r0, #1
	.loc	5 1143 67                       @ ../../CCC_common/Library/StdDriver/src/spi.c:1143:67
	adds	r0, r0, #5
	.loc	5 1143 74                       @ ../../CCC_common/Library/StdDriver/src/spi.c:1143:74
	udiv	r0, r0, r1
	.loc	5 1143 82                       @ ../../CCC_common/Library/StdDriver/src/spi.c:1143:82
	subs	r0, r0, #1
	.loc	5 1143 20                       @ ../../CCC_common/Library/StdDriver/src/spi.c:1143:20
	str	r0, [sp, #20]
	.loc	5 1145 24 is_stmt 1             @ ../../CCC_common/Library/StdDriver/src/spi.c:1145:24
	ldr	r0, [sp, #36]
	.loc	5 1145 29 is_stmt 0             @ ../../CCC_common/Library/StdDriver/src/spi.c:1145:29
	ldr	r0, [r0, #100]
	ldr	r1, __arm_cp.14_5
	.loc	5 1145 36                       @ ../../CCC_common/Library/StdDriver/src/spi.c:1145:36
	ands	r0, r1
	.loc	5 1145 66                       @ ../../CCC_common/Library/StdDriver/src/spi.c:1145:66
	ldr	r1, [sp, #20]
	.loc	5 1145 77                       @ ../../CCC_common/Library/StdDriver/src/spi.c:1145:77
	lsls	r1, r1, #8
	.loc	5 1145 63                       @ ../../CCC_common/Library/StdDriver/src/spi.c:1145:63
	orrs	r0, r1
	.loc	5 1145 9                        @ ../../CCC_common/Library/StdDriver/src/spi.c:1145:9
	ldr	r1, [sp, #36]
	.loc	5 1145 21                       @ ../../CCC_common/Library/StdDriver/src/spi.c:1145:21
	str	r0, [r1, #100]
	.loc	5 1148 22 is_stmt 1             @ ../../CCC_common/Library/StdDriver/src/spi.c:1148:22
	ldr	r0, [sp, #12]
	.loc	5 1148 36 is_stmt 0             @ ../../CCC_common/Library/StdDriver/src/spi.c:1148:36
	ldr	r1, [sp, #20]
	.loc	5 1148 47                       @ ../../CCC_common/Library/StdDriver/src/spi.c:1148:47
	lsls	r1, r1, #1
	.loc	5 1148 54                       @ ../../CCC_common/Library/StdDriver/src/spi.c:1148:54
	adds	r1, r1, #2
	.loc	5 1148 32                       @ ../../CCC_common/Library/StdDriver/src/spi.c:1148:32
	udiv	r0, r0, r1
	.loc	5 1148 20                       @ ../../CCC_common/Library/StdDriver/src/spi.c:1148:20
	str	r0, [sp, #16]
	.loc	5 1150 25 is_stmt 1             @ ../../CCC_common/Library/StdDriver/src/spi.c:1150:25
	ldr	r0, [sp, #16]
	.loc	5 1150 41 is_stmt 0             @ ../../CCC_common/Library/StdDriver/src/spi.c:1150:41
	ldr	r1, [sp, #24]
	movs	r2, #15
	.loc	5 1150 81                       @ ../../CCC_common/Library/StdDriver/src/spi.c:1150:81
	bics	r1, r2
	.loc	5 1150 88                       @ ../../CCC_common/Library/StdDriver/src/spi.c:1150:88
	adds	r1, #16
	.loc	5 1150 36                       @ ../../CCC_common/Library/StdDriver/src/spi.c:1150:36
	udiv	r0, r0, r1
	.loc	5 1150 23                       @ ../../CCC_common/Library/StdDriver/src/spi.c:1150:23
	str	r0, [sp, #28]
	.loc	5 1153 9 is_stmt 1              @ ../../CCC_common/Library/StdDriver/src/spi.c:1153:9
	ldr	r1, [sp, #36]
	.loc	5 1153 21 is_stmt 0             @ ../../CCC_common/Library/StdDriver/src/spi.c:1153:21
	ldr	r0, [r1, #96]
	movs	r2, #7
	orrs	r0, r2
	str	r0, [r1, #96]
	.loc	5 1156 23 is_stmt 1             @ ../../CCC_common/Library/StdDriver/src/spi.c:1156:23
	ldr	r0, [sp, #28]
	.loc	5 1156 21 is_stmt 0             @ ../../CCC_common/Library/StdDriver/src/spi.c:1156:21
	str	r0, [sp, #8]
	.loc	5 1157 5 is_stmt 1              @ ../../CCC_common/Library/StdDriver/src/spi.c:1157:5
	b	.LBB14_21
.Ltmp441:
.LBB14_11:
	.loc	5 1161 9                        @ ../../CCC_common/Library/StdDriver/src/spi.c:1161:9
	ldr	r1, [sp, #36]
	.loc	5 1161 21 is_stmt 0             @ ../../CCC_common/Library/StdDriver/src/spi.c:1161:21
	ldr	r0, [r1, #100]
	ldr	r2, __arm_cp.14_5
	ands	r0, r2
	str	r0, [r1, #100]
	.loc	5 1163 24 is_stmt 1             @ ../../CCC_common/Library/StdDriver/src/spi.c:1163:24
	bl	CLK_GetPCLK0Freq
	.loc	5 1163 22 is_stmt 0             @ ../../CCC_common/Library/StdDriver/src/spi.c:1163:22
	str	r0, [sp, #4]
	.loc	5 1165 24 is_stmt 1             @ ../../CCC_common/Library/StdDriver/src/spi.c:1165:24
	bl	CLK_GetPCLK1Freq
	.loc	5 1165 22 is_stmt 0             @ ../../CCC_common/Library/StdDriver/src/spi.c:1165:22
	str	r0, [sp]
.Ltmp442:
	.loc	5 1167 12 is_stmt 1             @ ../../CCC_common/Library/StdDriver/src/spi.c:1167:12
	ldr	r0, [sp, #36]
	ldr	r1, __arm_cp.14_0
.Ltmp443:
	.loc	5 1167 12 is_stmt 0             @ ../../CCC_common/Library/StdDriver/src/spi.c:1167:12
	cmp	r0, r1
	bne	.LBB14_13
	b	.LBB14_12
.LBB14_12:
	.loc	5 0 12                          @ ../../CCC_common/Library/StdDriver/src/spi.c:0:12
	ldr	r1, __arm_cp.14_6
.Ltmp444:
	.loc	5 1170 34 is_stmt 1             @ ../../CCC_common/Library/StdDriver/src/spi.c:1170:34
	ldr	r0, [r1]
	movs	r2, #32
	.loc	5 1170 42 is_stmt 0             @ ../../CCC_common/Library/StdDriver/src/spi.c:1170:42
	orrs	r0, r2
	movs	r2, #16
	.loc	5 1170 72                       @ ../../CCC_common/Library/StdDriver/src/spi.c:1170:72
	bics	r0, r2
	.loc	5 1170 26                       @ ../../CCC_common/Library/StdDriver/src/spi.c:1170:26
	str	r0, [r1]
	.loc	5 1172 27 is_stmt 1             @ ../../CCC_common/Library/StdDriver/src/spi.c:1172:27
	ldr	r0, [sp]
	.loc	5 1172 25 is_stmt 0             @ ../../CCC_common/Library/StdDriver/src/spi.c:1172:25
	str	r0, [sp, #8]
	.loc	5 1174 13 is_stmt 1             @ ../../CCC_common/Library/StdDriver/src/spi.c:1174:13
	ldr	r1, [sp, #36]
	.loc	5 1174 25 is_stmt 0             @ ../../CCC_common/Library/StdDriver/src/spi.c:1174:25
	ldr	r0, [r1, #96]
	movs	r2, #7
	orrs	r0, r2
	str	r0, [r1, #96]
	.loc	5 1175 9 is_stmt 1              @ ../../CCC_common/Library/StdDriver/src/spi.c:1175:9
	b	.LBB14_20
.Ltmp445:
.LBB14_13:
	.loc	5 1176 17                       @ ../../CCC_common/Library/StdDriver/src/spi.c:1176:17
	ldr	r0, [sp, #36]
	ldr	r1, __arm_cp.14_1
.Ltmp446:
	.loc	5 1176 17 is_stmt 0             @ ../../CCC_common/Library/StdDriver/src/spi.c:1176:17
	cmp	r0, r1
	bne	.LBB14_15
	b	.LBB14_14
.LBB14_14:
	.loc	5 0 17                          @ ../../CCC_common/Library/StdDriver/src/spi.c:0:17
	ldr	r1, __arm_cp.14_6
.Ltmp447:
	.loc	5 1179 34 is_stmt 1             @ ../../CCC_common/Library/StdDriver/src/spi.c:1179:34
	ldr	r0, [r1]
	movs	r2, #128
	.loc	5 1179 42 is_stmt 0             @ ../../CCC_common/Library/StdDriver/src/spi.c:1179:42
	orrs	r0, r2
	movs	r2, #64
	.loc	5 1179 72                       @ ../../CCC_common/Library/StdDriver/src/spi.c:1179:72
	bics	r0, r2
	.loc	5 1179 26                       @ ../../CCC_common/Library/StdDriver/src/spi.c:1179:26
	str	r0, [r1]
	.loc	5 1181 27 is_stmt 1             @ ../../CCC_common/Library/StdDriver/src/spi.c:1181:27
	ldr	r0, [sp, #4]
	.loc	5 1181 25 is_stmt 0             @ ../../CCC_common/Library/StdDriver/src/spi.c:1181:25
	str	r0, [sp, #8]
	.loc	5 1183 13 is_stmt 1             @ ../../CCC_common/Library/StdDriver/src/spi.c:1183:13
	ldr	r1, [sp, #36]
	.loc	5 1183 25 is_stmt 0             @ ../../CCC_common/Library/StdDriver/src/spi.c:1183:25
	ldr	r0, [r1, #96]
	movs	r2, #7
	orrs	r0, r2
	str	r0, [r1, #96]
	.loc	5 1184 9 is_stmt 1              @ ../../CCC_common/Library/StdDriver/src/spi.c:1184:9
	b	.LBB14_19
.Ltmp448:
.LBB14_15:
	.loc	5 1185 17                       @ ../../CCC_common/Library/StdDriver/src/spi.c:1185:17
	ldr	r0, [sp, #36]
	ldr	r1, __arm_cp.14_2
.Ltmp449:
	.loc	5 1185 17 is_stmt 0             @ ../../CCC_common/Library/StdDriver/src/spi.c:1185:17
	cmp	r0, r1
	bne	.LBB14_17
	b	.LBB14_16
.LBB14_16:
	.loc	5 0 17                          @ ../../CCC_common/Library/StdDriver/src/spi.c:0:17
	ldr	r1, __arm_cp.14_6
.Ltmp450:
	.loc	5 1188 34 is_stmt 1             @ ../../CCC_common/Library/StdDriver/src/spi.c:1188:34
	ldr	r0, [r1]
	movw	r2, #3072
	.loc	5 1188 42 is_stmt 0             @ ../../CCC_common/Library/StdDriver/src/spi.c:1188:42
	bics	r0, r2
	movw	r2, #2048
	.loc	5 1188 72                       @ ../../CCC_common/Library/StdDriver/src/spi.c:1188:72
	adds	r0, r0, r2
	.loc	5 1188 26                       @ ../../CCC_common/Library/StdDriver/src/spi.c:1188:26
	str	r0, [r1]
	.loc	5 1190 27 is_stmt 1             @ ../../CCC_common/Library/StdDriver/src/spi.c:1190:27
	ldr	r0, [sp]
	.loc	5 1190 25 is_stmt 0             @ ../../CCC_common/Library/StdDriver/src/spi.c:1190:25
	str	r0, [sp, #8]
	.loc	5 1192 13 is_stmt 1             @ ../../CCC_common/Library/StdDriver/src/spi.c:1192:13
	ldr	r1, [sp, #36]
	.loc	5 1192 25 is_stmt 0             @ ../../CCC_common/Library/StdDriver/src/spi.c:1192:25
	ldr	r0, [r1, #96]
	movs	r2, #7
	orrs	r0, r2
	str	r0, [r1, #96]
	.loc	5 1193 9 is_stmt 1              @ ../../CCC_common/Library/StdDriver/src/spi.c:1193:9
	b	.LBB14_18
.Ltmp451:
.LBB14_17:
	.loc	5 0 9 is_stmt 0                 @ ../../CCC_common/Library/StdDriver/src/spi.c:0:9
	ldr	r1, __arm_cp.14_6
.Ltmp452:
	.loc	5 1197 34 is_stmt 1             @ ../../CCC_common/Library/StdDriver/src/spi.c:1197:34
	ldr	r0, [r1]
	movw	r2, #12288
	.loc	5 1197 42 is_stmt 0             @ ../../CCC_common/Library/StdDriver/src/spi.c:1197:42
	bics	r0, r2
	movw	r2, #8192
	.loc	5 1197 72                       @ ../../CCC_common/Library/StdDriver/src/spi.c:1197:72
	adds	r0, r0, r2
	.loc	5 1197 26                       @ ../../CCC_common/Library/StdDriver/src/spi.c:1197:26
	str	r0, [r1]
	.loc	5 1199 27 is_stmt 1             @ ../../CCC_common/Library/StdDriver/src/spi.c:1199:27
	ldr	r0, [sp, #4]
	.loc	5 1199 25 is_stmt 0             @ ../../CCC_common/Library/StdDriver/src/spi.c:1199:25
	str	r0, [sp, #8]
	.loc	5 1201 13 is_stmt 1             @ ../../CCC_common/Library/StdDriver/src/spi.c:1201:13
	ldr	r1, [sp, #36]
	.loc	5 1201 25 is_stmt 0             @ ../../CCC_common/Library/StdDriver/src/spi.c:1201:25
	ldr	r0, [r1, #96]
	movs	r2, #7
	orrs	r0, r2
	str	r0, [r1, #96]
	b	.LBB14_18
.Ltmp453:
.LBB14_18:
	.loc	5 0 25                          @ ../../CCC_common/Library/StdDriver/src/spi.c:0:25
	b	.LBB14_19
.LBB14_19:
	b	.LBB14_20
.LBB14_20:
	b	.LBB14_21
.LBB14_21:
	.loc	5 1205 12 is_stmt 1             @ ../../CCC_common/Library/StdDriver/src/spi.c:1205:12
	ldr	r0, [sp, #8]
	.loc	5 1205 5 epilogue_begin is_stmt 0 @ ../../CCC_common/Library/StdDriver/src/spi.c:1205:5
	add	sp, #40
	pop	{r4, pc}
.Ltmp454:
	.loc	5 0 5                           @ :0:5
.Ltmp455:
	.p2align	2
@ %bb.22:
__arm_cp.14_0:
	.long	1074139136                      @ 0x40061000
.Lcpi_end31:
	.size	__arm_cp.14_0, .Lcpi_end31-__arm_cp.14_0
__arm_cp.14_1:
	.long	1074143232                      @ 0x40062000
.Lcpi_end32:
	.size	__arm_cp.14_1, .Lcpi_end32-__arm_cp.14_1
__arm_cp.14_2:
	.long	1074147328                      @ 0x40063000
.Lcpi_end33:
	.size	__arm_cp.14_2, .Lcpi_end33-__arm_cp.14_2
__arm_cp.14_3:
	.long	1073741840                      @ 0x40000010
.Lcpi_end34:
	.size	__arm_cp.14_3, .Lcpi_end34-__arm_cp.14_3
__arm_cp.14_4:
	.long	1073741836                      @ 0x4000000c
.Lcpi_end35:
	.size	__arm_cp.14_4, .Lcpi_end35-__arm_cp.14_4
__arm_cp.14_5:
	.long	4294705407                      @ 0xfffc00ff
.Lcpi_end36:
	.size	__arm_cp.14_5, .Lcpi_end36-__arm_cp.14_5
__arm_cp.14_6:
	.long	1073742360                      @ 0x40000218
.Lcpi_end37:
	.size	__arm_cp.14_6, .Lcpi_end37-__arm_cp.14_6
.Lfunc_end14:
	.size	SPII2S_Open, .Lfunc_end14-SPII2S_Open
	.cfi_endproc
	.cantunwind
	.fnend
                                        @ -- End function
	.section	.text.SPII2S_GetSourceClockFreq,"ax",%progbits
	.p2align	2                               @ -- Begin function SPII2S_GetSourceClockFreq
	.type	SPII2S_GetSourceClockFreq,%function
	.code	16                              @ @SPII2S_GetSourceClockFreq
	.thumb_func
SPII2S_GetSourceClockFreq:
.Lfunc_begin15:
	.loc	5 993 0 is_stmt 1               @ ../../CCC_common/Library/StdDriver/src/spi.c:993:0
	.fnstart
	.cfi_startproc
@ %bb.0:
	.save	{r7, lr}
	push	{r7, lr}
	.cfi_def_cfa_offset 8
	.cfi_offset lr, -4
	.cfi_offset r7, -8
	.pad	#8
	sub	sp, #8
	.cfi_def_cfa_offset 16
	str	r0, [sp, #4]
.Ltmp456:
	.loc	5 996 8 prologue_end            @ ../../CCC_common/Library/StdDriver/src/spi.c:996:8
	ldr	r0, [sp, #4]
	ldr	r1, __arm_cp.15_0
.Ltmp457:
	.loc	5 996 8 is_stmt 0               @ ../../CCC_common/Library/StdDriver/src/spi.c:996:8
	cmp	r0, r1
	bne	.LBB15_11
	b	.LBB15_1
.LBB15_1:
	.loc	5 0 8                           @ ../../CCC_common/Library/StdDriver/src/spi.c:0:8
	ldr	r0, __arm_cp.15_7
.Ltmp458:
	.loc	5 998 13 is_stmt 1              @ ../../CCC_common/Library/StdDriver/src/spi.c:998:13
	bl	CLK_GetModuleClockSource
	.loc	5 998 51 is_stmt 0              @ ../../CCC_common/Library/StdDriver/src/spi.c:998:51
	lsls	r0, r0, #4
.Ltmp459:
	.loc	5 998 12                        @ ../../CCC_common/Library/StdDriver/src/spi.c:998:12
	cbnz	r0, .LBB15_3
	b	.LBB15_2
.LBB15_2:
	.loc	5 0 12                          @ ../../CCC_common/Library/StdDriver/src/spi.c:0:12
	ldr	r0, __arm_cp.15_4
.Ltmp460:
	.loc	5 1000 21 is_stmt 1             @ ../../CCC_common/Library/StdDriver/src/spi.c:1000:21
	str	r0, [sp]
	.loc	5 1001 9                        @ ../../CCC_common/Library/StdDriver/src/spi.c:1001:9
	b	.LBB15_10
.Ltmp461:
.LBB15_3:
	.loc	5 0 9 is_stmt 0                 @ ../../CCC_common/Library/StdDriver/src/spi.c:0:9
	ldr	r0, __arm_cp.15_7
.Ltmp462:
	.loc	5 1002 18 is_stmt 1             @ ../../CCC_common/Library/StdDriver/src/spi.c:1002:18
	bl	CLK_GetModuleClockSource
	.loc	5 1002 56 is_stmt 0             @ ../../CCC_common/Library/StdDriver/src/spi.c:1002:56
	lsls	r0, r0, #4
.Ltmp463:
	.loc	5 1002 17                       @ ../../CCC_common/Library/StdDriver/src/spi.c:1002:17
	cmp	r0, #16
	bne	.LBB15_5
	b	.LBB15_4
.LBB15_4:
.Ltmp464:
	.loc	5 1004 23 is_stmt 1             @ ../../CCC_common/Library/StdDriver/src/spi.c:1004:23
	bl	CLK_GetPLLClockFreq
	.loc	5 1004 21 is_stmt 0             @ ../../CCC_common/Library/StdDriver/src/spi.c:1004:21
	str	r0, [sp]
	.loc	5 1005 9 is_stmt 1              @ ../../CCC_common/Library/StdDriver/src/spi.c:1005:9
	b	.LBB15_9
.Ltmp465:
.LBB15_5:
	.loc	5 0 9 is_stmt 0                 @ ../../CCC_common/Library/StdDriver/src/spi.c:0:9
	ldr	r0, __arm_cp.15_7
.Ltmp466:
	.loc	5 1006 18 is_stmt 1             @ ../../CCC_common/Library/StdDriver/src/spi.c:1006:18
	bl	CLK_GetModuleClockSource
	.loc	5 1006 56 is_stmt 0             @ ../../CCC_common/Library/StdDriver/src/spi.c:1006:56
	lsls	r0, r0, #4
.Ltmp467:
	.loc	5 1006 17                       @ ../../CCC_common/Library/StdDriver/src/spi.c:1006:17
	cmp	r0, #32
	bne	.LBB15_7
	b	.LBB15_6
.LBB15_6:
.Ltmp468:
	.loc	5 1008 23 is_stmt 1             @ ../../CCC_common/Library/StdDriver/src/spi.c:1008:23
	bl	CLK_GetPCLK1Freq
	.loc	5 1008 21 is_stmt 0             @ ../../CCC_common/Library/StdDriver/src/spi.c:1008:21
	str	r0, [sp]
	.loc	5 1009 9 is_stmt 1              @ ../../CCC_common/Library/StdDriver/src/spi.c:1009:9
	b	.LBB15_8
.Ltmp469:
.LBB15_7:
	.loc	5 0 9 is_stmt 0                 @ ../../CCC_common/Library/StdDriver/src/spi.c:0:9
	ldr	r0, __arm_cp.15_4
.Ltmp470:
	.loc	5 1012 21 is_stmt 1             @ ../../CCC_common/Library/StdDriver/src/spi.c:1012:21
	str	r0, [sp]
	b	.LBB15_8
.Ltmp471:
.LBB15_8:
	.loc	5 0 21 is_stmt 0                @ ../../CCC_common/Library/StdDriver/src/spi.c:0:21
	b	.LBB15_9
.LBB15_9:
	b	.LBB15_10
.LBB15_10:
	.loc	5 1014 5 is_stmt 1              @ ../../CCC_common/Library/StdDriver/src/spi.c:1014:5
	b	.LBB15_45
.Ltmp472:
.LBB15_11:
	.loc	5 1015 13                       @ ../../CCC_common/Library/StdDriver/src/spi.c:1015:13
	ldr	r0, [sp, #4]
	ldr	r1, __arm_cp.15_1
.Ltmp473:
	.loc	5 1015 13 is_stmt 0             @ ../../CCC_common/Library/StdDriver/src/spi.c:1015:13
	cmp	r0, r1
	bne	.LBB15_22
	b	.LBB15_12
.LBB15_12:
	.loc	5 0 13                          @ ../../CCC_common/Library/StdDriver/src/spi.c:0:13
	ldr	r0, __arm_cp.15_6
.Ltmp474:
	.loc	5 1017 13 is_stmt 1             @ ../../CCC_common/Library/StdDriver/src/spi.c:1017:13
	bl	CLK_GetModuleClockSource
	.loc	5 1017 51 is_stmt 0             @ ../../CCC_common/Library/StdDriver/src/spi.c:1017:51
	lsls	r0, r0, #6
.Ltmp475:
	.loc	5 1017 12                       @ ../../CCC_common/Library/StdDriver/src/spi.c:1017:12
	cbnz	r0, .LBB15_14
	b	.LBB15_13
.LBB15_13:
	.loc	5 0 12                          @ ../../CCC_common/Library/StdDriver/src/spi.c:0:12
	ldr	r0, __arm_cp.15_4
.Ltmp476:
	.loc	5 1019 21 is_stmt 1             @ ../../CCC_common/Library/StdDriver/src/spi.c:1019:21
	str	r0, [sp]
	.loc	5 1020 9                        @ ../../CCC_common/Library/StdDriver/src/spi.c:1020:9
	b	.LBB15_21
.Ltmp477:
.LBB15_14:
	.loc	5 0 9 is_stmt 0                 @ ../../CCC_common/Library/StdDriver/src/spi.c:0:9
	ldr	r0, __arm_cp.15_6
.Ltmp478:
	.loc	5 1021 18 is_stmt 1             @ ../../CCC_common/Library/StdDriver/src/spi.c:1021:18
	bl	CLK_GetModuleClockSource
	.loc	5 1021 56 is_stmt 0             @ ../../CCC_common/Library/StdDriver/src/spi.c:1021:56
	lsls	r0, r0, #6
.Ltmp479:
	.loc	5 1021 17                       @ ../../CCC_common/Library/StdDriver/src/spi.c:1021:17
	cmp	r0, #64
	bne	.LBB15_16
	b	.LBB15_15
.LBB15_15:
.Ltmp480:
	.loc	5 1023 23 is_stmt 1             @ ../../CCC_common/Library/StdDriver/src/spi.c:1023:23
	bl	CLK_GetPLLClockFreq
	.loc	5 1023 21 is_stmt 0             @ ../../CCC_common/Library/StdDriver/src/spi.c:1023:21
	str	r0, [sp]
	.loc	5 1024 9 is_stmt 1              @ ../../CCC_common/Library/StdDriver/src/spi.c:1024:9
	b	.LBB15_20
.Ltmp481:
.LBB15_16:
	.loc	5 0 9 is_stmt 0                 @ ../../CCC_common/Library/StdDriver/src/spi.c:0:9
	ldr	r0, __arm_cp.15_6
.Ltmp482:
	.loc	5 1025 18 is_stmt 1             @ ../../CCC_common/Library/StdDriver/src/spi.c:1025:18
	bl	CLK_GetModuleClockSource
	.loc	5 1025 56 is_stmt 0             @ ../../CCC_common/Library/StdDriver/src/spi.c:1025:56
	lsls	r0, r0, #6
.Ltmp483:
	.loc	5 1025 17                       @ ../../CCC_common/Library/StdDriver/src/spi.c:1025:17
	cmp	r0, #128
	bne	.LBB15_18
	b	.LBB15_17
.LBB15_17:
.Ltmp484:
	.loc	5 1027 23 is_stmt 1             @ ../../CCC_common/Library/StdDriver/src/spi.c:1027:23
	bl	CLK_GetPCLK0Freq
	.loc	5 1027 21 is_stmt 0             @ ../../CCC_common/Library/StdDriver/src/spi.c:1027:21
	str	r0, [sp]
	.loc	5 1028 9 is_stmt 1              @ ../../CCC_common/Library/StdDriver/src/spi.c:1028:9
	b	.LBB15_19
.Ltmp485:
.LBB15_18:
	.loc	5 0 9 is_stmt 0                 @ ../../CCC_common/Library/StdDriver/src/spi.c:0:9
	ldr	r0, __arm_cp.15_4
.Ltmp486:
	.loc	5 1031 21 is_stmt 1             @ ../../CCC_common/Library/StdDriver/src/spi.c:1031:21
	str	r0, [sp]
	b	.LBB15_19
.Ltmp487:
.LBB15_19:
	.loc	5 0 21 is_stmt 0                @ ../../CCC_common/Library/StdDriver/src/spi.c:0:21
	b	.LBB15_20
.LBB15_20:
	b	.LBB15_21
.LBB15_21:
	.loc	5 1033 5 is_stmt 1              @ ../../CCC_common/Library/StdDriver/src/spi.c:1033:5
	b	.LBB15_44
.Ltmp488:
.LBB15_22:
	.loc	5 1034 13                       @ ../../CCC_common/Library/StdDriver/src/spi.c:1034:13
	ldr	r0, [sp, #4]
	ldr	r1, __arm_cp.15_2
.Ltmp489:
	.loc	5 1034 13 is_stmt 0             @ ../../CCC_common/Library/StdDriver/src/spi.c:1034:13
	cmp	r0, r1
	bne	.LBB15_33
	b	.LBB15_23
.LBB15_23:
	.loc	5 0 13                          @ ../../CCC_common/Library/StdDriver/src/spi.c:0:13
	ldr	r0, __arm_cp.15_5
.Ltmp490:
	.loc	5 1036 13 is_stmt 1             @ ../../CCC_common/Library/StdDriver/src/spi.c:1036:13
	bl	CLK_GetModuleClockSource
	.loc	5 1036 51 is_stmt 0             @ ../../CCC_common/Library/StdDriver/src/spi.c:1036:51
	lsls	r0, r0, #10
.Ltmp491:
	.loc	5 1036 12                       @ ../../CCC_common/Library/StdDriver/src/spi.c:1036:12
	cbnz	r0, .LBB15_25
	b	.LBB15_24
.LBB15_24:
	.loc	5 0 12                          @ ../../CCC_common/Library/StdDriver/src/spi.c:0:12
	ldr	r0, __arm_cp.15_4
.Ltmp492:
	.loc	5 1038 21 is_stmt 1             @ ../../CCC_common/Library/StdDriver/src/spi.c:1038:21
	str	r0, [sp]
	.loc	5 1039 9                        @ ../../CCC_common/Library/StdDriver/src/spi.c:1039:9
	b	.LBB15_32
.Ltmp493:
.LBB15_25:
	.loc	5 0 9 is_stmt 0                 @ ../../CCC_common/Library/StdDriver/src/spi.c:0:9
	ldr	r0, __arm_cp.15_5
.Ltmp494:
	.loc	5 1040 18 is_stmt 1             @ ../../CCC_common/Library/StdDriver/src/spi.c:1040:18
	bl	CLK_GetModuleClockSource
	.loc	5 1040 56 is_stmt 0             @ ../../CCC_common/Library/StdDriver/src/spi.c:1040:56
	lsls	r0, r0, #10
	movw	r1, #1024
.Ltmp495:
	.loc	5 1040 17                       @ ../../CCC_common/Library/StdDriver/src/spi.c:1040:17
	cmp	r0, r1
	bne	.LBB15_27
	b	.LBB15_26
.LBB15_26:
.Ltmp496:
	.loc	5 1042 23 is_stmt 1             @ ../../CCC_common/Library/StdDriver/src/spi.c:1042:23
	bl	CLK_GetPLLClockFreq
	.loc	5 1042 21 is_stmt 0             @ ../../CCC_common/Library/StdDriver/src/spi.c:1042:21
	str	r0, [sp]
	.loc	5 1043 9 is_stmt 1              @ ../../CCC_common/Library/StdDriver/src/spi.c:1043:9
	b	.LBB15_31
.Ltmp497:
.LBB15_27:
	.loc	5 0 9 is_stmt 0                 @ ../../CCC_common/Library/StdDriver/src/spi.c:0:9
	ldr	r0, __arm_cp.15_5
.Ltmp498:
	.loc	5 1044 18 is_stmt 1             @ ../../CCC_common/Library/StdDriver/src/spi.c:1044:18
	bl	CLK_GetModuleClockSource
	.loc	5 1044 56 is_stmt 0             @ ../../CCC_common/Library/StdDriver/src/spi.c:1044:56
	lsls	r0, r0, #10
	movw	r1, #2048
.Ltmp499:
	.loc	5 1044 17                       @ ../../CCC_common/Library/StdDriver/src/spi.c:1044:17
	cmp	r0, r1
	bne	.LBB15_29
	b	.LBB15_28
.LBB15_28:
.Ltmp500:
	.loc	5 1046 23 is_stmt 1             @ ../../CCC_common/Library/StdDriver/src/spi.c:1046:23
	bl	CLK_GetPCLK1Freq
	.loc	5 1046 21 is_stmt 0             @ ../../CCC_common/Library/StdDriver/src/spi.c:1046:21
	str	r0, [sp]
	.loc	5 1047 9 is_stmt 1              @ ../../CCC_common/Library/StdDriver/src/spi.c:1047:9
	b	.LBB15_30
.Ltmp501:
.LBB15_29:
	.loc	5 0 9 is_stmt 0                 @ ../../CCC_common/Library/StdDriver/src/spi.c:0:9
	ldr	r0, __arm_cp.15_4
.Ltmp502:
	.loc	5 1050 21 is_stmt 1             @ ../../CCC_common/Library/StdDriver/src/spi.c:1050:21
	str	r0, [sp]
	b	.LBB15_30
.Ltmp503:
.LBB15_30:
	.loc	5 0 21 is_stmt 0                @ ../../CCC_common/Library/StdDriver/src/spi.c:0:21
	b	.LBB15_31
.LBB15_31:
	b	.LBB15_32
.LBB15_32:
	.loc	5 1052 5 is_stmt 1              @ ../../CCC_common/Library/StdDriver/src/spi.c:1052:5
	b	.LBB15_43
.Ltmp504:
.LBB15_33:
	.loc	5 0 5 is_stmt 0                 @ ../../CCC_common/Library/StdDriver/src/spi.c:0:5
	ldr	r0, __arm_cp.15_3
.Ltmp505:
	.loc	5 1055 13 is_stmt 1             @ ../../CCC_common/Library/StdDriver/src/spi.c:1055:13
	bl	CLK_GetModuleClockSource
	.loc	5 1055 51 is_stmt 0             @ ../../CCC_common/Library/StdDriver/src/spi.c:1055:51
	lsls	r0, r0, #12
.Ltmp506:
	.loc	5 1055 12                       @ ../../CCC_common/Library/StdDriver/src/spi.c:1055:12
	cbnz	r0, .LBB15_35
	b	.LBB15_34
.LBB15_34:
	.loc	5 0 12                          @ ../../CCC_common/Library/StdDriver/src/spi.c:0:12
	ldr	r0, __arm_cp.15_4
.Ltmp507:
	.loc	5 1057 21 is_stmt 1             @ ../../CCC_common/Library/StdDriver/src/spi.c:1057:21
	str	r0, [sp]
	.loc	5 1058 9                        @ ../../CCC_common/Library/StdDriver/src/spi.c:1058:9
	b	.LBB15_42
.Ltmp508:
.LBB15_35:
	.loc	5 0 9 is_stmt 0                 @ ../../CCC_common/Library/StdDriver/src/spi.c:0:9
	ldr	r0, __arm_cp.15_3
.Ltmp509:
	.loc	5 1059 18 is_stmt 1             @ ../../CCC_common/Library/StdDriver/src/spi.c:1059:18
	bl	CLK_GetModuleClockSource
	.loc	5 1059 56 is_stmt 0             @ ../../CCC_common/Library/StdDriver/src/spi.c:1059:56
	lsls	r0, r0, #12
	movw	r1, #4096
.Ltmp510:
	.loc	5 1059 17                       @ ../../CCC_common/Library/StdDriver/src/spi.c:1059:17
	cmp	r0, r1
	bne	.LBB15_37
	b	.LBB15_36
.LBB15_36:
.Ltmp511:
	.loc	5 1061 23 is_stmt 1             @ ../../CCC_common/Library/StdDriver/src/spi.c:1061:23
	bl	CLK_GetPLLClockFreq
	.loc	5 1061 21 is_stmt 0             @ ../../CCC_common/Library/StdDriver/src/spi.c:1061:21
	str	r0, [sp]
	.loc	5 1062 9 is_stmt 1              @ ../../CCC_common/Library/StdDriver/src/spi.c:1062:9
	b	.LBB15_41
.Ltmp512:
.LBB15_37:
	.loc	5 0 9 is_stmt 0                 @ ../../CCC_common/Library/StdDriver/src/spi.c:0:9
	ldr	r0, __arm_cp.15_3
.Ltmp513:
	.loc	5 1063 18 is_stmt 1             @ ../../CCC_common/Library/StdDriver/src/spi.c:1063:18
	bl	CLK_GetModuleClockSource
	.loc	5 1063 56 is_stmt 0             @ ../../CCC_common/Library/StdDriver/src/spi.c:1063:56
	lsls	r0, r0, #12
	movw	r1, #8192
.Ltmp514:
	.loc	5 1063 17                       @ ../../CCC_common/Library/StdDriver/src/spi.c:1063:17
	cmp	r0, r1
	bne	.LBB15_39
	b	.LBB15_38
.LBB15_38:
.Ltmp515:
	.loc	5 1065 23 is_stmt 1             @ ../../CCC_common/Library/StdDriver/src/spi.c:1065:23
	bl	CLK_GetPCLK0Freq
	.loc	5 1065 21 is_stmt 0             @ ../../CCC_common/Library/StdDriver/src/spi.c:1065:21
	str	r0, [sp]
	.loc	5 1066 9 is_stmt 1              @ ../../CCC_common/Library/StdDriver/src/spi.c:1066:9
	b	.LBB15_40
.Ltmp516:
.LBB15_39:
	.loc	5 0 9 is_stmt 0                 @ ../../CCC_common/Library/StdDriver/src/spi.c:0:9
	ldr	r0, __arm_cp.15_4
.Ltmp517:
	.loc	5 1069 21 is_stmt 1             @ ../../CCC_common/Library/StdDriver/src/spi.c:1069:21
	str	r0, [sp]
	b	.LBB15_40
.Ltmp518:
.LBB15_40:
	.loc	5 0 21 is_stmt 0                @ ../../CCC_common/Library/StdDriver/src/spi.c:0:21
	b	.LBB15_41
.LBB15_41:
	b	.LBB15_42
.LBB15_42:
	b	.LBB15_43
.LBB15_43:
	b	.LBB15_44
.LBB15_44:
	b	.LBB15_45
.LBB15_45:
	.loc	5 1073 12 is_stmt 1             @ ../../CCC_common/Library/StdDriver/src/spi.c:1073:12
	ldr	r0, [sp]
	.loc	5 1073 5 epilogue_begin is_stmt 0 @ ../../CCC_common/Library/StdDriver/src/spi.c:1073:5
	add	sp, #8
	pop	{r7, pc}
.Ltmp519:
	.loc	5 0 5                           @ :0:5
.Ltmp520:
	.p2align	2
@ %bb.46:
__arm_cp.15_0:
	.long	1074139136                      @ 0x40061000
.Lcpi_end38:
	.size	__arm_cp.15_0, .Lcpi_end38-__arm_cp.15_0
__arm_cp.15_1:
	.long	1074143232                      @ 0x40062000
.Lcpi_end39:
	.size	__arm_cp.15_1, .Lcpi_end39-__arm_cp.15_1
__arm_cp.15_2:
	.long	1074147328                      @ 0x40063000
.Lcpi_end40:
	.size	__arm_cp.15_2, .Lcpi_end40-__arm_cp.15_2
__arm_cp.15_3:
	.long	2797600774                      @ 0xa6c00006
.Lcpi_end41:
	.size	__arm_cp.15_3, .Lcpi_end41-__arm_cp.15_3
__arm_cp.15_4:
	.long	12000000                        @ 0xb71b00
.Lcpi_end42:
	.size	__arm_cp.15_4, .Lcpi_end42-__arm_cp.15_4
__arm_cp.15_5:
	.long	1721761807                      @ 0x66a0000f
.Lcpi_end43:
	.size	__arm_cp.15_5, .Lcpi_end43-__arm_cp.15_5
__arm_cp.15_6:
	.long	1717567502                      @ 0x6660000e
.Lcpi_end44:
	.size	__arm_cp.15_6, .Lcpi_end44-__arm_cp.15_6
__arm_cp.15_7:
	.long	1715470349                      @ 0x6640000d
.Lcpi_end45:
	.size	__arm_cp.15_7, .Lcpi_end45-__arm_cp.15_7
.Lfunc_end15:
	.size	SPII2S_GetSourceClockFreq, .Lfunc_end15-SPII2S_GetSourceClockFreq
	.cfi_endproc
	.cantunwind
	.fnend
                                        @ -- End function
	.section	.text.SPII2S_Close,"ax",%progbits
	.hidden	SPII2S_Close                    @ -- Begin function SPII2S_Close
	.globl	SPII2S_Close
	.p2align	1
	.type	SPII2S_Close,%function
	.code	16                              @ @SPII2S_Close
	.thumb_func
SPII2S_Close:
.Lfunc_begin16:
	.loc	5 1215 0 is_stmt 1              @ ../../CCC_common/Library/StdDriver/src/spi.c:1215:0
	.fnstart
	.cfi_startproc
@ %bb.0:
	.pad	#4
	sub	sp, #4
	.cfi_def_cfa_offset 4
	str	r0, [sp]
.Ltmp521:
	.loc	5 1216 5 prologue_end           @ ../../CCC_common/Library/StdDriver/src/spi.c:1216:5
	ldr	r1, [sp]
	.loc	5 1216 17 is_stmt 0             @ ../../CCC_common/Library/StdDriver/src/spi.c:1216:17
	ldr	r0, [r1, #96]
	movs	r2, #1
	bics	r0, r2
	str	r0, [r1, #96]
	.loc	5 1217 1 epilogue_begin is_stmt 1 @ ../../CCC_common/Library/StdDriver/src/spi.c:1217:1
	add	sp, #4
	bx	lr
.Ltmp522:
.Lfunc_end16:
	.size	SPII2S_Close, .Lfunc_end16-SPII2S_Close
	.cfi_endproc
	.cantunwind
	.fnend
                                        @ -- End function
	.section	.text.SPII2S_EnableInt,"ax",%progbits
	.hidden	SPII2S_EnableInt                @ -- Begin function SPII2S_EnableInt
	.globl	SPII2S_EnableInt
	.p2align	1
	.type	SPII2S_EnableInt,%function
	.code	16                              @ @SPII2S_EnableInt
	.thumb_func
SPII2S_EnableInt:
.Lfunc_begin17:
	.loc	5 1235 0                        @ ../../CCC_common/Library/StdDriver/src/spi.c:1235:0
	.fnstart
	.cfi_startproc
@ %bb.0:
	.pad	#8
	sub	sp, #8
	.cfi_def_cfa_offset 8
	str	r0, [sp, #4]
	str	r1, [sp]
	mov	r0, sp
.Ltmp523:
	.loc	5 1237 8 prologue_end           @ ../../CCC_common/Library/StdDriver/src/spi.c:1237:8
	ldrb	r0, [r0]
	lsls	r0, r0, #31
	cbz	r0, .LBB17_2
	b	.LBB17_1
.LBB17_1:
.Ltmp524:
	.loc	5 1239 9                        @ ../../CCC_common/Library/StdDriver/src/spi.c:1239:9
	ldr	r1, [sp, #4]
	.loc	5 1239 22 is_stmt 0             @ ../../CCC_common/Library/StdDriver/src/spi.c:1239:22
	ldr	r0, [r1, #16]
	movs	r2, #8
	orrs	r0, r2
	str	r0, [r1, #16]
	.loc	5 1240 5 is_stmt 1              @ ../../CCC_common/Library/StdDriver/src/spi.c:1240:5
	b	.LBB17_2
.Ltmp525:
.LBB17_2:
	.loc	5 0 5 is_stmt 0                 @ ../../CCC_common/Library/StdDriver/src/spi.c:0:5
	mov	r0, sp
	.loc	5 1243 8 is_stmt 1              @ ../../CCC_common/Library/StdDriver/src/spi.c:1243:8
	ldrb	r0, [r0]
	lsls	r0, r0, #30
	cmp	r0, #0
	bpl	.LBB17_4
	b	.LBB17_3
.LBB17_3:
.Ltmp526:
	.loc	5 1245 9                        @ ../../CCC_common/Library/StdDriver/src/spi.c:1245:9
	ldr	r1, [sp, #4]
	.loc	5 1245 22 is_stmt 0             @ ../../CCC_common/Library/StdDriver/src/spi.c:1245:22
	ldr	r0, [r1, #16]
	movs	r2, #4
	orrs	r0, r2
	str	r0, [r1, #16]
	.loc	5 1246 5 is_stmt 1              @ ../../CCC_common/Library/StdDriver/src/spi.c:1246:5
	b	.LBB17_4
.Ltmp527:
.LBB17_4:
	.loc	5 0 5 is_stmt 0                 @ ../../CCC_common/Library/StdDriver/src/spi.c:0:5
	mov	r0, sp
	.loc	5 1249 8 is_stmt 1              @ ../../CCC_common/Library/StdDriver/src/spi.c:1249:8
	ldrb	r0, [r0]
	lsls	r0, r0, #29
	cmp	r0, #0
	bpl	.LBB17_6
	b	.LBB17_5
.LBB17_5:
.Ltmp528:
	.loc	5 1251 9                        @ ../../CCC_common/Library/StdDriver/src/spi.c:1251:9
	ldr	r1, [sp, #4]
	.loc	5 1251 22 is_stmt 0             @ ../../CCC_common/Library/StdDriver/src/spi.c:1251:22
	ldr	r0, [r1, #16]
	movs	r2, #32
	orrs	r0, r2
	str	r0, [r1, #16]
	.loc	5 1252 5 is_stmt 1              @ ../../CCC_common/Library/StdDriver/src/spi.c:1252:5
	b	.LBB17_6
.Ltmp529:
.LBB17_6:
	.loc	5 0 5 is_stmt 0                 @ ../../CCC_common/Library/StdDriver/src/spi.c:0:5
	mov	r0, sp
	.loc	5 1255 8 is_stmt 1              @ ../../CCC_common/Library/StdDriver/src/spi.c:1255:8
	ldrb	r0, [r0]
	lsls	r0, r0, #28
	cmp	r0, #0
	bpl	.LBB17_8
	b	.LBB17_7
.LBB17_7:
.Ltmp530:
	.loc	5 1257 9                        @ ../../CCC_common/Library/StdDriver/src/spi.c:1257:9
	ldr	r1, [sp, #4]
	.loc	5 1257 22 is_stmt 0             @ ../../CCC_common/Library/StdDriver/src/spi.c:1257:22
	ldr	r0, [r1, #16]
	movs	r2, #16
	orrs	r0, r2
	str	r0, [r1, #16]
	.loc	5 1258 5 is_stmt 1              @ ../../CCC_common/Library/StdDriver/src/spi.c:1258:5
	b	.LBB17_8
.Ltmp531:
.LBB17_8:
	.loc	5 0 5 is_stmt 0                 @ ../../CCC_common/Library/StdDriver/src/spi.c:0:5
	mov	r0, sp
	.loc	5 1261 8 is_stmt 1              @ ../../CCC_common/Library/StdDriver/src/spi.c:1261:8
	ldrb	r0, [r0]
	lsls	r0, r0, #27
	cmp	r0, #0
	bpl	.LBB17_10
	b	.LBB17_9
.LBB17_9:
.Ltmp532:
	.loc	5 1263 9                        @ ../../CCC_common/Library/StdDriver/src/spi.c:1263:9
	ldr	r1, [sp, #4]
	.loc	5 1263 22 is_stmt 0             @ ../../CCC_common/Library/StdDriver/src/spi.c:1263:22
	ldr	r0, [r1, #16]
	movs	r2, #128
	orrs	r0, r2
	str	r0, [r1, #16]
	.loc	5 1264 5 is_stmt 1              @ ../../CCC_common/Library/StdDriver/src/spi.c:1264:5
	b	.LBB17_10
.Ltmp533:
.LBB17_10:
	.loc	5 0 5 is_stmt 0                 @ ../../CCC_common/Library/StdDriver/src/spi.c:0:5
	mov	r0, sp
	.loc	5 1267 8 is_stmt 1              @ ../../CCC_common/Library/StdDriver/src/spi.c:1267:8
	ldrb	r0, [r0]
	lsls	r0, r0, #26
	cmp	r0, #0
	bpl	.LBB17_12
	b	.LBB17_11
.LBB17_11:
.Ltmp534:
	.loc	5 1269 9                        @ ../../CCC_common/Library/StdDriver/src/spi.c:1269:9
	ldr	r1, [sp, #4]
	.loc	5 1269 21 is_stmt 0             @ ../../CCC_common/Library/StdDriver/src/spi.c:1269:21
	ldr	r0, [r1, #96]
	movs	r2, #1
	lsls	r2, r2, #24
	orrs	r0, r2
	str	r0, [r1, #96]
	.loc	5 1270 5 is_stmt 1              @ ../../CCC_common/Library/StdDriver/src/spi.c:1270:5
	b	.LBB17_12
.Ltmp535:
.LBB17_12:
	.loc	5 0 5 is_stmt 0                 @ ../../CCC_common/Library/StdDriver/src/spi.c:0:5
	mov	r0, sp
	.loc	5 1273 8 is_stmt 1              @ ../../CCC_common/Library/StdDriver/src/spi.c:1273:8
	ldrb	r0, [r0]
	lsls	r0, r0, #25
	cmp	r0, #0
	bpl	.LBB17_14
	b	.LBB17_13
.LBB17_13:
.Ltmp536:
	.loc	5 1275 9                        @ ../../CCC_common/Library/StdDriver/src/spi.c:1275:9
	ldr	r1, [sp, #4]
	.loc	5 1275 21 is_stmt 0             @ ../../CCC_common/Library/StdDriver/src/spi.c:1275:21
	ldr	r0, [r1, #96]
	movs	r2, #1
	lsls	r2, r2, #25
	orrs	r0, r2
	str	r0, [r1, #96]
	.loc	5 1276 5 is_stmt 1              @ ../../CCC_common/Library/StdDriver/src/spi.c:1276:5
	b	.LBB17_14
.Ltmp537:
.LBB17_14:
	.loc	5 1277 1 epilogue_begin         @ ../../CCC_common/Library/StdDriver/src/spi.c:1277:1
	add	sp, #8
	bx	lr
.Ltmp538:
.Lfunc_end17:
	.size	SPII2S_EnableInt, .Lfunc_end17-SPII2S_EnableInt
	.cfi_endproc
	.cantunwind
	.fnend
                                        @ -- End function
	.section	.text.SPII2S_DisableInt,"ax",%progbits
	.hidden	SPII2S_DisableInt               @ -- Begin function SPII2S_DisableInt
	.globl	SPII2S_DisableInt
	.p2align	1
	.type	SPII2S_DisableInt,%function
	.code	16                              @ @SPII2S_DisableInt
	.thumb_func
SPII2S_DisableInt:
.Lfunc_begin18:
	.loc	5 1295 0                        @ ../../CCC_common/Library/StdDriver/src/spi.c:1295:0
	.fnstart
	.cfi_startproc
@ %bb.0:
	.pad	#8
	sub	sp, #8
	.cfi_def_cfa_offset 8
	str	r0, [sp, #4]
	str	r1, [sp]
	mov	r0, sp
.Ltmp539:
	.loc	5 1297 8 prologue_end           @ ../../CCC_common/Library/StdDriver/src/spi.c:1297:8
	ldrb	r0, [r0]
	lsls	r0, r0, #31
	cbz	r0, .LBB18_2
	b	.LBB18_1
.LBB18_1:
.Ltmp540:
	.loc	5 1299 9                        @ ../../CCC_common/Library/StdDriver/src/spi.c:1299:9
	ldr	r1, [sp, #4]
	.loc	5 1299 22 is_stmt 0             @ ../../CCC_common/Library/StdDriver/src/spi.c:1299:22
	ldr	r0, [r1, #16]
	movs	r2, #8
	bics	r0, r2
	str	r0, [r1, #16]
	.loc	5 1300 5 is_stmt 1              @ ../../CCC_common/Library/StdDriver/src/spi.c:1300:5
	b	.LBB18_2
.Ltmp541:
.LBB18_2:
	.loc	5 0 5 is_stmt 0                 @ ../../CCC_common/Library/StdDriver/src/spi.c:0:5
	mov	r0, sp
	.loc	5 1303 8 is_stmt 1              @ ../../CCC_common/Library/StdDriver/src/spi.c:1303:8
	ldrb	r0, [r0]
	lsls	r0, r0, #30
	cmp	r0, #0
	bpl	.LBB18_4
	b	.LBB18_3
.LBB18_3:
.Ltmp542:
	.loc	5 1305 9                        @ ../../CCC_common/Library/StdDriver/src/spi.c:1305:9
	ldr	r1, [sp, #4]
	.loc	5 1305 22 is_stmt 0             @ ../../CCC_common/Library/StdDriver/src/spi.c:1305:22
	ldr	r0, [r1, #16]
	movs	r2, #4
	bics	r0, r2
	str	r0, [r1, #16]
	.loc	5 1306 5 is_stmt 1              @ ../../CCC_common/Library/StdDriver/src/spi.c:1306:5
	b	.LBB18_4
.Ltmp543:
.LBB18_4:
	.loc	5 0 5 is_stmt 0                 @ ../../CCC_common/Library/StdDriver/src/spi.c:0:5
	mov	r0, sp
	.loc	5 1309 8 is_stmt 1              @ ../../CCC_common/Library/StdDriver/src/spi.c:1309:8
	ldrb	r0, [r0]
	lsls	r0, r0, #29
	cmp	r0, #0
	bpl	.LBB18_6
	b	.LBB18_5
.LBB18_5:
.Ltmp544:
	.loc	5 1311 9                        @ ../../CCC_common/Library/StdDriver/src/spi.c:1311:9
	ldr	r1, [sp, #4]
	.loc	5 1311 22 is_stmt 0             @ ../../CCC_common/Library/StdDriver/src/spi.c:1311:22
	ldr	r0, [r1, #16]
	movs	r2, #32
	bics	r0, r2
	str	r0, [r1, #16]
	.loc	5 1312 5 is_stmt 1              @ ../../CCC_common/Library/StdDriver/src/spi.c:1312:5
	b	.LBB18_6
.Ltmp545:
.LBB18_6:
	.loc	5 0 5 is_stmt 0                 @ ../../CCC_common/Library/StdDriver/src/spi.c:0:5
	mov	r0, sp
	.loc	5 1315 8 is_stmt 1              @ ../../CCC_common/Library/StdDriver/src/spi.c:1315:8
	ldrb	r0, [r0]
	lsls	r0, r0, #28
	cmp	r0, #0
	bpl	.LBB18_8
	b	.LBB18_7
.LBB18_7:
.Ltmp546:
	.loc	5 1317 9                        @ ../../CCC_common/Library/StdDriver/src/spi.c:1317:9
	ldr	r1, [sp, #4]
	.loc	5 1317 22 is_stmt 0             @ ../../CCC_common/Library/StdDriver/src/spi.c:1317:22
	ldr	r0, [r1, #16]
	movs	r2, #16
	bics	r0, r2
	str	r0, [r1, #16]
	.loc	5 1318 5 is_stmt 1              @ ../../CCC_common/Library/StdDriver/src/spi.c:1318:5
	b	.LBB18_8
.Ltmp547:
.LBB18_8:
	.loc	5 0 5 is_stmt 0                 @ ../../CCC_common/Library/StdDriver/src/spi.c:0:5
	mov	r0, sp
	.loc	5 1321 8 is_stmt 1              @ ../../CCC_common/Library/StdDriver/src/spi.c:1321:8
	ldrb	r0, [r0]
	lsls	r0, r0, #27
	cmp	r0, #0
	bpl	.LBB18_10
	b	.LBB18_9
.LBB18_9:
.Ltmp548:
	.loc	5 1323 9                        @ ../../CCC_common/Library/StdDriver/src/spi.c:1323:9
	ldr	r1, [sp, #4]
	.loc	5 1323 22 is_stmt 0             @ ../../CCC_common/Library/StdDriver/src/spi.c:1323:22
	ldr	r0, [r1, #16]
	movs	r2, #128
	bics	r0, r2
	str	r0, [r1, #16]
	.loc	5 1324 5 is_stmt 1              @ ../../CCC_common/Library/StdDriver/src/spi.c:1324:5
	b	.LBB18_10
.Ltmp549:
.LBB18_10:
	.loc	5 0 5 is_stmt 0                 @ ../../CCC_common/Library/StdDriver/src/spi.c:0:5
	mov	r0, sp
	.loc	5 1327 8 is_stmt 1              @ ../../CCC_common/Library/StdDriver/src/spi.c:1327:8
	ldrb	r0, [r0]
	lsls	r0, r0, #26
	cmp	r0, #0
	bpl	.LBB18_12
	b	.LBB18_11
.LBB18_11:
.Ltmp550:
	.loc	5 1329 9                        @ ../../CCC_common/Library/StdDriver/src/spi.c:1329:9
	ldr	r1, [sp, #4]
	.loc	5 1329 21 is_stmt 0             @ ../../CCC_common/Library/StdDriver/src/spi.c:1329:21
	ldr	r0, [r1, #96]
	movs	r2, #1
	lsls	r2, r2, #24
	bics	r0, r2
	str	r0, [r1, #96]
	.loc	5 1330 5 is_stmt 1              @ ../../CCC_common/Library/StdDriver/src/spi.c:1330:5
	b	.LBB18_12
.Ltmp551:
.LBB18_12:
	.loc	5 0 5 is_stmt 0                 @ ../../CCC_common/Library/StdDriver/src/spi.c:0:5
	mov	r0, sp
	.loc	5 1333 8 is_stmt 1              @ ../../CCC_common/Library/StdDriver/src/spi.c:1333:8
	ldrb	r0, [r0]
	lsls	r0, r0, #25
	cmp	r0, #0
	bpl	.LBB18_14
	b	.LBB18_13
.LBB18_13:
.Ltmp552:
	.loc	5 1335 9                        @ ../../CCC_common/Library/StdDriver/src/spi.c:1335:9
	ldr	r1, [sp, #4]
	.loc	5 1335 21 is_stmt 0             @ ../../CCC_common/Library/StdDriver/src/spi.c:1335:21
	ldr	r0, [r1, #96]
	movs	r2, #1
	lsls	r2, r2, #25
	bics	r0, r2
	str	r0, [r1, #96]
	.loc	5 1336 5 is_stmt 1              @ ../../CCC_common/Library/StdDriver/src/spi.c:1336:5
	b	.LBB18_14
.Ltmp553:
.LBB18_14:
	.loc	5 1337 1 epilogue_begin         @ ../../CCC_common/Library/StdDriver/src/spi.c:1337:1
	add	sp, #8
	bx	lr
.Ltmp554:
.Lfunc_end18:
	.size	SPII2S_DisableInt, .Lfunc_end18-SPII2S_DisableInt
	.cfi_endproc
	.cantunwind
	.fnend
                                        @ -- End function
	.section	.text.SPII2S_EnableMCLK,"ax",%progbits
	.hidden	SPII2S_EnableMCLK               @ -- Begin function SPII2S_EnableMCLK
	.globl	SPII2S_EnableMCLK
	.p2align	1
	.type	SPII2S_EnableMCLK,%function
	.code	16                              @ @SPII2S_EnableMCLK
	.thumb_func
SPII2S_EnableMCLK:
.Lfunc_begin19:
	.loc	5 1348 0                        @ ../../CCC_common/Library/StdDriver/src/spi.c:1348:0
	.fnstart
	.cfi_startproc
@ %bb.0:
	.save	{r7, lr}
	push	{r7, lr}
	.cfi_def_cfa_offset 8
	.cfi_offset lr, -4
	.cfi_offset r7, -8
	.pad	#24
	sub	sp, #24
	.cfi_def_cfa_offset 32
	str	r0, [sp, #20]
	str	r1, [sp, #16]
.Ltmp555:
	.loc	5 1352 43 prologue_end          @ ../../CCC_common/Library/StdDriver/src/spi.c:1352:43
	ldr	r0, [sp, #20]
	.loc	5 1352 17 is_stmt 0             @ ../../CCC_common/Library/StdDriver/src/spi.c:1352:17
	bl	SPII2S_GetSourceClockFreq
	.loc	5 1352 15                       @ ../../CCC_common/Library/StdDriver/src/spi.c:1352:15
	str	r0, [sp, #8]
.Ltmp556:
	.loc	5 1353 8 is_stmt 1              @ ../../CCC_common/Library/StdDriver/src/spi.c:1353:8
	ldr	r0, [sp, #16]
	.loc	5 1353 23 is_stmt 0             @ ../../CCC_common/Library/StdDriver/src/spi.c:1353:23
	ldr	r1, [sp, #8]
.Ltmp557:
	.loc	5 1353 8                        @ ../../CCC_common/Library/StdDriver/src/spi.c:1353:8
	cmp	r0, r1
	bne	.LBB19_2
	b	.LBB19_1
.LBB19_1:
	.loc	5 0 8                           @ ../../CCC_common/Library/StdDriver/src/spi.c:0:8
	movs	r0, #0
.Ltmp558:
	.loc	5 1355 20 is_stmt 1             @ ../../CCC_common/Library/StdDriver/src/spi.c:1355:20
	str	r0, [sp, #12]
	.loc	5 1356 5                        @ ../../CCC_common/Library/StdDriver/src/spi.c:1356:5
	b	.LBB19_5
.Ltmp559:
.LBB19_2:
	.loc	5 1359 23                       @ ../../CCC_common/Library/StdDriver/src/spi.c:1359:23
	ldr	r0, [sp, #8]
	.loc	5 1359 35 is_stmt 0             @ ../../CCC_common/Library/StdDriver/src/spi.c:1359:35
	ldr	r1, [sp, #16]
	.loc	5 1359 33                       @ ../../CCC_common/Library/StdDriver/src/spi.c:1359:33
	udiv	r0, r0, r1
	.loc	5 1359 48                       @ ../../CCC_common/Library/StdDriver/src/spi.c:1359:48
	lsrs	r0, r0, #1
	.loc	5 1359 20                       @ ../../CCC_common/Library/StdDriver/src/spi.c:1359:20
	str	r0, [sp, #12]
.Ltmp560:
	.loc	5 1361 12 is_stmt 1             @ ../../CCC_common/Library/StdDriver/src/spi.c:1361:12
	ldr	r0, [sp, #12]
.Ltmp561:
	.loc	5 1361 12 is_stmt 0             @ ../../CCC_common/Library/StdDriver/src/spi.c:1361:12
	cmp	r0, #128
	blo	.LBB19_4
	b	.LBB19_3
.LBB19_3:
	.loc	5 0 12                          @ ../../CCC_common/Library/StdDriver/src/spi.c:0:12
	movs	r0, #127
.Ltmp562:
	.loc	5 1363 24 is_stmt 1             @ ../../CCC_common/Library/StdDriver/src/spi.c:1363:24
	str	r0, [sp, #12]
	.loc	5 1364 9                        @ ../../CCC_common/Library/StdDriver/src/spi.c:1364:9
	b	.LBB19_4
.Ltmp563:
.LBB19_4:
	.loc	5 0 9 is_stmt 0                 @ ../../CCC_common/Library/StdDriver/src/spi.c:0:9
	b	.LBB19_5
.LBB19_5:
	.loc	5 1368 20 is_stmt 1             @ ../../CCC_common/Library/StdDriver/src/spi.c:1368:20
	ldr	r0, [sp, #20]
	.loc	5 1368 25 is_stmt 0             @ ../../CCC_common/Library/StdDriver/src/spi.c:1368:25
	ldr	r0, [r0, #100]
	movs	r1, #127
	.loc	5 1368 32                       @ ../../CCC_common/Library/StdDriver/src/spi.c:1368:32
	bics	r0, r1
	.loc	5 1368 62                       @ ../../CCC_common/Library/StdDriver/src/spi.c:1368:62
	ldr	r1, [sp, #12]
	.loc	5 1368 59                       @ ../../CCC_common/Library/StdDriver/src/spi.c:1368:59
	orrs	r0, r1
	.loc	5 1368 5                        @ ../../CCC_common/Library/StdDriver/src/spi.c:1368:5
	ldr	r1, [sp, #20]
	.loc	5 1368 17                       @ ../../CCC_common/Library/StdDriver/src/spi.c:1368:17
	str	r0, [r1, #100]
	.loc	5 1371 5 is_stmt 1              @ ../../CCC_common/Library/StdDriver/src/spi.c:1371:5
	ldr	r1, [sp, #20]
	.loc	5 1371 17 is_stmt 0             @ ../../CCC_common/Library/StdDriver/src/spi.c:1371:17
	ldr	r0, [r1, #96]
	movw	r2, #32768
	orrs	r0, r2
	str	r0, [r1, #96]
.Ltmp564:
	.loc	5 1373 8 is_stmt 1              @ ../../CCC_common/Library/StdDriver/src/spi.c:1373:8
	ldr	r0, [sp, #12]
.Ltmp565:
	.loc	5 1373 8 is_stmt 0              @ ../../CCC_common/Library/StdDriver/src/spi.c:1373:8
	cbnz	r0, .LBB19_7
	b	.LBB19_6
.LBB19_6:
.Ltmp566:
	.loc	5 1375 23 is_stmt 1             @ ../../CCC_common/Library/StdDriver/src/spi.c:1375:23
	ldr	r0, [sp, #8]
	.loc	5 1375 21 is_stmt 0             @ ../../CCC_common/Library/StdDriver/src/spi.c:1375:21
	str	r0, [sp, #4]
	.loc	5 1376 5 is_stmt 1              @ ../../CCC_common/Library/StdDriver/src/spi.c:1376:5
	b	.LBB19_8
.Ltmp567:
.LBB19_7:
	.loc	5 1379 25                       @ ../../CCC_common/Library/StdDriver/src/spi.c:1379:25
	ldr	r0, [sp, #8]
	.loc	5 1379 35 is_stmt 0             @ ../../CCC_common/Library/StdDriver/src/spi.c:1379:35
	lsrs	r0, r0, #1
	.loc	5 1379 45                       @ ../../CCC_common/Library/StdDriver/src/spi.c:1379:45
	ldr	r1, [sp, #12]
	.loc	5 1379 43                       @ ../../CCC_common/Library/StdDriver/src/spi.c:1379:43
	udiv	r0, r0, r1
	.loc	5 1379 21                       @ ../../CCC_common/Library/StdDriver/src/spi.c:1379:21
	str	r0, [sp, #4]
	b	.LBB19_8
.Ltmp568:
.LBB19_8:
	.loc	5 1382 12 is_stmt 1             @ ../../CCC_common/Library/StdDriver/src/spi.c:1382:12
	ldr	r0, [sp, #4]
	.loc	5 1382 5 epilogue_begin is_stmt 0 @ ../../CCC_common/Library/StdDriver/src/spi.c:1382:5
	add	sp, #24
	pop	{r7, pc}
.Ltmp569:
.Lfunc_end19:
	.size	SPII2S_EnableMCLK, .Lfunc_end19-SPII2S_EnableMCLK
	.cfi_endproc
	.cantunwind
	.fnend
                                        @ -- End function
	.section	.text.SPII2S_DisableMCLK,"ax",%progbits
	.hidden	SPII2S_DisableMCLK              @ -- Begin function SPII2S_DisableMCLK
	.globl	SPII2S_DisableMCLK
	.p2align	1
	.type	SPII2S_DisableMCLK,%function
	.code	16                              @ @SPII2S_DisableMCLK
	.thumb_func
SPII2S_DisableMCLK:
.Lfunc_begin20:
	.loc	5 1392 0 is_stmt 1              @ ../../CCC_common/Library/StdDriver/src/spi.c:1392:0
	.fnstart
	.cfi_startproc
@ %bb.0:
	.pad	#4
	sub	sp, #4
	.cfi_def_cfa_offset 4
	str	r0, [sp]
.Ltmp570:
	.loc	5 1393 5 prologue_end           @ ../../CCC_common/Library/StdDriver/src/spi.c:1393:5
	ldr	r1, [sp]
	.loc	5 1393 17 is_stmt 0             @ ../../CCC_common/Library/StdDriver/src/spi.c:1393:17
	ldr	r0, [r1, #96]
	movw	r2, #32768
	bics	r0, r2
	str	r0, [r1, #96]
	.loc	5 1394 1 epilogue_begin is_stmt 1 @ ../../CCC_common/Library/StdDriver/src/spi.c:1394:1
	add	sp, #4
	bx	lr
.Ltmp571:
.Lfunc_end20:
	.size	SPII2S_DisableMCLK, .Lfunc_end20-SPII2S_DisableMCLK
	.cfi_endproc
	.cantunwind
	.fnend
                                        @ -- End function
	.section	.text.SPII2S_SetFIFO,"ax",%progbits
	.hidden	SPII2S_SetFIFO                  @ -- Begin function SPII2S_SetFIFO
	.globl	SPII2S_SetFIFO
	.p2align	1
	.type	SPII2S_SetFIFO,%function
	.code	16                              @ @SPII2S_SetFIFO
	.thumb_func
SPII2S_SetFIFO:
.Lfunc_begin21:
	.loc	5 1405 0                        @ ../../CCC_common/Library/StdDriver/src/spi.c:1405:0
	.fnstart
	.cfi_startproc
@ %bb.0:
	.pad	#12
	sub	sp, #12
	.cfi_def_cfa_offset 12
	str	r0, [sp, #8]
	str	r1, [sp, #4]
	str	r2, [sp]
.Ltmp572:
	.loc	5 1406 21 prologue_end          @ ../../CCC_common/Library/StdDriver/src/spi.c:1406:21
	ldr	r0, [sp, #8]
	.loc	5 1406 26 is_stmt 0             @ ../../CCC_common/Library/StdDriver/src/spi.c:1406:26
	ldr	r0, [r0, #16]
	movs	r1, #119
	lsls	r1, r1, #24
	.loc	5 1406 34                       @ ../../CCC_common/Library/StdDriver/src/spi.c:1406:34
	bics	r0, r1
	.loc	5 1407 21 is_stmt 1             @ ../../CCC_common/Library/StdDriver/src/spi.c:1407:21
	ldr	r1, [sp, #4]
	.loc	5 1407 36 is_stmt 0             @ ../../CCC_common/Library/StdDriver/src/spi.c:1407:36
	lsls	r1, r1, #28
	.loc	5 1406 84 is_stmt 1             @ ../../CCC_common/Library/StdDriver/src/spi.c:1406:84
	orrs	r0, r1
	.loc	5 1408 21                       @ ../../CCC_common/Library/StdDriver/src/spi.c:1408:21
	ldr	r1, [sp]
	.loc	5 1408 36 is_stmt 0             @ ../../CCC_common/Library/StdDriver/src/spi.c:1408:36
	lsls	r1, r1, #24
	.loc	5 1407 61 is_stmt 1             @ ../../CCC_common/Library/StdDriver/src/spi.c:1407:61
	orrs	r0, r1
	.loc	5 1406 5                        @ ../../CCC_common/Library/StdDriver/src/spi.c:1406:5
	ldr	r1, [sp, #8]
	.loc	5 1406 18 is_stmt 0             @ ../../CCC_common/Library/StdDriver/src/spi.c:1406:18
	str	r0, [r1, #16]
	.loc	5 1409 1 epilogue_begin is_stmt 1 @ ../../CCC_common/Library/StdDriver/src/spi.c:1409:1
	add	sp, #12
	bx	lr
.Ltmp573:
.Lfunc_end21:
	.size	SPII2S_SetFIFO, .Lfunc_end21-SPII2S_SetFIFO
	.cfi_endproc
	.cantunwind
	.fnend
                                        @ -- End function
	.section	".note.GNU-stack","",%progbits
	.eabi_attribute	30, 6	@ Tag_ABI_optimization_goals
	.ARM_attribute	16, 1	@ Tag_AV_eba