	.text
	.syntax unified
	.eabi_attribute	67, "2.09"	@ Tag_conformance
	.cpu	cortex-m23
	.eabi_attribute	6, 16	@ Tag_CPU_arch
	.eabi_attribute	7, 77	@ Tag_CPU_arch_profile
	.eabi_attribute	8, 0	@ Tag_ARM_ISA_use
	.eabi_attribute	9, 3	@ Tag_THUMB_ISA_use
	.eabi_attribute	34, 0	@ Tag_CPU_unaligned_access
	.eabi_attribute	17, 1	@ Tag_ABI_PCS_GOT_use
	.eabi_attribute	20, 2	@ Tag_ABI_FP_denormal
	.eabi_attribute	21, 0	@ Tag_ABI_FP_exceptions
	.eabi_attribute	23, 1	@ Tag_ABI_FP_number_model
	.eabi_attribute	24, 1	@ Tag_ABI_align_needed
	.eabi_attribute	25, 1	@ Tag_ABI_align_preserved
	.eabi_attribute	38, 1	@ Tag_ABI_FP_16bit_format
	.eabi_attribute	18, 4	@ Tag_ABI_PCS_wchar_t
	.eabi_attribute	26, 2	@ Tag_ABI_enum_size
	.eabi_attribute	14, 0	@ Tag_ABI_PCS_R9_use
	.file	"uart_pkts.c"
	.file	1 "D:\\work\\dheeraj\\local\\CEL\\CCC\\CCC_CPU0\\Code" "source/uart_pkts.c"
	.file	2 "C:\\Users\\Anaya\\AppData\\Local\\Keil_v5\\ARM\\ARMCLANG\\bin\\..\\include" "stdint.h"
	.file	3 "D:\\work\\dheeraj\\local\\CEL\\CCC\\CCC_CPU0\\Code" "source/Include\\app.h"
	.section	.text.LINE_COM_write_packet,"ax",%progbits
	.hidden	LINE_COM_write_packet           @ -- Begin function LINE_COM_write_packet
	.globl	LINE_COM_write_packet
	.p2align	2
	.type	LINE_COM_write_packet,%function
	.code	16                              @ @LINE_COM_write_packet
	.thumb_func
LINE_COM_write_packet:
.Lfunc_begin0:
	.loc	1 80 0                          @ source/uart_pkts.c:80:0
	.fnstart
	.cfi_sections .debug_frame
	.cfi_startproc
@ %bb.0:
	.save	{r4, r5, r6, lr}
	push	{r4, r5, r6, lr}
	.cfi_def_cfa_offset 16
	.cfi_offset lr, -4
	.cfi_offset r6, -8
	.cfi_offset r5, -12
	.cfi_offset r4, -16
	.pad	#56
	sub	sp, #56
	.cfi_def_cfa_offset 72
                                        @ kill: def $r2 killed $r1
	str	r0, [sp, #48]
	add	r0, sp, #44
	strb	r1, [r0]
.Ltmp0:
	.loc	1 84 5 prologue_end             @ source/uart_pkts.c:84:5
	ldr	r0, __arm_cp.0_0
	movw	r1, #5152
	adds	r0, r0, r1
	str	r0, [sp, #32]
.Ltmp1:
	.loc	1 87 5                          @ source/uart_pkts.c:87:5
	ldr	r0, [sp, #48]
	.loc	1 87 8 is_stmt 0                @ source/uart_pkts.c:87:8
	ldrb	r0, [r0, #12]
.Ltmp2:
	.loc	1 87 5                          @ source/uart_pkts.c:87:5
	cbnz	r0, .LBB0_1
	b	.LBB0_20
.LBB0_1:
.Ltmp3:
	.loc	1 88 14 is_stmt 1               @ source/uart_pkts.c:88:14
	ldr	r0, [sp, #48]
	movs	r1, #58
	.loc	1 88 3 is_stmt 0                @ source/uart_pkts.c:88:3
	bl	fifo_write
	.loc	1 89 3 is_stmt 1                @ source/uart_pkts.c:89:3
	ldr	r1, [sp, #48]
	movs	r0, #0
	.loc	1 89 15 is_stmt 0               @ source/uart_pkts.c:89:15
	strh	r0, [r1, #8]
.Ltmp4:
	.loc	1 90 10 is_stmt 1               @ source/uart_pkts.c:90:10
	ldr	r0, __arm_cp.0_1
	ldr	r0, [r0, #124]
.Ltmp5:
	.loc	1 90 6 is_stmt 0                @ source/uart_pkts.c:90:6
	cmp	r0, #1
	bne	.LBB0_3
	b	.LBB0_2
.LBB0_2:
.Ltmp6:
	.loc	1 91 15 is_stmt 1               @ source/uart_pkts.c:91:15
	ldr	r0, [sp, #48]
	movs	r1, #82
	.loc	1 91 4 is_stmt 0                @ source/uart_pkts.c:91:4
	bl	fifo_write
	.loc	1 92 3 is_stmt 1                @ source/uart_pkts.c:92:3
	b	.LBB0_7
.Ltmp7:
.LBB0_3:
	.loc	1 93 15                         @ source/uart_pkts.c:93:15
	ldr	r0, __arm_cp.0_1
	ldr	r0, [r0, #124]
.Ltmp8:
	.loc	1 93 11 is_stmt 0               @ source/uart_pkts.c:93:11
	cmp	r0, #2
	bne	.LBB0_5
	b	.LBB0_4
.LBB0_4:
.Ltmp9:
	.loc	1 94 15 is_stmt 1               @ source/uart_pkts.c:94:15
	ldr	r0, [sp, #48]
	movs	r1, #65
	.loc	1 94 4 is_stmt 0                @ source/uart_pkts.c:94:4
	bl	fifo_write
	.loc	1 95 3 is_stmt 1                @ source/uart_pkts.c:95:3
	b	.LBB0_6
.Ltmp10:
.LBB0_5:
	.loc	1 97 15                         @ source/uart_pkts.c:97:15
	ldr	r0, [sp, #48]
	movs	r1, #67
	.loc	1 97 4 is_stmt 0                @ source/uart_pkts.c:97:4
	bl	fifo_write
	b	.LBB0_6
.Ltmp11:
.LBB0_6:
	.loc	1 0 4                           @ source/uart_pkts.c:0:4
	b	.LBB0_7
.LBB0_7:
	.loc	1 99 14 is_stmt 1               @ source/uart_pkts.c:99:14
	ldr	r0, [sp, #48]
	movs	r1, #36
	.loc	1 99 3 is_stmt 0                @ source/uart_pkts.c:99:3
	bl	fifo_write
	.loc	1 100 20 is_stmt 1              @ source/uart_pkts.c:100:20
	ldr	r0, [sp, #48]
	.loc	1 100 3 is_stmt 0               @ source/uart_pkts.c:100:3
	ldr	r1, __arm_cp.0_2
	movs	r2, #17
	str	r2, [sp, #16]                   @ 4-byte Spill
	bl	fifo_write_bytes
	.loc	1 101 23 is_stmt 1              @ source/uart_pkts.c:101:23
	ldr	r0, [sp, #32]
	.loc	1 101 27 is_stmt 0              @ source/uart_pkts.c:101:27
	ldrb	r2, [r0, #2]
	.loc	1 101 3                         @ source/uart_pkts.c:101:3
	ldr	r0, __arm_cp.0_3
	str	r0, [sp, #20]                   @ 4-byte Spill
	ldr	r1, __arm_cp.0_4
	bl	sprintf
	ldr	r1, [sp, #20]                   @ 4-byte Reload
	.loc	1 102 20 is_stmt 1              @ source/uart_pkts.c:102:20
	ldr	r0, [sp, #48]
	movs	r2, #4
	.loc	1 102 3 is_stmt 0               @ source/uart_pkts.c:102:3
	bl	fifo_write_bytes
	.loc	1 103 20 is_stmt 1              @ source/uart_pkts.c:103:20
	ldr	r0, [sp, #48]
	add	r1, sp, #44
	.loc	1 103 58 is_stmt 0              @ source/uart_pkts.c:103:58
	ldrb	r1, [r1]
	.loc	1 103 34                        @ source/uart_pkts.c:103:34
	lsls	r2, r1, #1
	ldr	r1, __arm_cp.0_1
	str	r1, [sp, #24]                   @ 4-byte Spill
	adds	r1, r1, r2
	adds	r1, #20
	movs	r2, #2
	.loc	1 103 3                         @ source/uart_pkts.c:103:3
	bl	fifo_write_bytes
	ldr	r0, [sp, #24]                   @ 4-byte Reload
	.loc	1 104 16 is_stmt 1              @ source/uart_pkts.c:104:16
	ldr	r0, [r0]
	.loc	1 104 3 is_stmt 0               @ source/uart_pkts.c:104:3
	ldr	r6, __arm_cp.0_5
	mov	r1, r6
	bl	conv2TOD
	ldr	r0, [sp, #20]                   @ 4-byte Reload
	.loc	1 105 52 is_stmt 1              @ source/uart_pkts.c:105:52
	ldrb	r2, [r6, #2]
	.loc	1 105 59 is_stmt 0              @ source/uart_pkts.c:105:59
	ldrb	r3, [r6, #1]
	.loc	1 105 66                        @ source/uart_pkts.c:105:66
	ldrb	r1, [r6]
	.loc	1 105 73                        @ source/uart_pkts.c:105:73
	ldrb	r4, [r6, #3]
	.loc	1 105 80                        @ source/uart_pkts.c:105:80
	ldrb	r5, [r6, #4]
	.loc	1 105 87                        @ source/uart_pkts.c:105:87
	ldrb	r6, [r6, #5]
	.loc	1 105 3                         @ source/uart_pkts.c:105:3
	str	r6, [sp, #12]
	str	r5, [sp, #8]
	str	r4, [sp, #4]
	str	r1, [sp]
	ldr	r1, __arm_cp.0_6
	bl	sprintf
	ldr	r2, [sp, #16]                   @ 4-byte Reload
	ldr	r1, [sp, #20]                   @ 4-byte Reload
	.loc	1 106 20 is_stmt 1              @ source/uart_pkts.c:106:20
	ldr	r0, [sp, #48]
	.loc	1 106 3 is_stmt 0               @ source/uart_pkts.c:106:3
	bl	fifo_write_bytes
	ldr	r0, [sp, #20]                   @ 4-byte Reload
	ldr	r1, [sp, #24]                   @ 4-byte Reload
	.loc	1 107 27 is_stmt 1              @ source/uart_pkts.c:107:27
	ldrh	r2, [r1, #34]
	.loc	1 107 3 is_stmt 0               @ source/uart_pkts.c:107:3
	ldr	r1, __arm_cp.0_7
	bl	sprintf
	ldr	r1, [sp, #20]                   @ 4-byte Reload
	.loc	1 108 20 is_stmt 1              @ source/uart_pkts.c:108:20
	ldr	r0, [sp, #48]
	movs	r2, #5
	.loc	1 108 3 is_stmt 0               @ source/uart_pkts.c:108:3
	bl	fifo_write_bytes
	ldr	r1, [sp, #24]                   @ 4-byte Reload
	.loc	1 109 20 is_stmt 1              @ source/uart_pkts.c:109:20
	ldr	r0, [sp, #48]
	.loc	1 109 3 is_stmt 0               @ source/uart_pkts.c:109:3
	adds	r1, #24
	movs	r2, #3
	str	r2, [sp, #28]                   @ 4-byte Spill
	bl	fifo_write_bytes
	ldr	r1, [sp, #24]                   @ 4-byte Reload
	ldr	r2, [sp, #28]                   @ 4-byte Reload
	.loc	1 110 20 is_stmt 1              @ source/uart_pkts.c:110:20
	ldr	r0, [sp, #48]
	.loc	1 110 3 is_stmt 0               @ source/uart_pkts.c:110:3
	adds	r1, #28
	bl	fifo_write_bytes
	add	r1, sp, #36
	movs	r0, #0
.Ltmp12:
	.loc	1 112 8 is_stmt 1               @ source/uart_pkts.c:112:8
	strb	r0, [r1]
	.loc	1 112 7 is_stmt 0               @ source/uart_pkts.c:112:7
	b	.LBB0_8
.LBB0_8:                                @ =>This Inner Loop Header: Depth=1
	.loc	1 0 7                           @ source/uart_pkts.c:0:7
	add	r0, sp, #36
.Ltmp13:
	.loc	1 112 12                        @ source/uart_pkts.c:112:12
	ldrb	r0, [r0]
.Ltmp14:
	.loc	1 112 3                         @ source/uart_pkts.c:112:3
	cmp	r0, #4
	bhi	.LBB0_11
	b	.LBB0_9
.LBB0_9:                                @   in Loop: Header=BB0_8 Depth=1
.Ltmp15:
	.loc	1 113 15 is_stmt 1              @ source/uart_pkts.c:113:15
	ldr	r0, [sp, #48]
	add	r1, sp, #36
	.loc	1 113 31 is_stmt 0              @ source/uart_pkts.c:113:31
	ldrb	r2, [r1]
	.loc	1 113 17                        @ source/uart_pkts.c:113:17
	ldr	r1, __arm_cp.0_0
	adds	r1, r1, r2
	ldr	r2, __arm_cp.0_10
	ldrb	r1, [r1, r2]
	.loc	1 113 4                         @ source/uart_pkts.c:113:4
	bl	fifo_write
	.loc	1 114 3 is_stmt 1               @ source/uart_pkts.c:114:3
	b	.LBB0_10
.Ltmp16:
.LBB0_10:                               @   in Loop: Header=BB0_8 Depth=1
	.loc	1 112 35                        @ source/uart_pkts.c:112:35
	ldr	r0, [sp, #36]
	adds	r0, r0, #1
	add	r1, sp, #36
	strb	r0, [r1]
	.loc	1 112 3 is_stmt 0               @ source/uart_pkts.c:112:3
	b	.LBB0_8
.Ltmp17:
.LBB0_11:
	.loc	1 0 3                           @ source/uart_pkts.c:0:3
	add	r1, sp, #36
	movs	r0, #0
.Ltmp18:
	.loc	1 116 8 is_stmt 1               @ source/uart_pkts.c:116:8
	strb	r0, [r1]
	.loc	1 116 7 is_stmt 0               @ source/uart_pkts.c:116:7
	b	.LBB0_12
.LBB0_12:                               @ =>This Inner Loop Header: Depth=1
	.loc	1 0 7                           @ source/uart_pkts.c:0:7
	add	r0, sp, #36
.Ltmp19:
	.loc	1 116 12                        @ source/uart_pkts.c:116:12
	ldrb	r0, [r0]
.Ltmp20:
	.loc	1 116 3                         @ source/uart_pkts.c:116:3
	cmp	r0, #1
	bhi	.LBB0_15
	b	.LBB0_13
.LBB0_13:                               @   in Loop: Header=BB0_12 Depth=1
.Ltmp21:
	.loc	1 117 15 is_stmt 1              @ source/uart_pkts.c:117:15
	ldr	r0, [sp, #48]
	add	r1, sp, #36
	.loc	1 117 31 is_stmt 0              @ source/uart_pkts.c:117:31
	ldrb	r2, [r1]
	.loc	1 117 17                        @ source/uart_pkts.c:117:17
	ldr	r1, __arm_cp.0_0
	adds	r1, r1, r2
	ldr	r2, __arm_cp.0_9
	ldrb	r1, [r1, r2]
	.loc	1 117 4                         @ source/uart_pkts.c:117:4
	bl	fifo_write
	.loc	1 118 3 is_stmt 1               @ source/uart_pkts.c:118:3
	b	.LBB0_14
.Ltmp22:
.LBB0_14:                               @   in Loop: Header=BB0_12 Depth=1
	.loc	1 116 36                        @ source/uart_pkts.c:116:36
	ldr	r0, [sp, #36]
	adds	r0, r0, #1
	add	r1, sp, #36
	strb	r0, [r1]
	.loc	1 116 3 is_stmt 0               @ source/uart_pkts.c:116:3
	b	.LBB0_12
.Ltmp23:
.LBB0_15:
	.loc	1 0 3                           @ source/uart_pkts.c:0:3
	add	r1, sp, #36
	movs	r0, #0
.Ltmp24:
	.loc	1 119 8 is_stmt 1               @ source/uart_pkts.c:119:8
	strb	r0, [r1]
	.loc	1 119 7 is_stmt 0               @ source/uart_pkts.c:119:7
	b	.LBB0_16
.LBB0_16:                               @ =>This Inner Loop Header: Depth=1
	.loc	1 0 7                           @ source/uart_pkts.c:0:7
	add	r0, sp, #36
.Ltmp25:
	.loc	1 119 12                        @ source/uart_pkts.c:119:12
	ldrb	r0, [r0]
.Ltmp26:
	.loc	1 119 3                         @ source/uart_pkts.c:119:3
	cmp	r0, #5
	bhi	.LBB0_19
	b	.LBB0_17
.LBB0_17:                               @   in Loop: Header=BB0_16 Depth=1
.Ltmp27:
	.loc	1 120 15 is_stmt 1              @ source/uart_pkts.c:120:15
	ldr	r0, [sp, #48]
	add	r1, sp, #36
	.loc	1 120 31 is_stmt 0              @ source/uart_pkts.c:120:31
	ldrb	r2, [r1]
	.loc	1 120 17                        @ source/uart_pkts.c:120:17
	ldr	r1, __arm_cp.0_0
	adds	r1, r1, r2
	ldr	r2, __arm_cp.0_8
	ldrb	r1, [r1, r2]
	.loc	1 120 4                         @ source/uart_pkts.c:120:4
	bl	fifo_write
	.loc	1 121 3 is_stmt 1               @ source/uart_pkts.c:121:3
	b	.LBB0_18
.Ltmp28:
.LBB0_18:                               @   in Loop: Header=BB0_16 Depth=1
	.loc	1 119 36                        @ source/uart_pkts.c:119:36
	ldr	r0, [sp, #36]
	adds	r0, r0, #1
	add	r1, sp, #36
	strb	r0, [r1]
	.loc	1 119 3 is_stmt 0               @ source/uart_pkts.c:119:3
	b	.LBB0_16
.Ltmp29:
.LBB0_19:
	.loc	1 123 11 is_stmt 1              @ source/uart_pkts.c:123:11
	ldr	r0, [sp, #48]
	.loc	1 123 14 is_stmt 0              @ source/uart_pkts.c:123:14
	ldrh	r0, [r0, #8]
	add	r1, sp, #40
	.loc	1 123 9                         @ source/uart_pkts.c:123:9
	strh	r0, [r1]
	.loc	1 124 20 is_stmt 1              @ source/uart_pkts.c:124:20
	ldr	r0, [sp, #48]
	movs	r2, #2
	.loc	1 124 3 is_stmt 0               @ source/uart_pkts.c:124:3
	bl	fifo_write_bytes
	.loc	1 125 14 is_stmt 1              @ source/uart_pkts.c:125:14
	ldr	r0, [sp, #48]
	movs	r1, #37
	.loc	1 125 3 is_stmt 0               @ source/uart_pkts.c:125:3
	bl	fifo_write
	add	r1, sp, #52
	movs	r0, #0
	.loc	1 126 3 is_stmt 1               @ source/uart_pkts.c:126:3
	strb	r0, [r1]
	b	.LBB0_21
.Ltmp30:
.LBB0_20:
	.loc	1 0 3 is_stmt 0                 @ source/uart_pkts.c:0:3
	add	r1, sp, #52
	movs	r0, #1
	.loc	1 128 2 is_stmt 1               @ source/uart_pkts.c:128:2
	strb	r0, [r1]
	b	.LBB0_21
.LBB0_21:
	.loc	1 0 2 is_stmt 0                 @ source/uart_pkts.c:0:2
	add	r0, sp, #52
	.loc	1 129 1 is_stmt 1               @ source/uart_pkts.c:129:1
	ldrb	r0, [r0]
	.loc	1 129 1 epilogue_begin is_stmt 0 @ source/uart_pkts.c:129:1
	add	sp, #56
	pop	{r4, r5, r6, pc}
.Ltmp31:
	.loc	1 0 1                           @ :0:1
.Ltmp32:
	.p2align	2
@ %bb.22:
__arm_cp.0_0:
	.long	pe
.Lcpi_end0:
	.size	__arm_cp.0_0, .Lcpi_end0-__arm_cp.0_0
__arm_cp.0_1:
	.long	sys
.Lcpi_end1:
	.size	__arm_cp.0_1, .Lcpi_end1-__arm_cp.0_1
__arm_cp.0_2:
	.long	cfg
.Lcpi_end2:
	.size	__arm_cp.0_2, .Lcpi_end2-__arm_cp.0_2
__arm_cp.0_3:
	.long	strg
.Lcpi_end3:
	.size	__arm_cp.0_3, .Lcpi_end3-__arm_cp.0_3
__arm_cp.0_4:
	.long	.L.str
.Lcpi_end4:
	.size	__arm_cp.0_4, .Lcpi_end4-__arm_cp.0_4
__arm_cp.0_5:
	.long	tod
.Lcpi_end5:
	.size	__arm_cp.0_5, .Lcpi_end5-__arm_cp.0_5
__arm_cp.0_6:
	.long	.L.str.1
.Lcpi_end6:
	.size	__arm_cp.0_6, .Lcpi_end6-__arm_cp.0_6
__arm_cp.0_7:
	.long	.L.str.2
.Lcpi_end7:
	.size	__arm_cp.0_7, .Lcpi_end7-__arm_cp.0_7
__arm_cp.0_8:
	.long	5132                            @ 0x140c
.Lcpi_end8:
	.size	__arm_cp.0_8, .Lcpi_end8-__arm_cp.0_8
__arm_cp.0_9:
	.long	5130                            @ 0x140a
.Lcpi_end9:
	.size	__arm_cp.0_9, .Lcpi_end9-__arm_cp.0_9
__arm_cp.0_10:
	.long	5125                            @ 0x1405
.Lcpi_end10:
	.size	__arm_cp.0_10, .Lcpi_end10-__arm_cp.0_10
.Lfunc_end0:
	.size	LINE_COM_write_packet, .Lfunc_end0-LINE_COM_write_packet
	.cfi_endproc
	.cantunwind
	.fnend
                                        @ -- End function
	.section	.text.LINE_COM_read_packet,"ax",%progbits
	.hidden	LINE_COM_read_packet            @ -- Begin function LINE_COM_read_packet
	.globl	LINE_COM_read_packet
	.p2align	2
	.type	LINE_COM_read_packet,%function
	.code	16                              @ @LINE_COM_read_packet
	.thumb_func
LINE_COM_read_packet:
.Lfunc_begin1:
	.loc	1 165 0 is_stmt 1               @ source/uart_pkts.c:165:0
	.fnstart
	.cfi_startproc
@ %bb.0:
	.save	{r4, r5, r6, r7, lr}
	push	{r4, r5, r6, r7, lr}
	.cfi_def_cfa_offset 20
	.cfi_offset lr, -4
	.cfi_offset r7, -8
	.cfi_offset r6, -12
	.cfi_offset r5, -16
	.cfi_offset r4, -20
	.pad	#60
	sub	sp, #60
	.cfi_def_cfa_offset 80
                                        @ kill: def $r2 killed $r1
	str	r0, [sp, #56]
	add	r0, sp, #52
	strb	r1, [r0]
	add	r1, sp, #40
	movs	r0, #1
.Ltmp33:
	.loc	1 167 10 prologue_end           @ source/uart_pkts.c:167:10
	strb	r0, [r1]
	.loc	1 168 22                        @ source/uart_pkts.c:168:22
	ldr	r0, __arm_cp.1_0
	ldr	r0, [r0, #8]
	.loc	1 168 10 is_stmt 0              @ source/uart_pkts.c:168:10
	str	r0, [sp, #36]
	.loc	1 176 2 is_stmt 1               @ source/uart_pkts.c:176:2
	b	.LBB1_1
.LBB1_1:                                @ =>This Loop Header: Depth=1
                                        @     Child Loop BB1_15 Depth 2
                                        @     Child Loop BB1_19 Depth 2
                                        @     Child Loop BB1_23 Depth 2
	.loc	1 176 9 is_stmt 0               @ source/uart_pkts.c:176:9
	ldr	r0, [sp, #56]
	.loc	1 176 12                        @ source/uart_pkts.c:176:12
	ldrb	r0, [r0, #12]
	.loc	1 176 2                         @ source/uart_pkts.c:176:2
	cbz	r0, .LBB1_2
	b	.LBB1_39
.LBB1_2:                                @   in Loop: Header=BB1_1 Depth=1
.Ltmp34:
	.loc	1 177 6 is_stmt 1               @ source/uart_pkts.c:177:6
	ldr	r0, __arm_cp.1_1
	movw	r1, #5152
	adds	r0, r0, r1
	str	r0, [sp, #32]
	.loc	1 178 13                        @ source/uart_pkts.c:178:13
	ldr	r0, [sp, #56]
	add	r1, sp, #48
	.loc	1 178 3 is_stmt 0               @ source/uart_pkts.c:178:3
	str	r1, [sp, #20]                   @ 4-byte Spill
	bl	fifo_read
                                        @ kill: def $r1 killed $r0
.Ltmp35:
	.loc	1 179 6 is_stmt 1               @ source/uart_pkts.c:179:6
	ldr	r0, [sp, #20]                   @ 4-byte Reload
	ldrb	r0, [r0]
.Ltmp36:
	.loc	1 179 6 is_stmt 0               @ source/uart_pkts.c:179:6
	cmp	r0, #58
	bne	.LBB1_4
	b	.LBB1_3
.LBB1_3:                                @   in Loop: Header=BB1_1 Depth=1
	.loc	1 0 6                           @ source/uart_pkts.c:0:6
	add	r0, sp, #52
.Ltmp37:
	.loc	1 180 9 is_stmt 1               @ source/uart_pkts.c:180:9
	ldrb	r1, [r0]
	.loc	1 180 4 is_stmt 0               @ source/uart_pkts.c:180:4
	lsls	r3, r1, #1
	ldr	r2, __arm_cp.1_3
	movs	r1, #0
	.loc	1 180 17                        @ source/uart_pkts.c:180:17
	strh	r1, [r2, r3]
	.loc	1 181 10 is_stmt 1              @ source/uart_pkts.c:181:10
	ldrb	r2, [r0]
	.loc	1 181 4 is_stmt 0               @ source/uart_pkts.c:181:4
	lsls	r3, r2, #1
	ldr	r2, __arm_cp.1_6
	.loc	1 181 18                        @ source/uart_pkts.c:181:18
	strh	r1, [r2, r3]
	.loc	1 182 13 is_stmt 1              @ source/uart_pkts.c:182:13
	ldrb	r2, [r0]
	.loc	1 182 4 is_stmt 0               @ source/uart_pkts.c:182:4
	ldr	r1, __arm_cp.1_2
	movs	r0, #1
	.loc	1 182 21                        @ source/uart_pkts.c:182:21
	strb	r0, [r1, r2]
	.loc	1 183 3 is_stmt 1               @ source/uart_pkts.c:183:3
	b	.LBB1_38
.Ltmp38:
.LBB1_4:                                @   in Loop: Header=BB1_1 Depth=1
	.loc	1 0 3 is_stmt 0                 @ source/uart_pkts.c:0:3
	add	r0, sp, #52
.Ltmp39:
	.loc	1 184 20 is_stmt 1              @ source/uart_pkts.c:184:20
	ldrb	r1, [r0]
	.loc	1 184 11 is_stmt 0              @ source/uart_pkts.c:184:11
	ldr	r0, __arm_cp.1_2
	ldrb	r0, [r0, r1]
.Ltmp40:
	.loc	1 184 11                        @ source/uart_pkts.c:184:11
	cbnz	r0, .LBB1_5
	b	.LBB1_36
.LBB1_5:                                @   in Loop: Header=BB1_1 Depth=1
	.loc	1 0 11                          @ source/uart_pkts.c:0:11
	add	r0, sp, #48
.Ltmp41:
	.loc	1 187 7 is_stmt 1               @ source/uart_pkts.c:187:7
	ldrb	r0, [r0]
.Ltmp42:
	.loc	1 187 7 is_stmt 0               @ source/uart_pkts.c:187:7
	cmp	r0, #37
	beq	.LBB1_6
	b	.LBB1_31
.LBB1_6:                                @   in Loop: Header=BB1_1 Depth=1
	.loc	1 0 7                           @ source/uart_pkts.c:0:7
	add	r2, sp, #52
.Ltmp43:
	.loc	1 188 14 is_stmt 1              @ source/uart_pkts.c:188:14
	str	r2, [sp, #4]                    @ 4-byte Spill
	ldrb	r3, [r2]
	.loc	1 188 5 is_stmt 0               @ source/uart_pkts.c:188:5
	ldr	r1, __arm_cp.1_2
	movs	r0, #0
	.loc	1 188 22                        @ source/uart_pkts.c:188:22
	strb	r0, [r1, r3]
	.loc	1 189 29 is_stmt 1              @ source/uart_pkts.c:189:29
	ldrb	r3, [r2]
	movs	r1, #68
	.loc	1 189 22 is_stmt 0              @ source/uart_pkts.c:189:22
	str	r1, [sp, #8]                    @ 4-byte Spill
	mov	r4, r1
	muls	r4, r3, r4
	ldr	r0, __arm_cp.1_4
	str	r0, [sp, #12]                   @ 4-byte Spill
	adds	r5, r0, r4
	.loc	1 189 43                        @ source/uart_pkts.c:189:43
	lsls	r6, r3, #1
	ldr	r3, __arm_cp.1_3
	ldrh	r4, [r3, r6]
	.loc	1 189 22                        @ source/uart_pkts.c:189:22
	adds	r4, r4, r5
	subs	r4, r4, #1
	ldrb	r7, [r4]
	.loc	1 189 5                         @ source/uart_pkts.c:189:5
	ldr	r4, __arm_cp.1_6
	.loc	1 189 19                        @ source/uart_pkts.c:189:19
	str	r4, [sp, #16]                   @ 4-byte Spill
	ldrh	r5, [r4, r6]
	subs	r5, r5, r7
	strh	r5, [r4, r6]
	.loc	1 190 29 is_stmt 1              @ source/uart_pkts.c:190:29
	ldrb	r5, [r2]
	.loc	1 190 22 is_stmt 0              @ source/uart_pkts.c:190:22
	mov	r6, r1
	muls	r6, r5, r6
	adds	r6, r0, r6
	.loc	1 190 43                        @ source/uart_pkts.c:190:43
	lsls	r5, r5, #1
	ldrh	r3, [r3, r5]
	.loc	1 190 22                        @ source/uart_pkts.c:190:22
	adds	r3, r3, r6
	subs	r3, r3, #2
	ldrb	r6, [r3]
	.loc	1 190 19                        @ source/uart_pkts.c:190:19
	ldrh	r3, [r4, r5]
	subs	r3, r3, r6
	strh	r3, [r4, r5]
	.loc	1 192 41 is_stmt 1              @ source/uart_pkts.c:192:41
	ldrb	r2, [r2]
	.loc	1 192 34 is_stmt 0              @ source/uart_pkts.c:192:34
	muls	r1, r2, r1
	adds	r0, r0, r1
	.loc	1 192 52                        @ source/uart_pkts.c:192:52
	adds	r0, #19
	.loc	1 192 21                        @ source/uart_pkts.c:192:21
	bl	toint
	ldr	r3, [sp, #4]                    @ 4-byte Reload
	ldr	r2, [sp, #8]                    @ 4-byte Reload
	ldr	r1, [sp, #12]                   @ 4-byte Reload
	mov	r4, r0
	.loc	1 192 14                        @ source/uart_pkts.c:192:14
	ldr	r0, [sp, #16]                   @ 4-byte Reload
	str	r4, [sp, #24]
.Ltmp44:
	.loc	1 194 14 is_stmt 1              @ source/uart_pkts.c:194:14
	ldrb	r3, [r3]
	.loc	1 194 8 is_stmt 0               @ source/uart_pkts.c:194:8
	lsls	r4, r3, #1
	ldrh	r0, [r0, r4]
	.loc	1 194 25                        @ source/uart_pkts.c:194:25
	muls	r2, r3, r2
	adds	r2, r1, r2
	.loc	1 194 43                        @ source/uart_pkts.c:194:43
	mov	r1, r2
	adds	r1, #66
	movs	r3, #66
	ldrb	r2, [r2, r3]
	ldrb	r1, [r1, #1]
	lsls	r1, r1, #8
	adds	r1, r1, r2
.Ltmp45:
	.loc	1 194 8                         @ source/uart_pkts.c:194:8
	cmp	r0, r1
	beq	.LBB1_8
	b	.LBB1_7
.LBB1_7:                                @   in Loop: Header=BB1_1 Depth=1
	.loc	1 0 8                           @ source/uart_pkts.c:0:8
	add	r0, sp, #52
.Ltmp46:
	.loc	1 195 24 is_stmt 1              @ source/uart_pkts.c:195:24
	ldrb	r0, [r0]
	.loc	1 195 6 is_stmt 0               @ source/uart_pkts.c:195:6
	lsls	r1, r0, #2
	ldr	r0, __arm_cp.1_5
	adds	r1, r0, r1
	.loc	1 195 31                        @ source/uart_pkts.c:195:31
	ldr	r0, [r1, #96]
	adds	r0, r0, #1
	str	r0, [r1, #96]
	add	r1, sp, #40
	movs	r0, #1
	.loc	1 196 10 is_stmt 1              @ source/uart_pkts.c:196:10
	strb	r0, [r1]
	.loc	1 197 5                         @ source/uart_pkts.c:197:5
	b	.LBB1_30
.Ltmp47:
.LBB1_8:                                @   in Loop: Header=BB1_1 Depth=1
	.loc	1 198 13                        @ source/uart_pkts.c:198:13
	ldr	r0, [sp, #24]
	.loc	1 198 21 is_stmt 0              @ source/uart_pkts.c:198:21
	ldr	r1, [sp, #32]
	.loc	1 198 25                        @ source/uart_pkts.c:198:25
	ldrb	r1, [r1, #3]
.Ltmp48:
	.loc	1 198 13                        @ source/uart_pkts.c:198:13
	cmp	r0, r1
	beq	.LBB1_10
	b	.LBB1_9
.LBB1_9:                                @   in Loop: Header=BB1_1 Depth=1
	.loc	1 0 13                          @ source/uart_pkts.c:0:13
	add	r0, sp, #52
.Ltmp49:
	.loc	1 199 32 is_stmt 1              @ source/uart_pkts.c:199:32
	ldrb	r0, [r0]
	.loc	1 199 6 is_stmt 0               @ source/uart_pkts.c:199:6
	lsls	r1, r0, #2
	ldr	r0, __arm_cp.1_5
	adds	r1, r0, r1
	.loc	1 199 39                        @ source/uart_pkts.c:199:39
	ldr	r0, [r1, #104]
	adds	r0, r0, #1
	str	r0, [r1, #104]
	add	r1, sp, #40
	movs	r0, #1
	.loc	1 200 10 is_stmt 1              @ source/uart_pkts.c:200:10
	strb	r0, [r1]
	.loc	1 201 5                         @ source/uart_pkts.c:201:5
	b	.LBB1_29
.Ltmp50:
.LBB1_10:                               @   in Loop: Header=BB1_1 Depth=1
	.loc	1 0 5 is_stmt 0                 @ source/uart_pkts.c:0:5
	add	r0, sp, #52
.Ltmp51:
	.loc	1 202 20 is_stmt 1              @ source/uart_pkts.c:202:20
	ldrb	r0, [r0]
	movs	r1, #68
	.loc	1 202 13 is_stmt 0              @ source/uart_pkts.c:202:13
	muls	r1, r0, r1
	ldr	r0, __arm_cp.1_4
	.loc	1 202 31                        @ source/uart_pkts.c:202:31
	ldrb	r0, [r0, r1]
.Ltmp52:
	.loc	1 202 13                        @ source/uart_pkts.c:202:13
	cmp	r0, #65
	bne	.LBB1_12
	b	.LBB1_11
.LBB1_11:                               @   in Loop: Header=BB1_1 Depth=1
.Ltmp53:
	.loc	1 203 27 is_stmt 1              @ source/uart_pkts.c:203:27
	ldr	r1, __arm_cp.1_5
	movs	r2, #129
	ldrb	r0, [r1, r2]
	adds	r0, r0, #1
	strb	r0, [r1, r2]
	.loc	1 204 25                        @ source/uart_pkts.c:204:25
	ldr	r1, __arm_cp.1_7
	movw	r0, #300
	strh	r0, [r1, #14]
	add	r1, sp, #40
	movs	r0, #0
	.loc	1 205 10                        @ source/uart_pkts.c:205:10
	strb	r0, [r1]
	.loc	1 206 5                         @ source/uart_pkts.c:206:5
	b	.LBB1_28
.Ltmp54:
.LBB1_12:                               @   in Loop: Header=BB1_1 Depth=1
	.loc	1 0 5 is_stmt 0                 @ source/uart_pkts.c:0:5
	add	r0, sp, #52
.Ltmp55:
	.loc	1 207 20 is_stmt 1              @ source/uart_pkts.c:207:20
	ldrb	r0, [r0]
	movs	r1, #68
	.loc	1 207 13 is_stmt 0              @ source/uart_pkts.c:207:13
	muls	r1, r0, r1
	ldr	r0, __arm_cp.1_4
	.loc	1 207 31                        @ source/uart_pkts.c:207:31
	ldrb	r0, [r0, r1]
.Ltmp56:
	.loc	1 207 13                        @ source/uart_pkts.c:207:13
	cmp	r0, #82
	bne	.LBB1_14
	b	.LBB1_13
.LBB1_13:                               @   in Loop: Header=BB1_1 Depth=1
.Ltmp57:
	.loc	1 208 23 is_stmt 1              @ source/uart_pkts.c:208:23
	ldr	r1, __arm_cp.1_5
	movs	r2, #128
	ldrb	r0, [r1, r2]
	adds	r0, r0, #1
	strb	r0, [r1, r2]
	.loc	1 209 21                        @ source/uart_pkts.c:209:21
	ldr	r1, __arm_cp.1_7
	movw	r0, #300
	strh	r0, [r1, #12]
	add	r1, sp, #40
	movs	r0, #0
	.loc	1 210 10                        @ source/uart_pkts.c:210:10
	strb	r0, [r1]
	.loc	1 211 5                         @ source/uart_pkts.c:211:5
	b	.LBB1_27
.Ltmp58:
.LBB1_14:                               @   in Loop: Header=BB1_1 Depth=1
	.loc	1 213 19                        @ source/uart_pkts.c:213:19
	ldr	r1, __arm_cp.1_5
	movs	r2, #130
	ldrb	r0, [r1, r2]
	adds	r0, r0, #1
	strb	r0, [r1, r2]
	.loc	1 214 21                        @ source/uart_pkts.c:214:21
	ldr	r2, __arm_cp.1_7
	movw	r0, #300
	strh	r0, [r2, #16]
	add	r2, sp, #28
	movs	r0, #0
	.loc	1 215 8                         @ source/uart_pkts.c:215:8
	strh	r0, [r2]
	movs	r2, #129
	.loc	1 216 28                        @ source/uart_pkts.c:216:28
	strb	r0, [r1, r2]
	add	r1, sp, #44
.Ltmp59:
	.loc	1 217 11                        @ source/uart_pkts.c:217:11
	strb	r0, [r1]
	.loc	1 217 10 is_stmt 0              @ source/uart_pkts.c:217:10
	b	.LBB1_15
.LBB1_15:                               @   Parent Loop BB1_1 Depth=1
                                        @ =>  This Inner Loop Header: Depth=2
	.loc	1 0 10                          @ source/uart_pkts.c:0:10
	add	r0, sp, #44
.Ltmp60:
	.loc	1 217 15                        @ source/uart_pkts.c:217:15
	ldrb	r0, [r0]
.Ltmp61:
	.loc	1 217 6                         @ source/uart_pkts.c:217:6
	cmp	r0, #4
	bhi	.LBB1_18
	b	.LBB1_16
.LBB1_16:                               @   in Loop: Header=BB1_15 Depth=2
	.loc	1 0 6                           @ source/uart_pkts.c:0:6
	add	r0, sp, #52
.Ltmp62:
	.loc	1 218 36 is_stmt 1              @ source/uart_pkts.c:218:36
	ldrb	r0, [r0]
	movs	r1, #68
	.loc	1 218 29 is_stmt 0              @ source/uart_pkts.c:218:29
	muls	r1, r0, r1
	ldr	r0, __arm_cp.1_4
	adds	r0, r0, r1
	add	r1, sp, #44
	.loc	1 218 61                        @ source/uart_pkts.c:218:61
	ldrb	r2, [r1]
	.loc	1 218 47                        @ source/uart_pkts.c:218:47
	adds	r0, r0, r2
	movs	r1, #53
	.loc	1 218 29                        @ source/uart_pkts.c:218:29
	ldrb	r0, [r0, r1]
	add	r1, sp, #28
	.loc	1 218 22                        @ source/uart_pkts.c:218:22
	ldrh	r1, [r1]
	.loc	1 218 23                        @ source/uart_pkts.c:218:23
	adds	r2, r1, r2
	.loc	1 218 7                         @ source/uart_pkts.c:218:7
	ldr	r1, __arm_cp.1_8
	.loc	1 218 27                        @ source/uart_pkts.c:218:27
	strb	r0, [r1, r2]
	.loc	1 219 6 is_stmt 1               @ source/uart_pkts.c:219:6
	b	.LBB1_17
.Ltmp63:
.LBB1_17:                               @   in Loop: Header=BB1_15 Depth=2
	.loc	1 217 38                        @ source/uart_pkts.c:217:38
	ldr	r0, [sp, #44]
	adds	r0, r0, #1
	add	r1, sp, #44
	strb	r0, [r1]
	.loc	1 217 6 is_stmt 0               @ source/uart_pkts.c:217:6
	b	.LBB1_15
.Ltmp64:
.LBB1_18:                               @   in Loop: Header=BB1_1 Depth=1
	.loc	1 220 8 is_stmt 1               @ source/uart_pkts.c:220:8
	ldr	r0, [sp, #28]
	adds	r0, r0, #5
	add	r1, sp, #28
	strh	r0, [r1]
	add	r1, sp, #44
	movs	r0, #0
.Ltmp65:
	.loc	1 221 11                        @ source/uart_pkts.c:221:11
	strb	r0, [r1]
	.loc	1 221 10 is_stmt 0              @ source/uart_pkts.c:221:10
	b	.LBB1_19
.LBB1_19:                               @   Parent Loop BB1_1 Depth=1
                                        @ =>  This Inner Loop Header: Depth=2
	.loc	1 0 10                          @ source/uart_pkts.c:0:10
	add	r0, sp, #44
.Ltmp66:
	.loc	1 221 15                        @ source/uart_pkts.c:221:15
	ldrb	r0, [r0]
.Ltmp67:
	.loc	1 221 6                         @ source/uart_pkts.c:221:6
	cmp	r0, #1
	bhi	.LBB1_22
	b	.LBB1_20
.LBB1_20:                               @   in Loop: Header=BB1_19 Depth=2
	.loc	1 0 6                           @ source/uart_pkts.c:0:6
	add	r0, sp, #52
.Ltmp68:
	.loc	1 222 36 is_stmt 1              @ source/uart_pkts.c:222:36
	ldrb	r0, [r0]
	movs	r1, #68
	.loc	1 222 29 is_stmt 0              @ source/uart_pkts.c:222:29
	muls	r1, r0, r1
	ldr	r0, __arm_cp.1_4
	adds	r0, r0, r1
	add	r1, sp, #44
	.loc	1 222 61                        @ source/uart_pkts.c:222:61
	ldrb	r2, [r1]
	.loc	1 222 47                        @ source/uart_pkts.c:222:47
	adds	r0, r0, r2
	movs	r1, #58
	.loc	1 222 29                        @ source/uart_pkts.c:222:29
	ldrb	r0, [r0, r1]
	add	r1, sp, #28
	.loc	1 222 22                        @ source/uart_pkts.c:222:22
	ldrh	r1, [r1]
	.loc	1 222 23                        @ source/uart_pkts.c:222:23
	adds	r2, r1, r2
	.loc	1 222 7                         @ source/uart_pkts.c:222:7
	ldr	r1, __arm_cp.1_8
	.loc	1 222 27                        @ source/uart_pkts.c:222:27
	strb	r0, [r1, r2]
	.loc	1 223 6 is_stmt 1               @ source/uart_pkts.c:223:6
	b	.LBB1_21
.Ltmp69:
.LBB1_21:                               @   in Loop: Header=BB1_19 Depth=2
	.loc	1 221 39                        @ source/uart_pkts.c:221:39
	ldr	r0, [sp, #44]
	adds	r0, r0, #1
	add	r1, sp, #44
	strb	r0, [r1]
	.loc	1 221 6 is_stmt 0               @ source/uart_pkts.c:221:6
	b	.LBB1_19
.Ltmp70:
.LBB1_22:                               @   in Loop: Header=BB1_1 Depth=1
	.loc	1 224 8 is_stmt 1               @ source/uart_pkts.c:224:8
	ldr	r0, [sp, #28]
	adds	r0, r0, #2
	add	r1, sp, #28
	strh	r0, [r1]
	add	r1, sp, #44
	movs	r0, #0
.Ltmp71:
	.loc	1 225 11                        @ source/uart_pkts.c:225:11
	strb	r0, [r1]
	.loc	1 225 10 is_stmt 0              @ source/uart_pkts.c:225:10
	b	.LBB1_23
.LBB1_23:                               @   Parent Loop BB1_1 Depth=1
                                        @ =>  This Inner Loop Header: Depth=2
	.loc	1 0 10                          @ source/uart_pkts.c:0:10
	add	r0, sp, #44
.Ltmp72:
	.loc	1 225 15                        @ source/uart_pkts.c:225:15
	ldrb	r0, [r0]
.Ltmp73:
	.loc	1 225 6                         @ source/uart_pkts.c:225:6
	cmp	r0, #5
	bhi	.LBB1_26
	b	.LBB1_24
.LBB1_24:                               @   in Loop: Header=BB1_23 Depth=2
	.loc	1 0 6                           @ source/uart_pkts.c:0:6
	add	r0, sp, #52
.Ltmp74:
	.loc	1 226 36 is_stmt 1              @ source/uart_pkts.c:226:36
	ldrb	r0, [r0]
	movs	r1, #68
	.loc	1 226 29 is_stmt 0              @ source/uart_pkts.c:226:29
	muls	r1, r0, r1
	ldr	r0, __arm_cp.1_4
	adds	r0, r0, r1
	add	r1, sp, #44
	.loc	1 226 61                        @ source/uart_pkts.c:226:61
	ldrb	r2, [r1]
	.loc	1 226 47                        @ source/uart_pkts.c:226:47
	adds	r0, r0, r2
	movs	r1, #60
	.loc	1 226 29                        @ source/uart_pkts.c:226:29
	ldrb	r0, [r0, r1]
	add	r1, sp, #28
	.loc	1 226 22                        @ source/uart_pkts.c:226:22
	ldrh	r1, [r1]
	.loc	1 226 23                        @ source/uart_pkts.c:226:23
	adds	r2, r1, r2
	.loc	1 226 7                         @ source/uart_pkts.c:226:7
	ldr	r1, __arm_cp.1_8
	.loc	1 226 27                        @ source/uart_pkts.c:226:27
	strb	r0, [r1, r2]
	.loc	1 227 6 is_stmt 1               @ source/uart_pkts.c:227:6
	b	.LBB1_25
.Ltmp75:
.LBB1_25:                               @   in Loop: Header=BB1_23 Depth=2
	.loc	1 225 39                        @ source/uart_pkts.c:225:39
	ldr	r0, [sp, #44]
	adds	r0, r0, #1
	add	r1, sp, #44
	strb	r0, [r1]
	.loc	1 225 6 is_stmt 0               @ source/uart_pkts.c:225:6
	b	.LBB1_23
.Ltmp76:
.LBB1_26:                               @   in Loop: Header=BB1_1 Depth=1
	.loc	1 0 6                           @ source/uart_pkts.c:0:6
	add	r1, sp, #40
	movs	r0, #0
	.loc	1 228 10 is_stmt 1              @ source/uart_pkts.c:228:10
	strb	r0, [r1]
	b	.LBB1_27
.Ltmp77:
.LBB1_27:                               @   in Loop: Header=BB1_1 Depth=1
	.loc	1 0 10 is_stmt 0                @ source/uart_pkts.c:0:10
	b	.LBB1_28
.LBB1_28:                               @   in Loop: Header=BB1_1 Depth=1
	b	.LBB1_29
.LBB1_29:                               @   in Loop: Header=BB1_1 Depth=1
	b	.LBB1_30
.LBB1_30:                               @   in Loop: Header=BB1_1 Depth=1
	.loc	1 230 4 is_stmt 1               @ source/uart_pkts.c:230:4
	b	.LBB1_35
.Ltmp78:
.LBB1_31:                               @   in Loop: Header=BB1_1 Depth=1
	.loc	1 0 4 is_stmt 0                 @ source/uart_pkts.c:0:4
	add	r1, sp, #44
	movs	r0, #68
.Ltmp79:
	.loc	1 232 7 is_stmt 1               @ source/uart_pkts.c:232:7
	strb	r0, [r1]
	add	r0, sp, #52
.Ltmp80:
	.loc	1 234 13                        @ source/uart_pkts.c:234:13
	ldrb	r0, [r0]
	.loc	1 234 8 is_stmt 0               @ source/uart_pkts.c:234:8
	lsls	r2, r0, #1
	ldr	r0, __arm_cp.1_3
	ldrh	r0, [r0, r2]
	.loc	1 234 24                        @ source/uart_pkts.c:234:24
	ldrb	r1, [r1]
.Ltmp81:
	.loc	1 234 8                         @ source/uart_pkts.c:234:8
	cmp	r0, r1
	bne	.LBB1_33
	b	.LBB1_32
.LBB1_32:                               @   in Loop: Header=BB1_1 Depth=1
	.loc	1 0 8                           @ source/uart_pkts.c:0:8
	add	r0, sp, #52
.Ltmp82:
	.loc	1 235 15 is_stmt 1              @ source/uart_pkts.c:235:15
	ldrb	r3, [r0]
	.loc	1 235 6 is_stmt 0               @ source/uart_pkts.c:235:6
	ldr	r2, __arm_cp.1_2
	movs	r1, #0
	.loc	1 235 23                        @ source/uart_pkts.c:235:23
	strb	r1, [r2, r3]
	.loc	1 236 33 is_stmt 1              @ source/uart_pkts.c:236:33
	ldrb	r0, [r0]
	.loc	1 236 6 is_stmt 0               @ source/uart_pkts.c:236:6
	lsls	r1, r0, #2
	ldr	r0, __arm_cp.1_5
	adds	r1, r0, r1
	.loc	1 236 40                        @ source/uart_pkts.c:236:40
	ldr	r0, [r1, #112]
	adds	r0, r0, #1
	str	r0, [r1, #112]
	add	r1, sp, #40
	movs	r0, #1
	.loc	1 237 10 is_stmt 1              @ source/uart_pkts.c:237:10
	strb	r0, [r1]
	.loc	1 238 5                         @ source/uart_pkts.c:238:5
	b	.LBB1_34
.Ltmp83:
.LBB1_33:                               @   in Loop: Header=BB1_1 Depth=1
	.loc	1 240 43                        @ source/uart_pkts.c:240:43
	ldr	r2, [sp, #48]
	add	r0, sp, #52
	.loc	1 240 13 is_stmt 0              @ source/uart_pkts.c:240:13
	ldrb	r1, [r0]
	movs	r4, #68
	.loc	1 240 6                         @ source/uart_pkts.c:240:6
	muls	r4, r1, r4
	ldr	r3, __arm_cp.1_4
	adds	r3, r3, r4
	.loc	1 240 27                        @ source/uart_pkts.c:240:27
	lsls	r4, r1, #1
	ldr	r1, __arm_cp.1_3
	ldrh	r4, [r1, r4]
	.loc	1 240 41                        @ source/uart_pkts.c:240:41
	strb	r2, [r3, r4]
	.loc	1 241 11 is_stmt 1              @ source/uart_pkts.c:241:11
	ldrb	r0, [r0]
	.loc	1 241 6 is_stmt 0               @ source/uart_pkts.c:241:6
	lsls	r2, r0, #1
	.loc	1 241 18                        @ source/uart_pkts.c:241:18
	ldrh	r0, [r1, r2]
	adds	r0, r0, #1
	strh	r0, [r1, r2]
	b	.LBB1_34
.Ltmp84:
.LBB1_34:                               @   in Loop: Header=BB1_1 Depth=1
	.loc	1 0 18                          @ source/uart_pkts.c:0:18
	b	.LBB1_35
.LBB1_35:                               @   in Loop: Header=BB1_1 Depth=1
	add	r0, sp, #48
	.loc	1 244 21 is_stmt 1              @ source/uart_pkts.c:244:21
	ldrb	r3, [r0]
	add	r0, sp, #52
	.loc	1 244 10 is_stmt 0              @ source/uart_pkts.c:244:10
	ldrb	r0, [r0]
	.loc	1 244 4                         @ source/uart_pkts.c:244:4
	lsls	r2, r0, #1
	ldr	r1, __arm_cp.1_6
	.loc	1 244 18                        @ source/uart_pkts.c:244:18
	ldrh	r0, [r1, r2]
	adds	r0, r0, r3
	strh	r0, [r1, r2]
	.loc	1 245 3 is_stmt 1               @ source/uart_pkts.c:245:3
	b	.LBB1_37
.Ltmp85:
.LBB1_36:                               @   in Loop: Header=BB1_1 Depth=1
	.loc	1 0 3 is_stmt 0                 @ source/uart_pkts.c:0:3
	b	.LBB1_37
.LBB1_37:                               @   in Loop: Header=BB1_1 Depth=1
	b	.LBB1_38
.LBB1_38:                               @   in Loop: Header=BB1_1 Depth=1
	.loc	1 176 2 is_stmt 1               @ source/uart_pkts.c:176:2
	b	.LBB1_1
.LBB1_39:
	.loc	1 0 2 is_stmt 0                 @ source/uart_pkts.c:0:2
	add	r0, sp, #40
	.loc	1 250 9 is_stmt 1               @ source/uart_pkts.c:250:9
	ldrb	r0, [r0]
	.loc	1 250 2 epilogue_begin is_stmt 0 @ source/uart_pkts.c:250:2
	add	sp, #60
	pop	{r4, r5, r6, r7, pc}
.Ltmp86:
	.loc	1 0 2                           @ :0:2
.Ltmp87:
	.p2align	2
@ %bb.40:
__arm_cp.1_0:
	.long	uart_el
.Lcpi_end11:
	.size	__arm_cp.1_0, .Lcpi_end11-__arm_cp.1_0
__arm_cp.1_1:
	.long	pe
.Lcpi_end12:
	.size	__arm_cp.1_1, .Lcpi_end12-__arm_cp.1_1
__arm_cp.1_2:
	.long	LINE_COM_read_packet.sof_rcvd
.Lcpi_end13:
	.size	__arm_cp.1_2, .Lcpi_end13-__arm_cp.1_2
__arm_cp.1_3:
	.long	LINE_COM_read_packet.indx
.Lcpi_end14:
	.size	__arm_cp.1_3, .Lcpi_end14-__arm_cp.1_3
__arm_cp.1_4:
	.long	oe_pkt
.Lcpi_end15:
	.size	__arm_cp.1_4, .Lcpi_end15-__arm_cp.1_4
__arm_cp.1_5:
	.long	sys
.Lcpi_end16:
	.size	__arm_cp.1_5, .Lcpi_end16-__arm_cp.1_5
__arm_cp.1_6:
	.long	LINE_COM_read_packet.cksum
.Lcpi_end17:
	.size	__arm_cp.1_6, .Lcpi_end17-__arm_cp.1_6
__arm_cp.1_7:
	.long	tmr
.Lcpi_end18:
	.size	__arm_cp.1_7, .Lcpi_end18-__arm_cp.1_7
__arm_cp.1_8:
	.long	oe_relay_state
.Lcpi_end19:
	.size	__arm_cp.1_8, .Lcpi_end19-__arm_cp.1_8
.Lfunc_end1:
	.size	LINE_COM_read_packet, .Lfunc_end1-LINE_COM_read_packet
	.cfi_endproc
	.cantunwind
	.fnend
                                        @ -- End function
	.section	.text.wr_sys_status_pkt,"ax",%progbits
	.hidden	wr_sys_status_pkt               @ -- Begin function wr_sys_status_pkt
	.globl	wr_sys_status_pkt
	.p2align	2
	.type	wr_sys_status_pkt,%function
	.code	16                              @ @wr_sys_status_pkt
	.thumb_func
wr_sys_status_pkt:
.Lfunc_begin2:
	.loc	1 282 0 is_stmt 1               @ source/uart_pkts.c:282:0
	.fnstart
	.cfi_startproc
@ %bb.0:
	.save	{r4, r5, r7, lr}
	push	{r4, r5, r7, lr}
	.cfi_def_cfa_offset 16
	.cfi_offset lr, -4
	.cfi_offset r7, -8
	.cfi_offset r5, -12
	.cfi_offset r4, -16
	.pad	#40
	sub	sp, #40
	.cfi_def_cfa_offset 56
	str	r0, [sp, #32]
.Ltmp88:
	.loc	1 283 5 prologue_end            @ source/uart_pkts.c:283:5
	ldr	r0, [sp, #32]
	.loc	1 283 8 is_stmt 0               @ source/uart_pkts.c:283:8
	ldrb	r0, [r0, #12]
.Ltmp89:
	.loc	1 283 5                         @ source/uart_pkts.c:283:5
	cmp	r0, #0
	beq	.LBB2_2
	b	.LBB2_1
.LBB2_1:
.Ltmp90:
	.loc	1 284 14 is_stmt 1              @ source/uart_pkts.c:284:14
	ldr	r0, [sp, #32]
	movs	r1, #37
	.loc	1 284 3 is_stmt 0               @ source/uart_pkts.c:284:3
	bl	fifo_write
	.loc	1 285 14 is_stmt 1              @ source/uart_pkts.c:285:14
	ldr	r0, [sp, #32]
	movs	r1, #68
	.loc	1 285 3 is_stmt 0               @ source/uart_pkts.c:285:3
	bl	fifo_write
	.loc	1 286 16 is_stmt 1              @ source/uart_pkts.c:286:16
	ldr	r0, __arm_cp.2_0
	str	r0, [sp, #24]                   @ 4-byte Spill
	ldr	r0, [r0]
	.loc	1 286 3 is_stmt 0               @ source/uart_pkts.c:286:3
	ldr	r5, __arm_cp.2_1
	mov	r1, r5
	bl	conv2TOD
	.loc	1 287 52 is_stmt 1              @ source/uart_pkts.c:287:52
	ldrb	r2, [r5, #2]
	.loc	1 287 59 is_stmt 0              @ source/uart_pkts.c:287:59
	ldrb	r3, [r5, #1]
	.loc	1 287 66                        @ source/uart_pkts.c:287:66
	ldrb	r0, [r5]
	.loc	1 287 73                        @ source/uart_pkts.c:287:73
	ldrb	r1, [r5, #3]
	.loc	1 287 80                        @ source/uart_pkts.c:287:80
	ldrb	r4, [r5, #4]
	.loc	1 287 87                        @ source/uart_pkts.c:287:87
	ldrb	r5, [r5, #5]
	.loc	1 287 3                         @ source/uart_pkts.c:287:3
	str	r5, [sp, #12]
	str	r4, [sp, #8]
	str	r1, [sp, #4]
	str	r0, [sp]
	ldr	r0, __arm_cp.2_2
	str	r0, [sp, #16]                   @ 4-byte Spill
	ldr	r1, __arm_cp.2_3
	bl	sprintf
	ldr	r1, [sp, #16]                   @ 4-byte Reload
	.loc	1 288 20 is_stmt 1              @ source/uart_pkts.c:288:20
	ldr	r0, [sp, #32]
	movs	r2, #17
	.loc	1 288 3 is_stmt 0               @ source/uart_pkts.c:288:3
	bl	fifo_write_bytes
	ldr	r0, [sp, #16]                   @ 4-byte Reload
	ldr	r1, [sp, #24]                   @ 4-byte Reload
	.loc	1 289 27 is_stmt 1              @ source/uart_pkts.c:289:27
	ldrh	r2, [r1, #34]
	.loc	1 289 3 is_stmt 0               @ source/uart_pkts.c:289:3
	ldr	r1, __arm_cp.2_4
	bl	sprintf
	ldr	r1, [sp, #16]                   @ 4-byte Reload
	.loc	1 290 20 is_stmt 1              @ source/uart_pkts.c:290:20
	ldr	r0, [sp, #32]
	movs	r2, #5
	.loc	1 290 3 is_stmt 0               @ source/uart_pkts.c:290:3
	bl	fifo_write_bytes
	ldr	r0, [sp, #16]                   @ 4-byte Reload
	ldr	r1, [sp, #24]                   @ 4-byte Reload
	movs	r2, #32
	.loc	1 291 25 is_stmt 1              @ source/uart_pkts.c:291:25
	ldrb	r2, [r1, r2]
	.loc	1 291 3 is_stmt 0               @ source/uart_pkts.c:291:3
	ldr	r1, __arm_cp.2_5
	bl	sprintf
	ldr	r1, [sp, #16]                   @ 4-byte Reload
	.loc	1 292 20 is_stmt 1              @ source/uart_pkts.c:292:20
	ldr	r0, [sp, #32]
	movs	r2, #1
	.loc	1 292 3 is_stmt 0               @ source/uart_pkts.c:292:3
	bl	fifo_write_bytes
	.loc	1 293 14 is_stmt 1              @ source/uart_pkts.c:293:14
	ldr	r0, [sp, #32]
	.loc	1 293 20 is_stmt 0              @ source/uart_pkts.c:293:20
	ldr	r1, __arm_cp.2_6
	movs	r2, #64
	ldrb	r1, [r1, r2]
	.loc	1 293 3                         @ source/uart_pkts.c:293:3
	bl	fifo_write
	ldr	r2, [sp, #24]                   @ 4-byte Reload
                                        @ kill: def $r1 killed $r0
	.loc	1 294 3 is_stmt 1               @ source/uart_pkts.c:294:3
	ldr	r0, [sp, #16]                   @ 4-byte Reload
	adds	r2, #24
	str	r2, [sp, #20]                   @ 4-byte Spill
	ldr	r1, __arm_cp.2_7
	bl	sprintf
	ldr	r1, [sp, #20]                   @ 4-byte Reload
	.loc	1 295 20                        @ source/uart_pkts.c:295:20
	ldr	r0, [sp, #32]
	movs	r2, #3
	.loc	1 295 3 is_stmt 0               @ source/uart_pkts.c:295:3
	str	r2, [sp, #28]                   @ 4-byte Spill
	bl	fifo_write_bytes
	ldr	r1, [sp, #24]                   @ 4-byte Reload
	ldr	r2, [sp, #28]                   @ 4-byte Reload
	.loc	1 296 20 is_stmt 1              @ source/uart_pkts.c:296:20
	ldr	r0, [sp, #32]
	.loc	1 296 3 is_stmt 0               @ source/uart_pkts.c:296:3
	adds	r1, #28
	bl	fifo_write_bytes
	.loc	1 297 14 is_stmt 1              @ source/uart_pkts.c:297:14
	ldr	r0, [sp, #32]
	movs	r1, #36
	.loc	1 297 3 is_stmt 0               @ source/uart_pkts.c:297:3
	bl	fifo_write
	.loc	1 298 14 is_stmt 1              @ source/uart_pkts.c:298:14
	ldr	r0, [sp, #32]
	movs	r1, #10
	.loc	1 298 3 is_stmt 0               @ source/uart_pkts.c:298:3
	bl	fifo_write
	add	r1, sp, #36
	movs	r0, #0
	.loc	1 299 3 is_stmt 1               @ source/uart_pkts.c:299:3
	strb	r0, [r1]
	b	.LBB2_3
.Ltmp91:
.LBB2_2:
	.loc	1 0 3 is_stmt 0                 @ source/uart_pkts.c:0:3
	add	r1, sp, #36
	movs	r0, #1
	.loc	1 301 2 is_stmt 1               @ source/uart_pkts.c:301:2
	strb	r0, [r1]
	b	.LBB2_3
.LBB2_3:
	.loc	1 0 2 is_stmt 0                 @ source/uart_pkts.c:0:2
	add	r0, sp, #36
	.loc	1 302 1 is_stmt 1               @ source/uart_pkts.c:302:1
	ldrb	r0, [r0]
	.loc	1 302 1 epilogue_begin is_stmt 0 @ source/uart_pkts.c:302:1
	add	sp, #40
	pop	{r4, r5, r7, pc}
.Ltmp92:
	.loc	1 0 1                           @ :0:1
.Ltmp93:
	.p2align	2
@ %bb.4:
__arm_cp.2_0:
	.long	sys
.Lcpi_end20:
	.size	__arm_cp.2_0, .Lcpi_end20-__arm_cp.2_0
__arm_cp.2_1:
	.long	tod
.Lcpi_end21:
	.size	__arm_cp.2_1, .Lcpi_end21-__arm_cp.2_1
__arm_cp.2_2:
	.long	strg
.Lcpi_end22:
	.size	__arm_cp.2_2, .Lcpi_end22-__arm_cp.2_2
__arm_cp.2_3:
	.long	.L.str.3
.Lcpi_end23:
	.size	__arm_cp.2_3, .Lcpi_end23-__arm_cp.2_3
__arm_cp.2_4:
	.long	.L.str.2
.Lcpi_end24:
	.size	__arm_cp.2_4, .Lcpi_end24-__arm_cp.2_4
__arm_cp.2_5:
	.long	.L.str.4
.Lcpi_end25:
	.size	__arm_cp.2_5, .Lcpi_end25-__arm_cp.2_5
__arm_cp.2_6:
	.long	cfg
.Lcpi_end26:
	.size	__arm_cp.2_6, .Lcpi_end26-__arm_cp.2_6
__arm_cp.2_7:
	.long	.L.str.5
.Lcpi_end27:
	.size	__arm_cp.2_7, .Lcpi_end27-__arm_cp.2_7
.Lfunc_end2:
	.size	wr_sys_status_pkt, .Lfunc_end2-wr_sys_status_pkt
	.cfi_endproc
	.cantunwind
	.fnend
                                        @ -- End function
	.section	.text.wr_card_status_pkt,"ax",%progbits
	.hidden	wr_card_status_pkt              @ -- Begin function wr_card_status_pkt
	.globl	wr_card_status_pkt
	.p2align	2
	.type	wr_card_status_pkt,%function
	.code	16                              @ @wr_card_status_pkt
	.thumb_func
wr_card_status_pkt:
.Lfunc_begin3:
	.loc	1 335 0 is_stmt 1               @ source/uart_pkts.c:335:0
	.fnstart
	.cfi_startproc
@ %bb.0:
	.save	{r4, r5, r7, lr}
	push	{r4, r5, r7, lr}
	.cfi_def_cfa_offset 16
	.cfi_offset lr, -4
	.cfi_offset r7, -8
	.cfi_offset r5, -12
	.cfi_offset r4, -16
	.pad	#40
	sub	sp, #40
	.cfi_def_cfa_offset 56
	str	r0, [sp, #32]
.Ltmp94:
	.loc	1 339 5 prologue_end            @ source/uart_pkts.c:339:5
	ldr	r0, [sp, #32]
	.loc	1 339 8 is_stmt 0               @ source/uart_pkts.c:339:8
	ldrb	r0, [r0, #12]
.Ltmp95:
	.loc	1 339 5                         @ source/uart_pkts.c:339:5
	cbnz	r0, .LBB3_1
	b	.LBB3_21
.LBB3_1:
.Ltmp96:
	.loc	1 340 6 is_stmt 1               @ source/uart_pkts.c:340:6
	ldr	r0, __arm_cp.3_0
	movw	r1, #5152
	adds	r0, r0, r1
	str	r0, [sp, #24]
	.loc	1 342 14                        @ source/uart_pkts.c:342:14
	ldr	r0, [sp, #32]
	movs	r1, #37
	.loc	1 342 3 is_stmt 0               @ source/uart_pkts.c:342:3
	bl	fifo_write
	.loc	1 343 14 is_stmt 1              @ source/uart_pkts.c:343:14
	ldr	r0, [sp, #32]
	movs	r1, #83
	.loc	1 343 3 is_stmt 0               @ source/uart_pkts.c:343:3
	bl	fifo_write
	.loc	1 344 16 is_stmt 1              @ source/uart_pkts.c:344:16
	ldr	r0, __arm_cp.3_1
	ldr	r0, [r0]
	.loc	1 344 3 is_stmt 0               @ source/uart_pkts.c:344:3
	ldr	r5, __arm_cp.3_2
	mov	r1, r5
	bl	conv2TOD
	.loc	1 345 52 is_stmt 1              @ source/uart_pkts.c:345:52
	ldrb	r2, [r5, #2]
	.loc	1 345 59 is_stmt 0              @ source/uart_pkts.c:345:59
	ldrb	r3, [r5, #1]
	.loc	1 345 66                        @ source/uart_pkts.c:345:66
	ldrb	r0, [r5]
	.loc	1 345 73                        @ source/uart_pkts.c:345:73
	ldrb	r1, [r5, #3]
	.loc	1 345 80                        @ source/uart_pkts.c:345:80
	ldrb	r4, [r5, #4]
	.loc	1 345 87                        @ source/uart_pkts.c:345:87
	ldrb	r5, [r5, #5]
	.loc	1 345 3                         @ source/uart_pkts.c:345:3
	str	r5, [sp, #12]
	str	r4, [sp, #8]
	str	r1, [sp, #4]
	str	r0, [sp]
	ldr	r0, __arm_cp.3_3
	str	r0, [sp, #20]                   @ 4-byte Spill
	ldr	r1, __arm_cp.3_4
	bl	sprintf
	ldr	r1, [sp, #20]                   @ 4-byte Reload
	.loc	1 346 20 is_stmt 1              @ source/uart_pkts.c:346:20
	ldr	r0, [sp, #32]
	movs	r2, #17
	.loc	1 346 3 is_stmt 0               @ source/uart_pkts.c:346:3
	bl	fifo_write_bytes
	add	r1, sp, #28
	movs	r0, #0
.Ltmp97:
	.loc	1 347 8 is_stmt 1               @ source/uart_pkts.c:347:8
	strb	r0, [r1]
	.loc	1 347 7 is_stmt 0               @ source/uart_pkts.c:347:7
	b	.LBB3_2
.LBB3_2:                                @ =>This Inner Loop Header: Depth=1
	.loc	1 0 7                           @ source/uart_pkts.c:0:7
	add	r0, sp, #28
.Ltmp98:
	.loc	1 347 12                        @ source/uart_pkts.c:347:12
	ldrb	r0, [r0]
.Ltmp99:
	.loc	1 347 3                         @ source/uart_pkts.c:347:3
	cmp	r0, #3
	bhi	.LBB3_5
	b	.LBB3_3
.LBB3_3:                                @   in Loop: Header=BB3_2 Depth=1
	.loc	1 0 3                           @ source/uart_pkts.c:0:3
	add	r0, sp, #28
.Ltmp100:
	.loc	1 348 27 is_stmt 1              @ source/uart_pkts.c:348:27
	ldrb	r0, [r0]
	ldr	r1, __arm_cp.3_5
	.loc	1 348 24 is_stmt 0              @ source/uart_pkts.c:348:24
	muls	r1, r0, r1
	ldr	r0, __arm_cp.3_0
	adds	r0, r0, r1
	.loc	1 348 30                        @ source/uart_pkts.c:348:30
	ldrb	r2, [r0, #12]
	.loc	1 348 4                         @ source/uart_pkts.c:348:4
	ldr	r0, __arm_cp.3_3
	str	r0, [sp, #16]                   @ 4-byte Spill
	ldr	r1, __arm_cp.3_6
	bl	sprintf
	ldr	r1, [sp, #16]                   @ 4-byte Reload
	.loc	1 349 21 is_stmt 1              @ source/uart_pkts.c:349:21
	ldr	r0, [sp, #32]
	movs	r2, #5
	.loc	1 349 4 is_stmt 0               @ source/uart_pkts.c:349:4
	bl	fifo_write_bytes
	.loc	1 350 3 is_stmt 1               @ source/uart_pkts.c:350:3
	b	.LBB3_4
.Ltmp101:
.LBB3_4:                                @   in Loop: Header=BB3_2 Depth=1
	.loc	1 347 18                        @ source/uart_pkts.c:347:18
	ldr	r0, [sp, #28]
	adds	r0, r0, #1
	add	r1, sp, #28
	strb	r0, [r1]
	.loc	1 347 3 is_stmt 0               @ source/uart_pkts.c:347:3
	b	.LBB3_2
.Ltmp102:
.LBB3_5:
	.loc	1 352 6 is_stmt 1               @ source/uart_pkts.c:352:6
	ldr	r0, [sp, #24]
	.loc	1 352 10 is_stmt 0              @ source/uart_pkts.c:352:10
	ldrb	r0, [r0]
	lsls	r0, r0, #29
	lsrs	r0, r0, #31
.Ltmp103:
	.loc	1 352 6                         @ source/uart_pkts.c:352:6
	cbz	r0, .LBB3_7
	b	.LBB3_6
.LBB3_6:
.Ltmp104:
	.loc	1 353 15 is_stmt 1              @ source/uart_pkts.c:353:15
	ldr	r0, [sp, #32]
	movs	r1, #80
	.loc	1 353 4 is_stmt 0               @ source/uart_pkts.c:353:4
	bl	fifo_write
	.loc	1 354 3 is_stmt 1               @ source/uart_pkts.c:354:3
	b	.LBB3_8
.Ltmp105:
.LBB3_7:
	.loc	1 356 15                        @ source/uart_pkts.c:356:15
	ldr	r0, [sp, #32]
	movs	r1, #65
	.loc	1 356 4 is_stmt 0               @ source/uart_pkts.c:356:4
	bl	fifo_write
	b	.LBB3_8
.Ltmp106:
.LBB3_8:
	.loc	1 358 6 is_stmt 1               @ source/uart_pkts.c:358:6
	ldr	r0, [sp, #24]
	.loc	1 358 10 is_stmt 0              @ source/uart_pkts.c:358:10
	ldrb	r0, [r0]
	lsls	r0, r0, #28
	lsrs	r0, r0, #31
.Ltmp107:
	.loc	1 358 6                         @ source/uart_pkts.c:358:6
	cbz	r0, .LBB3_10
	b	.LBB3_9
.LBB3_9:
.Ltmp108:
	.loc	1 359 15 is_stmt 1              @ source/uart_pkts.c:359:15
	ldr	r0, [sp, #32]
	movs	r1, #80
	.loc	1 359 4 is_stmt 0               @ source/uart_pkts.c:359:4
	bl	fifo_write
	.loc	1 360 3 is_stmt 1               @ source/uart_pkts.c:360:3
	b	.LBB3_11
.Ltmp109:
.LBB3_10:
	.loc	1 362 15                        @ source/uart_pkts.c:362:15
	ldr	r0, [sp, #32]
	movs	r1, #65
	.loc	1 362 4 is_stmt 0               @ source/uart_pkts.c:362:4
	bl	fifo_write
	b	.LBB3_11
.Ltmp110:
.LBB3_11:
	.loc	1 364 6 is_stmt 1               @ source/uart_pkts.c:364:6
	ldr	r0, [sp, #24]
	.loc	1 364 10 is_stmt 0              @ source/uart_pkts.c:364:10
	ldrb	r0, [r0]
	lsls	r0, r0, #27
	lsrs	r0, r0, #31
.Ltmp111:
	.loc	1 364 6                         @ source/uart_pkts.c:364:6
	cbz	r0, .LBB3_13
	b	.LBB3_12
.LBB3_12:
.Ltmp112:
	.loc	1 365 15 is_stmt 1              @ source/uart_pkts.c:365:15
	ldr	r0, [sp, #32]
	movs	r1, #80
	.loc	1 365 4 is_stmt 0               @ source/uart_pkts.c:365:4
	bl	fifo_write
	.loc	1 366 3 is_stmt 1               @ source/uart_pkts.c:366:3
	b	.LBB3_14
.Ltmp113:
.LBB3_13:
	.loc	1 368 15                        @ source/uart_pkts.c:368:15
	ldr	r0, [sp, #32]
	movs	r1, #65
	.loc	1 368 4 is_stmt 0               @ source/uart_pkts.c:368:4
	bl	fifo_write
	b	.LBB3_14
.Ltmp114:
.LBB3_14:
	.loc	1 370 6 is_stmt 1               @ source/uart_pkts.c:370:6
	ldr	r0, [sp, #24]
	.loc	1 370 10 is_stmt 0              @ source/uart_pkts.c:370:10
	ldrb	r0, [r0]
	lsls	r0, r0, #30
	lsrs	r0, r0, #31
.Ltmp115:
	.loc	1 370 6                         @ source/uart_pkts.c:370:6
	cbz	r0, .LBB3_16
	b	.LBB3_15
.LBB3_15:
.Ltmp116:
	.loc	1 371 15 is_stmt 1              @ source/uart_pkts.c:371:15
	ldr	r0, [sp, #32]
	movs	r1, #80
	.loc	1 371 4 is_stmt 0               @ source/uart_pkts.c:371:4
	bl	fifo_write
	.loc	1 372 3 is_stmt 1               @ source/uart_pkts.c:372:3
	b	.LBB3_17
.Ltmp117:
.LBB3_16:
	.loc	1 374 15                        @ source/uart_pkts.c:374:15
	ldr	r0, [sp, #32]
	movs	r1, #65
	.loc	1 374 4 is_stmt 0               @ source/uart_pkts.c:374:4
	bl	fifo_write
	b	.LBB3_17
.Ltmp118:
.LBB3_17:
	.loc	1 376 6 is_stmt 1               @ source/uart_pkts.c:376:6
	ldr	r0, [sp, #24]
	.loc	1 376 10 is_stmt 0              @ source/uart_pkts.c:376:10
	ldrb	r0, [r0]
.Ltmp119:
	.loc	1 376 6                         @ source/uart_pkts.c:376:6
	lsls	r0, r0, #31
	cbz	r0, .LBB3_19
	b	.LBB3_18
.LBB3_18:
.Ltmp120:
	.loc	1 377 15 is_stmt 1              @ source/uart_pkts.c:377:15
	ldr	r0, [sp, #32]
	movs	r1, #80
	.loc	1 377 4 is_stmt 0               @ source/uart_pkts.c:377:4
	bl	fifo_write
	.loc	1 378 3 is_stmt 1               @ source/uart_pkts.c:378:3
	b	.LBB3_20
.Ltmp121:
.LBB3_19:
	.loc	1 380 15                        @ source/uart_pkts.c:380:15
	ldr	r0, [sp, #32]
	movs	r1, #65
	.loc	1 380 4 is_stmt 0               @ source/uart_pkts.c:380:4
	bl	fifo_write
	b	.LBB3_20
.Ltmp122:
.LBB3_20:
	.loc	1 382 14 is_stmt 1              @ source/uart_pkts.c:382:14
	ldr	r0, [sp, #32]
	movs	r1, #36
	.loc	1 382 3 is_stmt 0               @ source/uart_pkts.c:382:3
	bl	fifo_write
	.loc	1 383 14 is_stmt 1              @ source/uart_pkts.c:383:14
	ldr	r0, [sp, #32]
	movs	r1, #10
	.loc	1 383 3 is_stmt 0               @ source/uart_pkts.c:383:3
	bl	fifo_write
	add	r1, sp, #36
	movs	r0, #0
	.loc	1 384 3 is_stmt 1               @ source/uart_pkts.c:384:3
	strb	r0, [r1]
	b	.LBB3_22
.Ltmp123:
.LBB3_21:
	.loc	1 0 3 is_stmt 0                 @ source/uart_pkts.c:0:3
	add	r1, sp, #36
	movs	r0, #1
	.loc	1 386 2 is_stmt 1               @ source/uart_pkts.c:386:2
	strb	r0, [r1]
	b	.LBB3_22
.LBB3_22:
	.loc	1 0 2 is_stmt 0                 @ source/uart_pkts.c:0:2
	add	r0, sp, #36
	.loc	1 387 1 is_stmt 1               @ source/uart_pkts.c:387:1
	ldrb	r0, [r0]
	.loc	1 387 1 epilogue_begin is_stmt 0 @ source/uart_pkts.c:387:1
	add	sp, #40
	pop	{r4, r5, r7, pc}
.Ltmp124:
	.loc	1 0 1                           @ :0:1
.Ltmp125:
	.p2align	2
@ %bb.23:
__arm_cp.3_0:
	.long	pe
.Lcpi_end28:
	.size	__arm_cp.3_0, .Lcpi_end28-__arm_cp.3_0
__arm_cp.3_1:
	.long	sys
.Lcpi_end29:
	.size	__arm_cp.3_1, .Lcpi_end29-__arm_cp.3_1
__arm_cp.3_2:
	.long	tod
.Lcpi_end30:
	.size	__arm_cp.3_2, .Lcpi_end30-__arm_cp.3_2
__arm_cp.3_3:
	.long	strg
.Lcpi_end31:
	.size	__arm_cp.3_3, .Lcpi_end31-__arm_cp.3_3
__arm_cp.3_4:
	.long	.L.str.3
.Lcpi_end32:
	.size	__arm_cp.3_4, .Lcpi_end32-__arm_cp.3_4
__arm_cp.3_5:
	.long	1702                            @ 0x6a6
.Lcpi_end33:
	.size	__arm_cp.3_5, .Lcpi_end33-__arm_cp.3_5
__arm_cp.3_6:
	.long	.L.str.2
.Lcpi_end34:
	.size	__arm_cp.3_6, .Lcpi_end34-__arm_cp.3_6
.Lfunc_end3:
	.size	wr_card_status_pkt, .Lfunc_end3-wr_card_status_pkt
	.cfi_endproc
	.cantunwind
	.fnend
                                        @ -- End function
	.section	.text.wr_relay_status_pkt,"ax",%progbits
	.hidden	wr_relay_status_pkt             @ -- Begin function wr_relay_status_pkt
	.globl	wr_relay_status_pkt
	.p2align	2
	.type	wr_relay_status_pkt,%function
	.code	16                              @ @wr_relay_status_pkt
	.thumb_func
wr_relay_status_pkt:
.Lfunc_begin4:
	.loc	1 407 0 is_stmt 1               @ source/uart_pkts.c:407:0
	.fnstart
	.cfi_startproc
@ %bb.0:
	.save	{r4, r5, r7, lr}
	push	{r4, r5, r7, lr}
	.cfi_def_cfa_offset 16
	.cfi_offset lr, -4
	.cfi_offset r7, -8
	.cfi_offset r5, -12
	.cfi_offset r4, -16
	.pad	#48
	sub	sp, #48
	.cfi_def_cfa_offset 64
                                        @ kill: def $r3 killed $r2
                                        @ kill: def $r3 killed $r1
	str	r0, [sp, #40]
	add	r0, sp, #36
	strb	r1, [r0]
	add	r0, sp, #32
	strb	r2, [r0]
.Ltmp126:
	.loc	1 408 5 prologue_end            @ source/uart_pkts.c:408:5
	ldr	r0, [sp, #40]
	.loc	1 408 8 is_stmt 0               @ source/uart_pkts.c:408:8
	ldrb	r0, [r0, #12]
.Ltmp127:
	.loc	1 408 5                         @ source/uart_pkts.c:408:5
	cmp	r0, #0
	beq	.LBB4_14
	b	.LBB4_1
.LBB4_1:
.Ltmp128:
	.loc	1 409 14 is_stmt 1              @ source/uart_pkts.c:409:14
	ldr	r0, [sp, #40]
	movs	r1, #37
	.loc	1 409 3 is_stmt 0               @ source/uart_pkts.c:409:3
	bl	fifo_write
	.loc	1 410 14 is_stmt 1              @ source/uart_pkts.c:410:14
	ldr	r0, [sp, #40]
	movs	r1, #84
	.loc	1 410 3 is_stmt 0               @ source/uart_pkts.c:410:3
	bl	fifo_write
	.loc	1 411 16 is_stmt 1              @ source/uart_pkts.c:411:16
	ldr	r0, __arm_cp.4_0
	ldr	r0, [r0]
	.loc	1 411 3 is_stmt 0               @ source/uart_pkts.c:411:3
	ldr	r5, __arm_cp.4_1
	mov	r1, r5
	bl	conv2TOD
	.loc	1 412 52 is_stmt 1              @ source/uart_pkts.c:412:52
	ldrb	r2, [r5, #2]
	.loc	1 412 59 is_stmt 0              @ source/uart_pkts.c:412:59
	ldrb	r3, [r5, #1]
	.loc	1 412 66                        @ source/uart_pkts.c:412:66
	ldrb	r0, [r5]
	.loc	1 412 73                        @ source/uart_pkts.c:412:73
	ldrb	r1, [r5, #3]
	.loc	1 412 80                        @ source/uart_pkts.c:412:80
	ldrb	r4, [r5, #4]
	.loc	1 412 87                        @ source/uart_pkts.c:412:87
	ldrb	r5, [r5, #5]
	.loc	1 412 3                         @ source/uart_pkts.c:412:3
	str	r5, [sp, #12]
	str	r4, [sp, #8]
	str	r1, [sp, #4]
	str	r0, [sp]
	ldr	r0, __arm_cp.4_2
	str	r0, [sp, #24]                   @ 4-byte Spill
	ldr	r1, __arm_cp.4_3
	bl	sprintf
	ldr	r1, [sp, #24]                   @ 4-byte Reload
	.loc	1 413 20 is_stmt 1              @ source/uart_pkts.c:413:20
	ldr	r0, [sp, #40]
	movs	r2, #17
	.loc	1 413 3 is_stmt 0               @ source/uart_pkts.c:413:3
	bl	fifo_write_bytes
	add	r0, sp, #36
.Ltmp129:
	.loc	1 417 6 is_stmt 1               @ source/uart_pkts.c:417:6
	ldrb	r0, [r0]
.Ltmp130:
	.loc	1 417 6 is_stmt 0               @ source/uart_pkts.c:417:6
	cbnz	r0, .LBB4_3
	b	.LBB4_2
.LBB4_2:
.Ltmp131:
	.loc	1 418 15 is_stmt 1              @ source/uart_pkts.c:418:15
	ldr	r0, [sp, #40]
	movs	r1, #73
	.loc	1 418 4 is_stmt 0               @ source/uart_pkts.c:418:4
	bl	fifo_write
	add	r0, sp, #32
	.loc	1 419 19 is_stmt 1              @ source/uart_pkts.c:419:19
	ldrb	r0, [r0]
	movs	r1, #6
	.loc	1 419 10 is_stmt 0              @ source/uart_pkts.c:419:10
	muls	r1, r0, r1
	ldr	r0, __arm_cp.4_4
	adds	r0, r0, r1
	ldr	r1, __arm_cp.4_6
	adds	r0, r0, r1
	.loc	1 419 6                         @ source/uart_pkts.c:419:6
	str	r0, [sp, #28]
	.loc	1 420 3 is_stmt 1               @ source/uart_pkts.c:420:3
	b	.LBB4_7
.Ltmp132:
.LBB4_3:
	.loc	1 0 3 is_stmt 0                 @ source/uart_pkts.c:0:3
	add	r0, sp, #36
.Ltmp133:
	.loc	1 421 11 is_stmt 1              @ source/uart_pkts.c:421:11
	ldrb	r0, [r0]
.Ltmp134:
	.loc	1 421 11 is_stmt 0              @ source/uart_pkts.c:421:11
	cmp	r0, #3
	bne	.LBB4_5
	b	.LBB4_4
.LBB4_4:
.Ltmp135:
	.loc	1 422 15 is_stmt 1              @ source/uart_pkts.c:422:15
	ldr	r0, [sp, #40]
	movs	r1, #79
	.loc	1 422 4 is_stmt 0               @ source/uart_pkts.c:422:4
	bl	fifo_write
	add	r0, sp, #32
	.loc	1 423 19 is_stmt 1              @ source/uart_pkts.c:423:19
	ldrb	r0, [r0]
	movs	r1, #6
	.loc	1 423 10 is_stmt 0              @ source/uart_pkts.c:423:10
	muls	r1, r0, r1
	ldr	r0, __arm_cp.4_4
	adds	r0, r0, r1
	ldr	r1, __arm_cp.4_5
	adds	r0, r0, r1
	.loc	1 423 6                         @ source/uart_pkts.c:423:6
	str	r0, [sp, #28]
	.loc	1 424 3 is_stmt 1               @ source/uart_pkts.c:424:3
	b	.LBB4_6
.Ltmp136:
.LBB4_5:
	.loc	1 0 3 is_stmt 0                 @ source/uart_pkts.c:0:3
	b	.LBB4_6
.LBB4_6:
	b	.LBB4_7
.LBB4_7:
	add	r0, sp, #32
	.loc	1 429 22 is_stmt 1              @ source/uart_pkts.c:429:22
	ldrb	r0, [r0]
	.loc	1 429 31 is_stmt 0              @ source/uart_pkts.c:429:31
	adds	r2, r0, #1
	.loc	1 429 3                         @ source/uart_pkts.c:429:3
	ldr	r0, __arm_cp.4_2
	str	r0, [sp, #20]                   @ 4-byte Spill
	ldr	r1, __arm_cp.4_7
	bl	sprintf
	ldr	r1, [sp, #20]                   @ 4-byte Reload
	.loc	1 430 20 is_stmt 1              @ source/uart_pkts.c:430:20
	ldr	r0, [sp, #40]
	movs	r2, #2
	.loc	1 430 3 is_stmt 0               @ source/uart_pkts.c:430:3
	bl	fifo_write_bytes
.Ltmp137:
	.loc	1 432 6 is_stmt 1               @ source/uart_pkts.c:432:6
	ldr	r0, [sp, #28]
	.loc	1 432 9 is_stmt 0               @ source/uart_pkts.c:432:9
	ldrb	r0, [r0]
.Ltmp138:
	.loc	1 432 6                         @ source/uart_pkts.c:432:6
	cbnz	r0, .LBB4_9
	b	.LBB4_8
.LBB4_8:
.Ltmp139:
	.loc	1 433 15 is_stmt 1              @ source/uart_pkts.c:433:15
	ldr	r0, [sp, #40]
	movs	r1, #68
	.loc	1 433 4 is_stmt 0               @ source/uart_pkts.c:433:4
	bl	fifo_write
	.loc	1 434 3 is_stmt 1               @ source/uart_pkts.c:434:3
	b	.LBB4_13
.Ltmp140:
.LBB4_9:
	.loc	1 435 11                        @ source/uart_pkts.c:435:11
	ldr	r0, [sp, #28]
	.loc	1 435 14 is_stmt 0              @ source/uart_pkts.c:435:14
	ldrb	r0, [r0]
.Ltmp141:
	.loc	1 435 11                        @ source/uart_pkts.c:435:11
	cmp	r0, #1
	bne	.LBB4_11
	b	.LBB4_10
.LBB4_10:
.Ltmp142:
	.loc	1 436 15 is_stmt 1              @ source/uart_pkts.c:436:15
	ldr	r0, [sp, #40]
	movs	r1, #80
	.loc	1 436 4 is_stmt 0               @ source/uart_pkts.c:436:4
	bl	fifo_write
	.loc	1 437 3 is_stmt 1               @ source/uart_pkts.c:437:3
	b	.LBB4_12
.Ltmp143:
.LBB4_11:
	.loc	1 439 15                        @ source/uart_pkts.c:439:15
	ldr	r0, [sp, #40]
	movs	r1, #69
	.loc	1 439 4 is_stmt 0               @ source/uart_pkts.c:439:4
	bl	fifo_write
	b	.LBB4_12
.Ltmp144:
.LBB4_12:
	.loc	1 0 4                           @ source/uart_pkts.c:0:4
	b	.LBB4_13
.LBB4_13:
	.loc	1 441 14 is_stmt 1              @ source/uart_pkts.c:441:14
	ldr	r0, [sp, #40]
	movs	r1, #36
	.loc	1 441 3 is_stmt 0               @ source/uart_pkts.c:441:3
	bl	fifo_write
	.loc	1 442 14 is_stmt 1              @ source/uart_pkts.c:442:14
	ldr	r0, [sp, #40]
	movs	r1, #10
	.loc	1 442 3 is_stmt 0               @ source/uart_pkts.c:442:3
	bl	fifo_write
	add	r1, sp, #44
	movs	r0, #0
	.loc	1 443 3 is_stmt 1               @ source/uart_pkts.c:443:3
	strb	r0, [r1]
	b	.LBB4_15
.Ltmp145:
.LBB4_14:
	.loc	1 0 3 is_stmt 0                 @ source/uart_pkts.c:0:3
	add	r1, sp, #44
	movs	r0, #1
	.loc	1 445 2 is_stmt 1               @ source/uart_pkts.c:445:2
	strb	r0, [r1]
	b	.LBB4_15
.LBB4_15:
	.loc	1 0 2 is_stmt 0                 @ source/uart_pkts.c:0:2
	add	r0, sp, #44
	.loc	1 446 1 is_stmt 1               @ source/uart_pkts.c:446:1
	ldrb	r0, [r0]
	.loc	1 446 1 epilogue_begin is_stmt 0 @ source/uart_pkts.c:446:1
	add	sp, #48
	pop	{r4, r5, r7, pc}
.Ltmp146:
	.loc	1 0 1                           @ :0:1
.Ltmp147:
	.p2align	2
@ %bb.16:
__arm_cp.4_0:
	.long	sys
.Lcpi_end35:
	.size	__arm_cp.4_0, .Lcpi_end35-__arm_cp.4_0
__arm_cp.4_1:
	.long	tod
.Lcpi_end36:
	.size	__arm_cp.4_1, .Lcpi_end36-__arm_cp.4_1
__arm_cp.4_2:
	.long	strg
.Lcpi_end37:
	.size	__arm_cp.4_2, .Lcpi_end37-__arm_cp.4_2
__arm_cp.4_3:
	.long	.L.str.3
.Lcpi_end38:
	.size	__arm_cp.4_3, .Lcpi_end38-__arm_cp.4_3
__arm_cp.4_4:
	.long	pe
.Lcpi_end39:
	.size	__arm_cp.4_4, .Lcpi_end39-__arm_cp.4_4
__arm_cp.4_5:
	.long	5320                            @ 0x14c8
.Lcpi_end40:
	.size	__arm_cp.4_5, .Lcpi_end40-__arm_cp.4_5
__arm_cp.4_6:
	.long	5200                            @ 0x1450
.Lcpi_end41:
	.size	__arm_cp.4_6, .Lcpi_end41-__arm_cp.4_6
__arm_cp.4_7:
	.long	.L.str.6
.Lcpi_end42:
	.size	__arm_cp.4_7, .Lcpi_end42-__arm_cp.4_7
.Lfunc_end4:
	.size	wr_relay_status_pkt, .Lfunc_end4-wr_relay_status_pkt
	.cfi_endproc
	.cantunwind
	.fnend
                                        @ -- End function
	.hidden	strg                            @ @strg
	.type	strg,%object
	.section	.bss.strg,"aw",%nobits
	.globl	strg
strg:
	.zero	50
	.size	strg, 50

	.type	.L.str,%object                  @ @.str
	.section	.rodata.str1.1,"aMS",%progbits,1
.L.str:
	.asciz	"%03d"
	.size	.L.str, 5

	.type	.L.str.1,%object                @ @.str.1
.L.str.1:
	.asciz	"%02d-%02d-%02d %02d-%02d-%02d"
	.size	.L.str.1, 30

	.type	.L.str.2,%object                @ @.str.2
.L.str.2:
	.asciz	"%04d"
	.size	.L.str.2, 5

	.type	LINE_COM_read_packet.cksum,%object @ @LINE_COM_read_packet.cksum
	.section	.bss.LINE_COM_read_packet.cksum,"aw",%nobits
	.p2align	1, 0x0
LINE_COM_read_packet.cksum:
	.zero	4
	.size	LINE_COM_read_packet.cksum, 4

	.type	LINE_COM_read_packet.indx,%object @ @LINE_COM_read_packet.indx
	.section	.bss.LINE_COM_read_packet.indx,"aw",%nobits
	.p2align	1, 0x0
LINE_COM_read_packet.indx:
	.zero	4
	.size	LINE_COM_read_packet.indx, 4

	.type	LINE_COM_read_packet.sof_rcvd,%object @ @LINE_COM_read_packet.sof_rcvd
	.section	.bss.LINE_COM_read_packet.sof_rcvd,"aw",%nobits
LINE_COM_read_packet.sof_rcvd:
	.zero	2
	.size	LINE_COM_read_packet.sof_rcvd, 2

	.hidden	oe_pkt                          @ @oe_pkt
	.type	oe_pkt,%object
	.section	.bss.oe_pkt,"aw",%nobits
	.globl	oe_pkt
	.p2align	1, 0x0
oe_pkt:
	.zero	136
	.size	oe_pkt, 136

	.type	.L.str.3,%object                @ @.str.3
	.section	.rodata.str1.1,"aMS",%progbits,1
.L.str.3:
	.asciz	"%02d:%02d:%02d:%02d:%02d:%02d"
	.size	.L.str.3, 30

	.type	.L.str.4,%object                @ @.str.4
.L.str.4:
	.asciz	"%d"
	.size	.L.str.4, 3

	.type	.L.str.5,%object                @ @.str.5
.L.str.5:
	.asciz	"%s"
	.size	.L.str.5, 3

	.type	.L.str.6,%object                @ @.str.6
.L.str.6:
	.asciz	"%2d"
	.size	.L.str.6, 4

	.file	4 "D:\\work\\dheeraj\\local\\CEL\\CCC\\CCC_CPU0\\Code" "source/Include\\fifo.h"
	.section	".note.GNU-stack","",%progbits
	.eabi_attribute	30, 6	@ Tag_ABI_optimization_goals
	.ARM_attribute	16, 1	@ Tag_AV_eba