
========================================================================

** ELF Header Information

    File Name: .\obj\CPU123.axf

    Machine class: ELFCLASS32 (32-bit)
    Data encoding: ELFDATA2LSB (Little endian)
    Header version: EV_CURRENT (Current version)
    Operating System ABI: none
    ABI Version: 0
    File Type: ET_EXEC (Executable) (2)
    Machine: EM_ARM (ARM)

    Image Entry point: 0x000001ed
    Flags: EF_ARM_HASENTRY + EF_ARM_ABI_FLOAT_SOFT (0x05000202)

    ARM ELF revision: 5 (ABI version 2)

    Conforms to Soft float procedure-call standard

    Built with
    Component: Arm Compiler for Embedded 6.24 Tool: armasm [5f371400]
    Component: Arm Compiler for Embedded 6.24 Tool: armlink [5f371500]

    Header size: 52 bytes (0x34)
    Program header entry size: 32 bytes (0x20)
    Section header entry size: 40 bytes (0x28)

    Program header entries: 1
    Section header entries: 15

    Program header offset: 150700 (0x00024cac)
    Section header offset: 150732 (0x00024ccc)

    Section header string table index: 14

========================================================================

** Program header #0 (PT_LOAD) [PF_X + PF_W + PF_R + PF_ARM_ENTRY]
    Size : 33336 bytes (30644 bytes in file)
    Virtual address: 0x00000000 (Alignment 8)


========================================================================

** Section #1 'ER_RO' (SHT_PROGBITS) [SHF_ALLOC + SHF_EXECINSTR]
    Size   : 30596 bytes (alignment 4)
    Address: 0x00000000

    $d.realdata
    RESET
    __Vectors
        0x00000000:    20000ab0    ...     DCD    536873648
        0x00000004:    000001ed    ....    DCD    493
        0x00000008:    000001f5    ....    DCD    501
        0x0000000c:    000001f7    ....    DCD    503
        0x00000010:    00000000    ....    DCD    0
        0x00000014:    00000000    ....    DCD    0
        0x00000018:    00000000    ....    DCD    0
        0x0000001c:    00000000    ....    DCD    0
        0x00000020:    00000000    ....    DCD    0
        0x00000024:    00000000    ....    DCD    0
        0x00000028:    00000000    ....    DCD    0
        0x0000002c:    00000207    ....    DCD    519
        0x00000030:    00000000    ....    DCD    0
        0x00000034:    00000000    ....    DCD    0
        0x00000038:    00000209    ....    DCD    521
        0x0000003c:    0000020b    ....    DCD    523
        0x00000040:    0000020d    ....    DCD    525
        0x00000044:    0000020d    ....    DCD    525
        0x00000048:    0000020d    ....    DCD    525
        0x0000004c:    0000020d    ....    DCD    525
        0x00000050:    0000020d    ....    DCD    525
        0x00000054:    0000020d    ....    DCD    525
        0x00000058:    0000020d    ....    DCD    525
        0x0000005c:    0000020d    ....    DCD    525
        0x00000060:    0000020d    ....    DCD    525
        0x00000064:    0000020d    ....    DCD    525
        0x00000068:    0000020d    ....    DCD    525
        0x0000006c:    0000020d    ....    DCD    525
        0x00000070:    0000020d    ....    DCD    525
        0x00000074:    0000020d    ....    DCD    525
        0x00000078:    0000020d    ....    DCD    525
        0x0000007c:    0000020d    ....    DCD    525
        0x00000080:    0000020d    ....    DCD    525
        0x00000084:    0000020d    ....    DCD    525
        0x00000088:    0000020d    ....    DCD    525
        0x0000008c:    0000020d    ....    DCD    525
        0x00000090:    0000020d    ....    DCD    525
        0x00000094:    0000020d    ....    DCD    525
        0x00000098:    0000020d    ....    DCD    525
        0x0000009c:    0000020d    ....    DCD    525
        0x000000a0:    0000020d    ....    DCD    525
        0x000000a4:    0000020d    ....    DCD    525
        0x000000a8:    0000020d    ....    DCD    525
        0x000000ac:    0000020d    ....    DCD    525
        0x000000b0:    0000020d    ....    DCD    525
        0x000000b4:    0000020d    ....    DCD    525
        0x000000b8:    0000020d    ....    DCD    525
        0x000000bc:    0000020d    ....    DCD    525
        0x000000c0:    0000020d    ....    DCD    525
        0x000000c4:    0000020d    ....    DCD    525
        0x000000c8:    0000020d    ....    DCD    525
        0x000000cc:    000014e1    ....    DCD    5345
        0x000000d0:    0000020d    ....    DCD    525
        0x000000d4:    0000020d    ....    DCD    525
        0x000000d8:    0000020d    ....    DCD    525
        0x000000dc:    0000020d    ....    DCD    525
        0x000000e0:    0000020d    ....    DCD    525
        0x000000e4:    0000020d    ....    DCD    525
        0x000000e8:    0000020d    ....    DCD    525
        0x000000ec:    0000020d    ....    DCD    525
        0x000000f0:    0000020d    ....    DCD    525
        0x000000f4:    0000020d    ....    DCD    525
        0x000000f8:    0000020d    ....    DCD    525
        0x000000fc:    0000020d    ....    DCD    525
        0x00000100:    0000020d    ....    DCD    525
        0x00000104:    0000020d    ....    DCD    525
        0x00000108:    0000020d    ....    DCD    525
        0x0000010c:    0000020d    ....    DCD    525
        0x00000110:    0000020d    ....    DCD    525
        0x00000114:    0000020d    ....    DCD    525
        0x00000118:    0000020d    ....    DCD    525
        0x0000011c:    0000020d    ....    DCD    525
        0x00000120:    0000020d    ....    DCD    525
        0x00000124:    0000020d    ....    DCD    525
        0x00000128:    0000020d    ....    DCD    525
        0x0000012c:    0000020d    ....    DCD    525
        0x00000130:    0000020d    ....    DCD    525
        0x00000134:    0000020d    ....    DCD    525
        0x00000138:    0000020d    ....    DCD    525
        0x0000013c:    0000020d    ....    DCD    525
        0x00000140:    0000020d    ....    DCD    525
        0x00000144:    0000020d    ....    DCD    525
        0x00000148:    0000020d    ....    DCD    525
        0x0000014c:    0000020d    ....    DCD    525
        0x00000150:    0000020d    ....    DCD    525
        0x00000154:    0000020d    ....    DCD    525
        0x00000158:    0000020d    ....    DCD    525
        0x0000015c:    0000020d    ....    DCD    525
        0x00000160:    0000020d    ....    DCD    525
        0x00000164:    0000020d    ....    DCD    525
        0x00000168:    0000020d    ....    DCD    525
        0x0000016c:    0000020d    ....    DCD    525
        0x00000170:    0000020d    ....    DCD    525
        0x00000174:    0000020d    ....    DCD    525
        0x00000178:    0000020d    ....    DCD    525
        0x0000017c:    0000020d    ....    DCD    525
        0x00000180:    0000020d    ....    DCD    525
        0x00000184:    0000020d    ....    DCD    525
        0x00000188:    0000020d    ....    DCD    525
        0x0000018c:    0000020d    ....    DCD    525
        0x00000190:    0000020d    ....    DCD    525
        0x00000194:    0000020d    ....    DCD    525
        0x00000198:    0000020d    ....    DCD    525
        0x0000019c:    0000020d    ....    DCD    525
        0x000001a0:    0000020d    ....    DCD    525
        0x000001a4:    0000020d    ....    DCD    525
        0x000001a8:    0000020d    ....    DCD    525
        0x000001ac:    0000020d    ....    DCD    525
        0x000001b0:    0000020d    ....    DCD    525
        0x000001b4:    0000020d    ....    DCD    525
        0x000001b8:    0000020d    ....    DCD    525
        0x000001bc:    0000020d    ....    DCD    525
        0x000001c0:    0000020d    ....    DCD    525
        0x000001c4:    0000020d    ....    DCD    525
        0x000001c8:    0000020d    ....    DCD    525
        0x000001cc:    0000020d    ....    DCD    525
        0x000001d0:    0000020d    ....    DCD    525
        0x000001d4:    0000020d    ....    DCD    525
    $t
    .ARM.Collect$$$$00000000
    .ARM.Collect$$$$00000001
    __Vectors_End
    __main
    _main_stk
        0x000001d8:    4803        .H      LDR      r0,__lit__00000000 ; [0x1e8] = 0x20000ab0
        0x000001da:    4685        .F      MOV      sp,r0
    .ARM.Collect$$$$00000004
    _main_scatterload
        0x000001dc:    f000fa1e    ....    BL       __scatterload ; 0x61c
    .ARM.Collect$$$$00000008
    .ARM.Collect$$$$0000000A
    .ARM.Collect$$$$0000000B
    __main_after_scatterload
    _main_clock
    _main_cpp_init
    _main_init
        0x000001e0:    4800        .H      LDR      r0,[pc,#0] ; [0x1e4] = 0x5f49
        0x000001e2:    4700        .G      BX       r0
    $d
        0x000001e4:    00005f49    I_..    DCD    24393
    .ARM.Collect$$$$00002712
    __lit__00000000
    .ARM.Collect$$$$0000000D
    .ARM.Collect$$$$0000000F
    __rt_final_cpp
    __rt_final_exit
        0x000001e8:    20000ab0    ...     DCD    536873648
    $t
    .text
    Reset_Handler
        0x000001ec:    480c        .H      LDR      r0,[pc,#48] ; [0x220] = 0x1345
        0x000001ee:    4780        .G      BLX      r0
        0x000001f0:    480c        .H      LDR      r0,[pc,#48] ; [0x224] = 0x1d9
        0x000001f2:    4700        .G      BX       r0
    NMI_Handler
        0x000001f4:    e7fe        ..      B        NMI_Handler ; 0x1f4
    HardFault_Handler
        0x000001f6:    4670        pF      MOV      r0,lr
        0x000001f8:    f3ef8108    ....    MRS      r1,MSP
        0x000001fc:    f3ef8209    ....    MRS      r2,PSP
        0x00000200:    4b09        .K      LDR      r3,[pc,#36] ; [0x228] = 0xdd9
        0x00000202:    4798        .G      BLX      r3
        0x00000204:    4700        .G      BX       r0
    SVC_Handler
        0x00000206:    e7fe        ..      B        SVC_Handler ; 0x206
    PendSV_Handler
        0x00000208:    e7fe        ..      B        PendSV_Handler ; 0x208
    SysTick_Handler
        0x0000020a:    e7fe        ..      B        SysTick_Handler ; 0x20a
    ACMP01_IRQHandler
    BOD_IRQHandler
    BPWM0_IRQHandler
    BPWM1_IRQHandler
    BRAKE0_IRQHandler
    BRAKE1_IRQHandler
    CAN0_IRQHandler
    CAN1_IRQHandler
    CLKFAIL_IRQHandler
    CRPT_IRQHandler
    DAC_IRQHandler
    DEFAULT_IRQHandler
    EADC0_IRQHandler
    EADC1_IRQHandler
    EADC2_IRQHandler
    EADC3_IRQHandler
    ECAP0_IRQHandler
    ECAP1_IRQHandler
    EINT0_IRQHandler
    EINT1_IRQHandler
    EINT2_IRQHandler
    EINT3_IRQHandler
    EINT4_IRQHandler
    EINT5_IRQHandler
    EINT6_IRQHandler
    EINT7_IRQHandler
    EPWM0_P0_IRQHandler
    EPWM0_P1_IRQHandler
    EPWM0_P2_IRQHandler
    EPWM1_P0_IRQHandler
    EPWM1_P1_IRQHandler
    EPWM1_P2_IRQHandler
    GPA_IRQHandler
    GPB_IRQHandler
    GPC_IRQHandler
    GPD_IRQHandler
    GPE_IRQHandler
    GPF_IRQHandler
    GPG_IRQHandler
    GPH_IRQHandler
    I2C0_IRQHandler
    I2C1_IRQHandler
    I2C2_IRQHandler
    I2S0_IRQHandler
    IRC_IRQHandler
    OPA0_IRQHandler
    PDMA0_IRQHandler
    PDMA1_IRQHandler
    PWRWU_IRQHandler
    QEI0_IRQHandler
    QEI1_IRQHandler
    QSPI0_IRQHandler
    RTC_IRQHandler
    SC0_IRQHandler
    SC1_IRQHandler
    SC2_IRQHandler
    SC3_IRQHandler
    SCU_IRQHandler
    SDH0_IRQHandler
    SDH1_IRQHandler
    SPI0_IRQHandler
    SPI1_IRQHandler
    SPI2_IRQHandler
    SPI3_IRQHandler
    SRAM_IRQHandler
    TAMPER_IRQHandler
    TMR0_IRQHandler
    TMR1_IRQHandler
    TMR2_IRQHandler
    TRNG_IRQHandler
    UART0_IRQHandler
    UART1_IRQHandler
    UART2_IRQHandler
    UART3_IRQHandler
    UART4_IRQHandler
    UART5_IRQHandler
    USBD_IRQHandler
    USBH_IRQHandler
    USBOTG_IRQHandler
    USCI0_IRQHandler
    USCI1_IRQHandler
    WDT_IRQHandler
    WWDT_IRQHandler
        0x0000020c:    e7fe        ..      B        ACMP01_IRQHandler ; 0x20c
    $d
        0x0000020e:    0000        ..      DCW    0
    $t
    SH_DoCommand
        0x00000210:    beab        ..      BKPT     #0xab
        0x00000212:    4b06        .K      LDR      r3,[pc,#24] ; [0x22c] = 0xe99
        0x00000214:    4674        tF      MOV      r4,lr
        0x00000216:    4798        .G      BLX      r3
        0x00000218:    4720         G      BX       r4
    __PC
        0x0000021a:    4670        pF      MOV      r0,lr
        0x0000021c:    47f0        .G      BLX      lr
    $d
        0x0000021e:    0000        ..      DCW    0
        0x00000220:    00001345    E...    DCD    4933
        0x00000224:    000001d9    ....    DCD    473
        0x00000228:    00000dd9    ....    DCD    3545
        0x0000022c:    00000e99    ....    DCD    3737
    $t
    .text
    __aeabi_uldivmod
        0x00000230:    b5f0        ..      PUSH     {r4-r7,lr}
        0x00000232:    b41f        ..      PUSH     {r0-r4}
        0x00000234:    4606        .F      MOV      r6,r0
        0x00000236:    2000        .       MOVS     r0,#0
        0x00000238:    b082        ..      SUB      sp,sp,#8
        0x0000023a:    4605        .F      MOV      r5,r0
        0x0000023c:    2440        @$      MOVS     r4,#0x40
        0x0000023e:    9101        ..      STR      r1,[sp,#4]
        0x00000240:    9000        ..      STR      r0,[sp,#0]
        0x00000242:    e01b        ..      B        0x27c ; __aeabi_uldivmod + 76
        0x00000244:    9901        ..      LDR      r1,[sp,#4]
        0x00000246:    4622        "F      MOV      r2,r4
        0x00000248:    460f        .F      MOV      r7,r1
        0x0000024a:    4630        0F      MOV      r0,r6
        0x0000024c:    f000fa2d    ..-.    BL       __aeabi_llsr ; 0x6aa
        0x00000250:    9a04        ..      LDR      r2,[sp,#0x10]
        0x00000252:    9b05        ..      LDR      r3,[sp,#0x14]
        0x00000254:    1a80        ..      SUBS     r0,r0,r2
        0x00000256:    4199        .A      SBCS     r1,r1,r3
        0x00000258:    d310        ..      BCC      0x27c ; __aeabi_uldivmod + 76
        0x0000025a:    4610        .F      MOV      r0,r2
        0x0000025c:    4619        .F      MOV      r1,r3
        0x0000025e:    4622        "F      MOV      r2,r4
        0x00000260:    f000fa13    ....    BL       __aeabi_llsl ; 0x68a
        0x00000264:    1a36        6.      SUBS     r6,r6,r0
        0x00000266:    418f        .A      SBCS     r7,r7,r1
        0x00000268:    9701        ..      STR      r7,[sp,#4]
        0x0000026a:    4622        "F      MOV      r2,r4
        0x0000026c:    2001        .       MOVS     r0,#1
        0x0000026e:    2100        .!      MOVS     r1,#0
        0x00000270:    9f00        ..      LDR      r7,[sp,#0]
        0x00000272:    f000fa0a    ....    BL       __aeabi_llsl ; 0x68a
        0x00000276:    1838        8.      ADDS     r0,r7,r0
        0x00000278:    414d        MA      ADCS     r5,r5,r1
        0x0000027a:    9000        ..      STR      r0,[sp,#0]
        0x0000027c:    4620         F      MOV      r0,r4
        0x0000027e:    1e64        d.      SUBS     r4,r4,#1
        0x00000280:    2800        .(      CMP      r0,#0
        0x00000282:    dcdf        ..      BGT      0x244 ; __aeabi_uldivmod + 20
        0x00000284:    9b01        ..      LDR      r3,[sp,#4]
        0x00000286:    9800        ..      LDR      r0,[sp,#0]
        0x00000288:    4629        )F      MOV      r1,r5
        0x0000028a:    4632        2F      MOV      r2,r6
        0x0000028c:    b007        ..      ADD      sp,sp,#0x1c
        0x0000028e:    bdf0        ..      POP      {r4-r7,pc}
    .text
    .text
    __I$use$fp
    __aeabi_dadd
        0x00000290:    b5f0        ..      PUSH     {r4-r7,lr}
        0x00000292:    4607        .F      MOV      r7,r0
        0x00000294:    4608        .F      MOV      r0,r1
        0x00000296:    4058        X@      EORS     r0,r0,r3
        0x00000298:    b087        ..      SUB      sp,sp,#0x1c
        0x0000029a:    0fc0        ..      LSRS     r0,r0,#31
        0x0000029c:    9004        ..      STR      r0,[sp,#0x10]
        0x0000029e:    0048        H.      LSLS     r0,r1,#1
        0x000002a0:    460e        .F      MOV      r6,r1
        0x000002a2:    0059        Y.      LSLS     r1,r3,#1
        0x000002a4:    0840        @.      LSRS     r0,r0,#1
        0x000002a6:    0849        I.      LSRS     r1,r1,#1
        0x000002a8:    1abc        ..      SUBS     r4,r7,r2
        0x000002aa:    4188        .A      SBCS     r0,r0,r1
        0x000002ac:    d205        ..      BCS      0x2ba ; __I$use$fp + 42
        0x000002ae:    4638        8F      MOV      r0,r7
        0x000002b0:    4631        1F      MOV      r1,r6
        0x000002b2:    461e        .F      MOV      r6,r3
        0x000002b4:    4617        .F      MOV      r7,r2
        0x000002b6:    460b        .F      MOV      r3,r1
        0x000002b8:    4602        .F      MOV      r2,r0
        0x000002ba:    0058        X.      LSLS     r0,r3,#1
        0x000002bc:    0840        @.      LSRS     r0,r0,#1
        0x000002be:    4310        .C      ORRS     r0,r0,r2
        0x000002c0:    d04c        L.      BEQ      0x35c ; __I$use$fp + 204
        0x000002c2:    0d30        0.      LSRS     r0,r6,#20
        0x000002c4:    9003        ..      STR      r0,[sp,#0xc]
        0x000002c6:    0540        @.      LSLS     r0,r0,#21
        0x000002c8:    0059        Y.      LSLS     r1,r3,#1
        0x000002ca:    0d40        @.      LSRS     r0,r0,#21
        0x000002cc:    0d49        I.      LSRS     r1,r1,#21
        0x000002ce:    9005        ..      STR      r0,[sp,#0x14]
        0x000002d0:    1a40        @.      SUBS     r0,r0,r1
        0x000002d2:    9002        ..      STR      r0,[sp,#8]
        0x000002d4:    2840        @(      CMP      r0,#0x40
        0x000002d6:    da72        r.      BGE      0x3be ; __I$use$fp + 302
        0x000002d8:    0318        ..      LSLS     r0,r3,#12
        0x000002da:    2101        .!      MOVS     r1,#1
        0x000002dc:    0b00        ..      LSRS     r0,r0,#12
        0x000002de:    0509        ..      LSLS     r1,r1,#20
        0x000002e0:    4308        .C      ORRS     r0,r0,r1
        0x000002e2:    9001        ..      STR      r0,[sp,#4]
        0x000002e4:    9804        ..      LDR      r0,[sp,#0x10]
        0x000002e6:    9200        ..      STR      r2,[sp,#0]
        0x000002e8:    2800        .(      CMP      r0,#0
        0x000002ea:    d005        ..      BEQ      0x2f8 ; __I$use$fp + 104
        0x000002ec:    9901        ..      LDR      r1,[sp,#4]
        0x000002ee:    4252        RB      RSBS     r2,r2,#0
        0x000002f0:    2000        .       MOVS     r0,#0
        0x000002f2:    4188        .A      SBCS     r0,r0,r1
        0x000002f4:    9200        ..      STR      r2,[sp,#0]
        0x000002f6:    9001        ..      STR      r0,[sp,#4]
        0x000002f8:    9802        ..      LDR      r0,[sp,#8]
        0x000002fa:    2140        @!      MOVS     r1,#0x40
        0x000002fc:    1a0a        ..      SUBS     r2,r1,r0
        0x000002fe:    9901        ..      LDR      r1,[sp,#4]
        0x00000300:    9800        ..      LDR      r0,[sp,#0]
        0x00000302:    f000f9c2    ....    BL       __aeabi_llsl ; 0x68a
        0x00000306:    4605        .F      MOV      r5,r0
        0x00000308:    460c        .F      MOV      r4,r1
        0x0000030a:    466b        kF      MOV      r3,sp
        0x0000030c:    cb07        ..      LDM      r3!,{r0-r2}
        0x0000030e:    f000f9dd    ....    BL       __aeabi_lasr ; 0x6cc
        0x00000312:    19c0        ..      ADDS     r0,r0,r7
        0x00000314:    4171        qA      ADCS     r1,r1,r6
        0x00000316:    9a03        ..      LDR      r2,[sp,#0xc]
        0x00000318:    0d0e        ..      LSRS     r6,r1,#20
        0x0000031a:    2300        .#      MOVS     r3,#0
        0x0000031c:    17d7        ..      ASRS     r7,r2,#31
        0x0000031e:    4056        V@      EORS     r6,r6,r2
        0x00000320:    461a        .F      MOV      r2,r3
        0x00000322:    407a        z@      EORS     r2,r2,r7
        0x00000324:    4316        .C      ORRS     r6,r6,r2
        0x00000326:    d044        D.      BEQ      0x3b2 ; __I$use$fp + 290
        0x00000328:    9a04        ..      LDR      r2,[sp,#0x10]
        0x0000032a:    2a00        .*      CMP      r2,#0
        0x0000032c:    d02d        -.      BEQ      0x38a ; __I$use$fp + 250
        0x0000032e:    9a02        ..      LDR      r2,[sp,#8]
        0x00000330:    2a01        .*      CMP      r2,#1
        0x00000332:    9a03        ..      LDR      r2,[sp,#0xc]
        0x00000334:    dc15        ..      BGT      0x362 ; __I$use$fp + 210
        0x00000336:    0512        ..      LSLS     r2,r2,#20
        0x00000338:    1ac0        ..      SUBS     r0,r0,r3
        0x0000033a:    4191        .A      SBCS     r1,r1,r2
        0x0000033c:    2601        .&      MOVS     r6,#1
        0x0000033e:    0536        6.      LSLS     r6,r6,#20
        0x00000340:    1c00        ..      ADDS     r0,r0,#0
        0x00000342:    4171        qA      ADCS     r1,r1,r6
        0x00000344:    0fd2        ..      LSRS     r2,r2,#31
        0x00000346:    9e05        ..      LDR      r6,[sp,#0x14]
        0x00000348:    07d2        ..      LSLS     r2,r2,#31
        0x0000034a:    9300        ..      STR      r3,[sp,#0]
        0x0000034c:    9201        ..      STR      r2,[sp,#4]
        0x0000034e:    9602        ..      STR      r6,[sp,#8]
        0x00000350:    462a        *F      MOV      r2,r5
        0x00000352:    4623        #F      MOV      r3,r4
        0x00000354:    f000f9da    ....    BL       _double_epilogue ; 0x70c
        0x00000358:    b007        ..      ADD      sp,sp,#0x1c
        0x0000035a:    bdf0        ..      POP      {r4-r7,pc}
        0x0000035c:    4638        8F      MOV      r0,r7
        0x0000035e:    4631        1F      MOV      r1,r6
        0x00000360:    e7fa        ..      B        0x358 ; __I$use$fp + 200
        0x00000362:    0516        ..      LSLS     r6,r2,#20
        0x00000364:    4a22        "J      LDR      r2,[pc,#136] ; [0x3f0] = 0xffe00000
        0x00000366:    460f        .F      MOV      r7,r1
        0x00000368:    18b2        ..      ADDS     r2,r6,r2
        0x0000036a:    1ac0        ..      SUBS     r0,r0,r3
        0x0000036c:    41b7        .A      SBCS     r7,r7,r6
        0x0000036e:    2101        .!      MOVS     r1,#1
        0x00000370:    0509        ..      LSLS     r1,r1,#20
        0x00000372:    1c00        ..      ADDS     r0,r0,#0
        0x00000374:    414f        OA      ADCS     r7,r7,r1
        0x00000376:    1800        ..      ADDS     r0,r0,r0
        0x00000378:    417f        .A      ADCS     r7,r7,r7
        0x0000037a:    4611        .F      MOV      r1,r2
        0x0000037c:    1818        ..      ADDS     r0,r3,r0
        0x0000037e:    4179        yA      ADCS     r1,r1,r7
        0x00000380:    0fe2        ..      LSRS     r2,r4,#31
        0x00000382:    4310        .C      ORRS     r0,r0,r2
        0x00000384:    196d        m.      ADDS     r5,r5,r5
        0x00000386:    4164        dA      ADCS     r4,r4,r4
        0x00000388:    e013        ..      B        0x3b2 ; __I$use$fp + 290
        0x0000038a:    07e2        ..      LSLS     r2,r4,#31
        0x0000038c:    086d        m.      LSRS     r5,r5,#1
        0x0000038e:    4315        .C      ORRS     r5,r5,r2
        0x00000390:    0864        d.      LSRS     r4,r4,#1
        0x00000392:    07c2        ..      LSLS     r2,r0,#31
        0x00000394:    4314        .C      ORRS     r4,r4,r2
        0x00000396:    9a03        ..      LDR      r2,[sp,#0xc]
        0x00000398:    2601        .&      MOVS     r6,#1
        0x0000039a:    0512        ..      LSLS     r2,r2,#20
        0x0000039c:    1ac0        ..      SUBS     r0,r0,r3
        0x0000039e:    4191        .A      SBCS     r1,r1,r2
        0x000003a0:    0536        6.      LSLS     r6,r6,#20
        0x000003a2:    1c00        ..      ADDS     r0,r0,#0
        0x000003a4:    4171        qA      ADCS     r1,r1,r6
        0x000003a6:    07ce        ..      LSLS     r6,r1,#31
        0x000003a8:    0840        @.      LSRS     r0,r0,#1
        0x000003aa:    4330        0C      ORRS     r0,r0,r6
        0x000003ac:    0849        I.      LSRS     r1,r1,#1
        0x000003ae:    18c0        ..      ADDS     r0,r0,r3
        0x000003b0:    4151        QA      ADCS     r1,r1,r2
        0x000003b2:    462a        *F      MOV      r2,r5
        0x000003b4:    4623        #F      MOV      r3,r4
        0x000003b6:    f000f99c    ....    BL       _double_round ; 0x6f2
        0x000003ba:    e7cd        ..      B        0x358 ; __I$use$fp + 200
        0x000003bc:    e7ff        ..      B        0x3be ; __I$use$fp + 302
        0x000003be:    9804        ..      LDR      r0,[sp,#0x10]
        0x000003c0:    2201        ."      MOVS     r2,#1
        0x000003c2:    0040        @.      LSLS     r0,r0,#1
        0x000003c4:    17c1        ..      ASRS     r1,r0,#31
        0x000003c6:    1a12        ..      SUBS     r2,r2,r0
        0x000003c8:    2300        .#      MOVS     r3,#0
        0x000003ca:    418b        .A      SBCS     r3,r3,r1
        0x000003cc:    9804        ..      LDR      r0,[sp,#0x10]
        0x000003ce:    4631        1F      MOV      r1,r6
        0x000003d0:    17c4        ..      ASRS     r4,r0,#31
        0x000003d2:    1a38        8.      SUBS     r0,r7,r0
        0x000003d4:    41a1        .A      SBCS     r1,r1,r4
        0x000003d6:    e7ee        ..      B        0x3b6 ; __I$use$fp + 294
    __aeabi_dsub
        0x000003d8:    b430        0.      PUSH     {r4,r5}
        0x000003da:    2401        .$      MOVS     r4,#1
        0x000003dc:    07e4        ..      LSLS     r4,r4,#31
        0x000003de:    4063        c@      EORS     r3,r3,r4
        0x000003e0:    bc30        0.      POP      {r4,r5}
        0x000003e2:    e755        U.      B        __I$use$fp ; 0x290
    __aeabi_drsub
        0x000003e4:    b430        0.      PUSH     {r4,r5}
        0x000003e6:    2401        .$      MOVS     r4,#1
        0x000003e8:    07e4        ..      LSLS     r4,r4,#31
        0x000003ea:    4061        a@      EORS     r1,r1,r4
        0x000003ec:    bc30        0.      POP      {r4,r5}
        0x000003ee:    e74f        O.      B        __I$use$fp ; 0x290
    $d
        0x000003f0:    ffe00000    ....    DCD    4292870144
    $t
    .text
    __aeabi_dmul
        0x000003f4:    b5f0        ..      PUSH     {r4-r7,lr}
        0x000003f6:    b41f        ..      PUSH     {r0-r4}
        0x000003f8:    b088        ..      SUB      sp,sp,#0x20
        0x000003fa:    990b        ..      LDR      r1,[sp,#0x2c]
        0x000003fc:    9809        ..      LDR      r0,[sp,#0x24]
        0x000003fe:    2400        .$      MOVS     r4,#0
        0x00000400:    4048        H@      EORS     r0,r0,r1
        0x00000402:    9909        ..      LDR      r1,[sp,#0x24]
        0x00000404:    0fc0        ..      LSRS     r0,r0,#31
        0x00000406:    0049        I.      LSLS     r1,r1,#1
        0x00000408:    0849        I.      LSRS     r1,r1,#1
        0x0000040a:    9109        ..      STR      r1,[sp,#0x24]
        0x0000040c:    07c0        ..      LSLS     r0,r0,#31
        0x0000040e:    990b        ..      LDR      r1,[sp,#0x2c]
        0x00000410:    9000        ..      STR      r0,[sp,#0]
        0x00000412:    0049        I.      LSLS     r1,r1,#1
        0x00000414:    0849        I.      LSRS     r1,r1,#1
        0x00000416:    910b        ..      STR      r1,[sp,#0x2c]
        0x00000418:    9909        ..      LDR      r1,[sp,#0x24]
        0x0000041a:    9808        ..      LDR      r0,[sp,#0x20]
        0x0000041c:    46a6        .F      MOV      lr,r4
        0x0000041e:    4308        .C      ORRS     r0,r0,r1
        0x00000420:    d01c        ..      BEQ      0x45c ; __aeabi_dmul + 104
        0x00000422:    990b        ..      LDR      r1,[sp,#0x2c]
        0x00000424:    980a        ..      LDR      r0,[sp,#0x28]
        0x00000426:    4308        .C      ORRS     r0,r0,r1
        0x00000428:    d018        ..      BEQ      0x45c ; __aeabi_dmul + 104
        0x0000042a:    9809        ..      LDR      r0,[sp,#0x24]
        0x0000042c:    2401        .$      MOVS     r4,#1
        0x0000042e:    0040        @.      LSLS     r0,r0,#1
        0x00000430:    0d42        B.      LSRS     r2,r0,#21
        0x00000432:    0048        H.      LSLS     r0,r1,#1
        0x00000434:    0d41        A.      LSRS     r1,r0,#21
        0x00000436:    9809        ..      LDR      r0,[sp,#0x24]
        0x00000438:    0524        $.      LSLS     r4,r4,#20
        0x0000043a:    0300        ..      LSLS     r0,r0,#12
        0x0000043c:    0b00        ..      LSRS     r0,r0,#12
        0x0000043e:    4320         C      ORRS     r0,r0,r4
        0x00000440:    9009        ..      STR      r0,[sp,#0x24]
        0x00000442:    980b        ..      LDR      r0,[sp,#0x2c]
        0x00000444:    0300        ..      LSLS     r0,r0,#12
        0x00000446:    0b00        ..      LSRS     r0,r0,#12
        0x00000448:    4320         C      ORRS     r0,r0,r4
        0x0000044a:    900b        ..      STR      r0,[sp,#0x2c]
        0x0000044c:    1850        P.      ADDS     r0,r2,r1
        0x0000044e:    491c        .I      LDR      r1,[pc,#112] ; [0x4c0] = 0xfffffc0d
        0x00000450:    1840        @.      ADDS     r0,r0,r1
        0x00000452:    2200        ."      MOVS     r2,#0
        0x00000454:    9001        ..      STR      r0,[sp,#4]
        0x00000456:    4614        .F      MOV      r4,r2
        0x00000458:    4610        .F      MOV      r0,r2
        0x0000045a:    e005        ..      B        0x468 ; __aeabi_dmul + 116
        0x0000045c:    2000        .       MOVS     r0,#0
        0x0000045e:    4601        .F      MOV      r1,r0
        0x00000460:    b00d        ..      ADD      sp,sp,#0x34
        0x00000462:    bdf0        ..      POP      {r4-r7,pc}
        0x00000464:    2803        .(      CMP      r0,#3
        0x00000466:    da01        ..      BGE      0x46c ; __aeabi_dmul + 120
        0x00000468:    4603        .F      MOV      r3,r0
        0x0000046a:    e000        ..      B        0x46e ; __aeabi_dmul + 122
        0x0000046c:    2303        .#      MOVS     r3,#3
        0x0000046e:    469c        .F      MOV      r12,r3
        0x00000470:    1ac1        ..      SUBS     r1,r0,r3
        0x00000472:    ae0a        ..      ADD      r6,sp,#0x28
        0x00000474:    e00a        ..      B        0x48c ; __aeabi_dmul + 152
        0x00000476:    005f        _.      LSLS     r7,r3,#1
        0x00000478:    ad08        ..      ADD      r5,sp,#0x20
        0x0000047a:    5bed        .[      LDRH     r5,[r5,r7]
        0x0000047c:    004f        O.      LSLS     r7,r1,#1
        0x0000047e:    5bf7        .[      LDRH     r7,[r6,r7]
        0x00000480:    437d        }C      MULS     r5,r7,r5
        0x00000482:    2700        .'      MOVS     r7,#0
        0x00000484:    18aa        ..      ADDS     r2,r5,r2
        0x00000486:    417c        |A      ADCS     r4,r4,r7
        0x00000488:    1c49        I.      ADDS     r1,r1,#1
        0x0000048a:    1e5b        [.      SUBS     r3,r3,#1
        0x0000048c:    4561        aE      CMP      r1,r12
        0x0000048e:    ddf2        ..      BLE      0x476 ; __aeabi_dmul + 130
        0x00000490:    0041        A.      LSLS     r1,r0,#1
        0x00000492:    ab04        ..      ADD      r3,sp,#0x10
        0x00000494:    525a        ZR      STRH     r2,[r3,r1]
        0x00000496:    0421        !.      LSLS     r1,r4,#16
        0x00000498:    0c12        ..      LSRS     r2,r2,#16
        0x0000049a:    430a        .C      ORRS     r2,r2,r1
        0x0000049c:    0c24        $.      LSRS     r4,r4,#16
        0x0000049e:    1c40        @.      ADDS     r0,r0,#1
        0x000004a0:    2808        .(      CMP      r0,#8
        0x000004a2:    dbdf        ..      BLT      0x464 ; __aeabi_dmul + 112
        0x000004a4:    9801        ..      LDR      r0,[sp,#4]
        0x000004a6:    9002        ..      STR      r0,[sp,#8]
        0x000004a8:    9900        ..      LDR      r1,[sp,#0]
        0x000004aa:    4670        pF      MOV      r0,lr
        0x000004ac:    9101        ..      STR      r1,[sp,#4]
        0x000004ae:    9000        ..      STR      r0,[sp,#0]
        0x000004b0:    9b05        ..      LDR      r3,[sp,#0x14]
        0x000004b2:    9a04        ..      LDR      r2,[sp,#0x10]
        0x000004b4:    9907        ..      LDR      r1,[sp,#0x1c]
        0x000004b6:    9806        ..      LDR      r0,[sp,#0x18]
        0x000004b8:    f000f928    ..(.    BL       _double_epilogue ; 0x70c
        0x000004bc:    e7d0        ..      B        0x460 ; __aeabi_dmul + 108
    $d
        0x000004be:    0000        ..      DCW    0
        0x000004c0:    fffffc0d    ....    DCD    4294966285
    $t
    .text
    __aeabi_ddiv
        0x000004c4:    b5f0        ..      PUSH     {r4-r7,lr}
        0x000004c6:    460c        .F      MOV      r4,r1
        0x000004c8:    405c        \@      EORS     r4,r4,r3
        0x000004ca:    b085        ..      SUB      sp,sp,#0x14
        0x000004cc:    0fe4        ..      LSRS     r4,r4,#31
        0x000004ce:    07e4        ..      LSLS     r4,r4,#31
        0x000004d0:    9403        ..      STR      r4,[sp,#0xc]
        0x000004d2:    004c        L.      LSLS     r4,r1,#1
        0x000004d4:    2600        .&      MOVS     r6,#0
        0x000004d6:    0864        d.      LSRS     r4,r4,#1
        0x000004d8:    0059        Y.      LSLS     r1,r3,#1
        0x000004da:    4694        .F      MOV      r12,r2
        0x000004dc:    0849        I.      LSRS     r1,r1,#1
        0x000004de:    4602        .F      MOV      r2,r0
        0x000004e0:    9602        ..      STR      r6,[sp,#8]
        0x000004e2:    4322        "C      ORRS     r2,r2,r4
        0x000004e4:    d021        !.      BEQ      0x52a ; __aeabi_ddiv + 102
        0x000004e6:    4662        bF      MOV      r2,r12
        0x000004e8:    430a        .C      ORRS     r2,r2,r1
        0x000004ea:    d01e        ..      BEQ      0x52a ; __aeabi_ddiv + 102
        0x000004ec:    0062        b.      LSLS     r2,r4,#1
        0x000004ee:    0d57        W.      LSRS     r7,r2,#21
        0x000004f0:    004a        J.      LSLS     r2,r1,#1
        0x000004f2:    030e        ..      LSLS     r6,r1,#12
        0x000004f4:    0323        #.      LSLS     r3,r4,#12
        0x000004f6:    0d55        U.      LSRS     r5,r2,#21
        0x000004f8:    2401        .$      MOVS     r4,#1
        0x000004fa:    4602        .F      MOV      r2,r0
        0x000004fc:    492c        ,I      LDR      r1,[pc,#176] ; [0x5b0] = 0x3fd
        0x000004fe:    0524        $.      LSLS     r4,r4,#20
        0x00000500:    1b78        x.      SUBS     r0,r7,r5
        0x00000502:    0b1b        ..      LSRS     r3,r3,#12
        0x00000504:    0b36        6.      LSRS     r6,r6,#12
        0x00000506:    1840        @.      ADDS     r0,r0,r1
        0x00000508:    4323        #C      ORRS     r3,r3,r4
        0x0000050a:    4326        &C      ORRS     r6,r6,r4
        0x0000050c:    4661        aF      MOV      r1,r12
        0x0000050e:    9000        ..      STR      r0,[sp,#0]
        0x00000510:    461c        .F      MOV      r4,r3
        0x00000512:    1a50        P.      SUBS     r0,r2,r1
        0x00000514:    41b4        .A      SBCS     r4,r4,r6
        0x00000516:    d303        ..      BCC      0x520 ; __aeabi_ddiv + 92
        0x00000518:    9800        ..      LDR      r0,[sp,#0]
        0x0000051a:    1c40        @.      ADDS     r0,r0,#1
        0x0000051c:    9000        ..      STR      r0,[sp,#0]
        0x0000051e:    e002        ..      B        0x526 ; __aeabi_ddiv + 98
        0x00000520:    1892        ..      ADDS     r2,r2,r2
        0x00000522:    9800        ..      LDR      r0,[sp,#0]
        0x00000524:    415b        [A      ADCS     r3,r3,r3
        0x00000526:    2800        .(      CMP      r0,#0
        0x00000528:    da03        ..      BGE      0x532 ; __aeabi_ddiv + 110
        0x0000052a:    2000        .       MOVS     r0,#0
        0x0000052c:    4601        .F      MOV      r1,r0
        0x0000052e:    b005        ..      ADD      sp,sp,#0x14
        0x00000530:    bdf0        ..      POP      {r4-r7,pc}
        0x00000532:    2000        .       MOVS     r0,#0
        0x00000534:    2101        .!      MOVS     r1,#1
        0x00000536:    0509        ..      LSLS     r1,r1,#20
        0x00000538:    4607        .F      MOV      r7,r0
        0x0000053a:    4686        .F      MOV      lr,r0
        0x0000053c:    e011        ..      B        0x562 ; __aeabi_ddiv + 158
        0x0000053e:    4664        dF      MOV      r4,r12
        0x00000540:    461d        .F      MOV      r5,r3
        0x00000542:    1b14        ..      SUBS     r4,r2,r4
        0x00000544:    41b5        .A      SBCS     r5,r5,r6
        0x00000546:    d306        ..      BCC      0x556 ; __aeabi_ddiv + 146
        0x00000548:    4665        eF      MOV      r5,r12
        0x0000054a:    1b52        R.      SUBS     r2,r2,r5
        0x0000054c:    41b3        .A      SBCS     r3,r3,r6
        0x0000054e:    4674        tF      MOV      r4,lr
        0x00000550:    4307        .C      ORRS     r7,r7,r0
        0x00000552:    430c        .C      ORRS     r4,r4,r1
        0x00000554:    46a6        .F      MOV      lr,r4
        0x00000556:    07cd        ..      LSLS     r5,r1,#31
        0x00000558:    0840        @.      LSRS     r0,r0,#1
        0x0000055a:    0849        I.      LSRS     r1,r1,#1
        0x0000055c:    4328        (C      ORRS     r0,r0,r5
        0x0000055e:    1892        ..      ADDS     r2,r2,r2
        0x00000560:    415b        [A      ADCS     r3,r3,r3
        0x00000562:    4605        .F      MOV      r5,r0
        0x00000564:    430d        .C      ORRS     r5,r5,r1
        0x00000566:    d1ea        ..      BNE      0x53e ; __aeabi_ddiv + 122
        0x00000568:    4610        .F      MOV      r0,r2
        0x0000056a:    4318        .C      ORRS     r0,r0,r3
        0x0000056c:    d013        ..      BEQ      0x596 ; __aeabi_ddiv + 210
        0x0000056e:    4660        `F      MOV      r0,r12
        0x00000570:    4619        .F      MOV      r1,r3
        0x00000572:    4050        P@      EORS     r0,r0,r2
        0x00000574:    4071        q@      EORS     r1,r1,r6
        0x00000576:    4308        .C      ORRS     r0,r0,r1
        0x00000578:    d006        ..      BEQ      0x588 ; __aeabi_ddiv + 196
        0x0000057a:    4660        `F      MOV      r0,r12
        0x0000057c:    1a10        ..      SUBS     r0,r2,r0
        0x0000057e:    41b3        .A      SBCS     r3,r3,r6
        0x00000580:    d206        ..      BCS      0x590 ; __aeabi_ddiv + 204
        0x00000582:    2201        ."      MOVS     r2,#1
        0x00000584:    2300        .#      MOVS     r3,#0
        0x00000586:    e006        ..      B        0x596 ; __aeabi_ddiv + 210
        0x00000588:    2200        ."      MOVS     r2,#0
        0x0000058a:    2301        .#      MOVS     r3,#1
        0x0000058c:    07db        ..      LSLS     r3,r3,#31
        0x0000058e:    e002        ..      B        0x596 ; __aeabi_ddiv + 210
        0x00000590:    2201        ."      MOVS     r2,#1
        0x00000592:    43d2        .C      MVNS     r2,r2
        0x00000594:    1053        S.      ASRS     r3,r2,#1
        0x00000596:    9800        ..      LDR      r0,[sp,#0]
        0x00000598:    4674        tF      MOV      r4,lr
        0x0000059a:    0501        ..      LSLS     r1,r0,#20
        0x0000059c:    1c38        8.      ADDS     r0,r7,#0
        0x0000059e:    4161        aA      ADCS     r1,r1,r4
        0x000005a0:    9c02        ..      LDR      r4,[sp,#8]
        0x000005a2:    9d03        ..      LDR      r5,[sp,#0xc]
        0x000005a4:    1900        ..      ADDS     r0,r0,r4
        0x000005a6:    4169        iA      ADCS     r1,r1,r5
        0x000005a8:    f000f8a3    ....    BL       _double_round ; 0x6f2
        0x000005ac:    e7bf        ..      B        0x52e ; __aeabi_ddiv + 106
    $d
        0x000005ae:    0000        ..      DCW    0
        0x000005b0:    000003fd    ....    DCD    1021
    $t
    .text
    __aeabi_d2ulz
        0x000005b4:    004a        J.      LSLS     r2,r1,#1
        0x000005b6:    0309        ..      LSLS     r1,r1,#12
        0x000005b8:    2301        .#      MOVS     r3,#1
        0x000005ba:    0b09        ..      LSRS     r1,r1,#12
        0x000005bc:    051b        ..      LSLS     r3,r3,#20
        0x000005be:    4319        .C      ORRS     r1,r1,r3
        0x000005c0:    4b0a        .K      LDR      r3,[pc,#40] ; [0x5ec] = 0x3ff
        0x000005c2:    b510        ..      PUSH     {r4,lr}
        0x000005c4:    0d52        R.      LSRS     r2,r2,#21
        0x000005c6:    429a        .B      CMP      r2,r3
        0x000005c8:    da02        ..      BGE      0x5d0 ; __aeabi_d2ulz + 28
        0x000005ca:    2000        .       MOVS     r0,#0
        0x000005cc:    4601        .F      MOV      r1,r0
        0x000005ce:    bd10        ..      POP      {r4,pc}
        0x000005d0:    4b06        .K      LDR      r3,[pc,#24] ; [0x5ec] = 0x3ff
        0x000005d2:    3334        43      ADDS     r3,r3,#0x34
        0x000005d4:    429a        .B      CMP      r2,r3
        0x000005d6:    dc03        ..      BGT      0x5e0 ; __aeabi_d2ulz + 44
        0x000005d8:    1a9a        ..      SUBS     r2,r3,r2
        0x000005da:    f000f866    ..f.    BL       __aeabi_llsr ; 0x6aa
        0x000005de:    bd10        ..      POP      {r4,pc}
        0x000005e0:    4b03        .K      LDR      r3,[pc,#12] ; [0x5f0] = 0xfffffbcd
        0x000005e2:    18d2        ..      ADDS     r2,r2,r3
        0x000005e4:    f000f851    ..Q.    BL       __aeabi_llsl ; 0x68a
        0x000005e8:    bd10        ..      POP      {r4,pc}
    $d
        0x000005ea:    0000        ..      DCW    0
        0x000005ec:    000003ff    ....    DCD    1023
        0x000005f0:    fffffbcd    ....    DCD    4294966221
    $t
    .text
    __aeabi_cdrcmple
        0x000005f4:    b510        ..      PUSH     {r4,lr}
        0x000005f6:    2900        .)      CMP      r1,#0
        0x000005f8:    db04        ..      BLT      0x604 ; __aeabi_cdrcmple + 16
        0x000005fa:    2401        .$      MOVS     r4,#1
        0x000005fc:    07e4        ..      LSLS     r4,r4,#31
        0x000005fe:    4240        @B      RSBS     r0,r0,#0
        0x00000600:    418c        .A      SBCS     r4,r4,r1
        0x00000602:    4621        !F      MOV      r1,r4
        0x00000604:    2b00        .+      CMP      r3,#0
        0x00000606:    db04        ..      BLT      0x612 ; __aeabi_cdrcmple + 30
        0x00000608:    461c        .F      MOV      r4,r3
        0x0000060a:    2301        .#      MOVS     r3,#1
        0x0000060c:    07db        ..      LSLS     r3,r3,#31
        0x0000060e:    4252        RB      RSBS     r2,r2,#0
        0x00000610:    41a3        .A      SBCS     r3,r3,r4
        0x00000612:    4299        .B      CMP      r1,r3
        0x00000614:    d100        ..      BNE      0x618 ; __aeabi_cdrcmple + 36
        0x00000616:    4290        .B      CMP      r0,r2
        0x00000618:    bd10        ..      POP      {r4,pc}
    $d
        0x0000061a:    0000        ..      DCW    0
    $t
    .text
    __scatterload
    __scatterload_rt2
        0x0000061c:    b51c        ..      PUSH     {r2-r4,lr}
        0x0000061e:    4809        .H      LDR      r0,[pc,#36] ; [0x644] = 0x7764
        0x00000620:    9000        ..      STR      r0,[sp,#0]
        0x00000622:    4809        .H      LDR      r0,[pc,#36] ; [0x648] = 0x7784
        0x00000624:    9001        ..      STR      r0,[sp,#4]
        0x00000626:    4605        .F      MOV      r5,r0
        0x00000628:    2601        .&      MOVS     r6,#1
        0x0000062a:    9c00        ..      LDR      r4,[sp,#0]
        0x0000062c:    e005        ..      B        0x63a ; __scatterload + 30
        0x0000062e:    68e3        .h      LDR      r3,[r4,#0xc]
        0x00000630:    cc07        ..      LDM      r4!,{r0-r2}
        0x00000632:    4333        3C      ORRS     r3,r3,r6
        0x00000634:    3c0c        .<      SUBS     r4,r4,#0xc
        0x00000636:    4798        .G      BLX      r3
        0x00000638:    3410        .4      ADDS     r4,r4,#0x10
        0x0000063a:    42ac        .B      CMP      r4,r5
        0x0000063c:    d3f7        ..      BCC      0x62e ; __scatterload + 18
        0x0000063e:    f7fffdcf    ....    BL       __main_after_scatterload ; 0x1e0
    $d
        0x00000642:    0000        ..      DCW    0
        0x00000644:    00007764    dw..    DCD    30564
        0x00000648:    00007784    .w..    DCD    30596
    $t
    .text
    __aeabi_uidiv$div0
    __aeabi_uidivmod
        0x0000064c:    b570        p.      PUSH     {r4-r6,lr}
        0x0000064e:    4604        .F      MOV      r4,r0
        0x00000650:    2900        .)      CMP      r1,#0
        0x00000652:    d003        ..      BEQ      0x65c ; __aeabi_uidiv$div0 + 16
        0x00000654:    2000        .       MOVS     r0,#0
        0x00000656:    2220         "      MOVS     r2,#0x20
        0x00000658:    2301        .#      MOVS     r3,#1
        0x0000065a:    e010        ..      B        0x67e ; __aeabi_uidiv$div0 + 50
        0x0000065c:    2800        .(      CMP      r0,#0
        0x0000065e:    d001        ..      BEQ      0x664 ; __aeabi_uidiv$div0 + 24
        0x00000660:    2000        .       MOVS     r0,#0
        0x00000662:    43c0        .C      MVNS     r0,r0
        0x00000664:    46c0        .F      MOV      r8,r8
        0x00000666:    46c0        .F      MOV      r8,r8
        0x00000668:    e00d        ..      B        0x686 ; __aeabi_uidiv$div0 + 58
        0x0000066a:    4625        %F      MOV      r5,r4
        0x0000066c:    40d5        .@      LSRS     r5,r5,r2
        0x0000066e:    428d        .B      CMP      r5,r1
        0x00000670:    d305        ..      BCC      0x67e ; __aeabi_uidiv$div0 + 50
        0x00000672:    460d        .F      MOV      r5,r1
        0x00000674:    4095        .@      LSLS     r5,r5,r2
        0x00000676:    1b64        d.      SUBS     r4,r4,r5
        0x00000678:    461d        .F      MOV      r5,r3
        0x0000067a:    4095        .@      LSLS     r5,r5,r2
        0x0000067c:    1940        @.      ADDS     r0,r0,r5
        0x0000067e:    4615        .F      MOV      r5,r2
        0x00000680:    1e52        R.      SUBS     r2,r2,#1
        0x00000682:    2d00        .-      CMP      r5,#0
        0x00000684:    dcf1        ..      BGT      0x66a ; __aeabi_uidiv$div0 + 30
        0x00000686:    4621        !F      MOV      r1,r4
        0x00000688:    bd70        p.      POP      {r4-r6,pc}
    .text
    __aeabi_llsl
    _ll_shift_l
        0x0000068a:    b510        ..      PUSH     {r4,lr}
        0x0000068c:    2a20         *      CMP      r2,#0x20
        0x0000068e:    db04        ..      BLT      0x69a ; __aeabi_llsl + 16
        0x00000690:    4601        .F      MOV      r1,r0
        0x00000692:    3a20         :      SUBS     r2,r2,#0x20
        0x00000694:    4091        .@      LSLS     r1,r1,r2
        0x00000696:    2000        .       MOVS     r0,#0
        0x00000698:    bd10        ..      POP      {r4,pc}
        0x0000069a:    4091        .@      LSLS     r1,r1,r2
        0x0000069c:    2320         #      MOVS     r3,#0x20
        0x0000069e:    1a9c        ..      SUBS     r4,r3,r2
        0x000006a0:    4603        .F      MOV      r3,r0
        0x000006a2:    40e3        .@      LSRS     r3,r3,r4
        0x000006a4:    4319        .C      ORRS     r1,r1,r3
        0x000006a6:    4090        .@      LSLS     r0,r0,r2
        0x000006a8:    bd10        ..      POP      {r4,pc}
    .text
    __aeabi_llsr
    _ll_ushift_r
        0x000006aa:    b510        ..      PUSH     {r4,lr}
        0x000006ac:    2a20         *      CMP      r2,#0x20
        0x000006ae:    db04        ..      BLT      0x6ba ; __aeabi_llsr + 16
        0x000006b0:    4608        .F      MOV      r0,r1
        0x000006b2:    3a20         :      SUBS     r2,r2,#0x20
        0x000006b4:    40d0        .@      LSRS     r0,r0,r2
        0x000006b6:    2100        .!      MOVS     r1,#0
        0x000006b8:    bd10        ..      POP      {r4,pc}
        0x000006ba:    460b        .F      MOV      r3,r1
        0x000006bc:    40d3        .@      LSRS     r3,r3,r2
        0x000006be:    40d0        .@      LSRS     r0,r0,r2
        0x000006c0:    2420         $      MOVS     r4,#0x20
        0x000006c2:    1aa2        ..      SUBS     r2,r4,r2
        0x000006c4:    4091        .@      LSLS     r1,r1,r2
        0x000006c6:    4308        .C      ORRS     r0,r0,r1
        0x000006c8:    4619        .F      MOV      r1,r3
        0x000006ca:    bd10        ..      POP      {r4,pc}
    .text
    __aeabi_lasr
    _ll_sshift_r
        0x000006cc:    b510        ..      PUSH     {r4,lr}
        0x000006ce:    2a20         *      CMP      r2,#0x20
        0x000006d0:    db06        ..      BLT      0x6e0 ; __aeabi_lasr + 20
        0x000006d2:    17cb        ..      ASRS     r3,r1,#31
        0x000006d4:    4608        .F      MOV      r0,r1
        0x000006d6:    3a20         :      SUBS     r2,r2,#0x20
        0x000006d8:    4110        .A      ASRS     r0,r0,r2
        0x000006da:    17c1        ..      ASRS     r1,r0,#31
        0x000006dc:    430b        .C      ORRS     r3,r3,r1
        0x000006de:    e006        ..      B        0x6ee ; __aeabi_lasr + 34
        0x000006e0:    460b        .F      MOV      r3,r1
        0x000006e2:    4113        .A      ASRS     r3,r3,r2
        0x000006e4:    40d0        .@      LSRS     r0,r0,r2
        0x000006e6:    2420         $      MOVS     r4,#0x20
        0x000006e8:    1aa2        ..      SUBS     r2,r4,r2
        0x000006ea:    4091        .@      LSLS     r1,r1,r2
        0x000006ec:    4308        .C      ORRS     r0,r0,r1
        0x000006ee:    4619        .F      MOV      r1,r3
        0x000006f0:    bd10        ..      POP      {r4,pc}
    .text
    _double_round
        0x000006f2:    b510        ..      PUSH     {r4,lr}
        0x000006f4:    2b00        .+      CMP      r3,#0
        0x000006f6:    da08        ..      BGE      0x70a ; _double_round + 24
        0x000006f8:    2400        .$      MOVS     r4,#0
        0x000006fa:    1c40        @.      ADDS     r0,r0,#1
        0x000006fc:    4161        aA      ADCS     r1,r1,r4
        0x000006fe:    1892        ..      ADDS     r2,r2,r2
        0x00000700:    415b        [A      ADCS     r3,r3,r3
        0x00000702:    431a        .C      ORRS     r2,r2,r3
        0x00000704:    d101        ..      BNE      0x70a ; _double_round + 24
        0x00000706:    0840        @.      LSRS     r0,r0,#1
        0x00000708:    0040        @.      LSLS     r0,r0,#1
        0x0000070a:    bd10        ..      POP      {r4,pc}
    _double_epilogue
        0x0000070c:    b5f0        ..      PUSH     {r4-r7,lr}
        0x0000070e:    b41f        ..      PUSH     {r0-r4}
        0x00000710:    b082        ..      SUB      sp,sp,#8
        0x00000712:    4605        .F      MOV      r5,r0
        0x00000714:    000c        ..      MOVS     r4,r1
        0x00000716:    d003        ..      BEQ      0x720 ; _double_epilogue + 20
        0x00000718:    4608        .F      MOV      r0,r1
        0x0000071a:    f006fb4f    ..O.    BL       __ARM_clz ; 0x6dbc
        0x0000071e:    e002        ..      B        0x726 ; _double_epilogue + 26
        0x00000720:    f006fb4c    ..L.    BL       __ARM_clz ; 0x6dbc
        0x00000724:    3020         0      ADDS     r0,r0,#0x20
        0x00000726:    4602        .F      MOV      r2,r0
        0x00000728:    9000        ..      STR      r0,[sp,#0]
        0x0000072a:    4621        !F      MOV      r1,r4
        0x0000072c:    4628        (F      MOV      r0,r5
        0x0000072e:    f7ffffac    ....    BL       __aeabi_llsl ; 0x68a
        0x00000732:    9b04        ..      LDR      r3,[sp,#0x10]
        0x00000734:    9a05        ..      LDR      r2,[sp,#0x14]
        0x00000736:    4604        .F      MOV      r4,r0
        0x00000738:    460f        .F      MOV      r7,r1
        0x0000073a:    4318        .C      ORRS     r0,r0,r3
        0x0000073c:    4311        .C      ORRS     r1,r1,r2
        0x0000073e:    4308        .C      ORRS     r0,r0,r1
        0x00000740:    d014        ..      BEQ      0x76c ; _double_epilogue + 96
        0x00000742:    4618        .F      MOV      r0,r3
        0x00000744:    4310        .C      ORRS     r0,r0,r2
        0x00000746:    d01b        ..      BEQ      0x780 ; _double_epilogue + 116
        0x00000748:    9800        ..      LDR      r0,[sp,#0]
        0x0000074a:    2140        @!      MOVS     r1,#0x40
        0x0000074c:    1a0a        ..      SUBS     r2,r1,r0
        0x0000074e:    4618        .F      MOV      r0,r3
        0x00000750:    9905        ..      LDR      r1,[sp,#0x14]
        0x00000752:    f7ffffaa    ....    BL       __aeabi_llsr ; 0x6aa
        0x00000756:    4605        .F      MOV      r5,r0
        0x00000758:    460e        .F      MOV      r6,r1
        0x0000075a:    9a00        ..      LDR      r2,[sp,#0]
        0x0000075c:    9905        ..      LDR      r1,[sp,#0x14]
        0x0000075e:    9804        ..      LDR      r0,[sp,#0x10]
        0x00000760:    f7ffff93    ....    BL       __aeabi_llsl ; 0x68a
        0x00000764:    4308        .C      ORRS     r0,r0,r1
        0x00000766:    d005        ..      BEQ      0x774 ; _double_epilogue + 104
        0x00000768:    2001        .       MOVS     r0,#1
        0x0000076a:    e004        ..      B        0x776 ; _double_epilogue + 106
        0x0000076c:    4620         F      MOV      r0,r4
        0x0000076e:    4639        9F      MOV      r1,r7
        0x00000770:    b007        ..      ADD      sp,sp,#0x1c
        0x00000772:    bdf0        ..      POP      {r4-r7,pc}
        0x00000774:    2000        .       MOVS     r0,#0
        0x00000776:    17c1        ..      ASRS     r1,r0,#31
        0x00000778:    4305        .C      ORRS     r5,r5,r0
        0x0000077a:    430e        .C      ORRS     r6,r6,r1
        0x0000077c:    432c        ,C      ORRS     r4,r4,r5
        0x0000077e:    4337        7C      ORRS     r7,r7,r6
        0x00000780:    9900        ..      LDR      r1,[sp,#0]
        0x00000782:    980e        ..      LDR      r0,[sp,#0x38]
        0x00000784:    0563        c.      LSLS     r3,r4,#21
        0x00000786:    1a40        @.      SUBS     r0,r0,r1
        0x00000788:    0579        y.      LSLS     r1,r7,#21
        0x0000078a:    0ae4        ..      LSRS     r4,r4,#11
        0x0000078c:    2200        ."      MOVS     r2,#0
        0x0000078e:    430c        .C      ORRS     r4,r4,r1
        0x00000790:    0afd        ..      LSRS     r5,r7,#11
        0x00000792:    300a        .0      ADDS     r0,r0,#0xa
        0x00000794:    d502        ..      BPL      0x79c ; _double_epilogue + 144
        0x00000796:    2000        .       MOVS     r0,#0
        0x00000798:    4601        .F      MOV      r1,r0
        0x0000079a:    e7e9        ..      B        0x770 ; _double_epilogue + 100
        0x0000079c:    0501        ..      LSLS     r1,r0,#20
        0x0000079e:    1910        ..      ADDS     r0,r2,r4
        0x000007a0:    4169        iA      ADCS     r1,r1,r5
        0x000007a2:    9c0c        ..      LDR      r4,[sp,#0x30]
        0x000007a4:    9d0d        ..      LDR      r5,[sp,#0x34]
        0x000007a6:    1900        ..      ADDS     r0,r0,r4
        0x000007a8:    4169        iA      ADCS     r1,r1,r5
        0x000007aa:    f7ffffa2    ....    BL       _double_round ; 0x6f2
        0x000007ae:    e7df        ..      B        0x770 ; _double_epilogue + 100
    CLK_EnableModuleClock
        0x000007b0:    b083        ..      SUB      sp,sp,#0xc
        0x000007b2:    9002        ..      STR      r0,[sp,#8]
        0x000007b4:    2000        .       MOVS     r0,#0
        0x000007b6:    9001        ..      STR      r0,[sp,#4]
        0x000007b8:    9000        ..      STR      r0,[sp,#0]
        0x000007ba:    9902        ..      LDR      r1,[sp,#8]
        0x000007bc:    201f        .       MOVS     r0,#0x1f
        0x000007be:    4001        .@      ANDS     r1,r1,r0
        0x000007c0:    2001        .       MOVS     r0,#1
        0x000007c2:    4088        .@      LSLS     r0,r0,r1
        0x000007c4:    9001        ..      STR      r0,[sp,#4]
        0x000007c6:    4807        .H      LDR      r0,[pc,#28] ; [0x7e4] = 0x40000204
        0x000007c8:    9000        ..      STR      r0,[sp,#0]
        0x000007ca:    9802        ..      LDR      r0,[sp,#8]
        0x000007cc:    0f80        ..      LSRS     r0,r0,#30
        0x000007ce:    0081        ..      LSLS     r1,r0,#2
        0x000007d0:    9800        ..      LDR      r0,[sp,#0]
        0x000007d2:    1840        @.      ADDS     r0,r0,r1
        0x000007d4:    9000        ..      STR      r0,[sp,#0]
        0x000007d6:    9a01        ..      LDR      r2,[sp,#4]
        0x000007d8:    9900        ..      LDR      r1,[sp,#0]
        0x000007da:    6808        .h      LDR      r0,[r1,#0]
        0x000007dc:    4310        .C      ORRS     r0,r0,r2
        0x000007de:    6008        .`      STR      r0,[r1,#0]
        0x000007e0:    b003        ..      ADD      sp,sp,#0xc
        0x000007e2:    4770        pG      BX       lr
    $d
    __arm_cp.18_0
        0x000007e4:    40000204    ...@    DCD    1073742340
    $t
    CLK_EnableXtalRC
        0x000007e8:    b081        ..      SUB      sp,sp,#4
        0x000007ea:    9000        ..      STR      r0,[sp,#0]
        0x000007ec:    9a00        ..      LDR      r2,[sp,#0]
        0x000007ee:    49eb        .I      LDR      r1,[pc,#940] ; [0xb9c] = 0x40000200
        0x000007f0:    6808        .h      LDR      r0,[r1,#0]
        0x000007f2:    4310        .C      ORRS     r0,r0,r2
        0x000007f4:    6008        .`      STR      r0,[r1,#0]
        0x000007f6:    b001        ..      ADD      sp,sp,#4
        0x000007f8:    4770        pG      BX       lr
        0x000007fa:    46c0        .F      MOV      r8,r8
    CLK_GetCPUFreq
        0x000007fc:    b5b0        ..      PUSH     {r4,r5,r7,lr}
        0x000007fe:    b092        ..      SUB      sp,sp,#0x48
        0x00000800:    4950        PI      LDR      r1,[pc,#320] ; [0x944] = 0x76b4
        0x00000802:    a807        ..      ADD      r0,sp,#0x1c
        0x00000804:    c93c        <.      LDM      r1!,{r2-r5}
        0x00000806:    c03c        <.      STM      r0!,{r2-r5}
        0x00000808:    c93c        <.      LDM      r1!,{r2-r5}
        0x0000080a:    c03c        <.      STM      r0!,{r2-r5}
        0x0000080c:    48bd        .H      LDR      r0,[pc,#756] ; [0xb04] = 0x4020201
        0x0000080e:    9001        ..      STR      r0,[sp,#4]
        0x00000810:    484d        MH      LDR      r0,[pc,#308] ; [0x948] = 0x40000208
        0x00000812:    6800        .h      LDR      r0,[r0,#0]
        0x00000814:    2102        .!      MOVS     r1,#2
        0x00000816:    4008        .@      ANDS     r0,r0,r1
        0x00000818:    9000        ..      STR      r0,[sp,#0]
        0x0000081a:    48bb        .H      LDR      r0,[pc,#748] ; [0xb08] = 0x40000240
        0x0000081c:    6800        .h      LDR      r0,[r0,#0]
        0x0000081e:    9006        ..      STR      r0,[sp,#0x18]
        0x00000820:    a806        ..      ADD      r0,sp,#0x18
        0x00000822:    7880        .x      LDRB     r0,[r0,#2]
        0x00000824:    2105        .!      MOVS     r1,#5
        0x00000826:    4208        .B      TST      r0,r1
        0x00000828:    d004        ..      BEQ      0x834 ; CLK_GetCPUFreq + 56
        0x0000082a:    e7ff        ..      B        0x82c ; CLK_GetCPUFreq + 48
        0x0000082c:    4947        GI      LDR      r1,[pc,#284] ; [0x94c] = 0x20000004
        0x0000082e:    2000        .       MOVS     r0,#0
        0x00000830:    6008        .`      STR      r0,[r1,#0]
        0x00000832:    e037        7.      B        0x8a4 ; CLK_GetCPUFreq + 168
        0x00000834:    a806        ..      ADD      r0,sp,#0x18
        0x00000836:    7880        .x      LDRB     r0,[r0,#2]
        0x00000838:    0700        ..      LSLS     r0,r0,#28
        0x0000083a:    2800        .(      CMP      r0,#0
        0x0000083c:    d503        ..      BPL      0x846 ; CLK_GetCPUFreq + 74
        0x0000083e:    e7ff        ..      B        0x840 ; CLK_GetCPUFreq + 68
        0x00000840:    48b2        .H      LDR      r0,[pc,#712] ; [0xb0c] = 0xb71b00
        0x00000842:    9005        ..      STR      r0,[sp,#0x14]
        0x00000844:    e002        ..      B        0x84c ; CLK_GetCPUFreq + 80
        0x00000846:    48b1        .H      LDR      r0,[pc,#708] ; [0xb0c] = 0xb71b00
        0x00000848:    9005        ..      STR      r0,[sp,#0x14]
        0x0000084a:    e7ff        ..      B        0x84c ; CLK_GetCPUFreq + 80
        0x0000084c:    a806        ..      ADD      r0,sp,#0x18
        0x0000084e:    7880        .x      LDRB     r0,[r0,#2]
        0x00000850:    0780        ..      LSLS     r0,r0,#30
        0x00000852:    2800        .(      CMP      r0,#0
        0x00000854:    d504        ..      BPL      0x860 ; CLK_GetCPUFreq + 100
        0x00000856:    e7ff        ..      B        0x858 ; CLK_GetCPUFreq + 92
        0x00000858:    9805        ..      LDR      r0,[sp,#0x14]
        0x0000085a:    493c        <I      LDR      r1,[pc,#240] ; [0x94c] = 0x20000004
        0x0000085c:    6008        .`      STR      r0,[r1,#0]
        0x0000085e:    e020         .      B        0x8a2 ; CLK_GetCPUFreq + 166
        0x00000860:    a806        ..      ADD      r0,sp,#0x18
        0x00000862:    8800        ..      LDRH     r0,[r0,#0]
        0x00000864:    0b81        ..      LSRS     r1,r0,#14
        0x00000866:    a801        ..      ADD      r0,sp,#4
        0x00000868:    1840        @.      ADDS     r0,r0,r1
        0x0000086a:    7800        .x      LDRB     r0,[r0,#0]
        0x0000086c:    9002        ..      STR      r0,[sp,#8]
        0x0000086e:    9806        ..      LDR      r0,[sp,#0x18]
        0x00000870:    49a7        .I      LDR      r1,[pc,#668] ; [0xb10] = 0x1ff
        0x00000872:    4008        .@      ANDS     r0,r0,r1
        0x00000874:    1c80        ..      ADDS     r0,r0,#2
        0x00000876:    9004        ..      STR      r0,[sp,#0x10]
        0x00000878:    9806        ..      LDR      r0,[sp,#0x18]
        0x0000087a:    f6436100    C..a    MOVW     r1,#0x3e00
        0x0000087e:    4008        .@      ANDS     r0,r0,r1
        0x00000880:    0a40        @.      LSRS     r0,r0,#9
        0x00000882:    1c40        @.      ADDS     r0,r0,#1
        0x00000884:    9003        ..      STR      r0,[sp,#0xc]
        0x00000886:    9805        ..      LDR      r0,[sp,#0x14]
        0x00000888:    0880        ..      LSRS     r0,r0,#2
        0x0000088a:    9904        ..      LDR      r1,[sp,#0x10]
        0x0000088c:    4348        HC      MULS     r0,r1,r0
        0x0000088e:    0040        @.      LSLS     r0,r0,#1
        0x00000890:    9a03        ..      LDR      r2,[sp,#0xc]
        0x00000892:    9902        ..      LDR      r1,[sp,#8]
        0x00000894:    4351        QC      MULS     r1,r2,r1
        0x00000896:    fbb0f0f1    ....    UDIV     r0,r0,r1
        0x0000089a:    0080        ..      LSLS     r0,r0,#2
        0x0000089c:    492b        +I      LDR      r1,[pc,#172] ; [0x94c] = 0x20000004
        0x0000089e:    6008        .`      STR      r0,[r1,#0]
        0x000008a0:    e7ff        ..      B        0x8a2 ; CLK_GetCPUFreq + 166
        0x000008a2:    e7ff        ..      B        0x8a4 ; CLK_GetCPUFreq + 168
        0x000008a4:    48e7        .H      LDR      r0,[pc,#924] ; [0xc44] = 0x40000210
        0x000008a6:    6800        .h      LDR      r0,[r0,#0]
        0x000008a8:    2107        .!      MOVS     r1,#7
        0x000008aa:    4008        .@      ANDS     r0,r0,r1
        0x000008ac:    9010        ..      STR      r0,[sp,#0x40]
        0x000008ae:    9810        ..      LDR      r0,[sp,#0x40]
        0x000008b0:    2801        .(      CMP      r0,#1
        0x000008b2:    d121        !.      BNE      0x8f8 ; CLK_GetCPUFreq + 252
        0x000008b4:    e7ff        ..      B        0x8b6 ; CLK_GetCPUFreq + 186
        0x000008b6:    9800        ..      LDR      r0,[sp,#0]
        0x000008b8:    b930        0.      CBNZ     r0,0x8c8 ; CLK_GetCPUFreq + 204
        0x000008ba:    e7ff        ..      B        0x8bc ; CLK_GetCPUFreq + 192
        0x000008bc:    4922        "I      LDR      r1,[pc,#136] ; [0x948] = 0x40000208
        0x000008be:    6808        .h      LDR      r0,[r1,#0]
        0x000008c0:    2202        ."      MOVS     r2,#2
        0x000008c2:    4310        .C      ORRS     r0,r0,r2
        0x000008c4:    6008        .`      STR      r0,[r1,#0]
        0x000008c6:    e7ff        ..      B        0x8c8 ; CLK_GetCPUFreq + 204
        0x000008c8:    4821        !H      LDR      r0,[pc,#132] ; [0x950] = 0x40041100
        0x000008ca:    6800        .h      LDR      r0,[r0,#0]
        0x000008cc:    0600        ..      LSLS     r0,r0,#24
        0x000008ce:    2800        .(      CMP      r0,#0
        0x000008d0:    d504        ..      BPL      0x8dc ; CLK_GetCPUFreq + 224
        0x000008d2:    e7ff        ..      B        0x8d4 ; CLK_GetCPUFreq + 216
        0x000008d4:    f6475000    G..P    MOVW     r0,#0x7d00
        0x000008d8:    9011        ..      STR      r0,[sp,#0x44]
        0x000008da:    e003        ..      B        0x8e4 ; CLK_GetCPUFreq + 232
        0x000008dc:    f2480000    H...    MOVW     r0,#0x8000
        0x000008e0:    9011        ..      STR      r0,[sp,#0x44]
        0x000008e2:    e7ff        ..      B        0x8e4 ; CLK_GetCPUFreq + 232
        0x000008e4:    9800        ..      LDR      r0,[sp,#0]
        0x000008e6:    b930        0.      CBNZ     r0,0x8f6 ; CLK_GetCPUFreq + 250
        0x000008e8:    e7ff        ..      B        0x8ea ; CLK_GetCPUFreq + 238
        0x000008ea:    4917        .I      LDR      r1,[pc,#92] ; [0x948] = 0x40000208
        0x000008ec:    6808        .h      LDR      r0,[r1,#0]
        0x000008ee:    2202        ."      MOVS     r2,#2
        0x000008f0:    4390        .C      BICS     r0,r0,r2
        0x000008f2:    6008        .`      STR      r0,[r1,#0]
        0x000008f4:    e7ff        ..      B        0x8f6 ; CLK_GetCPUFreq + 250
        0x000008f6:    e00e        ..      B        0x916 ; CLK_GetCPUFreq + 282
        0x000008f8:    9810        ..      LDR      r0,[sp,#0x40]
        0x000008fa:    2802        .(      CMP      r0,#2
        0x000008fc:    d104        ..      BNE      0x908 ; CLK_GetCPUFreq + 268
        0x000008fe:    e7ff        ..      B        0x900 ; CLK_GetCPUFreq + 260
        0x00000900:    4812        .H      LDR      r0,[pc,#72] ; [0x94c] = 0x20000004
        0x00000902:    6800        .h      LDR      r0,[r0,#0]
        0x00000904:    9011        ..      STR      r0,[sp,#0x44]
        0x00000906:    e005        ..      B        0x914 ; CLK_GetCPUFreq + 280
        0x00000908:    9810        ..      LDR      r0,[sp,#0x40]
        0x0000090a:    0081        ..      LSLS     r1,r0,#2
        0x0000090c:    a807        ..      ADD      r0,sp,#0x1c
        0x0000090e:    5840        @X      LDR      r0,[r0,r1]
        0x00000910:    9011        ..      STR      r0,[sp,#0x44]
        0x00000912:    e7ff        ..      B        0x914 ; CLK_GetCPUFreq + 280
        0x00000914:    e7ff        ..      B        0x916 ; CLK_GetCPUFreq + 282
        0x00000916:    48ca        .H      LDR      r0,[pc,#808] ; [0xc40] = 0x40000220
        0x00000918:    6800        .h      LDR      r0,[r0,#0]
        0x0000091a:    210f        .!      MOVS     r1,#0xf
        0x0000091c:    4008        .@      ANDS     r0,r0,r1
        0x0000091e:    1c40        @.      ADDS     r0,r0,#1
        0x00000920:    900f        ..      STR      r0,[sp,#0x3c]
        0x00000922:    9811        ..      LDR      r0,[sp,#0x44]
        0x00000924:    990f        ..      LDR      r1,[sp,#0x3c]
        0x00000926:    fbb0f1f1    ....    UDIV     r1,r0,r1
        0x0000092a:    48d5        .H      LDR      r0,[pc,#852] ; [0xc80] = 0x20000008
        0x0000092c:    6001        .`      STR      r1,[r0,#0]
        0x0000092e:    6801        .h      LDR      r1,[r0,#0]
        0x00000930:    4a08        .J      LDR      r2,[pc,#32] ; [0x954] = 0x7a120
        0x00000932:    1889        ..      ADDS     r1,r1,r2
        0x00000934:    4a08        .J      LDR      r2,[pc,#32] ; [0x958] = 0xf4240
        0x00000936:    fbb1f1f2    ....    UDIV     r1,r1,r2
        0x0000093a:    4a08        .J      LDR      r2,[pc,#32] ; [0x95c] = 0x20000000
        0x0000093c:    6011        .`      STR      r1,[r2,#0]
        0x0000093e:    6800        .h      LDR      r0,[r0,#0]
        0x00000940:    b012        ..      ADD      sp,sp,#0x48
        0x00000942:    bdb0        ..      POP      {r4,r5,r7,pc}
    $d
    __arm_cp.9_0
        0x00000944:    000076b4    .v..    DCD    30388
    __arm_cp.9_2
        0x00000948:    40000208    ...@    DCD    1073742344
    __arm_cp.9_6
        0x0000094c:    20000004    ...     DCD    536870916
    __arm_cp.9_8
        0x00000950:    40041100    ...@    DCD    1074008320
    __arm_cp.9_11
        0x00000954:    0007a120     ...    DCD    500000
    __arm_cp.9_12
        0x00000958:    000f4240    @B..    DCD    1000000
    __arm_cp.9_13
        0x0000095c:    20000000    ...     DCD    536870912
    $t
    CLK_GetHCLKFreq
        0x00000960:    b580        ..      PUSH     {r7,lr}
        0x00000962:    f000fcd1    ....    BL       SystemCoreClockUpdate ; 0x1308
        0x00000966:    48c6        .H      LDR      r0,[pc,#792] ; [0xc80] = 0x20000008
        0x00000968:    6800        .h      LDR      r0,[r0,#0]
        0x0000096a:    bd80        ..      POP      {r7,pc}
    CLK_GetModuleClockSource
        0x0000096c:    b087        ..      SUB      sp,sp,#0x1c
        0x0000096e:    9006        ..      STR      r0,[sp,#0x18]
        0x00000970:    2000        .       MOVS     r0,#0
        0x00000972:    9005        ..      STR      r0,[sp,#0x14]
        0x00000974:    9004        ..      STR      r0,[sp,#0x10]
        0x00000976:    210c        .!      MOVS     r1,#0xc
        0x00000978:    9103        ..      STR      r1,[sp,#0xc]
        0x0000097a:    2108        .!      MOVS     r1,#8
        0x0000097c:    9102        ..      STR      r1,[sp,#8]
        0x0000097e:    2104        .!      MOVS     r1,#4
        0x00000980:    9101        ..      STR      r1,[sp,#4]
        0x00000982:    9000        ..      STR      r0,[sp,#0]
        0x00000984:    9806        ..      LDR      r0,[sp,#0x18]
        0x00000986:    4928        (I      LDR      r1,[pc,#160] ; [0xa28] = 0x80000010
        0x00000988:    4288        .B      CMP      r0,r1
        0x0000098a:    d106        ..      BNE      0x99a ; CLK_GetModuleClockSource + 46
        0x0000098c:    e7ff        ..      B        0x98e ; CLK_GetModuleClockSource + 34
        0x0000098e:    482a        *H      LDR      r0,[pc,#168] ; [0xa38] = 0x40000218
        0x00000990:    6800        .h      LDR      r0,[r0,#0]
        0x00000992:    2101        .!      MOVS     r1,#1
        0x00000994:    4008        .@      ANDS     r0,r0,r1
        0x00000996:    9005        ..      STR      r0,[sp,#0x14]
        0x00000998:    e043        C.      B        0xa22 ; CLK_GetModuleClockSource + 182
        0x0000099a:    9806        ..      LDR      r0,[sp,#0x18]
        0x0000099c:    4923        #I      LDR      r1,[pc,#140] ; [0xa2c] = 0x80000011
        0x0000099e:    4288        .B      CMP      r0,r1
        0x000009a0:    d107        ..      BNE      0x9b2 ; CLK_GetModuleClockSource + 70
        0x000009a2:    e7ff        ..      B        0x9a4 ; CLK_GetModuleClockSource + 56
        0x000009a4:    4824        $H      LDR      r0,[pc,#144] ; [0xa38] = 0x40000218
        0x000009a6:    6800        .h      LDR      r0,[r0,#0]
        0x000009a8:    2102        .!      MOVS     r1,#2
        0x000009aa:    4008        .@      ANDS     r0,r0,r1
        0x000009ac:    0840        @.      LSRS     r0,r0,#1
        0x000009ae:    9005        ..      STR      r0,[sp,#0x14]
        0x000009b0:    e036        6.      B        0xa20 ; CLK_GetModuleClockSource + 180
        0x000009b2:    9806        ..      LDR      r0,[sp,#0x18]
        0x000009b4:    491e        .I      LDR      r1,[pc,#120] ; [0xa30] = 0x80000012
        0x000009b6:    4288        .B      CMP      r0,r1
        0x000009b8:    d108        ..      BNE      0x9cc ; CLK_GetModuleClockSource + 96
        0x000009ba:    e7ff        ..      B        0x9bc ; CLK_GetModuleClockSource + 80
        0x000009bc:    481e        .H      LDR      r0,[pc,#120] ; [0xa38] = 0x40000218
        0x000009be:    6800        .h      LDR      r0,[r0,#0]
        0x000009c0:    f2401100    @...    MOVW     r1,#0x100
        0x000009c4:    4008        .@      ANDS     r0,r0,r1
        0x000009c6:    0a00        ..      LSRS     r0,r0,#8
        0x000009c8:    9005        ..      STR      r0,[sp,#0x14]
        0x000009ca:    e028        (.      B        0xa1e ; CLK_GetModuleClockSource + 178
        0x000009cc:    9806        ..      LDR      r0,[sp,#0x18]
        0x000009ce:    4919        .I      LDR      r1,[pc,#100] ; [0xa34] = 0x80000013
        0x000009d0:    4288        .B      CMP      r0,r1
        0x000009d2:    d108        ..      BNE      0x9e6 ; CLK_GetModuleClockSource + 122
        0x000009d4:    e7ff        ..      B        0x9d6 ; CLK_GetModuleClockSource + 106
        0x000009d6:    4818        .H      LDR      r0,[pc,#96] ; [0xa38] = 0x40000218
        0x000009d8:    6800        .h      LDR      r0,[r0,#0]
        0x000009da:    f2402100    @..!    MOVW     r1,#0x200
        0x000009de:    4008        .@      ANDS     r0,r0,r1
        0x000009e0:    0a40        @.      LSRS     r0,r0,#9
        0x000009e2:    9005        ..      STR      r0,[sp,#0x14]
        0x000009e4:    e01a        ..      B        0xa1c ; CLK_GetModuleClockSource + 176
        0x000009e6:    9806        ..      LDR      r0,[sp,#0x18]
        0x000009e8:    0100        ..      LSLS     r0,r0,#4
        0x000009ea:    0f40        @.      LSRS     r0,r0,#29
        0x000009ec:    b1a8        ..      CBZ      r0,0xa1a ; CLK_GetModuleClockSource + 174
        0x000009ee:    e7ff        ..      B        0x9f0 ; CLK_GetModuleClockSource + 132
        0x000009f0:    9806        ..      LDR      r0,[sp,#0x18]
        0x000009f2:    0e81        ..      LSRS     r1,r0,#26
        0x000009f4:    200c        .       MOVS     r0,#0xc
        0x000009f6:    4001        .@      ANDS     r1,r1,r0
        0x000009f8:    4668        hF      MOV      r0,sp
        0x000009fa:    5840        @X      LDR      r0,[r0,r1]
        0x000009fc:    4991        .I      LDR      r1,[pc,#580] ; [0xc44] = 0x40000210
        0x000009fe:    1840        @.      ADDS     r0,r0,r1
        0x00000a00:    9004        ..      STR      r0,[sp,#0x10]
        0x00000a02:    9804        ..      LDR      r0,[sp,#0x10]
        0x00000a04:    6800        .h      LDR      r0,[r0,#0]
        0x00000a06:    9906        ..      LDR      r1,[sp,#0x18]
        0x00000a08:    010a        ..      LSLS     r2,r1,#4
        0x00000a0a:    0f52        R.      LSRS     r2,r2,#29
        0x00000a0c:    01c9        ..      LSLS     r1,r1,#7
        0x00000a0e:    0ec9        ..      LSRS     r1,r1,#27
        0x00000a10:    408a        .@      LSLS     r2,r2,r1
        0x00000a12:    4010        .@      ANDS     r0,r0,r2
        0x00000a14:    40c8        .@      LSRS     r0,r0,r1
        0x00000a16:    9005        ..      STR      r0,[sp,#0x14]
        0x00000a18:    e7ff        ..      B        0xa1a ; CLK_GetModuleClockSource + 174
        0x00000a1a:    e7ff        ..      B        0xa1c ; CLK_GetModuleClockSource + 176
        0x00000a1c:    e7ff        ..      B        0xa1e ; CLK_GetModuleClockSource + 178
        0x00000a1e:    e7ff        ..      B        0xa20 ; CLK_GetModuleClockSource + 180
        0x00000a20:    e7ff        ..      B        0xa22 ; CLK_GetModuleClockSource + 182
        0x00000a22:    9805        ..      LDR      r0,[sp,#0x14]
        0x00000a24:    b007        ..      ADD      sp,sp,#0x1c
        0x00000a26:    4770        pG      BX       lr
    $d
    __arm_cp.28_0
        0x00000a28:    80000010    ....    DCD    2147483664
    __arm_cp.28_1
        0x00000a2c:    80000011    ....    DCD    2147483665
    __arm_cp.28_2
        0x00000a30:    80000012    ....    DCD    2147483666
    __arm_cp.28_3
        0x00000a34:    80000013    ....    DCD    2147483667
    __arm_cp.28_5
        0x00000a38:    40000218    ...@    DCD    1073742360
    $t
    CLK_GetPCLK0Freq
        0x00000a3c:    b580        ..      PUSH     {r7,lr}
        0x00000a3e:    f000fc63    ..c.    BL       SystemCoreClockUpdate ; 0x1308
        0x00000a42:    48cc        .H      LDR      r0,[pc,#816] ; [0xd74] = 0x20000008
        0x00000a44:    6800        .h      LDR      r0,[r0,#0]
        0x00000a46:    4909        .I      LDR      r1,[pc,#36] ; [0xa6c] = 0x40000234
        0x00000a48:    6809        .h      LDR      r1,[r1,#0]
        0x00000a4a:    2207        ."      MOVS     r2,#7
        0x00000a4c:    4011        .@      ANDS     r1,r1,r2
        0x00000a4e:    40c8        .@      LSRS     r0,r0,r1
        0x00000a50:    bd80        ..      POP      {r7,pc}
        0x00000a52:    46c0        .F      MOV      r8,r8
    CLK_GetPCLK1Freq
        0x00000a54:    b580        ..      PUSH     {r7,lr}
        0x00000a56:    f000fc57    ..W.    BL       SystemCoreClockUpdate ; 0x1308
        0x00000a5a:    48c6        .H      LDR      r0,[pc,#792] ; [0xd74] = 0x20000008
        0x00000a5c:    6800        .h      LDR      r0,[r0,#0]
        0x00000a5e:    4903        .I      LDR      r1,[pc,#12] ; [0xa6c] = 0x40000234
        0x00000a60:    6809        .h      LDR      r1,[r1,#0]
        0x00000a62:    2270        p"      MOVS     r2,#0x70
        0x00000a64:    4011        .@      ANDS     r1,r1,r2
        0x00000a66:    0909        ..      LSRS     r1,r1,#4
        0x00000a68:    40c8        .@      LSRS     r0,r0,r1
        0x00000a6a:    bd80        ..      POP      {r7,pc}
    $d
    __arm_cp.8_1
        0x00000a6c:    40000234    4..@    DCD    1073742388
    $t
    CLK_GetPLLClockFreq
        0x00000a70:    b087        ..      SUB      sp,sp,#0x1c
        0x00000a72:    2000        .       MOVS     r0,#0
        0x00000a74:    9006        ..      STR      r0,[sp,#0x18]
        0x00000a76:    4823        #H      LDR      r0,[pc,#140] ; [0xb04] = 0x4020201
        0x00000a78:    9000        ..      STR      r0,[sp,#0]
        0x00000a7a:    4823        #H      LDR      r0,[pc,#140] ; [0xb08] = 0x40000240
        0x00000a7c:    6800        .h      LDR      r0,[r0,#0]
        0x00000a7e:    9005        ..      STR      r0,[sp,#0x14]
        0x00000a80:    a805        ..      ADD      r0,sp,#0x14
        0x00000a82:    7880        .x      LDRB     r0,[r0,#2]
        0x00000a84:    2105        .!      MOVS     r1,#5
        0x00000a86:    4208        .B      TST      r0,r1
        0x00000a88:    d003        ..      BEQ      0xa92 ; CLK_GetPLLClockFreq + 34
        0x00000a8a:    e7ff        ..      B        0xa8c ; CLK_GetPLLClockFreq + 28
        0x00000a8c:    2000        .       MOVS     r0,#0
        0x00000a8e:    9006        ..      STR      r0,[sp,#0x18]
        0x00000a90:    e035        5.      B        0xafe ; CLK_GetPLLClockFreq + 142
        0x00000a92:    a805        ..      ADD      r0,sp,#0x14
        0x00000a94:    7880        .x      LDRB     r0,[r0,#2]
        0x00000a96:    0700        ..      LSLS     r0,r0,#28
        0x00000a98:    2800        .(      CMP      r0,#0
        0x00000a9a:    d503        ..      BPL      0xaa4 ; CLK_GetPLLClockFreq + 52
        0x00000a9c:    e7ff        ..      B        0xa9e ; CLK_GetPLLClockFreq + 46
        0x00000a9e:    481b        .H      LDR      r0,[pc,#108] ; [0xb0c] = 0xb71b00
        0x00000aa0:    9004        ..      STR      r0,[sp,#0x10]
        0x00000aa2:    e002        ..      B        0xaaa ; CLK_GetPLLClockFreq + 58
        0x00000aa4:    4819        .H      LDR      r0,[pc,#100] ; [0xb0c] = 0xb71b00
        0x00000aa6:    9004        ..      STR      r0,[sp,#0x10]
        0x00000aa8:    e7ff        ..      B        0xaaa ; CLK_GetPLLClockFreq + 58
        0x00000aaa:    a805        ..      ADD      r0,sp,#0x14
        0x00000aac:    7880        .x      LDRB     r0,[r0,#2]
        0x00000aae:    0780        ..      LSLS     r0,r0,#30
        0x00000ab0:    2800        .(      CMP      r0,#0
        0x00000ab2:    d503        ..      BPL      0xabc ; CLK_GetPLLClockFreq + 76
        0x00000ab4:    e7ff        ..      B        0xab6 ; CLK_GetPLLClockFreq + 70
        0x00000ab6:    9804        ..      LDR      r0,[sp,#0x10]
        0x00000ab8:    9006        ..      STR      r0,[sp,#0x18]
        0x00000aba:    e01f        ..      B        0xafc ; CLK_GetPLLClockFreq + 140
        0x00000abc:    a805        ..      ADD      r0,sp,#0x14
        0x00000abe:    8800        ..      LDRH     r0,[r0,#0]
        0x00000ac0:    0b81        ..      LSRS     r1,r0,#14
        0x00000ac2:    4668        hF      MOV      r0,sp
        0x00000ac4:    1840        @.      ADDS     r0,r0,r1
        0x00000ac6:    7800        .x      LDRB     r0,[r0,#0]
        0x00000ac8:    9001        ..      STR      r0,[sp,#4]
        0x00000aca:    9805        ..      LDR      r0,[sp,#0x14]
        0x00000acc:    4910        .I      LDR      r1,[pc,#64] ; [0xb10] = 0x1ff
        0x00000ace:    4008        .@      ANDS     r0,r0,r1
        0x00000ad0:    1c80        ..      ADDS     r0,r0,#2
        0x00000ad2:    9003        ..      STR      r0,[sp,#0xc]
        0x00000ad4:    9805        ..      LDR      r0,[sp,#0x14]
        0x00000ad6:    f6436100    C..a    MOVW     r1,#0x3e00
        0x00000ada:    4008        .@      ANDS     r0,r0,r1
        0x00000adc:    0a40        @.      LSRS     r0,r0,#9
        0x00000ade:    1c40        @.      ADDS     r0,r0,#1
        0x00000ae0:    9002        ..      STR      r0,[sp,#8]
        0x00000ae2:    9804        ..      LDR      r0,[sp,#0x10]
        0x00000ae4:    0880        ..      LSRS     r0,r0,#2
        0x00000ae6:    9903        ..      LDR      r1,[sp,#0xc]
        0x00000ae8:    4348        HC      MULS     r0,r1,r0
        0x00000aea:    0040        @.      LSLS     r0,r0,#1
        0x00000aec:    9a02        ..      LDR      r2,[sp,#8]
        0x00000aee:    9901        ..      LDR      r1,[sp,#4]
        0x00000af0:    4351        QC      MULS     r1,r2,r1
        0x00000af2:    fbb0f0f1    ....    UDIV     r0,r0,r1
        0x00000af6:    0080        ..      LSLS     r0,r0,#2
        0x00000af8:    9006        ..      STR      r0,[sp,#0x18]
        0x00000afa:    e7ff        ..      B        0xafc ; CLK_GetPLLClockFreq + 140
        0x00000afc:    e7ff        ..      B        0xafe ; CLK_GetPLLClockFreq + 142
        0x00000afe:    9806        ..      LDR      r0,[sp,#0x18]
        0x00000b00:    b007        ..      ADD      sp,sp,#0x1c
        0x00000b02:    4770        pG      BX       lr
    $d
    __arm_cp.27_0
        0x00000b04:    04020201    ....    DCD    67240449
    __arm_cp.27_1
        0x00000b08:    40000240    @..@    DCD    1073742400
    __arm_cp.27_2
        0x00000b0c:    00b71b00    ....    DCD    12000000
    __arm_cp.27_3
        0x00000b10:    000001ff    ....    DCD    511
    $t
    CLK_SetHCLK
        0x00000b14:    b580        ..      PUSH     {r7,lr}
        0x00000b16:    b084        ..      SUB      sp,sp,#0x10
        0x00000b18:    9003        ..      STR      r0,[sp,#0xc]
        0x00000b1a:    9102        ..      STR      r1,[sp,#8]
        0x00000b1c:    4859        YH      LDR      r0,[pc,#356] ; [0xc84] = 0x40000250
        0x00000b1e:    6801        .h      LDR      r1,[r0,#0]
        0x00000b20:    2010        .       MOVS     r0,#0x10
        0x00000b22:    4001        .@      ANDS     r1,r1,r0
        0x00000b24:    9101        ..      STR      r1,[sp,#4]
        0x00000b26:    4a1d        .J      LDR      r2,[pc,#116] ; [0xb9c] = 0x40000200
        0x00000b28:    6811        .h      LDR      r1,[r2,#0]
        0x00000b2a:    2304        .#      MOVS     r3,#4
        0x00000b2c:    4319        .C      ORRS     r1,r1,r3
        0x00000b2e:    6011        .`      STR      r1,[r2,#0]
        0x00000b30:    f000f88a    ....    BL       CLK_WaitClockReady ; 0xc48
        0x00000b34:    4943        CI      LDR      r1,[pc,#268] ; [0xc44] = 0x40000210
        0x00000b36:    6808        .h      LDR      r0,[r1,#0]
        0x00000b38:    2207        ."      MOVS     r2,#7
        0x00000b3a:    4310        .C      ORRS     r0,r0,r2
        0x00000b3c:    6008        .`      STR      r0,[r1,#0]
        0x00000b3e:    4918        .I      LDR      r1,[pc,#96] ; [0xba0] = 0x4000c04c
        0x00000b40:    6808        .h      LDR      r0,[r1,#0]
        0x00000b42:    f2401200    @...    MOVW     r2,#0x100
        0x00000b46:    4390        .C      BICS     r0,r0,r2
        0x00000b48:    6008        .`      STR      r0,[r1,#0]
        0x00000b4a:    493d        =I      LDR      r1,[pc,#244] ; [0xc40] = 0x40000220
        0x00000b4c:    6808        .h      LDR      r0,[r1,#0]
        0x00000b4e:    220f        ."      MOVS     r2,#0xf
        0x00000b50:    4390        .C      BICS     r0,r0,r2
        0x00000b52:    9a02        ..      LDR      r2,[sp,#8]
        0x00000b54:    4310        .C      ORRS     r0,r0,r2
        0x00000b56:    6008        .`      STR      r0,[r1,#0]
        0x00000b58:    9803        ..      LDR      r0,[sp,#0xc]
        0x00000b5a:    2805        .(      CMP      r0,#5
        0x00000b5c:    d109        ..      BNE      0xb72 ; CLK_SetHCLK + 94
        0x00000b5e:    e7ff        ..      B        0xb60 ; CLK_SetHCLK + 76
        0x00000b60:    490f        .I      LDR      r1,[pc,#60] ; [0xba0] = 0x4000c04c
        0x00000b62:    6808        .h      LDR      r0,[r1,#0]
        0x00000b64:    f2401203    @...    MOV      r2,#0x103
        0x00000b68:    4310        .C      ORRS     r0,r0,r2
        0x00000b6a:    220c        ."      MOVS     r2,#0xc
        0x00000b6c:    4390        .C      BICS     r0,r0,r2
        0x00000b6e:    6008        .`      STR      r0,[r1,#0]
        0x00000b70:    e7ff        ..      B        0xb72 ; CLK_SetHCLK + 94
        0x00000b72:    4934        4I      LDR      r1,[pc,#208] ; [0xc44] = 0x40000210
        0x00000b74:    6808        .h      LDR      r0,[r1,#0]
        0x00000b76:    2207        ."      MOVS     r2,#7
        0x00000b78:    4390        .C      BICS     r0,r0,r2
        0x00000b7a:    9a03        ..      LDR      r2,[sp,#0xc]
        0x00000b7c:    4310        .C      ORRS     r0,r0,r2
        0x00000b7e:    6008        .`      STR      r0,[r1,#0]
        0x00000b80:    f000fbc2    ....    BL       SystemCoreClockUpdate ; 0x1308
        0x00000b84:    9801        ..      LDR      r0,[sp,#4]
        0x00000b86:    b930        0.      CBNZ     r0,0xb96 ; CLK_SetHCLK + 130
        0x00000b88:    e7ff        ..      B        0xb8a ; CLK_SetHCLK + 118
        0x00000b8a:    4904        .I      LDR      r1,[pc,#16] ; [0xb9c] = 0x40000200
        0x00000b8c:    6808        .h      LDR      r0,[r1,#0]
        0x00000b8e:    2204        ."      MOVS     r2,#4
        0x00000b90:    4390        .C      BICS     r0,r0,r2
        0x00000b92:    6008        .`      STR      r0,[r1,#0]
        0x00000b94:    e7ff        ..      B        0xb96 ; CLK_SetHCLK + 130
        0x00000b96:    b004        ..      ADD      sp,sp,#0x10
        0x00000b98:    bd80        ..      POP      {r7,pc}
        0x00000b9a:    46c0        .F      MOV      r8,r8
    $d
    __arm_cp.13_1
        0x00000b9c:    40000200    ...@    DCD    1073742336
    __arm_cp.13_3
        0x00000ba0:    4000c04c    L..@    DCD    1073791052
    $t
    CLK_SetModuleClock
        0x00000ba4:    b08d        ..      SUB      sp,sp,#0x34
        0x00000ba6:    900c        ..      STR      r0,[sp,#0x30]
        0x00000ba8:    910b        ..      STR      r1,[sp,#0x2c]
        0x00000baa:    920a        ..      STR      r2,[sp,#0x28]
        0x00000bac:    2000        .       MOVS     r0,#0
        0x00000bae:    9009        ..      STR      r0,[sp,#0x24]
        0x00000bb0:    9008        ..      STR      r0,[sp,#0x20]
        0x00000bb2:    210c        .!      MOVS     r1,#0xc
        0x00000bb4:    9107        ..      STR      r1,[sp,#0x1c]
        0x00000bb6:    2208        ."      MOVS     r2,#8
        0x00000bb8:    9206        ..      STR      r2,[sp,#0x18]
        0x00000bba:    2104        .!      MOVS     r1,#4
        0x00000bbc:    9105        ..      STR      r1,[sp,#0x14]
        0x00000bbe:    9004        ..      STR      r0,[sp,#0x10]
        0x00000bc0:    2310        .#      MOVS     r3,#0x10
        0x00000bc2:    9303        ..      STR      r3,[sp,#0xc]
        0x00000bc4:    9202        ..      STR      r2,[sp,#8]
        0x00000bc6:    9101        ..      STR      r1,[sp,#4]
        0x00000bc8:    9000        ..      STR      r0,[sp,#0]
        0x00000bca:    980c        ..      LDR      r0,[sp,#0x30]
        0x00000bcc:    0a80        ..      LSRS     r0,r0,#10
        0x00000bce:    0600        ..      LSLS     r0,r0,#24
        0x00000bd0:    b1b8        ..      CBZ      r0,0xc02 ; CLK_SetModuleClock + 94
        0x00000bd2:    e7ff        ..      B        0xbd4 ; CLK_SetModuleClock + 48
        0x00000bd4:    a80c        ..      ADD      r0,sp,#0x30
        0x00000bd6:    8841        A.      LDRH     r1,[r0,#2]
        0x00000bd8:    200c        .       MOVS     r0,#0xc
        0x00000bda:    4001        .@      ANDS     r1,r1,r0
        0x00000bdc:    4668        hF      MOV      r0,sp
        0x00000bde:    5840        @X      LDR      r0,[r0,r1]
        0x00000be0:    4917        .I      LDR      r1,[pc,#92] ; [0xc40] = 0x40000220
        0x00000be2:    1840        @.      ADDS     r0,r0,r1
        0x00000be4:    9008        ..      STR      r0,[sp,#0x20]
        0x00000be6:    9808        ..      LDR      r0,[sp,#0x20]
        0x00000be8:    6800        .h      LDR      r0,[r0,#0]
        0x00000bea:    9a0c        ..      LDR      r2,[sp,#0x30]
        0x00000bec:    0a91        ..      LSRS     r1,r2,#10
        0x00000bee:    b2c9        ..      UXTB     r1,r1
        0x00000bf0:    0592        ..      LSLS     r2,r2,#22
        0x00000bf2:    0ed2        ..      LSRS     r2,r2,#27
        0x00000bf4:    4091        .@      LSLS     r1,r1,r2
        0x00000bf6:    4388        .C      BICS     r0,r0,r1
        0x00000bf8:    990a        ..      LDR      r1,[sp,#0x28]
        0x00000bfa:    4308        .C      ORRS     r0,r0,r1
        0x00000bfc:    9908        ..      LDR      r1,[sp,#0x20]
        0x00000bfe:    6008        .`      STR      r0,[r1,#0]
        0x00000c00:    e7ff        ..      B        0xc02 ; CLK_SetModuleClock + 94
        0x00000c02:    980c        ..      LDR      r0,[sp,#0x30]
        0x00000c04:    0100        ..      LSLS     r0,r0,#4
        0x00000c06:    0f40        @.      LSRS     r0,r0,#29
        0x00000c08:    b1b8        ..      CBZ      r0,0xc3a ; CLK_SetModuleClock + 150
        0x00000c0a:    e7ff        ..      B        0xc0c ; CLK_SetModuleClock + 104
        0x00000c0c:    980c        ..      LDR      r0,[sp,#0x30]
        0x00000c0e:    0e81        ..      LSRS     r1,r0,#26
        0x00000c10:    200c        .       MOVS     r0,#0xc
        0x00000c12:    4001        .@      ANDS     r1,r1,r0
        0x00000c14:    a804        ..      ADD      r0,sp,#0x10
        0x00000c16:    5840        @X      LDR      r0,[r0,r1]
        0x00000c18:    490a        .I      LDR      r1,[pc,#40] ; [0xc44] = 0x40000210
        0x00000c1a:    1840        @.      ADDS     r0,r0,r1
        0x00000c1c:    9009        ..      STR      r0,[sp,#0x24]
        0x00000c1e:    9809        ..      LDR      r0,[sp,#0x24]
        0x00000c20:    6800        .h      LDR      r0,[r0,#0]
        0x00000c22:    9a0c        ..      LDR      r2,[sp,#0x30]
        0x00000c24:    0111        ..      LSLS     r1,r2,#4
        0x00000c26:    0f49        I.      LSRS     r1,r1,#29
        0x00000c28:    01d2        ..      LSLS     r2,r2,#7
        0x00000c2a:    0ed2        ..      LSRS     r2,r2,#27
        0x00000c2c:    4091        .@      LSLS     r1,r1,r2
        0x00000c2e:    4388        .C      BICS     r0,r0,r1
        0x00000c30:    990b        ..      LDR      r1,[sp,#0x2c]
        0x00000c32:    4308        .C      ORRS     r0,r0,r1
        0x00000c34:    9909        ..      LDR      r1,[sp,#0x24]
        0x00000c36:    6008        .`      STR      r0,[r1,#0]
        0x00000c38:    e7ff        ..      B        0xc3a ; CLK_SetModuleClock + 150
        0x00000c3a:    b00d        ..      ADD      sp,sp,#0x34
        0x00000c3c:    4770        pG      BX       lr
        0x00000c3e:    46c0        .F      MOV      r8,r8
    $d
    __arm_cp.14_0
        0x00000c40:    40000220     ..@    DCD    1073742368
    __arm_cp.14_1
        0x00000c44:    40000210    ...@    DCD    1073742352
    $t
    CLK_WaitClockReady
        0x00000c48:    b083        ..      SUB      sp,sp,#0xc
        0x00000c4a:    9002        ..      STR      r0,[sp,#8]
        0x00000c4c:    4849        IH      LDR      r0,[pc,#292] ; [0xd74] = 0x20000008
        0x00000c4e:    6800        .h      LDR      r0,[r0,#0]
        0x00000c50:    08c0        ..      LSRS     r0,r0,#3
        0x00000c52:    9001        ..      STR      r0,[sp,#4]
        0x00000c54:    2001        .       MOVS     r0,#1
        0x00000c56:    9000        ..      STR      r0,[sp,#0]
        0x00000c58:    e7ff        ..      B        0xc5a ; CLK_WaitClockReady + 18
        0x00000c5a:    480a        .H      LDR      r0,[pc,#40] ; [0xc84] = 0x40000250
        0x00000c5c:    6800        .h      LDR      r0,[r0,#0]
        0x00000c5e:    9902        ..      LDR      r1,[sp,#8]
        0x00000c60:    4008        .@      ANDS     r0,r0,r1
        0x00000c62:    4288        .B      CMP      r0,r1
        0x00000c64:    d009        ..      BEQ      0xc7a ; CLK_WaitClockReady + 50
        0x00000c66:    e7ff        ..      B        0xc68 ; CLK_WaitClockReady + 32
        0x00000c68:    9801        ..      LDR      r0,[sp,#4]
        0x00000c6a:    1e40        @.      SUBS     r0,r0,#1
        0x00000c6c:    9001        ..      STR      r0,[sp,#4]
        0x00000c6e:    b918        ..      CBNZ     r0,0xc78 ; CLK_WaitClockReady + 48
        0x00000c70:    e7ff        ..      B        0xc72 ; CLK_WaitClockReady + 42
        0x00000c72:    2000        .       MOVS     r0,#0
        0x00000c74:    9000        ..      STR      r0,[sp,#0]
        0x00000c76:    e000        ..      B        0xc7a ; CLK_WaitClockReady + 50
        0x00000c78:    e7ef        ..      B        0xc5a ; CLK_WaitClockReady + 18
        0x00000c7a:    9800        ..      LDR      r0,[sp,#0]
        0x00000c7c:    b003        ..      ADD      sp,sp,#0xc
        0x00000c7e:    4770        pG      BX       lr
    $d
    __arm_cp.11_0
        0x00000c80:    20000008    ...     DCD    536870920
    __arm_cp.11_1
        0x00000c84:    40000250    P..@    DCD    1073742416
    $t
    FMC_Close
        0x00000c88:    493f        ?I      LDR      r1,[pc,#252] ; [0xd88] = 0x4000c000
        0x00000c8a:    6808        .h      LDR      r0,[r1,#0]
        0x00000c8c:    2201        ."      MOVS     r2,#1
        0x00000c8e:    4390        .C      BICS     r0,r0,r2
        0x00000c90:    6008        .`      STR      r0,[r1,#0]
        0x00000c92:    4770        pG      BX       lr
    FMC_GetChkSum
        0x00000c94:    b085        ..      SUB      sp,sp,#0x14
        0x00000c96:    9003        ..      STR      r0,[sp,#0xc]
        0x00000c98:    9102        ..      STR      r1,[sp,#8]
        0x00000c9a:    4931        1I      LDR      r1,[pc,#196] ; [0xd60] = 0x20000264
        0x00000c9c:    2000        .       MOVS     r0,#0
        0x00000c9e:    6008        .`      STR      r0,[r1,#0]
        0x00000ca0:    a803        ..      ADD      r0,sp,#0xc
        0x00000ca2:    8800        ..      LDRH     r0,[r0,#0]
        0x00000ca4:    0540        @.      LSLS     r0,r0,#21
        0x00000ca6:    b928        (.      CBNZ     r0,0xcb4 ; FMC_GetChkSum + 32
        0x00000ca8:    e7ff        ..      B        0xcaa ; FMC_GetChkSum + 22
        0x00000caa:    a802        ..      ADD      r0,sp,#8
        0x00000cac:    8800        ..      LDRH     r0,[r0,#0]
        0x00000cae:    0540        @.      LSLS     r0,r0,#21
        0x00000cb0:    b140        @.      CBZ      r0,0xcc4 ; FMC_GetChkSum + 48
        0x00000cb2:    e7ff        ..      B        0xcb4 ; FMC_GetChkSum + 32
        0x00000cb4:    492a        *I      LDR      r1,[pc,#168] ; [0xd60] = 0x20000264
        0x00000cb6:    2001        .       MOVS     r0,#1
        0x00000cb8:    43c0        .C      MVNS     r0,r0
        0x00000cba:    6008        .`      STR      r0,[r1,#0]
        0x00000cbc:    2000        .       MOVS     r0,#0
        0x00000cbe:    43c0        .C      MVNS     r0,r0
        0x00000cc0:    9001        ..      STR      r0,[sp,#4]
        0x00000cc2:    e046        F.      B        0xd52 ; FMC_GetChkSum + 190
        0x00000cc4:    4927        'I      LDR      r1,[pc,#156] ; [0xd64] = 0x4000c00c
        0x00000cc6:    202d        -       MOVS     r0,#0x2d
        0x00000cc8:    6008        .`      STR      r0,[r1,#0]
        0x00000cca:    9803        ..      LDR      r0,[sp,#0xc]
        0x00000ccc:    4926        &I      LDR      r1,[pc,#152] ; [0xd68] = 0x4000c004
        0x00000cce:    6008        .`      STR      r0,[r1,#0]
        0x00000cd0:    9802        ..      LDR      r0,[sp,#8]
        0x00000cd2:    4926        &I      LDR      r1,[pc,#152] ; [0xd6c] = 0x4000c008
        0x00000cd4:    6008        .`      STR      r0,[r1,#0]
        0x00000cd6:    4926        &I      LDR      r1,[pc,#152] ; [0xd70] = 0x4000c010
        0x00000cd8:    2001        .       MOVS     r0,#1
        0x00000cda:    6008        .`      STR      r0,[r1,#0]
        0x00000cdc:    4825        %H      LDR      r0,[pc,#148] ; [0xd74] = 0x20000008
        0x00000cde:    6800        .h      LDR      r0,[r0,#0]
        0x00000ce0:    0040        @.      LSLS     r0,r0,#1
        0x00000ce2:    9000        ..      STR      r0,[sp,#0]
        0x00000ce4:    e7ff        ..      B        0xce6 ; FMC_GetChkSum + 82
        0x00000ce6:    4824        $H      LDR      r0,[pc,#144] ; [0xd78] = 0x4000c040
        0x00000ce8:    6800        .h      LDR      r0,[r0,#0]
        0x00000cea:    07c0        ..      LSLS     r0,r0,#31
        0x00000cec:    b168        h.      CBZ      r0,0xd0a ; FMC_GetChkSum + 118
        0x00000cee:    e7ff        ..      B        0xcf0 ; FMC_GetChkSum + 92
        0x00000cf0:    9800        ..      LDR      r0,[sp,#0]
        0x00000cf2:    1e41        A.      SUBS     r1,r0,#1
        0x00000cf4:    9100        ..      STR      r1,[sp,#0]
        0x00000cf6:    2800        .(      CMP      r0,#0
        0x00000cf8:    dc06        ..      BGT      0xd08 ; FMC_GetChkSum + 116
        0x00000cfa:    e7ff        ..      B        0xcfc ; FMC_GetChkSum + 104
        0x00000cfc:    4918        .I      LDR      r1,[pc,#96] ; [0xd60] = 0x20000264
        0x00000cfe:    2000        .       MOVS     r0,#0
        0x00000d00:    43c0        .C      MVNS     r0,r0
        0x00000d02:    6008        .`      STR      r0,[r1,#0]
        0x00000d04:    9004        ..      STR      r0,[sp,#0x10]
        0x00000d06:    e027        '.      B        0xd58 ; FMC_GetChkSum + 196
        0x00000d08:    e7ed        ..      B        0xce6 ; FMC_GetChkSum + 82
        0x00000d0a:    4916        .I      LDR      r1,[pc,#88] ; [0xd64] = 0x4000c00c
        0x00000d0c:    200d        .       MOVS     r0,#0xd
        0x00000d0e:    6008        .`      STR      r0,[r1,#0]
        0x00000d10:    9803        ..      LDR      r0,[sp,#0xc]
        0x00000d12:    4915        .I      LDR      r1,[pc,#84] ; [0xd68] = 0x4000c004
        0x00000d14:    6008        .`      STR      r0,[r1,#0]
        0x00000d16:    4916        .I      LDR      r1,[pc,#88] ; [0xd70] = 0x4000c010
        0x00000d18:    2001        .       MOVS     r0,#1
        0x00000d1a:    6008        .`      STR      r0,[r1,#0]
        0x00000d1c:    4815        .H      LDR      r0,[pc,#84] ; [0xd74] = 0x20000008
        0x00000d1e:    6800        .h      LDR      r0,[r0,#0]
        0x00000d20:    0040        @.      LSLS     r0,r0,#1
        0x00000d22:    9000        ..      STR      r0,[sp,#0]
        0x00000d24:    e7ff        ..      B        0xd26 ; FMC_GetChkSum + 146
        0x00000d26:    4814        .H      LDR      r0,[pc,#80] ; [0xd78] = 0x4000c040
        0x00000d28:    6800        .h      LDR      r0,[r0,#0]
        0x00000d2a:    07c0        ..      LSLS     r0,r0,#31
        0x00000d2c:    b168        h.      CBZ      r0,0xd4a ; FMC_GetChkSum + 182
        0x00000d2e:    e7ff        ..      B        0xd30 ; FMC_GetChkSum + 156
        0x00000d30:    9800        ..      LDR      r0,[sp,#0]
        0x00000d32:    1e41        A.      SUBS     r1,r0,#1
        0x00000d34:    9100        ..      STR      r1,[sp,#0]
        0x00000d36:    2800        .(      CMP      r0,#0
        0x00000d38:    dc06        ..      BGT      0xd48 ; FMC_GetChkSum + 180
        0x00000d3a:    e7ff        ..      B        0xd3c ; FMC_GetChkSum + 168
        0x00000d3c:    4908        .I      LDR      r1,[pc,#32] ; [0xd60] = 0x20000264
        0x00000d3e:    2000        .       MOVS     r0,#0
        0x00000d40:    43c0        .C      MVNS     r0,r0
        0x00000d42:    6008        .`      STR      r0,[r1,#0]
        0x00000d44:    9004        ..      STR      r0,[sp,#0x10]
        0x00000d46:    e007        ..      B        0xd58 ; FMC_GetChkSum + 196
        0x00000d48:    e7ed        ..      B        0xd26 ; FMC_GetChkSum + 146
        0x00000d4a:    4808        .H      LDR      r0,[pc,#32] ; [0xd6c] = 0x4000c008
        0x00000d4c:    6800        .h      LDR      r0,[r0,#0]
        0x00000d4e:    9001        ..      STR      r0,[sp,#4]
        0x00000d50:    e7ff        ..      B        0xd52 ; FMC_GetChkSum + 190
        0x00000d52:    9801        ..      LDR      r0,[sp,#4]
        0x00000d54:    9004        ..      STR      r0,[sp,#0x10]
        0x00000d56:    e7ff        ..      B        0xd58 ; FMC_GetChkSum + 196
        0x00000d58:    9804        ..      LDR      r0,[sp,#0x10]
        0x00000d5a:    b005        ..      ADD      sp,sp,#0x14
        0x00000d5c:    4770        pG      BX       lr
        0x00000d5e:    46c0        .F      MOV      r8,r8
    $d
    __arm_cp.9_0
        0x00000d60:    20000264    d..     DCD    536871524
    __arm_cp.9_1
        0x00000d64:    4000c00c    ...@    DCD    1073790988
    __arm_cp.9_2
        0x00000d68:    4000c004    ...@    DCD    1073790980
    __arm_cp.9_3
        0x00000d6c:    4000c008    ...@    DCD    1073790984
    __arm_cp.9_4
        0x00000d70:    4000c010    ...@    DCD    1073790992
    __arm_cp.9_5
        0x00000d74:    20000008    ...     DCD    536870920
    __arm_cp.9_6
        0x00000d78:    4000c040    @..@    DCD    1073791040
    $t
    FMC_Open
        0x00000d7c:    4902        .I      LDR      r1,[pc,#8] ; [0xd88] = 0x4000c000
        0x00000d7e:    6808        .h      LDR      r0,[r1,#0]
        0x00000d80:    2201        ."      MOVS     r2,#1
        0x00000d82:    4310        .C      ORRS     r0,r0,r2
        0x00000d84:    6008        .`      STR      r0,[r1,#0]
        0x00000d86:    4770        pG      BX       lr
    $d
    __arm_cp.12_0
        0x00000d88:    4000c000    ...@    DCD    1073790976
    $t
    GPIO_SetMode
        0x00000d8c:    b084        ..      SUB      sp,sp,#0x10
        0x00000d8e:    9003        ..      STR      r0,[sp,#0xc]
        0x00000d90:    9102        ..      STR      r1,[sp,#8]
        0x00000d92:    9201        ..      STR      r2,[sp,#4]
        0x00000d94:    2000        .       MOVS     r0,#0
        0x00000d96:    9000        ..      STR      r0,[sp,#0]
        0x00000d98:    e7ff        ..      B        0xd9a ; GPIO_SetMode + 14
        0x00000d9a:    9800        ..      LDR      r0,[sp,#0]
        0x00000d9c:    280f        .(      CMP      r0,#0xf
        0x00000d9e:    d818        ..      BHI      0xdd2 ; GPIO_SetMode + 70
        0x00000da0:    e7ff        ..      B        0xda2 ; GPIO_SetMode + 22
        0x00000da2:    9802        ..      LDR      r0,[sp,#8]
        0x00000da4:    9900        ..      LDR      r1,[sp,#0]
        0x00000da6:    40c8        .@      LSRS     r0,r0,r1
        0x00000da8:    07c0        ..      LSLS     r0,r0,#31
        0x00000daa:    b168        h.      CBZ      r0,0xdc8 ; GPIO_SetMode + 60
        0x00000dac:    e7ff        ..      B        0xdae ; GPIO_SetMode + 34
        0x00000dae:    9803        ..      LDR      r0,[sp,#0xc]
        0x00000db0:    6800        .h      LDR      r0,[r0,#0]
        0x00000db2:    9900        ..      LDR      r1,[sp,#0]
        0x00000db4:    004a        J.      LSLS     r2,r1,#1
        0x00000db6:    2103        .!      MOVS     r1,#3
        0x00000db8:    4091        .@      LSLS     r1,r1,r2
        0x00000dba:    4388        .C      BICS     r0,r0,r1
        0x00000dbc:    9901        ..      LDR      r1,[sp,#4]
        0x00000dbe:    4091        .@      LSLS     r1,r1,r2
        0x00000dc0:    4308        .C      ORRS     r0,r0,r1
        0x00000dc2:    9903        ..      LDR      r1,[sp,#0xc]
        0x00000dc4:    6008        .`      STR      r0,[r1,#0]
        0x00000dc6:    e7ff        ..      B        0xdc8 ; GPIO_SetMode + 60
        0x00000dc8:    e7ff        ..      B        0xdca ; GPIO_SetMode + 62
        0x00000dca:    9800        ..      LDR      r0,[sp,#0]
        0x00000dcc:    1c40        @.      ADDS     r0,r0,#1
        0x00000dce:    9000        ..      STR      r0,[sp,#0]
        0x00000dd0:    e7e3        ..      B        0xd9a ; GPIO_SetMode + 14
        0x00000dd2:    b004        ..      ADD      sp,sp,#0x10
        0x00000dd4:    4770        pG      BX       lr
        0x00000dd6:    0000        ..      MOVS     r0,r0
    ProcessHardFault
        0x00000dd8:    b580        ..      PUSH     {r7,lr}
        0x00000dda:    b084        ..      SUB      sp,sp,#0x10
        0x00000ddc:    9003        ..      STR      r0,[sp,#0xc]
        0x00000dde:    9102        ..      STR      r1,[sp,#8]
        0x00000de0:    9201        ..      STR      r2,[sp,#4]
        0x00000de2:    a803        ..      ADD      r0,sp,#0xc
        0x00000de4:    7800        .x      LDRB     r0,[r0,#0]
        0x00000de6:    0640        @.      LSLS     r0,r0,#25
        0x00000de8:    2800        .(      CMP      r0,#0
        0x00000dea:    d50d        ..      BPL      0xe08 ; ProcessHardFault + 48
        0x00000dec:    e7ff        ..      B        0xdee ; ProcessHardFault + 22
        0x00000dee:    a803        ..      ADD      r0,sp,#0xc
        0x00000df0:    7800        .x      LDRB     r0,[r0,#0]
        0x00000df2:    0740        @.      LSLS     r0,r0,#29
        0x00000df4:    2800        .(      CMP      r0,#0
        0x00000df6:    d503        ..      BPL      0xe00 ; ProcessHardFault + 40
        0x00000df8:    e7ff        ..      B        0xdfa ; ProcessHardFault + 34
        0x00000dfa:    9801        ..      LDR      r0,[sp,#4]
        0x00000dfc:    9000        ..      STR      r0,[sp,#0]
        0x00000dfe:    e002        ..      B        0xe06 ; ProcessHardFault + 46
        0x00000e00:    9802        ..      LDR      r0,[sp,#8]
        0x00000e02:    9000        ..      STR      r0,[sp,#0]
        0x00000e04:    e7ff        ..      B        0xe06 ; ProcessHardFault + 46
        0x00000e06:    e7ff        ..      B        0xe08 ; ProcessHardFault + 48
        0x00000e08:    481a        .H      LDR      r0,[pc,#104] ; [0xe74] = 0x76f4
        0x00000e0a:    f005ffc7    ....    BL       __0printf ; 0x6d9c
        0x00000e0e:    9800        ..      LDR      r0,[sp,#0]
        0x00000e10:    6801        .h      LDR      r1,[r0,#0]
        0x00000e12:    4819        .H      LDR      r0,[pc,#100] ; [0xe78] = 0x7703
        0x00000e14:    f005ffc2    ....    BL       __0printf ; 0x6d9c
        0x00000e18:    9800        ..      LDR      r0,[sp,#0]
        0x00000e1a:    6841        Ah      LDR      r1,[r0,#4]
        0x00000e1c:    4817        .H      LDR      r0,[pc,#92] ; [0xe7c] = 0x770f
        0x00000e1e:    f005ffbd    ....    BL       __0printf ; 0x6d9c
        0x00000e22:    9800        ..      LDR      r0,[sp,#0]
        0x00000e24:    6881        .h      LDR      r1,[r0,#8]
        0x00000e26:    4816        .H      LDR      r0,[pc,#88] ; [0xe80] = 0x771b
        0x00000e28:    f005ffb8    ....    BL       __0printf ; 0x6d9c
        0x00000e2c:    9800        ..      LDR      r0,[sp,#0]
        0x00000e2e:    68c1        .h      LDR      r1,[r0,#0xc]
        0x00000e30:    4814        .H      LDR      r0,[pc,#80] ; [0xe84] = 0x7727
        0x00000e32:    f005ffb3    ....    BL       __0printf ; 0x6d9c
        0x00000e36:    9800        ..      LDR      r0,[sp,#0]
        0x00000e38:    6901        .i      LDR      r1,[r0,#0x10]
        0x00000e3a:    4813        .H      LDR      r0,[pc,#76] ; [0xe88] = 0x774b
        0x00000e3c:    f005ffae    ....    BL       __0printf ; 0x6d9c
        0x00000e40:    9800        ..      LDR      r0,[sp,#0]
        0x00000e42:    6941        Ai      LDR      r1,[r0,#0x14]
        0x00000e44:    4811        .H      LDR      r0,[pc,#68] ; [0xe8c] = 0x773f
        0x00000e46:    f005ffa9    ....    BL       __0printf ; 0x6d9c
        0x00000e4a:    9800        ..      LDR      r0,[sp,#0]
        0x00000e4c:    6981        .i      LDR      r1,[r0,#0x18]
        0x00000e4e:    4810        .H      LDR      r0,[pc,#64] ; [0xe90] = 0x7733
        0x00000e50:    f005ffa4    ....    BL       __0printf ; 0x6d9c
        0x00000e54:    9800        ..      LDR      r0,[sp,#0]
        0x00000e56:    69c1        .i      LDR      r1,[r0,#0x1c]
        0x00000e58:    480e        .H      LDR      r0,[pc,#56] ; [0xe94] = 0x7757
        0x00000e5a:    f005ff9f    ....    BL       __0printf ; 0x6d9c
        0x00000e5e:    e7ff        ..      B        0xe60 ; ProcessHardFault + 136
        0x00000e60:    9800        ..      LDR      r0,[sp,#0]
        0x00000e62:    6800        .h      LDR      r0,[r0,#0]
        0x00000e64:    2101        .!      MOVS     r1,#1
        0x00000e66:    4308        .C      ORRS     r0,r0,r1
        0x00000e68:    b108        ..      CBZ      r0,0xe6e ; ProcessHardFault + 150
        0x00000e6a:    e7ff        ..      B        0xe6c ; ProcessHardFault + 148
        0x00000e6c:    e7f8        ..      B        0xe60 ; ProcessHardFault + 136
        0x00000e6e:    9803        ..      LDR      r0,[sp,#0xc]
        0x00000e70:    b004        ..      ADD      sp,sp,#0x10
        0x00000e72:    bd80        ..      POP      {r7,pc}
    $d
    __arm_cp.0_0
        0x00000e74:    000076f4    .v..    DCD    30452
    __arm_cp.0_1
        0x00000e78:    00007703    .w..    DCD    30467
    __arm_cp.0_2
        0x00000e7c:    0000770f    .w..    DCD    30479
    __arm_cp.0_3
        0x00000e80:    0000771b    .w..    DCD    30491
    __arm_cp.0_4
        0x00000e84:    00007727    'w..    DCD    30503
    __arm_cp.0_5
        0x00000e88:    0000774b    Kw..    DCD    30539
    __arm_cp.0_6
        0x00000e8c:    0000773f    ?w..    DCD    30527
    __arm_cp.0_7
        0x00000e90:    00007733    3w..    DCD    30515
    __arm_cp.0_8
        0x00000e94:    00007757    Ww..    DCD    30551
    $t
    SH_Return
        0x00000e98:    b083        ..      SUB      sp,sp,#0xc
        0x00000e9a:    9002        ..      STR      r0,[sp,#8]
        0x00000e9c:    9101        ..      STR      r1,[sp,#4]
        0x00000e9e:    9200        ..      STR      r2,[sp,#0]
        0x00000ea0:    2000        .       MOVS     r0,#0
        0x00000ea2:    b003        ..      ADD      sp,sp,#0xc
        0x00000ea4:    4770        pG      BX       lr
    SPI_DisableAutoSS
        0x00000ea6:    b081        ..      SUB      sp,sp,#4
        0x00000ea8:    9000        ..      STR      r0,[sp,#0]
        0x00000eaa:    9900        ..      LDR      r1,[sp,#0]
        0x00000eac:    6888        .h      LDR      r0,[r1,#8]
        0x00000eae:    2209        ."      MOVS     r2,#9
        0x00000eb0:    4390        .C      BICS     r0,r0,r2
        0x00000eb2:    6088        .`      STR      r0,[r1,#8]
        0x00000eb4:    b001        ..      ADD      sp,sp,#4
        0x00000eb6:    4770        pG      BX       lr
    SPI_Open
        0x00000eb8:    b510        ..      PUSH     {r4,lr}
        0x00000eba:    b08a        ..      SUB      sp,sp,#0x28
        0x00000ebc:    9c0c        ..      LDR      r4,[sp,#0x30]
        0x00000ebe:    9009        ..      STR      r0,[sp,#0x24]
        0x00000ec0:    9108        ..      STR      r1,[sp,#0x20]
        0x00000ec2:    9207        ..      STR      r2,[sp,#0x1c]
        0x00000ec4:    9306        ..      STR      r3,[sp,#0x18]
        0x00000ec6:    2000        .       MOVS     r0,#0
        0x00000ec8:    9005        ..      STR      r0,[sp,#0x14]
        0x00000eca:    9000        ..      STR      r0,[sp,#0]
        0x00000ecc:    9909        ..      LDR      r1,[sp,#0x24]
        0x00000ece:    6e08        .n      LDR      r0,[r1,#0x60]
        0x00000ed0:    2201        ."      MOVS     r2,#1
        0x00000ed2:    4390        .C      BICS     r0,r0,r2
        0x00000ed4:    6608        .f      STR      r0,[r1,#0x60]
        0x00000ed6:    9806        ..      LDR      r0,[sp,#0x18]
        0x00000ed8:    2820         (      CMP      r0,#0x20
        0x00000eda:    d103        ..      BNE      0xee4 ; SPI_Open + 44
        0x00000edc:    e7ff        ..      B        0xede ; SPI_Open + 38
        0x00000ede:    2000        .       MOVS     r0,#0
        0x00000ee0:    9006        ..      STR      r0,[sp,#0x18]
        0x00000ee2:    e7ff        ..      B        0xee4 ; SPI_Open + 44
        0x00000ee4:    f7fffd3c    ..<.    BL       CLK_GetHCLKFreq ; 0x960
        0x00000ee8:    9003        ..      STR      r0,[sp,#0xc]
        0x00000eea:    f7fffda7    ....    BL       CLK_GetPCLK0Freq ; 0xa3c
        0x00000eee:    9002        ..      STR      r0,[sp,#8]
        0x00000ef0:    f7fffdb0    ....    BL       CLK_GetPCLK1Freq ; 0xa54
        0x00000ef4:    9001        ..      STR      r0,[sp,#4]
        0x00000ef6:    9808        ..      LDR      r0,[sp,#0x20]
        0x00000ef8:    b100        ..      CBZ      r0,0xefc ; SPI_Open + 68
        0x00000efa:    e143        C.      B        0x1184 ; SPI_Open + 716
        0x00000efc:    9909        ..      LDR      r1,[sp,#0x24]
        0x00000efe:    2000        .       MOVS     r0,#0
        0x00000f00:    6088        .`      STR      r0,[r1,#8]
        0x00000f02:    9808        ..      LDR      r0,[sp,#0x20]
        0x00000f04:    9906        ..      LDR      r1,[sp,#0x18]
        0x00000f06:    0209        ..      LSLS     r1,r1,#8
        0x00000f08:    4308        .C      ORRS     r0,r0,r1
        0x00000f0a:    9907        ..      LDR      r1,[sp,#0x1c]
        0x00000f0c:    4308        .C      ORRS     r0,r0,r1
        0x00000f0e:    2101        .!      MOVS     r1,#1
        0x00000f10:    4308        .C      ORRS     r0,r0,r1
        0x00000f12:    9909        ..      LDR      r1,[sp,#0x24]
        0x00000f14:    6008        .`      STR      r0,[r1,#0]
        0x00000f16:    980c        ..      LDR      r0,[sp,#0x30]
        0x00000f18:    9903        ..      LDR      r1,[sp,#0xc]
        0x00000f1a:    4288        .B      CMP      r0,r1
        0x00000f1c:    d336        6.      BCC      0xf8c ; SPI_Open + 212
        0x00000f1e:    e7ff        ..      B        0xf20 ; SPI_Open + 104
        0x00000f20:    9809        ..      LDR      r0,[sp,#0x24]
        0x00000f22:    49c0        .I      LDR      r1,[pc,#768] ; [0x1224] = 0x40061000
        0x00000f24:    4288        .B      CMP      r0,r1
        0x00000f26:    d108        ..      BNE      0xf3a ; SPI_Open + 130
        0x00000f28:    e7ff        ..      B        0xf2a ; SPI_Open + 114
        0x00000f2a:    49c1        .I      LDR      r1,[pc,#772] ; [0x1230] = 0x40000218
        0x00000f2c:    6808        .h      LDR      r0,[r1,#0]
        0x00000f2e:    2220         "      MOVS     r2,#0x20
        0x00000f30:    4310        .C      ORRS     r0,r0,r2
        0x00000f32:    2210        ."      MOVS     r2,#0x10
        0x00000f34:    4390        .C      BICS     r0,r0,r2
        0x00000f36:    6008        .`      STR      r0,[r1,#0]
        0x00000f38:    e027        '.      B        0xf8a ; SPI_Open + 210
        0x00000f3a:    9809        ..      LDR      r0,[sp,#0x24]
        0x00000f3c:    49ba        .I      LDR      r1,[pc,#744] ; [0x1228] = 0x40062000
        0x00000f3e:    4288        .B      CMP      r0,r1
        0x00000f40:    d108        ..      BNE      0xf54 ; SPI_Open + 156
        0x00000f42:    e7ff        ..      B        0xf44 ; SPI_Open + 140
        0x00000f44:    49ba        .I      LDR      r1,[pc,#744] ; [0x1230] = 0x40000218
        0x00000f46:    6808        .h      LDR      r0,[r1,#0]
        0x00000f48:    2280        ."      MOVS     r2,#0x80
        0x00000f4a:    4310        .C      ORRS     r0,r0,r2
        0x00000f4c:    2240        @"      MOVS     r2,#0x40
        0x00000f4e:    4390        .C      BICS     r0,r0,r2
        0x00000f50:    6008        .`      STR      r0,[r1,#0]
        0x00000f52:    e019        ..      B        0xf88 ; SPI_Open + 208
        0x00000f54:    9809        ..      LDR      r0,[sp,#0x24]
        0x00000f56:    49b5        .I      LDR      r1,[pc,#724] ; [0x122c] = 0x40063000
        0x00000f58:    4288        .B      CMP      r0,r1
        0x00000f5a:    d10a        ..      BNE      0xf72 ; SPI_Open + 186
        0x00000f5c:    e7ff        ..      B        0xf5e ; SPI_Open + 166
        0x00000f5e:    49b4        .I      LDR      r1,[pc,#720] ; [0x1230] = 0x40000218
        0x00000f60:    6808        .h      LDR      r0,[r1,#0]
        0x00000f62:    f6404200    @..B    MOVW     r2,#0xc00
        0x00000f66:    4390        .C      BICS     r0,r0,r2
        0x00000f68:    f6400200    @...    MOVW     r2,#0x800
        0x00000f6c:    1880        ..      ADDS     r0,r0,r2
        0x00000f6e:    6008        .`      STR      r0,[r1,#0]
        0x00000f70:    e009        ..      B        0xf86 ; SPI_Open + 206
        0x00000f72:    49af        .I      LDR      r1,[pc,#700] ; [0x1230] = 0x40000218
        0x00000f74:    6808        .h      LDR      r0,[r1,#0]
        0x00000f76:    f2430200    C...    MOVW     r2,#0x3000
        0x00000f7a:    4390        .C      BICS     r0,r0,r2
        0x00000f7c:    f2420200    B...    MOVW     r2,#0x2000
        0x00000f80:    1880        ..      ADDS     r0,r0,r2
        0x00000f82:    6008        .`      STR      r0,[r1,#0]
        0x00000f84:    e7ff        ..      B        0xf86 ; SPI_Open + 206
        0x00000f86:    e7ff        ..      B        0xf88 ; SPI_Open + 208
        0x00000f88:    e7ff        ..      B        0xf8a ; SPI_Open + 210
        0x00000f8a:    e7ff        ..      B        0xf8c ; SPI_Open + 212
        0x00000f8c:    9809        ..      LDR      r0,[sp,#0x24]
        0x00000f8e:    49a5        .I      LDR      r1,[pc,#660] ; [0x1224] = 0x40061000
        0x00000f90:    4288        .B      CMP      r0,r1
        0x00000f92:    d125        %.      BNE      0xfe0 ; SPI_Open + 296
        0x00000f94:    e7ff        ..      B        0xf96 ; SPI_Open + 222
        0x00000f96:    48aa        .H      LDR      r0,[pc,#680] ; [0x1240] = 0x6640000d
        0x00000f98:    f7fffce8    ....    BL       CLK_GetModuleClockSource ; 0x96c
        0x00000f9c:    0100        ..      LSLS     r0,r0,#4
        0x00000f9e:    b918        ..      CBNZ     r0,0xfa8 ; SPI_Open + 240
        0x00000fa0:    e7ff        ..      B        0xfa2 ; SPI_Open + 234
        0x00000fa2:    48c1        .H      LDR      r0,[pc,#772] ; [0x12a8] = 0xb71b00
        0x00000fa4:    9005        ..      STR      r0,[sp,#0x14]
        0x00000fa6:    e01a        ..      B        0xfde ; SPI_Open + 294
        0x00000fa8:    48a5        .H      LDR      r0,[pc,#660] ; [0x1240] = 0x6640000d
        0x00000faa:    f7fffcdf    ....    BL       CLK_GetModuleClockSource ; 0x96c
        0x00000fae:    0100        ..      LSLS     r0,r0,#4
        0x00000fb0:    2810        .(      CMP      r0,#0x10
        0x00000fb2:    d104        ..      BNE      0xfbe ; SPI_Open + 262
        0x00000fb4:    e7ff        ..      B        0xfb6 ; SPI_Open + 254
        0x00000fb6:    f7fffd5b    ..[.    BL       CLK_GetPLLClockFreq ; 0xa70
        0x00000fba:    9005        ..      STR      r0,[sp,#0x14]
        0x00000fbc:    e00e        ..      B        0xfdc ; SPI_Open + 292
        0x00000fbe:    48a0        .H      LDR      r0,[pc,#640] ; [0x1240] = 0x6640000d
        0x00000fc0:    f7fffcd4    ....    BL       CLK_GetModuleClockSource ; 0x96c
        0x00000fc4:    0100        ..      LSLS     r0,r0,#4
        0x00000fc6:    2820         (      CMP      r0,#0x20
        0x00000fc8:    d104        ..      BNE      0xfd4 ; SPI_Open + 284
        0x00000fca:    e7ff        ..      B        0xfcc ; SPI_Open + 276
        0x00000fcc:    f7fffd42    ..B.    BL       CLK_GetPCLK1Freq ; 0xa54
        0x00000fd0:    9005        ..      STR      r0,[sp,#0x14]
        0x00000fd2:    e002        ..      B        0xfda ; SPI_Open + 290
        0x00000fd4:    48b4        .H      LDR      r0,[pc,#720] ; [0x12a8] = 0xb71b00
        0x00000fd6:    9005        ..      STR      r0,[sp,#0x14]
        0x00000fd8:    e7ff        ..      B        0xfda ; SPI_Open + 290
        0x00000fda:    e7ff        ..      B        0xfdc ; SPI_Open + 292
        0x00000fdc:    e7ff        ..      B        0xfde ; SPI_Open + 294
        0x00000fde:    e082        ..      B        0x10e6 ; SPI_Open + 558
        0x00000fe0:    9809        ..      LDR      r0,[sp,#0x24]
        0x00000fe2:    4991        .I      LDR      r1,[pc,#580] ; [0x1228] = 0x40062000
        0x00000fe4:    4288        .B      CMP      r0,r1
        0x00000fe6:    d125        %.      BNE      0x1034 ; SPI_Open + 380
        0x00000fe8:    e7ff        ..      B        0xfea ; SPI_Open + 306
        0x00000fea:    4894        .H      LDR      r0,[pc,#592] ; [0x123c] = 0x6660000e
        0x00000fec:    f7fffcbe    ....    BL       CLK_GetModuleClockSource ; 0x96c
        0x00000ff0:    0180        ..      LSLS     r0,r0,#6
        0x00000ff2:    b918        ..      CBNZ     r0,0xffc ; SPI_Open + 324
        0x00000ff4:    e7ff        ..      B        0xff6 ; SPI_Open + 318
        0x00000ff6:    48ac        .H      LDR      r0,[pc,#688] ; [0x12a8] = 0xb71b00
        0x00000ff8:    9005        ..      STR      r0,[sp,#0x14]
        0x00000ffa:    e01a        ..      B        0x1032 ; SPI_Open + 378
        0x00000ffc:    488f        .H      LDR      r0,[pc,#572] ; [0x123c] = 0x6660000e
        0x00000ffe:    f7fffcb5    ....    BL       CLK_GetModuleClockSource ; 0x96c
        0x00001002:    0180        ..      LSLS     r0,r0,#6
        0x00001004:    2840        @(      CMP      r0,#0x40
        0x00001006:    d104        ..      BNE      0x1012 ; SPI_Open + 346
        0x00001008:    e7ff        ..      B        0x100a ; SPI_Open + 338
        0x0000100a:    f7fffd31    ..1.    BL       CLK_GetPLLClockFreq ; 0xa70
        0x0000100e:    9005        ..      STR      r0,[sp,#0x14]
        0x00001010:    e00e        ..      B        0x1030 ; SPI_Open + 376
        0x00001012:    488a        .H      LDR      r0,[pc,#552] ; [0x123c] = 0x6660000e
        0x00001014:    f7fffcaa    ....    BL       CLK_GetModuleClockSource ; 0x96c
        0x00001018:    0180        ..      LSLS     r0,r0,#6
        0x0000101a:    2880        .(      CMP      r0,#0x80
        0x0000101c:    d104        ..      BNE      0x1028 ; SPI_Open + 368
        0x0000101e:    e7ff        ..      B        0x1020 ; SPI_Open + 360
        0x00001020:    f7fffd0c    ....    BL       CLK_GetPCLK0Freq ; 0xa3c
        0x00001024:    9005        ..      STR      r0,[sp,#0x14]
        0x00001026:    e002        ..      B        0x102e ; SPI_Open + 374
        0x00001028:    489f        .H      LDR      r0,[pc,#636] ; [0x12a8] = 0xb71b00
        0x0000102a:    9005        ..      STR      r0,[sp,#0x14]
        0x0000102c:    e7ff        ..      B        0x102e ; SPI_Open + 374
        0x0000102e:    e7ff        ..      B        0x1030 ; SPI_Open + 376
        0x00001030:    e7ff        ..      B        0x1032 ; SPI_Open + 378
        0x00001032:    e057        W.      B        0x10e4 ; SPI_Open + 556
        0x00001034:    9809        ..      LDR      r0,[sp,#0x24]
        0x00001036:    497d        }I      LDR      r1,[pc,#500] ; [0x122c] = 0x40063000
        0x00001038:    4288        .B      CMP      r0,r1
        0x0000103a:    d129        ).      BNE      0x1090 ; SPI_Open + 472
        0x0000103c:    e7ff        ..      B        0x103e ; SPI_Open + 390
        0x0000103e:    487e        ~H      LDR      r0,[pc,#504] ; [0x1238] = 0x66a0000f
        0x00001040:    f7fffc94    ....    BL       CLK_GetModuleClockSource ; 0x96c
        0x00001044:    0280        ..      LSLS     r0,r0,#10
        0x00001046:    b918        ..      CBNZ     r0,0x1050 ; SPI_Open + 408
        0x00001048:    e7ff        ..      B        0x104a ; SPI_Open + 402
        0x0000104a:    48fa        .H      LDR      r0,[pc,#1000] ; [0x1434] = 0xb71b00
        0x0000104c:    9005        ..      STR      r0,[sp,#0x14]
        0x0000104e:    e01e        ..      B        0x108e ; SPI_Open + 470
        0x00001050:    4879        yH      LDR      r0,[pc,#484] ; [0x1238] = 0x66a0000f
        0x00001052:    f7fffc8b    ....    BL       CLK_GetModuleClockSource ; 0x96c
        0x00001056:    0280        ..      LSLS     r0,r0,#10
        0x00001058:    f2404100    @..A    MOVW     r1,#0x400
        0x0000105c:    4288        .B      CMP      r0,r1
        0x0000105e:    d104        ..      BNE      0x106a ; SPI_Open + 434
        0x00001060:    e7ff        ..      B        0x1062 ; SPI_Open + 426
        0x00001062:    f7fffd05    ....    BL       CLK_GetPLLClockFreq ; 0xa70
        0x00001066:    9005        ..      STR      r0,[sp,#0x14]
        0x00001068:    e010        ..      B        0x108c ; SPI_Open + 468
        0x0000106a:    4873        sH      LDR      r0,[pc,#460] ; [0x1238] = 0x66a0000f
        0x0000106c:    f7fffc7e    ..~.    BL       CLK_GetModuleClockSource ; 0x96c
        0x00001070:    0280        ..      LSLS     r0,r0,#10
        0x00001072:    f6400100    @...    MOVW     r1,#0x800
        0x00001076:    4288        .B      CMP      r0,r1
        0x00001078:    d104        ..      BNE      0x1084 ; SPI_Open + 460
        0x0000107a:    e7ff        ..      B        0x107c ; SPI_Open + 452
        0x0000107c:    f7fffcea    ....    BL       CLK_GetPCLK1Freq ; 0xa54
        0x00001080:    9005        ..      STR      r0,[sp,#0x14]
        0x00001082:    e002        ..      B        0x108a ; SPI_Open + 466
        0x00001084:    48eb        .H      LDR      r0,[pc,#940] ; [0x1434] = 0xb71b00
        0x00001086:    9005        ..      STR      r0,[sp,#0x14]
        0x00001088:    e7ff        ..      B        0x108a ; SPI_Open + 466
        0x0000108a:    e7ff        ..      B        0x108c ; SPI_Open + 468
        0x0000108c:    e7ff        ..      B        0x108e ; SPI_Open + 470
        0x0000108e:    e028        (.      B        0x10e2 ; SPI_Open + 554
        0x00001090:    4868        hH      LDR      r0,[pc,#416] ; [0x1234] = 0xa6c00006
        0x00001092:    f7fffc6b    ..k.    BL       CLK_GetModuleClockSource ; 0x96c
        0x00001096:    0300        ..      LSLS     r0,r0,#12
        0x00001098:    b918        ..      CBNZ     r0,0x10a2 ; SPI_Open + 490
        0x0000109a:    e7ff        ..      B        0x109c ; SPI_Open + 484
        0x0000109c:    48e5        .H      LDR      r0,[pc,#916] ; [0x1434] = 0xb71b00
        0x0000109e:    9005        ..      STR      r0,[sp,#0x14]
        0x000010a0:    e01e        ..      B        0x10e0 ; SPI_Open + 552
        0x000010a2:    4864        dH      LDR      r0,[pc,#400] ; [0x1234] = 0xa6c00006
        0x000010a4:    f7fffc62    ..b.    BL       CLK_GetModuleClockSource ; 0x96c
        0x000010a8:    0300        ..      LSLS     r0,r0,#12
        0x000010aa:    f2410100    A...    MOVW     r1,#0x1000
        0x000010ae:    4288        .B      CMP      r0,r1
        0x000010b0:    d104        ..      BNE      0x10bc ; SPI_Open + 516
        0x000010b2:    e7ff        ..      B        0x10b4 ; SPI_Open + 508
        0x000010b4:    f7fffcdc    ....    BL       CLK_GetPLLClockFreq ; 0xa70
        0x000010b8:    9005        ..      STR      r0,[sp,#0x14]
        0x000010ba:    e010        ..      B        0x10de ; SPI_Open + 550
        0x000010bc:    485d        ]H      LDR      r0,[pc,#372] ; [0x1234] = 0xa6c00006
        0x000010be:    f7fffc55    ..U.    BL       CLK_GetModuleClockSource ; 0x96c
        0x000010c2:    0300        ..      LSLS     r0,r0,#12
        0x000010c4:    f2420100    B...    MOVW     r1,#0x2000
        0x000010c8:    4288        .B      CMP      r0,r1
        0x000010ca:    d104        ..      BNE      0x10d6 ; SPI_Open + 542
        0x000010cc:    e7ff        ..      B        0x10ce ; SPI_Open + 534
        0x000010ce:    f7fffcb5    ....    BL       CLK_GetPCLK0Freq ; 0xa3c
        0x000010d2:    9005        ..      STR      r0,[sp,#0x14]
        0x000010d4:    e002        ..      B        0x10dc ; SPI_Open + 548
        0x000010d6:    48d7        .H      LDR      r0,[pc,#860] ; [0x1434] = 0xb71b00
        0x000010d8:    9005        ..      STR      r0,[sp,#0x14]
        0x000010da:    e7ff        ..      B        0x10dc ; SPI_Open + 548
        0x000010dc:    e7ff        ..      B        0x10de ; SPI_Open + 550
        0x000010de:    e7ff        ..      B        0x10e0 ; SPI_Open + 552
        0x000010e0:    e7ff        ..      B        0x10e2 ; SPI_Open + 554
        0x000010e2:    e7ff        ..      B        0x10e4 ; SPI_Open + 556
        0x000010e4:    e7ff        ..      B        0x10e6 ; SPI_Open + 558
        0x000010e6:    980c        ..      LDR      r0,[sp,#0x30]
        0x000010e8:    9903        ..      LDR      r1,[sp,#0xc]
        0x000010ea:    4288        .B      CMP      r0,r1
        0x000010ec:    d306        ..      BCC      0x10fc ; SPI_Open + 580
        0x000010ee:    e7ff        ..      B        0x10f0 ; SPI_Open + 568
        0x000010f0:    9909        ..      LDR      r1,[sp,#0x24]
        0x000010f2:    2000        .       MOVS     r0,#0
        0x000010f4:    6048        H`      STR      r0,[r1,#4]
        0x000010f6:    9805        ..      LDR      r0,[sp,#0x14]
        0x000010f8:    9000        ..      STR      r0,[sp,#0]
        0x000010fa:    e042        B.      B        0x1182 ; SPI_Open + 714
        0x000010fc:    980c        ..      LDR      r0,[sp,#0x30]
        0x000010fe:    9905        ..      LDR      r1,[sp,#0x14]
        0x00001100:    4288        .B      CMP      r0,r1
        0x00001102:    d306        ..      BCC      0x1112 ; SPI_Open + 602
        0x00001104:    e7ff        ..      B        0x1106 ; SPI_Open + 590
        0x00001106:    9909        ..      LDR      r1,[sp,#0x24]
        0x00001108:    2000        .       MOVS     r0,#0
        0x0000110a:    6048        H`      STR      r0,[r1,#4]
        0x0000110c:    9805        ..      LDR      r0,[sp,#0x14]
        0x0000110e:    9000        ..      STR      r0,[sp,#0]
        0x00001110:    e036        6.      B        0x1180 ; SPI_Open + 712
        0x00001112:    980c        ..      LDR      r0,[sp,#0x30]
        0x00001114:    b948        H.      CBNZ     r0,0x112a ; SPI_Open + 626
        0x00001116:    e7ff        ..      B        0x1118 ; SPI_Open + 608
        0x00001118:    9909        ..      LDR      r1,[sp,#0x24]
        0x0000111a:    6848        Hh      LDR      r0,[r1,#4]
        0x0000111c:    4a4a        JJ      LDR      r2,[pc,#296] ; [0x1248] = 0x1ff
        0x0000111e:    4310        .C      ORRS     r0,r0,r2
        0x00001120:    6048        H`      STR      r0,[r1,#4]
        0x00001122:    9805        ..      LDR      r0,[sp,#0x14]
        0x00001124:    0a40        @.      LSRS     r0,r0,#9
        0x00001126:    9000        ..      STR      r0,[sp,#0]
        0x00001128:    e029        ).      B        0x117e ; SPI_Open + 710
        0x0000112a:    9a05        ..      LDR      r2,[sp,#0x14]
        0x0000112c:    210a        .!      MOVS     r1,#0xa
        0x0000112e:    4608        .F      MOV      r0,r1
        0x00001130:    4350        PC      MULS     r0,r2,r0
        0x00001132:    9a0c        ..      LDR      r2,[sp,#0x30]
        0x00001134:    fbb0f0f2    ....    UDIV     r0,r0,r2
        0x00001138:    1d40        @.      ADDS     r0,r0,#5
        0x0000113a:    fbb0f0f1    ....    UDIV     r0,r0,r1
        0x0000113e:    1e40        @.      SUBS     r0,r0,#1
        0x00001140:    9004        ..      STR      r0,[sp,#0x10]
        0x00001142:    9804        ..      LDR      r0,[sp,#0x10]
        0x00001144:    0a40        @.      LSRS     r0,r0,#9
        0x00001146:    b150        P.      CBZ      r0,0x115e ; SPI_Open + 678
        0x00001148:    e7ff        ..      B        0x114a ; SPI_Open + 658
        0x0000114a:    4a3f        ?J      LDR      r2,[pc,#252] ; [0x1248] = 0x1ff
        0x0000114c:    9204        ..      STR      r2,[sp,#0x10]
        0x0000114e:    9909        ..      LDR      r1,[sp,#0x24]
        0x00001150:    6848        Hh      LDR      r0,[r1,#4]
        0x00001152:    4310        .C      ORRS     r0,r0,r2
        0x00001154:    6048        H`      STR      r0,[r1,#4]
        0x00001156:    9805        ..      LDR      r0,[sp,#0x14]
        0x00001158:    0a40        @.      LSRS     r0,r0,#9
        0x0000115a:    9000        ..      STR      r0,[sp,#0]
        0x0000115c:    e00e        ..      B        0x117c ; SPI_Open + 708
        0x0000115e:    9809        ..      LDR      r0,[sp,#0x24]
        0x00001160:    6840        @h      LDR      r0,[r0,#4]
        0x00001162:    4938        8I      LDR      r1,[pc,#224] ; [0x1244] = 0xfffffe00
        0x00001164:    4008        .@      ANDS     r0,r0,r1
        0x00001166:    9904        ..      LDR      r1,[sp,#0x10]
        0x00001168:    4308        .C      ORRS     r0,r0,r1
        0x0000116a:    9909        ..      LDR      r1,[sp,#0x24]
        0x0000116c:    6048        H`      STR      r0,[r1,#4]
        0x0000116e:    9805        ..      LDR      r0,[sp,#0x14]
        0x00001170:    9904        ..      LDR      r1,[sp,#0x10]
        0x00001172:    1c49        I.      ADDS     r1,r1,#1
        0x00001174:    fbb0f0f1    ....    UDIV     r0,r0,r1
        0x00001178:    9000        ..      STR      r0,[sp,#0]
        0x0000117a:    e7ff        ..      B        0x117c ; SPI_Open + 708
        0x0000117c:    e7ff        ..      B        0x117e ; SPI_Open + 710
        0x0000117e:    e7ff        ..      B        0x1180 ; SPI_Open + 712
        0x00001180:    e7ff        ..      B        0x1182 ; SPI_Open + 714
        0x00001182:    e04c        L.      B        0x121e ; SPI_Open + 870
        0x00001184:    9909        ..      LDR      r1,[sp,#0x24]
        0x00001186:    2000        .       MOVS     r0,#0
        0x00001188:    6088        .`      STR      r0,[r1,#8]
        0x0000118a:    9908        ..      LDR      r1,[sp,#0x20]
        0x0000118c:    9a06        ..      LDR      r2,[sp,#0x18]
        0x0000118e:    0212        ..      LSLS     r2,r2,#8
        0x00001190:    4311        .C      ORRS     r1,r1,r2
        0x00001192:    9a07        ..      LDR      r2,[sp,#0x1c]
        0x00001194:    4311        .C      ORRS     r1,r1,r2
        0x00001196:    2201        ."      MOVS     r2,#1
        0x00001198:    4311        .C      ORRS     r1,r1,r2
        0x0000119a:    9a09        ..      LDR      r2,[sp,#0x24]
        0x0000119c:    6011        .`      STR      r1,[r2,#0]
        0x0000119e:    9909        ..      LDR      r1,[sp,#0x24]
        0x000011a0:    6048        H`      STR      r0,[r1,#4]
        0x000011a2:    9809        ..      LDR      r0,[sp,#0x24]
        0x000011a4:    491f        .I      LDR      r1,[pc,#124] ; [0x1224] = 0x40061000
        0x000011a6:    4288        .B      CMP      r0,r1
        0x000011a8:    d10a        ..      BNE      0x11c0 ; SPI_Open + 776
        0x000011aa:    e7ff        ..      B        0x11ac ; SPI_Open + 756
        0x000011ac:    4920         I      LDR      r1,[pc,#128] ; [0x1230] = 0x40000218
        0x000011ae:    6808        .h      LDR      r0,[r1,#0]
        0x000011b0:    2220         "      MOVS     r2,#0x20
        0x000011b2:    4310        .C      ORRS     r0,r0,r2
        0x000011b4:    2210        ."      MOVS     r2,#0x10
        0x000011b6:    4390        .C      BICS     r0,r0,r2
        0x000011b8:    6008        .`      STR      r0,[r1,#0]
        0x000011ba:    9801        ..      LDR      r0,[sp,#4]
        0x000011bc:    9000        ..      STR      r0,[sp,#0]
        0x000011be:    e02d        -.      B        0x121c ; SPI_Open + 868
        0x000011c0:    9809        ..      LDR      r0,[sp,#0x24]
        0x000011c2:    4919        .I      LDR      r1,[pc,#100] ; [0x1228] = 0x40062000
        0x000011c4:    4288        .B      CMP      r0,r1
        0x000011c6:    d10a        ..      BNE      0x11de ; SPI_Open + 806
        0x000011c8:    e7ff        ..      B        0x11ca ; SPI_Open + 786
        0x000011ca:    4919        .I      LDR      r1,[pc,#100] ; [0x1230] = 0x40000218
        0x000011cc:    6808        .h      LDR      r0,[r1,#0]
        0x000011ce:    2280        ."      MOVS     r2,#0x80
        0x000011d0:    4310        .C      ORRS     r0,r0,r2
        0x000011d2:    2240        @"      MOVS     r2,#0x40
        0x000011d4:    4390        .C      BICS     r0,r0,r2
        0x000011d6:    6008        .`      STR      r0,[r1,#0]
        0x000011d8:    9802        ..      LDR      r0,[sp,#8]
        0x000011da:    9000        ..      STR      r0,[sp,#0]
        0x000011dc:    e01d        ..      B        0x121a ; SPI_Open + 866
        0x000011de:    9809        ..      LDR      r0,[sp,#0x24]
        0x000011e0:    4912        .I      LDR      r1,[pc,#72] ; [0x122c] = 0x40063000
        0x000011e2:    4288        .B      CMP      r0,r1
        0x000011e4:    d10c        ..      BNE      0x1200 ; SPI_Open + 840
        0x000011e6:    e7ff        ..      B        0x11e8 ; SPI_Open + 816
        0x000011e8:    4911        .I      LDR      r1,[pc,#68] ; [0x1230] = 0x40000218
        0x000011ea:    6808        .h      LDR      r0,[r1,#0]
        0x000011ec:    f6404200    @..B    MOVW     r2,#0xc00
        0x000011f0:    4390        .C      BICS     r0,r0,r2
        0x000011f2:    f6400200    @...    MOVW     r2,#0x800
        0x000011f6:    1880        ..      ADDS     r0,r0,r2
        0x000011f8:    6008        .`      STR      r0,[r1,#0]
        0x000011fa:    9801        ..      LDR      r0,[sp,#4]
        0x000011fc:    9000        ..      STR      r0,[sp,#0]
        0x000011fe:    e00b        ..      B        0x1218 ; SPI_Open + 864
        0x00001200:    490b        .I      LDR      r1,[pc,#44] ; [0x1230] = 0x40000218
        0x00001202:    6808        .h      LDR      r0,[r1,#0]
        0x00001204:    f2430200    C...    MOVW     r2,#0x3000
        0x00001208:    4390        .C      BICS     r0,r0,r2
        0x0000120a:    f2420200    B...    MOVW     r2,#0x2000
        0x0000120e:    1880        ..      ADDS     r0,r0,r2
        0x00001210:    6008        .`      STR      r0,[r1,#0]
        0x00001212:    9802        ..      LDR      r0,[sp,#8]
        0x00001214:    9000        ..      STR      r0,[sp,#0]
        0x00001216:    e7ff        ..      B        0x1218 ; SPI_Open + 864
        0x00001218:    e7ff        ..      B        0x121a ; SPI_Open + 866
        0x0000121a:    e7ff        ..      B        0x121c ; SPI_Open + 868
        0x0000121c:    e7ff        ..      B        0x121e ; SPI_Open + 870
        0x0000121e:    9800        ..      LDR      r0,[sp,#0]
        0x00001220:    b00a        ..      ADD      sp,sp,#0x28
        0x00001222:    bd10        ..      POP      {r4,pc}
    $d
    __arm_cp.0_0
        0x00001224:    40061000    ...@    DCD    1074139136
    __arm_cp.0_1
        0x00001228:    40062000    . .@    DCD    1074143232
    __arm_cp.0_2
        0x0000122c:    40063000    .0.@    DCD    1074147328
    __arm_cp.0_3
        0x00001230:    40000218    ...@    DCD    1073742360
    __arm_cp.0_4
        0x00001234:    a6c00006    ....    DCD    2797600774
    __arm_cp.0_6
        0x00001238:    66a0000f    ...f    DCD    1721761807
    __arm_cp.0_7
        0x0000123c:    6660000e    ..`f    DCD    1717567502
    __arm_cp.0_8
        0x00001240:    6640000d    ..@f    DCD    1715470349
    __arm_cp.0_9
        0x00001244:    fffffe00    ....    DCD    4294966784
    __arm_cp.0_10
        0x00001248:    000001ff    ....    DCD    511
    $t
    SPI_SetFIFO
        0x0000124c:    b083        ..      SUB      sp,sp,#0xc
        0x0000124e:    9002        ..      STR      r0,[sp,#8]
        0x00001250:    9101        ..      STR      r1,[sp,#4]
        0x00001252:    9200        ..      STR      r2,[sp,#0]
        0x00001254:    9802        ..      LDR      r0,[sp,#8]
        0x00001256:    6900        .i      LDR      r0,[r0,#0x10]
        0x00001258:    2177        w!      MOVS     r1,#0x77
        0x0000125a:    0609        ..      LSLS     r1,r1,#24
        0x0000125c:    4388        .C      BICS     r0,r0,r1
        0x0000125e:    9901        ..      LDR      r1,[sp,#4]
        0x00001260:    0709        ..      LSLS     r1,r1,#28
        0x00001262:    4308        .C      ORRS     r0,r0,r1
        0x00001264:    9900        ..      LDR      r1,[sp,#0]
        0x00001266:    0609        ..      LSLS     r1,r1,#24
        0x00001268:    4308        .C      ORRS     r0,r0,r1
        0x0000126a:    9902        ..      LDR      r1,[sp,#8]
        0x0000126c:    6108        .a      STR      r0,[r1,#0x10]
        0x0000126e:    b003        ..      ADD      sp,sp,#0xc
        0x00001270:    4770        pG      BX       lr
        0x00001272:    0000        ..      MOVS     r0,r0
    SYS_UnlockReg
        0x00001274:    b081        ..      SUB      sp,sp,#4
        0x00001276:    486f        oH      LDR      r0,[pc,#444] ; [0x1434] = 0xb71b00
        0x00001278:    9000        ..      STR      r0,[sp,#0]
        0x0000127a:    e7ff        ..      B        0x127c ; SYS_UnlockReg + 8
        0x0000127c:    490b        .I      LDR      r1,[pc,#44] ; [0x12ac] = 0x40000100
        0x0000127e:    2059        Y       MOVS     r0,#0x59
        0x00001280:    6008        .`      STR      r0,[r1,#0]
        0x00001282:    2016        .       MOVS     r0,#0x16
        0x00001284:    6008        .`      STR      r0,[r1,#0]
        0x00001286:    2088        .       MOVS     r0,#0x88
        0x00001288:    6008        .`      STR      r0,[r1,#0]
        0x0000128a:    9800        ..      LDR      r0,[sp,#0]
        0x0000128c:    1e40        @.      SUBS     r0,r0,#1
        0x0000128e:    9000        ..      STR      r0,[sp,#0]
        0x00001290:    b908        ..      CBNZ     r0,0x1296 ; SYS_UnlockReg + 34
        0x00001292:    e7ff        ..      B        0x1294 ; SYS_UnlockReg + 32
        0x00001294:    e005        ..      B        0x12a2 ; SYS_UnlockReg + 46
        0x00001296:    e7ff        ..      B        0x1298 ; SYS_UnlockReg + 36
        0x00001298:    4804        .H      LDR      r0,[pc,#16] ; [0x12ac] = 0x40000100
        0x0000129a:    6800        .h      LDR      r0,[r0,#0]
        0x0000129c:    2800        .(      CMP      r0,#0
        0x0000129e:    d0ed        ..      BEQ      0x127c ; SYS_UnlockReg + 8
        0x000012a0:    e7ff        ..      B        0x12a2 ; SYS_UnlockReg + 46
        0x000012a2:    b001        ..      ADD      sp,sp,#4
        0x000012a4:    4770        pG      BX       lr
        0x000012a6:    46c0        .F      MOV      r8,r8
    $d
    __arm_cp.1_0
        0x000012a8:    00b71b00    ....    DCD    12000000
    __arm_cp.1_1
        0x000012ac:    40000100    ...@    DCD    1073742080
    $t
    SendChar
        0x000012b0:    b580        ..      PUSH     {r7,lr}
        0x000012b2:    b082        ..      SUB      sp,sp,#8
        0x000012b4:    9001        ..      STR      r0,[sp,#4]
        0x000012b6:    9801        ..      LDR      r0,[sp,#4]
        0x000012b8:    f000f802    ....    BL       SendChar_ToUART ; 0x12c0
        0x000012bc:    b002        ..      ADD      sp,sp,#8
        0x000012be:    bd80        ..      POP      {r7,pc}
    SendChar_ToUART
        0x000012c0:    b081        ..      SUB      sp,sp,#4
        0x000012c2:    9000        ..      STR      r0,[sp,#0]
        0x000012c4:    e7ff        ..      B        0x12c6 ; SendChar_ToUART + 6
        0x000012c6:    480e        .H      LDR      r0,[pc,#56] ; [0x1300] = 0x40070018
        0x000012c8:    6800        .h      LDR      r0,[r0,#0]
        0x000012ca:    0200        ..      LSLS     r0,r0,#8
        0x000012cc:    2800        .(      CMP      r0,#0
        0x000012ce:    d501        ..      BPL      0x12d4 ; SendChar_ToUART + 20
        0x000012d0:    e7ff        ..      B        0x12d2 ; SendChar_ToUART + 18
        0x000012d2:    e7f8        ..      B        0x12c6 ; SendChar_ToUART + 6
        0x000012d4:    4668        hF      MOV      r0,sp
        0x000012d6:    7800        .x      LDRB     r0,[r0,#0]
        0x000012d8:    280a        .(      CMP      r0,#0xa
        0x000012da:    d10c        ..      BNE      0x12f6 ; SendChar_ToUART + 54
        0x000012dc:    e7ff        ..      B        0x12de ; SendChar_ToUART + 30
        0x000012de:    4909        .I      LDR      r1,[pc,#36] ; [0x1304] = 0x40070000
        0x000012e0:    200d        .       MOVS     r0,#0xd
        0x000012e2:    6008        .`      STR      r0,[r1,#0]
        0x000012e4:    e7ff        ..      B        0x12e6 ; SendChar_ToUART + 38
        0x000012e6:    4806        .H      LDR      r0,[pc,#24] ; [0x1300] = 0x40070018
        0x000012e8:    6800        .h      LDR      r0,[r0,#0]
        0x000012ea:    0200        ..      LSLS     r0,r0,#8
        0x000012ec:    2800        .(      CMP      r0,#0
        0x000012ee:    d501        ..      BPL      0x12f4 ; SendChar_ToUART + 52
        0x000012f0:    e7ff        ..      B        0x12f2 ; SendChar_ToUART + 50
        0x000012f2:    e7f8        ..      B        0x12e6 ; SendChar_ToUART + 38
        0x000012f4:    e7ff        ..      B        0x12f6 ; SendChar_ToUART + 54
        0x000012f6:    9800        ..      LDR      r0,[sp,#0]
        0x000012f8:    4902        .I      LDR      r1,[pc,#8] ; [0x1304] = 0x40070000
        0x000012fa:    6008        .`      STR      r0,[r1,#0]
        0x000012fc:    b001        ..      ADD      sp,sp,#4
        0x000012fe:    4770        pG      BX       lr
    $d
    __arm_cp.2_0
        0x00001300:    40070018    ...@    DCD    1074200600
    __arm_cp.2_1
        0x00001304:    40070000    ...@    DCD    1074200576
    $t
    SystemCoreClockUpdate
        0x00001308:    b580        ..      PUSH     {r7,lr}
        0x0000130a:    f7fffbb1    ....    BL       CLK_GetPLLClockFreq ; 0xa70
        0x0000130e:    4908        .I      LDR      r1,[pc,#32] ; [0x1330] = 0x20000004
        0x00001310:    6008        .`      STR      r0,[r1,#0]
        0x00001312:    f7fffa73    ..s.    BL       CLK_GetCPUFreq ; 0x7fc
        0x00001316:    4601        .F      MOV      r1,r0
        0x00001318:    4806        .H      LDR      r0,[pc,#24] ; [0x1334] = 0x20000008
        0x0000131a:    6001        .`      STR      r1,[r0,#0]
        0x0000131c:    6800        .h      LDR      r0,[r0,#0]
        0x0000131e:    4906        .I      LDR      r1,[pc,#24] ; [0x1338] = 0x7a120
        0x00001320:    1840        @.      ADDS     r0,r0,r1
        0x00001322:    4906        .I      LDR      r1,[pc,#24] ; [0x133c] = 0xf4240
        0x00001324:    fbb0f0f1    ....    UDIV     r0,r0,r1
        0x00001328:    4905        .I      LDR      r1,[pc,#20] ; [0x1340] = 0x20000000
        0x0000132a:    6008        .`      STR      r0,[r1,#0]
        0x0000132c:    bd80        ..      POP      {r7,pc}
        0x0000132e:    46c0        .F      MOV      r8,r8
    $d
    __arm_cp.0_0
        0x00001330:    20000004    ...     DCD    536870916
    __arm_cp.0_1
        0x00001334:    20000008    ...     DCD    536870920
    __arm_cp.0_2
        0x00001338:    0007a120     ...    DCD    500000
    __arm_cp.0_3
        0x0000133c:    000f4240    @B..    DCD    1000000
    __arm_cp.0_4
        0x00001340:    20000000    ...     DCD    536870912
    $t
    SystemInit
        0x00001344:    4801        .H      LDR      r0,[pc,#4] ; [0x134c] = 0
        0x00001346:    4902        .I      LDR      r1,[pc,#8] ; [0x1350] = 0xe000ed08
        0x00001348:    6008        .`      STR      r0,[r1,#0]
        0x0000134a:    4770        pG      BX       lr
    $d
    __arm_cp.1_0
        0x0000134c:    00000000    ....    DCD    0
    __arm_cp.1_1
        0x00001350:    e000ed08    ....    DCD    3758157064
    $t
    TIMER_ClearIntFlag
        0x00001354:    b081        ..      SUB      sp,sp,#4
        0x00001356:    9000        ..      STR      r0,[sp,#0]
        0x00001358:    9900        ..      LDR      r1,[sp,#0]
        0x0000135a:    2001        .       MOVS     r0,#1
        0x0000135c:    6088        .`      STR      r0,[r1,#8]
        0x0000135e:    b001        ..      ADD      sp,sp,#4
        0x00001360:    4770        pG      BX       lr
    TIMER_EnableInt
        0x00001362:    b081        ..      SUB      sp,sp,#4
        0x00001364:    9000        ..      STR      r0,[sp,#0]
        0x00001366:    9900        ..      LDR      r1,[sp,#0]
        0x00001368:    6808        .h      LDR      r0,[r1,#0]
        0x0000136a:    2201        ."      MOVS     r2,#1
        0x0000136c:    0752        R.      LSLS     r2,r2,#29
        0x0000136e:    4310        .C      ORRS     r0,r0,r2
        0x00001370:    6008        .`      STR      r0,[r1,#0]
        0x00001372:    b001        ..      ADD      sp,sp,#4
        0x00001374:    4770        pG      BX       lr
        0x00001376:    0000        ..      MOVS     r0,r0
    TIMER_GetModuleClock
        0x00001378:    b5b0        ..      PUSH     {r4,r5,r7,lr}
        0x0000137a:    b08c        ..      SUB      sp,sp,#0x30
        0x0000137c:    900b        ..      STR      r0,[sp,#0x2c]
        0x0000137e:    482d        -H      LDR      r0,[pc,#180] ; [0x1434] = 0xb71b00
        0x00001380:    9009        ..      STR      r0,[sp,#0x24]
        0x00001382:    492d        -I      LDR      r1,[pc,#180] ; [0x1438] = 0x76d4
        0x00001384:    a801        ..      ADD      r0,sp,#4
        0x00001386:    c93c        <.      LDM      r1!,{r2-r5}
        0x00001388:    c03c        <.      STM      r0!,{r2-r5}
        0x0000138a:    c93c        <.      LDM      r1!,{r2-r5}
        0x0000138c:    c03c        <.      STM      r0!,{r2-r5}
        0x0000138e:    980b        ..      LDR      r0,[sp,#0x2c]
        0x00001390:    492a        *I      LDR      r1,[pc,#168] ; [0x143c] = 0x40050000
        0x00001392:    4288        .B      CMP      r0,r1
        0x00001394:    d105        ..      BNE      0x13a2 ; TIMER_GetModuleClock + 42
        0x00001396:    e7ff        ..      B        0x1398 ; TIMER_GetModuleClock + 32
        0x00001398:    482e        .H      LDR      r0,[pc,#184] ; [0x1454] = 0x5e800002
        0x0000139a:    f7fffae7    ....    BL       CLK_GetModuleClockSource ; 0x96c
        0x0000139e:    900a        ..      STR      r0,[sp,#0x28]
        0x000013a0:    e023        #.      B        0x13ea ; TIMER_GetModuleClock + 114
        0x000013a2:    980b        ..      LDR      r0,[sp,#0x2c]
        0x000013a4:    4926        &I      LDR      r1,[pc,#152] ; [0x1440] = 0x40050100
        0x000013a6:    4288        .B      CMP      r0,r1
        0x000013a8:    d105        ..      BNE      0x13b6 ; TIMER_GetModuleClock + 62
        0x000013aa:    e7ff        ..      B        0x13ac ; TIMER_GetModuleClock + 52
        0x000013ac:    4828        (H      LDR      r0,[pc,#160] ; [0x1450] = 0x5ec00003
        0x000013ae:    f7fffadd    ....    BL       CLK_GetModuleClockSource ; 0x96c
        0x000013b2:    900a        ..      STR      r0,[sp,#0x28]
        0x000013b4:    e018        ..      B        0x13e8 ; TIMER_GetModuleClock + 112
        0x000013b6:    980b        ..      LDR      r0,[sp,#0x2c]
        0x000013b8:    4922        "I      LDR      r1,[pc,#136] ; [0x1444] = 0x40051000
        0x000013ba:    4288        .B      CMP      r0,r1
        0x000013bc:    d105        ..      BNE      0x13ca ; TIMER_GetModuleClock + 82
        0x000013be:    e7ff        ..      B        0x13c0 ; TIMER_GetModuleClock + 72
        0x000013c0:    4822        "H      LDR      r0,[pc,#136] ; [0x144c] = 0x5f000004
        0x000013c2:    f7fffad3    ....    BL       CLK_GetModuleClockSource ; 0x96c
        0x000013c6:    900a        ..      STR      r0,[sp,#0x28]
        0x000013c8:    e00d        ..      B        0x13e6 ; TIMER_GetModuleClock + 110
        0x000013ca:    980b        ..      LDR      r0,[sp,#0x2c]
        0x000013cc:    498c        .I      LDR      r1,[pc,#560] ; [0x1600] = 0x40051100
        0x000013ce:    4288        .B      CMP      r0,r1
        0x000013d0:    d105        ..      BNE      0x13de ; TIMER_GetModuleClock + 102
        0x000013d2:    e7ff        ..      B        0x13d4 ; TIMER_GetModuleClock + 92
        0x000013d4:    481c        .H      LDR      r0,[pc,#112] ; [0x1448] = 0x5f400005
        0x000013d6:    f7fffac9    ....    BL       CLK_GetModuleClockSource ; 0x96c
        0x000013da:    900a        ..      STR      r0,[sp,#0x28]
        0x000013dc:    e002        ..      B        0x13e4 ; TIMER_GetModuleClock + 108
        0x000013de:    2000        .       MOVS     r0,#0
        0x000013e0:    9009        ..      STR      r0,[sp,#0x24]
        0x000013e2:    e7ff        ..      B        0x13e4 ; TIMER_GetModuleClock + 108
        0x000013e4:    e7ff        ..      B        0x13e6 ; TIMER_GetModuleClock + 110
        0x000013e6:    e7ff        ..      B        0x13e8 ; TIMER_GetModuleClock + 112
        0x000013e8:    e7ff        ..      B        0x13ea ; TIMER_GetModuleClock + 114
        0x000013ea:    9809        ..      LDR      r0,[sp,#0x24]
        0x000013ec:    b908        ..      CBNZ     r0,0x13f2 ; TIMER_GetModuleClock + 122
        0x000013ee:    e7ff        ..      B        0x13f0 ; TIMER_GetModuleClock + 120
        0x000013f0:    e01d        ..      B        0x142e ; TIMER_GetModuleClock + 182
        0x000013f2:    980a        ..      LDR      r0,[sp,#0x28]
        0x000013f4:    2802        .(      CMP      r0,#2
        0x000013f6:    d113        ..      BNE      0x1420 ; TIMER_GetModuleClock + 168
        0x000013f8:    e7ff        ..      B        0x13fa ; TIMER_GetModuleClock + 130
        0x000013fa:    980b        ..      LDR      r0,[sp,#0x2c]
        0x000013fc:    490f        .I      LDR      r1,[pc,#60] ; [0x143c] = 0x40050000
        0x000013fe:    4288        .B      CMP      r0,r1
        0x00001400:    d005        ..      BEQ      0x140e ; TIMER_GetModuleClock + 150
        0x00001402:    e7ff        ..      B        0x1404 ; TIMER_GetModuleClock + 140
        0x00001404:    980b        ..      LDR      r0,[sp,#0x2c]
        0x00001406:    490e        .I      LDR      r1,[pc,#56] ; [0x1440] = 0x40050100
        0x00001408:    4288        .B      CMP      r0,r1
        0x0000140a:    d104        ..      BNE      0x1416 ; TIMER_GetModuleClock + 158
        0x0000140c:    e7ff        ..      B        0x140e ; TIMER_GetModuleClock + 150
        0x0000140e:    f7fffb15    ....    BL       CLK_GetPCLK0Freq ; 0xa3c
        0x00001412:    9009        ..      STR      r0,[sp,#0x24]
        0x00001414:    e003        ..      B        0x141e ; TIMER_GetModuleClock + 166
        0x00001416:    f7fffb1d    ....    BL       CLK_GetPCLK1Freq ; 0xa54
        0x0000141a:    9009        ..      STR      r0,[sp,#0x24]
        0x0000141c:    e7ff        ..      B        0x141e ; TIMER_GetModuleClock + 166
        0x0000141e:    e005        ..      B        0x142c ; TIMER_GetModuleClock + 180
        0x00001420:    980a        ..      LDR      r0,[sp,#0x28]
        0x00001422:    0081        ..      LSLS     r1,r0,#2
        0x00001424:    a801        ..      ADD      r0,sp,#4
        0x00001426:    5840        @X      LDR      r0,[r0,r1]
        0x00001428:    9009        ..      STR      r0,[sp,#0x24]
        0x0000142a:    e7ff        ..      B        0x142c ; TIMER_GetModuleClock + 180
        0x0000142c:    e7ff        ..      B        0x142e ; TIMER_GetModuleClock + 182
        0x0000142e:    9809        ..      LDR      r0,[sp,#0x24]
        0x00001430:    b00c        ..      ADD      sp,sp,#0x30
        0x00001432:    bdb0        ..      POP      {r4,r5,r7,pc}
    $d
    __arm_cp.1_0
        0x00001434:    00b71b00    ....    DCD    12000000
    __arm_cp.1_1
        0x00001438:    000076d4    .v..    DCD    30420
    __arm_cp.1_2
        0x0000143c:    40050000    ...@    DCD    1074069504
    __arm_cp.1_3
        0x00001440:    40050100    ...@    DCD    1074069760
    __arm_cp.1_4
        0x00001444:    40051000    ...@    DCD    1074073600
    __arm_cp.1_6
        0x00001448:    5f400005    ..@_    DCD    1598029829
    __arm_cp.1_7
        0x0000144c:    5f000004    ..._    DCD    1593835524
    __arm_cp.1_8
        0x00001450:    5ec00003    ...^    DCD    1589641219
    __arm_cp.1_9
        0x00001454:    5e800002    ...^    DCD    1585446914
    $t
    TIMER_Open
        0x00001458:    b580        ..      PUSH     {r7,lr}
        0x0000145a:    b086        ..      SUB      sp,sp,#0x18
        0x0000145c:    9005        ..      STR      r0,[sp,#0x14]
        0x0000145e:    9104        ..      STR      r1,[sp,#0x10]
        0x00001460:    9203        ..      STR      r2,[sp,#0xc]
        0x00001462:    9805        ..      LDR      r0,[sp,#0x14]
        0x00001464:    f7ffff88    ....    BL       TIMER_GetModuleClock ; 0x1378
        0x00001468:    9002        ..      STR      r0,[sp,#8]
        0x0000146a:    2000        .       MOVS     r0,#0
        0x0000146c:    9001        ..      STR      r0,[sp,#4]
        0x0000146e:    9000        ..      STR      r0,[sp,#0]
        0x00001470:    9803        ..      LDR      r0,[sp,#0xc]
        0x00001472:    9902        ..      LDR      r1,[sp,#8]
        0x00001474:    0849        I.      LSRS     r1,r1,#1
        0x00001476:    4288        .B      CMP      r0,r1
        0x00001478:    d903        ..      BLS      0x1482 ; TIMER_Open + 42
        0x0000147a:    e7ff        ..      B        0x147c ; TIMER_Open + 36
        0x0000147c:    2002        .       MOVS     r0,#2
        0x0000147e:    9001        ..      STR      r0,[sp,#4]
        0x00001480:    e012        ..      B        0x14a8 ; TIMER_Open + 80
        0x00001482:    9802        ..      LDR      r0,[sp,#8]
        0x00001484:    9903        ..      LDR      r1,[sp,#0xc]
        0x00001486:    fbb0f0f1    ....    UDIV     r0,r0,r1
        0x0000148a:    9001        ..      STR      r0,[sp,#4]
        0x0000148c:    a801        ..      ADD      r0,sp,#4
        0x0000148e:    78c0        .x      LDRB     r0,[r0,#3]
        0x00001490:    9000        ..      STR      r0,[sp,#0]
        0x00001492:    9800        ..      LDR      r0,[sp,#0]
        0x00001494:    b138        8.      CBZ      r0,0x14a6 ; TIMER_Open + 78
        0x00001496:    e7ff        ..      B        0x1498 ; TIMER_Open + 64
        0x00001498:    9801        ..      LDR      r0,[sp,#4]
        0x0000149a:    9900        ..      LDR      r1,[sp,#0]
        0x0000149c:    1c49        I.      ADDS     r1,r1,#1
        0x0000149e:    fbb0f0f1    ....    UDIV     r0,r0,r1
        0x000014a2:    9001        ..      STR      r0,[sp,#4]
        0x000014a4:    e7ff        ..      B        0x14a6 ; TIMER_Open + 78
        0x000014a6:    e7ff        ..      B        0x14a8 ; TIMER_Open + 80
        0x000014a8:    9804        ..      LDR      r0,[sp,#0x10]
        0x000014aa:    9900        ..      LDR      r1,[sp,#0]
        0x000014ac:    4308        .C      ORRS     r0,r0,r1
        0x000014ae:    9905        ..      LDR      r1,[sp,#0x14]
        0x000014b0:    6008        .`      STR      r0,[r1,#0]
        0x000014b2:    9801        ..      LDR      r0,[sp,#4]
        0x000014b4:    9905        ..      LDR      r1,[sp,#0x14]
        0x000014b6:    6048        H`      STR      r0,[r1,#4]
        0x000014b8:    9802        ..      LDR      r0,[sp,#8]
        0x000014ba:    9a01        ..      LDR      r2,[sp,#4]
        0x000014bc:    9900        ..      LDR      r1,[sp,#0]
        0x000014be:    1c49        I.      ADDS     r1,r1,#1
        0x000014c0:    4351        QC      MULS     r1,r2,r1
        0x000014c2:    fbb0f0f1    ....    UDIV     r0,r0,r1
        0x000014c6:    b006        ..      ADD      sp,sp,#0x18
        0x000014c8:    bd80        ..      POP      {r7,pc}
    TIMER_Start
        0x000014ca:    b081        ..      SUB      sp,sp,#4
        0x000014cc:    9000        ..      STR      r0,[sp,#0]
        0x000014ce:    9900        ..      LDR      r1,[sp,#0]
        0x000014d0:    6808        .h      LDR      r0,[r1,#0]
        0x000014d2:    2201        ."      MOVS     r2,#1
        0x000014d4:    0792        ..      LSLS     r2,r2,#30
        0x000014d6:    4310        .C      ORRS     r0,r0,r2
        0x000014d8:    6008        .`      STR      r0,[r1,#0]
        0x000014da:    b001        ..      ADD      sp,sp,#4
        0x000014dc:    4770        pG      BX       lr
        0x000014de:    0000        ..      MOVS     r0,r0
    TMR3_IRQHandler
        0x000014e0:    b580        ..      PUSH     {r7,lr}
        0x000014e2:    b082        ..      SUB      sp,sp,#8
        0x000014e4:    f3ef8010    ....    MRS      r0,PRIMASK
        0x000014e8:    b672        r.      CPSID    i
        0x000014ea:    9001        ..      STR      r0,[sp,#4]
        0x000014ec:    4844        DH      LDR      r0,[pc,#272] ; [0x1600] = 0x40051100
        0x000014ee:    f7ffff31    ..1.    BL       TIMER_ClearIntFlag ; 0x1354
        0x000014f2:    48bb        .H      LDR      r0,[pc,#748] ; [0x17e0] = 0x2000000c
        0x000014f4:    f004fd60    ..`.    BL       spi_agent_sm ; 0x5fb8
        0x000014f8:    4842        BH      LDR      r0,[pc,#264] ; [0x1604] = 0x200002ac
        0x000014fa:    6800        .h      LDR      r0,[r0,#0]
        0x000014fc:    b128        (.      CBZ      r0,0x150a ; TMR3_IRQHandler + 42
        0x000014fe:    e7ff        ..      B        0x1500 ; TMR3_IRQHandler + 32
        0x00001500:    4940        @I      LDR      r1,[pc,#256] ; [0x1604] = 0x200002ac
        0x00001502:    6808        .h      LDR      r0,[r1,#0]
        0x00001504:    1e40        @.      SUBS     r0,r0,#1
        0x00001506:    6008        .`      STR      r0,[r1,#0]
        0x00001508:    e7ff        ..      B        0x150a ; TMR3_IRQHandler + 42
        0x0000150a:    2000        .       MOVS     r0,#0
        0x0000150c:    bb70        p.      CBNZ     r0,0x156c ; TMR3_IRQHandler + 140
        0x0000150e:    e7ff        ..      B        0x1510 ; TMR3_IRQHandler + 48
        0x00001510:    483d        =H      LDR      r0,[pc,#244] ; [0x1608] = 0x2000026c
        0x00001512:    8800        ..      LDRH     r0,[r0,#0]
        0x00001514:    b128        (.      CBZ      r0,0x1522 ; TMR3_IRQHandler + 66
        0x00001516:    e7ff        ..      B        0x1518 ; TMR3_IRQHandler + 56
        0x00001518:    493b        ;I      LDR      r1,[pc,#236] ; [0x1608] = 0x2000026c
        0x0000151a:    8808        ..      LDRH     r0,[r1,#0]
        0x0000151c:    1e40        @.      SUBS     r0,r0,#1
        0x0000151e:    8008        ..      STRH     r0,[r1,#0]
        0x00001520:    e7ff        ..      B        0x1522 ; TMR3_IRQHandler + 66
        0x00001522:    483a        :H      LDR      r0,[pc,#232] ; [0x160c] = 0x2000026a
        0x00001524:    8800        ..      LDRH     r0,[r0,#0]
        0x00001526:    b128        (.      CBZ      r0,0x1534 ; TMR3_IRQHandler + 84
        0x00001528:    e7ff        ..      B        0x152a ; TMR3_IRQHandler + 74
        0x0000152a:    4938        8I      LDR      r1,[pc,#224] ; [0x160c] = 0x2000026a
        0x0000152c:    8808        ..      LDRH     r0,[r1,#0]
        0x0000152e:    1e40        @.      SUBS     r0,r0,#1
        0x00001530:    8008        ..      STRH     r0,[r1,#0]
        0x00001532:    e7ff        ..      B        0x1534 ; TMR3_IRQHandler + 84
        0x00001534:    4836        6H      LDR      r0,[pc,#216] ; [0x1610] = 0x2000025e
        0x00001536:    8800        ..      LDRH     r0,[r0,#0]
        0x00001538:    b128        (.      CBZ      r0,0x1546 ; TMR3_IRQHandler + 102
        0x0000153a:    e7ff        ..      B        0x153c ; TMR3_IRQHandler + 92
        0x0000153c:    4934        4I      LDR      r1,[pc,#208] ; [0x1610] = 0x2000025e
        0x0000153e:    8808        ..      LDRH     r0,[r1,#0]
        0x00001540:    1e40        @.      SUBS     r0,r0,#1
        0x00001542:    8008        ..      STRH     r0,[r1,#0]
        0x00001544:    e7ff        ..      B        0x1546 ; TMR3_IRQHandler + 102
        0x00001546:    4833        3H      LDR      r0,[pc,#204] ; [0x1614] = 0x20000260
        0x00001548:    8800        ..      LDRH     r0,[r0,#0]
        0x0000154a:    b128        (.      CBZ      r0,0x1558 ; TMR3_IRQHandler + 120
        0x0000154c:    e7ff        ..      B        0x154e ; TMR3_IRQHandler + 110
        0x0000154e:    4931        1I      LDR      r1,[pc,#196] ; [0x1614] = 0x20000260
        0x00001550:    8808        ..      LDRH     r0,[r1,#0]
        0x00001552:    1e40        @.      SUBS     r0,r0,#1
        0x00001554:    8008        ..      STRH     r0,[r1,#0]
        0x00001556:    e7ff        ..      B        0x1558 ; TMR3_IRQHandler + 120
        0x00001558:    482f        /H      LDR      r0,[pc,#188] ; [0x1618] = 0x20000268
        0x0000155a:    8800        ..      LDRH     r0,[r0,#0]
        0x0000155c:    b128        (.      CBZ      r0,0x156a ; TMR3_IRQHandler + 138
        0x0000155e:    e7ff        ..      B        0x1560 ; TMR3_IRQHandler + 128
        0x00001560:    492d        -I      LDR      r1,[pc,#180] ; [0x1618] = 0x20000268
        0x00001562:    8808        ..      LDRH     r0,[r1,#0]
        0x00001564:    1e40        @.      SUBS     r0,r0,#1
        0x00001566:    8008        ..      STRH     r0,[r1,#0]
        0x00001568:    e7ff        ..      B        0x156a ; TMR3_IRQHandler + 138
        0x0000156a:    e7ff        ..      B        0x156c ; TMR3_IRQHandler + 140
        0x0000156c:    482b        +H      LDR      r0,[pc,#172] ; [0x161c] = 0x20000294
        0x0000156e:    6801        .h      LDR      r1,[r0,#0]
        0x00001570:    482b        +H      LDR      r0,[pc,#172] ; [0x1620] = 0x26e978d5
        0x00001572:    4348        HC      MULS     r0,r1,r0
        0x00001574:    2102        .!      MOVS     r1,#2
        0x00001576:    41c8        .A      RORS     r0,r0,r1
        0x00001578:    492a        *I      LDR      r1,[pc,#168] ; [0x1624] = 0x83126e
        0x0000157a:    4288        .B      CMP      r0,r1
        0x0000157c:    d804        ..      BHI      0x1588 ; TMR3_IRQHandler + 168
        0x0000157e:    e7ff        ..      B        0x1580 ; TMR3_IRQHandler + 160
        0x00001580:    4929        )I      LDR      r1,[pc,#164] ; [0x1628] = 0x20000293
        0x00001582:    2001        .       MOVS     r0,#1
        0x00001584:    7008        .p      STRB     r0,[r1,#0]
        0x00001586:    e7ff        ..      B        0x1588 ; TMR3_IRQHandler + 168
        0x00001588:    4824        $H      LDR      r0,[pc,#144] ; [0x161c] = 0x20000294
        0x0000158a:    6801        .h      LDR      r1,[r0,#0]
        0x0000158c:    4824        $H      LDR      r0,[pc,#144] ; [0x1620] = 0x26e978d5
        0x0000158e:    4348        HC      MULS     r0,r1,r0
        0x00001590:    2103        .!      MOVS     r1,#3
        0x00001592:    41c8        .A      RORS     r0,r0,r1
        0x00001594:    4925        %I      LDR      r1,[pc,#148] ; [0x162c] = 0x418937
        0x00001596:    4288        .B      CMP      r0,r1
        0x00001598:    d80a        ..      BHI      0x15b0 ; TMR3_IRQHandler + 208
        0x0000159a:    e7ff        ..      B        0x159c ; TMR3_IRQHandler + 188
        0x0000159c:    4824        $H      LDR      r0,[pc,#144] ; [0x1630] = 0x2000025c
        0x0000159e:    8800        ..      LDRH     r0,[r0,#0]
        0x000015a0:    b128        (.      CBZ      r0,0x15ae ; TMR3_IRQHandler + 206
        0x000015a2:    e7ff        ..      B        0x15a4 ; TMR3_IRQHandler + 196
        0x000015a4:    4922        "I      LDR      r1,[pc,#136] ; [0x1630] = 0x2000025c
        0x000015a6:    8808        ..      LDRH     r0,[r1,#0]
        0x000015a8:    1e40        @.      SUBS     r0,r0,#1
        0x000015aa:    8008        ..      STRH     r0,[r1,#0]
        0x000015ac:    e7ff        ..      B        0x15ae ; TMR3_IRQHandler + 206
        0x000015ae:    e7ff        ..      B        0x15b0 ; TMR3_IRQHandler + 208
        0x000015b0:    481a        .H      LDR      r0,[pc,#104] ; [0x161c] = 0x20000294
        0x000015b2:    6801        .h      LDR      r1,[r0,#0]
        0x000015b4:    481f        .H      LDR      r0,[pc,#124] ; [0x1634] = 0xc28f5c29
        0x000015b6:    4348        HC      MULS     r0,r1,r0
        0x000015b8:    2103        .!      MOVS     r1,#3
        0x000015ba:    41c8        .A      RORS     r0,r0,r1
        0x000015bc:    491e        .I      LDR      r1,[pc,#120] ; [0x1638] = 0x147ae14
        0x000015be:    4288        .B      CMP      r0,r1
        0x000015c0:    d804        ..      BHI      0x15cc ; TMR3_IRQHandler + 236
        0x000015c2:    e7ff        ..      B        0x15c4 ; TMR3_IRQHandler + 228
        0x000015c4:    491d        .I      LDR      r1,[pc,#116] ; [0x163c] = 0x40004814
        0x000015c6:    2001        .       MOVS     r0,#1
        0x000015c8:    6008        .`      STR      r0,[r1,#0]
        0x000015ca:    e7ff        ..      B        0x15cc ; TMR3_IRQHandler + 236
        0x000015cc:    4813        .H      LDR      r0,[pc,#76] ; [0x161c] = 0x20000294
        0x000015ce:    6801        .h      LDR      r1,[r0,#0]
        0x000015d0:    4813        .H      LDR      r0,[pc,#76] ; [0x1620] = 0x26e978d5
        0x000015d2:    4348        HC      MULS     r0,r1,r0
        0x000015d4:    2104        .!      MOVS     r1,#4
        0x000015d6:    41c8        .A      RORS     r0,r0,r1
        0x000015d8:    4919        .I      LDR      r1,[pc,#100] ; [0x1640] = 0x20c49b
        0x000015da:    4288        .B      CMP      r0,r1
        0x000015dc:    d804        ..      BHI      0x15e8 ; TMR3_IRQHandler + 264
        0x000015de:    e7ff        ..      B        0x15e0 ; TMR3_IRQHandler + 256
        0x000015e0:    4916        .I      LDR      r1,[pc,#88] ; [0x163c] = 0x40004814
        0x000015e2:    2000        .       MOVS     r0,#0
        0x000015e4:    6008        .`      STR      r0,[r1,#0]
        0x000015e6:    e7ff        ..      B        0x15e8 ; TMR3_IRQHandler + 264
        0x000015e8:    f005fa88    ....    BL       vi_process ; 0x6afc
        0x000015ec:    f000f912    ....    BL       cpu_fpga_xfer ; 0x1814
        0x000015f0:    490a        .I      LDR      r1,[pc,#40] ; [0x161c] = 0x20000294
        0x000015f2:    6808        .h      LDR      r0,[r1,#0]
        0x000015f4:    1c40        @.      ADDS     r0,r0,#1
        0x000015f6:    6008        .`      STR      r0,[r1,#0]
        0x000015f8:    b662        b.      CPSIE    i
        0x000015fa:    b002        ..      ADD      sp,sp,#8
        0x000015fc:    bd80        ..      POP      {r7,pc}
        0x000015fe:    46c0        .F      MOV      r8,r8
    $d
    __arm_cp.4_0
        0x00001600:    40051100    ...@    DCD    1074073856
    __arm_cp.4_2
        0x00001604:    200002ac    ...     DCD    536871596
    __arm_cp.4_3
        0x00001608:    2000026c    l..     DCD    536871532
    __arm_cp.4_4
        0x0000160c:    2000026a    j..     DCD    536871530
    __arm_cp.4_5
        0x00001610:    2000025e    ^..     DCD    536871518
    __arm_cp.4_6
        0x00001614:    20000260    `..     DCD    536871520
    __arm_cp.4_7
        0x00001618:    20000268    h..     DCD    536871528
    __arm_cp.4_8
        0x0000161c:    20000294    ...     DCD    536871572
    __arm_cp.4_9
        0x00001620:    26e978d5    .x.&    DCD    652835029
    __arm_cp.4_10
        0x00001624:    0083126e    n...    DCD    8589934
    __arm_cp.4_11
        0x00001628:    20000293    ...     DCD    536871571
    __arm_cp.4_12
        0x0000162c:    00418937    7.A.    DCD    4294967
    __arm_cp.4_13
        0x00001630:    2000025c    \..     DCD    536871516
    __arm_cp.4_14
        0x00001634:    c28f5c29    )\..    DCD    3264175145
    __arm_cp.4_15
        0x00001638:    0147ae14    ..G.    DCD    21474836
    __arm_cp.4_16
        0x0000163c:    40004814    .H.@    DCD    1073760276
    __arm_cp.4_17
        0x00001640:    0020c49b    .. .    DCD    2147483
    $t
    __NVIC_DisableIRQ
        0x00001644:    b081        ..      SUB      sp,sp,#4
        0x00001646:    9000        ..      STR      r0,[sp,#0]
        0x00001648:    9800        ..      LDR      r0,[sp,#0]
        0x0000164a:    2800        .(      CMP      r0,#0
        0x0000164c:    d40f        ..      BMI      0x166e ; __NVIC_DisableIRQ + 42
        0x0000164e:    e7ff        ..      B        0x1650 ; __NVIC_DisableIRQ + 12
        0x00001650:    9900        ..      LDR      r1,[sp,#0]
        0x00001652:    201f        .       MOVS     r0,#0x1f
        0x00001654:    460a        .F      MOV      r2,r1
        0x00001656:    4002        .@      ANDS     r2,r2,r0
        0x00001658:    2001        .       MOVS     r0,#1
        0x0000165a:    4090        .@      LSLS     r0,r0,r2
        0x0000165c:    0949        I.      LSRS     r1,r1,#5
        0x0000165e:    0089        ..      LSLS     r1,r1,#2
        0x00001660:    4a04        .J      LDR      r2,[pc,#16] ; [0x1674] = 0xe000e180
        0x00001662:    5088        .P      STR      r0,[r1,r2]
        0x00001664:    f3bf8f4f    ..O.    DSB      
        0x00001668:    f3bf8f6f    ..o.    ISB      
        0x0000166c:    e7ff        ..      B        0x166e ; __NVIC_DisableIRQ + 42
        0x0000166e:    b001        ..      ADD      sp,sp,#4
        0x00001670:    4770        pG      BX       lr
        0x00001672:    46c0        .F      MOV      r8,r8
    $d
    __arm_cp.2_0
        0x00001674:    e000e180    ....    DCD    3758154112
    $t
    __NVIC_EnableIRQ
        0x00001678:    b081        ..      SUB      sp,sp,#4
        0x0000167a:    9000        ..      STR      r0,[sp,#0]
        0x0000167c:    9800        ..      LDR      r0,[sp,#0]
        0x0000167e:    2800        .(      CMP      r0,#0
        0x00001680:    d40b        ..      BMI      0x169a ; __NVIC_EnableIRQ + 34
        0x00001682:    e7ff        ..      B        0x1684 ; __NVIC_EnableIRQ + 12
        0x00001684:    9900        ..      LDR      r1,[sp,#0]
        0x00001686:    201f        .       MOVS     r0,#0x1f
        0x00001688:    460a        .F      MOV      r2,r1
        0x0000168a:    4002        .@      ANDS     r2,r2,r0
        0x0000168c:    2001        .       MOVS     r0,#1
        0x0000168e:    4090        .@      LSLS     r0,r0,r2
        0x00001690:    0949        I.      LSRS     r1,r1,#5
        0x00001692:    0089        ..      LSLS     r1,r1,#2
        0x00001694:    4a0c        .J      LDR      r2,[pc,#48] ; [0x16c8] = 0xe000e100
        0x00001696:    5088        .P      STR      r0,[r1,r2]
        0x00001698:    e7ff        ..      B        0x169a ; __NVIC_EnableIRQ + 34
        0x0000169a:    b001        ..      ADD      sp,sp,#4
        0x0000169c:    4770        pG      BX       lr
        0x0000169e:    46c0        .F      MOV      r8,r8
    __NVIC_EnableIRQ
        0x000016a0:    b081        ..      SUB      sp,sp,#4
        0x000016a2:    9000        ..      STR      r0,[sp,#0]
        0x000016a4:    9800        ..      LDR      r0,[sp,#0]
        0x000016a6:    2800        .(      CMP      r0,#0
        0x000016a8:    d40b        ..      BMI      0x16c2 ; __NVIC_EnableIRQ + 34
        0x000016aa:    e7ff        ..      B        0x16ac ; __NVIC_EnableIRQ + 12
        0x000016ac:    9900        ..      LDR      r1,[sp,#0]
        0x000016ae:    201f        .       MOVS     r0,#0x1f
        0x000016b0:    460a        .F      MOV      r2,r1
        0x000016b2:    4002        .@      ANDS     r2,r2,r0
        0x000016b4:    2001        .       MOVS     r0,#1
        0x000016b6:    4090        .@      LSLS     r0,r0,r2
        0x000016b8:    0949        I.      LSRS     r1,r1,#5
        0x000016ba:    0089        ..      LSLS     r1,r1,#2
        0x000016bc:    4a02        .J      LDR      r2,[pc,#8] ; [0x16c8] = 0xe000e100
        0x000016be:    5088        .P      STR      r0,[r1,r2]
        0x000016c0:    e7ff        ..      B        0x16c2 ; __NVIC_EnableIRQ + 34
        0x000016c2:    b001        ..      ADD      sp,sp,#4
        0x000016c4:    4770        pG      BX       lr
        0x000016c6:    46c0        .F      MOV      r8,r8
    $d
    __arm_cp.1_0
        0x000016c8:    e000e100    ....    DCD    3758153984
    $t
    bsp_ctor
        0x000016cc:    b580        ..      PUSH     {r7,lr}
        0x000016ce:    b08c        ..      SUB      sp,sp,#0x30
        0x000016d0:    f005f9e0    ....    BL       sysClock_Init ; 0x6a94
        0x000016d4:    483e        >H      LDR      r0,[pc,#248] ; [0x17d0] = 0x2000024c
        0x000016d6:    9001        ..      STR      r0,[sp,#4]
        0x000016d8:    493e        >I      LDR      r1,[pc,#248] ; [0x17d4] = 0x200000f0
        0x000016da:    2264        d"      MOVS     r2,#0x64
        0x000016dc:    9200        ..      STR      r2,[sp,#0]
        0x000016de:    f000fb8f    ....    BL       fifo_init ; 0x1e00
        0x000016e2:    9a00        ..      LDR      r2,[sp,#0]
        0x000016e4:    483c        <H      LDR      r0,[pc,#240] ; [0x17d8] = 0x2000023c
        0x000016e6:    9002        ..      STR      r0,[sp,#8]
        0x000016e8:    493c        <I      LDR      r1,[pc,#240] ; [0x17dc] = 0x2000008c
        0x000016ea:    f000fb89    ....    BL       fifo_init ; 0x1e00
        0x000016ee:    9a01        ..      LDR      r2,[sp,#4]
        0x000016f0:    9902        ..      LDR      r1,[sp,#8]
        0x000016f2:    483b        ;H      LDR      r0,[pc,#236] ; [0x17e0] = 0x2000000c
        0x000016f4:    6002        .`      STR      r2,[r0,#0]
        0x000016f6:    6041        A`      STR      r1,[r0,#4]
        0x000016f8:    2100        .!      MOVS     r1,#0
        0x000016fa:    9105        ..      STR      r1,[sp,#0x14]
        0x000016fc:    7201        .r      STRB     r1,[r0,#8]
        0x000016fe:    4a39        9J      LDR      r2,[pc,#228] ; [0x17e4] = 0x6249
        0x00001700:    60c2        .`      STR      r2,[r0,#0xc]
        0x00001702:    7281        .r      STRB     r1,[r0,#0xa]
        0x00001704:    2101        .!      MOVS     r1,#1
        0x00001706:    9107        ..      STR      r1,[sp,#0x1c]
        0x00001708:    7241        Ar      STRB     r1,[r0,#9]
        0x0000170a:    f004fcd5    ....    BL       spi_ctor ; 0x60b8
        0x0000170e:    9a07        ..      LDR      r2,[sp,#0x1c]
        0x00001710:    4835        5H      LDR      r0,[pc,#212] ; [0x17e8] = 0x40004140
        0x00001712:    2120         !      MOVS     r1,#0x20
        0x00001714:    9103        ..      STR      r1,[sp,#0xc]
        0x00001716:    f7fffb39    ..9.    BL       GPIO_SetMode ; 0xd8c
        0x0000171a:    9a07        ..      LDR      r2,[sp,#0x1c]
        0x0000171c:    4833        3H      LDR      r0,[pc,#204] ; [0x17ec] = 0x40004000
        0x0000171e:    9004        ..      STR      r0,[sp,#0x10]
        0x00001720:    2104        .!      MOVS     r1,#4
        0x00001722:    9108        ..      STR      r1,[sp,#0x20]
        0x00001724:    f7fffb32    ..2.    BL       GPIO_SetMode ; 0xd8c
        0x00001728:    9804        ..      LDR      r0,[sp,#0x10]
        0x0000172a:    9a05        ..      LDR      r2,[sp,#0x14]
        0x0000172c:    2108        .!      MOVS     r1,#8
        0x0000172e:    f7fffb2d    ..-.    BL       GPIO_SetMode ; 0xd8c
        0x00001732:    9804        ..      LDR      r0,[sp,#0x10]
        0x00001734:    9a07        ..      LDR      r2,[sp,#0x1c]
        0x00001736:    2110        .!      MOVS     r1,#0x10
        0x00001738:    f7fffb28    ..(.    BL       GPIO_SetMode ; 0xd8c
        0x0000173c:    9903        ..      LDR      r1,[sp,#0xc]
        0x0000173e:    9804        ..      LDR      r0,[sp,#0x10]
        0x00001740:    9a07        ..      LDR      r2,[sp,#0x1c]
        0x00001742:    f7fffb23    ..#.    BL       GPIO_SetMode ; 0xd8c
        0x00001746:    9804        ..      LDR      r0,[sp,#0x10]
        0x00001748:    9a05        ..      LDR      r2,[sp,#0x14]
        0x0000174a:    f2410100    A...    MOVW     r1,#0x1000
        0x0000174e:    f7fffb1d    ....    BL       GPIO_SetMode ; 0xd8c
        0x00001752:    9a05        ..      LDR      r2,[sp,#0x14]
        0x00001754:    9907        ..      LDR      r1,[sp,#0x1c]
        0x00001756:    4826        &H      LDR      r0,[pc,#152] ; [0x17f0] = 0x400040c0
        0x00001758:    9006        ..      STR      r0,[sp,#0x18]
        0x0000175a:    f7fffb17    ....    BL       GPIO_SetMode ; 0xd8c
        0x0000175e:    9a05        ..      LDR      r2,[sp,#0x14]
        0x00001760:    9806        ..      LDR      r0,[sp,#0x18]
        0x00001762:    2102        .!      MOVS     r1,#2
        0x00001764:    f7fffb12    ....    BL       GPIO_SetMode ; 0xd8c
        0x00001768:    9806        ..      LDR      r0,[sp,#0x18]
        0x0000176a:    9a07        ..      LDR      r2,[sp,#0x1c]
        0x0000176c:    9908        ..      LDR      r1,[sp,#0x20]
        0x0000176e:    f7fffb0d    ....    BL       GPIO_SetMode ; 0xd8c
        0x00001772:    f005f99d    ....    BL       sysTimer_Init ; 0x6ab0
        0x00001776:    9a08        ..      LDR      r2,[sp,#0x20]
        0x00001778:    491e        .I      LDR      r1,[pc,#120] ; [0x17f4] = 0x40000204
        0x0000177a:    6808        .h      LDR      r0,[r1,#0]
        0x0000177c:    4310        .C      ORRS     r0,r0,r2
        0x0000177e:    6008        .`      STR      r0,[r1,#0]
        0x00001780:    491d        .I      LDR      r1,[pc,#116] ; [0x17f8] = 0x4000c000
        0x00001782:    6808        .h      LDR      r0,[r1,#0]
        0x00001784:    2209        ."      MOVS     r2,#9
        0x00001786:    4310        .C      ORRS     r0,r0,r2
        0x00001788:    6008        .`      STR      r0,[r1,#0]
        0x0000178a:    f006db45    ..E.    BL       BL_EnableFMC ; 0x807e18
        0x0000178e:    900b        ..      STR      r0,[sp,#0x2c]
        0x00001790:    481a        .H      LDR      r0,[pc,#104] ; [0x17fc] = 0x4002f028
        0x00001792:    6800        .h      LDR      r0,[r0,#0]
        0x00001794:    900a        ..      STR      r0,[sp,#0x28]
        0x00001796:    980a        ..      LDR      r0,[sp,#0x28]
        0x00001798:    990b        ..      LDR      r1,[sp,#0x2c]
        0x0000179a:    4288        .B      CMP      r0,r1
        0x0000179c:    d205        ..      BCS      0x17aa ; bsp_ctor + 222
        0x0000179e:    e7ff        ..      B        0x17a0 ; bsp_ctor + 212
        0x000017a0:    980b        ..      LDR      r0,[sp,#0x2c]
        0x000017a2:    990a        ..      LDR      r1,[sp,#0x28]
        0x000017a4:    1a40        @.      SUBS     r0,r0,r1
        0x000017a6:    9009        ..      STR      r0,[sp,#0x24]
        0x000017a8:    e002        ..      B        0x17b0 ; bsp_ctor + 228
        0x000017aa:    2000        .       MOVS     r0,#0
        0x000017ac:    9009        ..      STR      r0,[sp,#0x24]
        0x000017ae:    e7ff        ..      B        0x17b0 ; bsp_ctor + 228
        0x000017b0:    4813        .H      LDR      r0,[pc,#76] ; [0x1800] = 0x20000000
        0x000017b2:    6801        .h      LDR      r1,[r0,#0]
        0x000017b4:    4813        .H      LDR      r0,[pc,#76] ; [0x1804] = 0x493e0
        0x000017b6:    4348        HC      MULS     r0,r1,r0
        0x000017b8:    4913        .I      LDR      r1,[pc,#76] ; [0x1808] = 0xe000e014
        0x000017ba:    6008        .`      STR      r0,[r1,#0]
        0x000017bc:    4913        .I      LDR      r1,[pc,#76] ; [0x180c] = 0xe000e018
        0x000017be:    2000        .       MOVS     r0,#0
        0x000017c0:    6008        .`      STR      r0,[r1,#0]
        0x000017c2:    4913        .I      LDR      r1,[pc,#76] ; [0x1810] = 0xe000e010
        0x000017c4:    6808        .h      LDR      r0,[r1,#0]
        0x000017c6:    2205        ."      MOVS     r2,#5
        0x000017c8:    4310        .C      ORRS     r0,r0,r2
        0x000017ca:    6008        .`      STR      r0,[r1,#0]
        0x000017cc:    b00c        ..      ADD      sp,sp,#0x30
        0x000017ce:    bd80        ..      POP      {r7,pc}
    $d
    __arm_cp.1_0
        0x000017d0:    2000024c    L..     DCD    536871500
    __arm_cp.1_1
        0x000017d4:    200000f0    ...     DCD    536871152
    __arm_cp.1_2
        0x000017d8:    2000023c    <..     DCD    536871484
    __arm_cp.1_3
        0x000017dc:    2000008c    ...     DCD    536871052
    __arm_cp.1_4
        0x000017e0:    2000000c    ...     DCD    536870924
    __arm_cp.1_5
        0x000017e4:    00006249    Ib..    DCD    25161
    __arm_cp.1_6
        0x000017e8:    40004140    @A.@    DCD    1073758528
    __arm_cp.1_7
        0x000017ec:    40004000    .@.@    DCD    1073758208
    __arm_cp.1_8
        0x000017f0:    400040c0    .@.@    DCD    1073758400
    __arm_cp.1_9
        0x000017f4:    40000204    ...@    DCD    1073742340
    __arm_cp.1_10
        0x000017f8:    4000c000    ...@    DCD    1073790976
    __arm_cp.1_11
        0x000017fc:    4002f028    (..@    DCD    1073934376
    __arm_cp.1_12
        0x00001800:    20000000    ...     DCD    536870912
    __arm_cp.1_13
        0x00001804:    000493e0    ....    DCD    300000
    __arm_cp.1_14
        0x00001808:    e000e014    ....    DCD    3758153748
    __arm_cp.1_15
        0x0000180c:    e000e018    ....    DCD    3758153752
    __arm_cp.1_16
        0x00001810:    e000e010    ....    DCD    3758153744
    $t
    cpu_fpga_xfer
        0x00001814:    b5b0        ..      PUSH     {r4,r5,r7,lr}
        0x00001816:    b08a        ..      SUB      sp,sp,#0x28
        0x00001818:    48e5        .H      LDR      r0,[pc,#916] ; [0x1bb0] = 0x400048c0
        0x0000181a:    6801        .h      LDR      r1,[r0,#0]
        0x0000181c:    a805        ..      ADD      r0,sp,#0x14
        0x0000181e:    7001        .p      STRB     r1,[r0,#0]
        0x00001820:    49e4        .I      LDR      r1,[pc,#912] ; [0x1bb4] = 0x400048c4
        0x00001822:    6809        .h      LDR      r1,[r1,#0]
        0x00001824:    aa04        ..      ADD      r2,sp,#0x10
        0x00001826:    7011        .p      STRB     r1,[r2,#0]
        0x00001828:    7801        .x      LDRB     r1,[r0,#0]
        0x0000182a:    2000        .       MOVS     r0,#0
        0x0000182c:    2901        .)      CMP      r1,#1
        0x0000182e:    9003        ..      STR      r0,[sp,#0xc]
        0x00001830:    d106        ..      BNE      0x1840 ; cpu_fpga_xfer + 44
        0x00001832:    e7ff        ..      B        0x1834 ; cpu_fpga_xfer + 32
        0x00001834:    48e0        .H      LDR      r0,[pc,#896] ; [0x1bb8] = 0x20000154
        0x00001836:    7800        .x      LDRB     r0,[r0,#0]
        0x00001838:    4241        AB      RSBS     r1,r0,#0
        0x0000183a:    4148        HA      ADCS     r0,r0,r1
        0x0000183c:    9003        ..      STR      r0,[sp,#0xc]
        0x0000183e:    e7ff        ..      B        0x1840 ; cpu_fpga_xfer + 44
        0x00001840:    9803        ..      LDR      r0,[sp,#0xc]
        0x00001842:    2101        .!      MOVS     r1,#1
        0x00001844:    4008        .@      ANDS     r0,r0,r1
        0x00001846:    a907        ..      ADD      r1,sp,#0x1c
        0x00001848:    7008        .p      STRB     r0,[r1,#0]
        0x0000184a:    a805        ..      ADD      r0,sp,#0x14
        0x0000184c:    7801        .x      LDRB     r1,[r0,#0]
        0x0000184e:    2000        .       MOVS     r0,#0
        0x00001850:    9002        ..      STR      r0,[sp,#8]
        0x00001852:    b939        9.      CBNZ     r1,0x1864 ; cpu_fpga_xfer + 80
        0x00001854:    e7ff        ..      B        0x1856 ; cpu_fpga_xfer + 66
        0x00001856:    48d8        .H      LDR      r0,[pc,#864] ; [0x1bb8] = 0x20000154
        0x00001858:    7800        .x      LDRB     r0,[r0,#0]
        0x0000185a:    1e40        @.      SUBS     r0,r0,#1
        0x0000185c:    4241        AB      RSBS     r1,r0,#0
        0x0000185e:    4148        HA      ADCS     r0,r0,r1
        0x00001860:    9002        ..      STR      r0,[sp,#8]
        0x00001862:    e7ff        ..      B        0x1864 ; cpu_fpga_xfer + 80
        0x00001864:    9802        ..      LDR      r0,[sp,#8]
        0x00001866:    2101        .!      MOVS     r1,#1
        0x00001868:    4008        .@      ANDS     r0,r0,r1
        0x0000186a:    a906        ..      ADD      r1,sp,#0x18
        0x0000186c:    7008        .p      STRB     r0,[r1,#0]
        0x0000186e:    9805        ..      LDR      r0,[sp,#0x14]
        0x00001870:    49d1        .I      LDR      r1,[pc,#836] ; [0x1bb8] = 0x20000154
        0x00001872:    7008        .p      STRB     r0,[r1,#0]
        0x00001874:    a804        ..      ADD      r0,sp,#0x10
        0x00001876:    7800        .x      LDRB     r0,[r0,#0]
        0x00001878:    b998        ..      CBNZ     r0,0x18a2 ; cpu_fpga_xfer + 142
        0x0000187a:    e7ff        ..      B        0x187c ; cpu_fpga_xfer + 104
        0x0000187c:    49d7        .I      LDR      r1,[pc,#860] ; [0x1bdc] = 0x2000015b
        0x0000187e:    2000        .       MOVS     r0,#0
        0x00001880:    7008        .p      STRB     r0,[r1,#0]
        0x00001882:    4ad9        .J      LDR      r2,[pc,#868] ; [0x1be8] = 0x400048c8
        0x00001884:    2101        .!      MOVS     r1,#1
        0x00001886:    6011        .`      STR      r1,[r2,#0]
        0x00001888:    49d3        .I      LDR      r1,[pc,#844] ; [0x1bd8] = 0x20000159
        0x0000188a:    7008        .p      STRB     r0,[r1,#0]
        0x0000188c:    49d4        .I      LDR      r1,[pc,#848] ; [0x1be0] = 0x2000015c
        0x0000188e:    7008        .p      STRB     r0,[r1,#0]
        0x00001890:    49ca        .I      LDR      r1,[pc,#808] ; [0x1bbc] = 0x2000015a
        0x00001892:    7008        .p      STRB     r0,[r1,#0]
        0x00001894:    49cc        .I      LDR      r1,[pc,#816] ; [0x1bc8] = 0x20000157
        0x00001896:    7008        .p      STRB     r0,[r1,#0]
        0x00001898:    49cc        .I      LDR      r1,[pc,#816] ; [0x1bcc] = 0x20000158
        0x0000189a:    7008        .p      STRB     r0,[r1,#0]
        0x0000189c:    49cd        .I      LDR      r1,[pc,#820] ; [0x1bd4] = 0x20000155
        0x0000189e:    7008        .p      STRB     r0,[r1,#0]
        0x000018a0:    e183        ..      B        0x1baa ; cpu_fpga_xfer + 918
        0x000018a2:    a807        ..      ADD      r0,sp,#0x1c
        0x000018a4:    7800        .x      LDRB     r0,[r0,#0]
        0x000018a6:    07c0        ..      LSLS     r0,r0,#31
        0x000018a8:    b900        ..      CBNZ     r0,0x18ac ; cpu_fpga_xfer + 152
        0x000018aa:    e0cd        ..      B        0x1a48 ; cpu_fpga_xfer + 564
        0x000018ac:    49c9        .I      LDR      r1,[pc,#804] ; [0x1bd4] = 0x20000155
        0x000018ae:    7808        .x      LDRB     r0,[r1,#0]
        0x000018b0:    1c40        @.      ADDS     r0,r0,#1
        0x000018b2:    7008        .p      STRB     r0,[r1,#0]
        0x000018b4:    48c8        .H      LDR      r0,[pc,#800] ; [0x1bd8] = 0x20000159
        0x000018b6:    7800        .x      LDRB     r0,[r0,#0]
        0x000018b8:    9001        ..      STR      r0,[sp,#4]
        0x000018ba:    2803        .(      CMP      r0,#3
        0x000018bc:    d900        ..      BLS      0x18c0 ; cpu_fpga_xfer + 172
        0x000018be:    e0c1        ..      B        0x1a44 ; cpu_fpga_xfer + 560
        0x000018c0:    9901        ..      LDR      r1,[sp,#4]
        0x000018c2:    008a        ..      LSLS     r2,r1,#2
        0x000018c4:    a001        ..      ADR      r0,{pc}+8 ; 0x18cc
        0x000018c6:    1880        ..      ADDS     r0,r0,r2
        0x000018c8:    4687        .F      MOV      pc,r0
        0x000018ca:    46c0        .F      MOV      r8,r8
        0x000018cc:    f000b806    ....    B.W      0x18dc ; cpu_fpga_xfer + 200
        0x000018d0:    f000b832    ..2.    B.W      0x1938 ; cpu_fpga_xfer + 292
        0x000018d4:    f000b85d    ..].    B.W      0x1992 ; cpu_fpga_xfer + 382
        0x000018d8:    f000b888    ....    B.W      0x19ec ; cpu_fpga_xfer + 472
        0x000018dc:    48bf        .H      LDR      r0,[pc,#764] ; [0x1bdc] = 0x2000015b
        0x000018de:    7802        .x      LDRB     r2,[r0,#0]
        0x000018e0:    2101        .!      MOVS     r1,#1
        0x000018e2:    4091        .@      LSLS     r1,r1,r2
        0x000018e4:    9109        ..      STR      r1,[sp,#0x24]
        0x000018e6:    9a09        ..      LDR      r2,[sp,#0x24]
        0x000018e8:    49bd        .I      LDR      r1,[pc,#756] ; [0x1be0] = 0x2000015c
        0x000018ea:    780b        .x      LDRB     r3,[r1,#0]
        0x000018ec:    49b8        .I      LDR      r1,[pc,#736] ; [0x1bd0] = 0x20000168
        0x000018ee:    18c9        ..      ADDS     r1,r1,r3
        0x000018f0:    7989        .y      LDRB     r1,[r1,#6]
        0x000018f2:    400a        .@      ANDS     r2,r2,r1
        0x000018f4:    1e51        Q.      SUBS     r1,r2,#1
        0x000018f6:    418a        .A      SBCS     r2,r2,r1
        0x000018f8:    a908        ..      ADD      r1,sp,#0x20
        0x000018fa:    700a        .p      STRB     r2,[r1,#0]
        0x000018fc:    7809        .x      LDRB     r1,[r1,#0]
        0x000018fe:    4aba        .J      LDR      r2,[pc,#744] ; [0x1be8] = 0x400048c8
        0x00001900:    6011        .`      STR      r1,[r2,#0]
        0x00001902:    7801        .x      LDRB     r1,[r0,#0]
        0x00001904:    1c49        I.      ADDS     r1,r1,#1
        0x00001906:    7001        .p      STRB     r1,[r0,#0]
        0x00001908:    7800        .x      LDRB     r0,[r0,#0]
        0x0000190a:    2808        .(      CMP      r0,#8
        0x0000190c:    d113        ..      BNE      0x1936 ; cpu_fpga_xfer + 290
        0x0000190e:    e7ff        ..      B        0x1910 ; cpu_fpga_xfer + 252
        0x00001910:    49b2        .I      LDR      r1,[pc,#712] ; [0x1bdc] = 0x2000015b
        0x00001912:    2000        .       MOVS     r0,#0
        0x00001914:    7008        .p      STRB     r0,[r1,#0]
        0x00001916:    48b2        .H      LDR      r0,[pc,#712] ; [0x1be0] = 0x2000015c
        0x00001918:    7801        .x      LDRB     r1,[r0,#0]
        0x0000191a:    1c49        I.      ADDS     r1,r1,#1
        0x0000191c:    7001        .p      STRB     r1,[r0,#0]
        0x0000191e:    7800        .x      LDRB     r0,[r0,#0]
        0x00001920:    2805        .(      CMP      r0,#5
        0x00001922:    d107        ..      BNE      0x1934 ; cpu_fpga_xfer + 288
        0x00001924:    e7ff        ..      B        0x1926 ; cpu_fpga_xfer + 274
        0x00001926:    49ac        .I      LDR      r1,[pc,#688] ; [0x1bd8] = 0x20000159
        0x00001928:    2001        .       MOVS     r0,#1
        0x0000192a:    7008        .p      STRB     r0,[r1,#0]
        0x0000192c:    49ac        .I      LDR      r1,[pc,#688] ; [0x1be0] = 0x2000015c
        0x0000192e:    2000        .       MOVS     r0,#0
        0x00001930:    7008        .p      STRB     r0,[r1,#0]
        0x00001932:    e7ff        ..      B        0x1934 ; cpu_fpga_xfer + 288
        0x00001934:    e7ff        ..      B        0x1936 ; cpu_fpga_xfer + 290
        0x00001936:    e086        ..      B        0x1a46 ; cpu_fpga_xfer + 562
        0x00001938:    48a8        .H      LDR      r0,[pc,#672] ; [0x1bdc] = 0x2000015b
        0x0000193a:    7802        .x      LDRB     r2,[r0,#0]
        0x0000193c:    2101        .!      MOVS     r1,#1
        0x0000193e:    4091        .@      LSLS     r1,r1,r2
        0x00001940:    9109        ..      STR      r1,[sp,#0x24]
        0x00001942:    9a09        ..      LDR      r2,[sp,#0x24]
        0x00001944:    49a6        .I      LDR      r1,[pc,#664] ; [0x1be0] = 0x2000015c
        0x00001946:    780b        .x      LDRB     r3,[r1,#0]
        0x00001948:    49a9        .I      LDR      r1,[pc,#676] ; [0x1bf0] = 0x200002a8
        0x0000194a:    5cc9        .\      LDRB     r1,[r1,r3]
        0x0000194c:    400a        .@      ANDS     r2,r2,r1
        0x0000194e:    1e51        Q.      SUBS     r1,r2,#1
        0x00001950:    418a        .A      SBCS     r2,r2,r1
        0x00001952:    a908        ..      ADD      r1,sp,#0x20
        0x00001954:    700a        .p      STRB     r2,[r1,#0]
        0x00001956:    7809        .x      LDRB     r1,[r1,#0]
        0x00001958:    4aa3        .J      LDR      r2,[pc,#652] ; [0x1be8] = 0x400048c8
        0x0000195a:    6011        .`      STR      r1,[r2,#0]
        0x0000195c:    7801        .x      LDRB     r1,[r0,#0]
        0x0000195e:    1c49        I.      ADDS     r1,r1,#1
        0x00001960:    7001        .p      STRB     r1,[r0,#0]
        0x00001962:    7800        .x      LDRB     r0,[r0,#0]
        0x00001964:    2808        .(      CMP      r0,#8
        0x00001966:    d113        ..      BNE      0x1990 ; cpu_fpga_xfer + 380
        0x00001968:    e7ff        ..      B        0x196a ; cpu_fpga_xfer + 342
        0x0000196a:    499c        .I      LDR      r1,[pc,#624] ; [0x1bdc] = 0x2000015b
        0x0000196c:    2000        .       MOVS     r0,#0
        0x0000196e:    7008        .p      STRB     r0,[r1,#0]
        0x00001970:    489b        .H      LDR      r0,[pc,#620] ; [0x1be0] = 0x2000015c
        0x00001972:    7801        .x      LDRB     r1,[r0,#0]
        0x00001974:    1c49        I.      ADDS     r1,r1,#1
        0x00001976:    7001        .p      STRB     r1,[r0,#0]
        0x00001978:    7800        .x      LDRB     r0,[r0,#0]
        0x0000197a:    2802        .(      CMP      r0,#2
        0x0000197c:    d107        ..      BNE      0x198e ; cpu_fpga_xfer + 378
        0x0000197e:    e7ff        ..      B        0x1980 ; cpu_fpga_xfer + 364
        0x00001980:    4997        .I      LDR      r1,[pc,#604] ; [0x1be0] = 0x2000015c
        0x00001982:    2000        .       MOVS     r0,#0
        0x00001984:    7008        .p      STRB     r0,[r1,#0]
        0x00001986:    4994        .I      LDR      r1,[pc,#592] ; [0x1bd8] = 0x20000159
        0x00001988:    2002        .       MOVS     r0,#2
        0x0000198a:    7008        .p      STRB     r0,[r1,#0]
        0x0000198c:    e7ff        ..      B        0x198e ; cpu_fpga_xfer + 378
        0x0000198e:    e7ff        ..      B        0x1990 ; cpu_fpga_xfer + 380
        0x00001990:    e059        Y.      B        0x1a46 ; cpu_fpga_xfer + 562
        0x00001992:    4892        .H      LDR      r0,[pc,#584] ; [0x1bdc] = 0x2000015b
        0x00001994:    7802        .x      LDRB     r2,[r0,#0]
        0x00001996:    2101        .!      MOVS     r1,#1
        0x00001998:    4091        .@      LSLS     r1,r1,r2
        0x0000199a:    9109        ..      STR      r1,[sp,#0x24]
        0x0000199c:    9a09        ..      LDR      r2,[sp,#0x24]
        0x0000199e:    4990        .I      LDR      r1,[pc,#576] ; [0x1be0] = 0x2000015c
        0x000019a0:    780b        .x      LDRB     r3,[r1,#0]
        0x000019a2:    4992        .I      LDR      r1,[pc,#584] ; [0x1bec] = 0x20000288
        0x000019a4:    5cc9        .\      LDRB     r1,[r1,r3]
        0x000019a6:    400a        .@      ANDS     r2,r2,r1
        0x000019a8:    1e51        Q.      SUBS     r1,r2,#1
        0x000019aa:    418a        .A      SBCS     r2,r2,r1
        0x000019ac:    a908        ..      ADD      r1,sp,#0x20
        0x000019ae:    700a        .p      STRB     r2,[r1,#0]
        0x000019b0:    7809        .x      LDRB     r1,[r1,#0]
        0x000019b2:    4a8d        .J      LDR      r2,[pc,#564] ; [0x1be8] = 0x400048c8
        0x000019b4:    6011        .`      STR      r1,[r2,#0]
        0x000019b6:    7801        .x      LDRB     r1,[r0,#0]
        0x000019b8:    1c49        I.      ADDS     r1,r1,#1
        0x000019ba:    7001        .p      STRB     r1,[r0,#0]
        0x000019bc:    7800        .x      LDRB     r0,[r0,#0]
        0x000019be:    2808        .(      CMP      r0,#8
        0x000019c0:    d113        ..      BNE      0x19ea ; cpu_fpga_xfer + 470
        0x000019c2:    e7ff        ..      B        0x19c4 ; cpu_fpga_xfer + 432
        0x000019c4:    4985        .I      LDR      r1,[pc,#532] ; [0x1bdc] = 0x2000015b
        0x000019c6:    2000        .       MOVS     r0,#0
        0x000019c8:    7008        .p      STRB     r0,[r1,#0]
        0x000019ca:    4885        .H      LDR      r0,[pc,#532] ; [0x1be0] = 0x2000015c
        0x000019cc:    7801        .x      LDRB     r1,[r0,#0]
        0x000019ce:    1c49        I.      ADDS     r1,r1,#1
        0x000019d0:    7001        .p      STRB     r1,[r0,#0]
        0x000019d2:    7800        .x      LDRB     r0,[r0,#0]
        0x000019d4:    2806        .(      CMP      r0,#6
        0x000019d6:    d107        ..      BNE      0x19e8 ; cpu_fpga_xfer + 468
        0x000019d8:    e7ff        ..      B        0x19da ; cpu_fpga_xfer + 454
        0x000019da:    4981        .I      LDR      r1,[pc,#516] ; [0x1be0] = 0x2000015c
        0x000019dc:    2000        .       MOVS     r0,#0
        0x000019de:    7008        .p      STRB     r0,[r1,#0]
        0x000019e0:    497d        }I      LDR      r1,[pc,#500] ; [0x1bd8] = 0x20000159
        0x000019e2:    2003        .       MOVS     r0,#3
        0x000019e4:    7008        .p      STRB     r0,[r1,#0]
        0x000019e6:    e7ff        ..      B        0x19e8 ; cpu_fpga_xfer + 468
        0x000019e8:    e7ff        ..      B        0x19ea ; cpu_fpga_xfer + 470
        0x000019ea:    e02c        ,.      B        0x1a46 ; cpu_fpga_xfer + 562
        0x000019ec:    487b        {H      LDR      r0,[pc,#492] ; [0x1bdc] = 0x2000015b
        0x000019ee:    7802        .x      LDRB     r2,[r0,#0]
        0x000019f0:    2101        .!      MOVS     r1,#1
        0x000019f2:    4091        .@      LSLS     r1,r1,r2
        0x000019f4:    9109        ..      STR      r1,[sp,#0x24]
        0x000019f6:    9a09        ..      LDR      r2,[sp,#0x24]
        0x000019f8:    4979        yI      LDR      r1,[pc,#484] ; [0x1be0] = 0x2000015c
        0x000019fa:    780b        .x      LDRB     r3,[r1,#0]
        0x000019fc:    4979        yI      LDR      r1,[pc,#484] ; [0x1be4] = 0x2000028e
        0x000019fe:    5cc9        .\      LDRB     r1,[r1,r3]
        0x00001a00:    400a        .@      ANDS     r2,r2,r1
        0x00001a02:    1e51        Q.      SUBS     r1,r2,#1
        0x00001a04:    418a        .A      SBCS     r2,r2,r1
        0x00001a06:    a908        ..      ADD      r1,sp,#0x20
        0x00001a08:    700a        .p      STRB     r2,[r1,#0]
        0x00001a0a:    7809        .x      LDRB     r1,[r1,#0]
        0x00001a0c:    4a76        vJ      LDR      r2,[pc,#472] ; [0x1be8] = 0x400048c8
        0x00001a0e:    6011        .`      STR      r1,[r2,#0]
        0x00001a10:    7801        .x      LDRB     r1,[r0,#0]
        0x00001a12:    1c49        I.      ADDS     r1,r1,#1
        0x00001a14:    7001        .p      STRB     r1,[r0,#0]
        0x00001a16:    7800        .x      LDRB     r0,[r0,#0]
        0x00001a18:    2808        .(      CMP      r0,#8
        0x00001a1a:    d112        ..      BNE      0x1a42 ; cpu_fpga_xfer + 558
        0x00001a1c:    e7ff        ..      B        0x1a1e ; cpu_fpga_xfer + 522
        0x00001a1e:    496f        oI      LDR      r1,[pc,#444] ; [0x1bdc] = 0x2000015b
        0x00001a20:    2000        .       MOVS     r0,#0
        0x00001a22:    7008        .p      STRB     r0,[r1,#0]
        0x00001a24:    486e        nH      LDR      r0,[pc,#440] ; [0x1be0] = 0x2000015c
        0x00001a26:    7801        .x      LDRB     r1,[r0,#0]
        0x00001a28:    1c49        I.      ADDS     r1,r1,#1
        0x00001a2a:    7001        .p      STRB     r1,[r0,#0]
        0x00001a2c:    7800        .x      LDRB     r0,[r0,#0]
        0x00001a2e:    2805        .(      CMP      r0,#5
        0x00001a30:    d106        ..      BNE      0x1a40 ; cpu_fpga_xfer + 556
        0x00001a32:    e7ff        ..      B        0x1a34 ; cpu_fpga_xfer + 544
        0x00001a34:    496a        jI      LDR      r1,[pc,#424] ; [0x1be0] = 0x2000015c
        0x00001a36:    2000        .       MOVS     r0,#0
        0x00001a38:    7008        .p      STRB     r0,[r1,#0]
        0x00001a3a:    4967        gI      LDR      r1,[pc,#412] ; [0x1bd8] = 0x20000159
        0x00001a3c:    7008        .p      STRB     r0,[r1,#0]
        0x00001a3e:    e7ff        ..      B        0x1a40 ; cpu_fpga_xfer + 556
        0x00001a40:    e7ff        ..      B        0x1a42 ; cpu_fpga_xfer + 558
        0x00001a42:    e000        ..      B        0x1a46 ; cpu_fpga_xfer + 562
        0x00001a44:    e7ff        ..      B        0x1a46 ; cpu_fpga_xfer + 562
        0x00001a46:    e0af        ..      B        0x1ba8 ; cpu_fpga_xfer + 916
        0x00001a48:    a806        ..      ADD      r0,sp,#0x18
        0x00001a4a:    7800        .x      LDRB     r0,[r0,#0]
        0x00001a4c:    07c0        ..      LSLS     r0,r0,#31
        0x00001a4e:    b900        ..      CBNZ     r0,0x1a52 ; cpu_fpga_xfer + 574
        0x00001a50:    e0a8        ..      B        0x1ba4 ; cpu_fpga_xfer + 912
        0x00001a52:    485a        ZH      LDR      r0,[pc,#360] ; [0x1bbc] = 0x2000015a
        0x00001a54:    7800        .x      LDRB     r0,[r0,#0]
        0x00001a56:    9000        ..      STR      r0,[sp,#0]
        0x00001a58:    2803        .(      CMP      r0,#3
        0x00001a5a:    d900        ..      BLS      0x1a5e ; cpu_fpga_xfer + 586
        0x00001a5c:    e0a0        ..      B        0x1ba0 ; cpu_fpga_xfer + 908
        0x00001a5e:    9900        ..      LDR      r1,[sp,#0]
        0x00001a60:    008a        ..      LSLS     r2,r1,#2
        0x00001a62:    a001        ..      ADR      r0,{pc}+6 ; 0x1a68
        0x00001a64:    1880        ..      ADDS     r0,r0,r2
        0x00001a66:    4687        .F      MOV      pc,r0
        0x00001a68:    f000b806    ....    B.W      0x1a78 ; cpu_fpga_xfer + 612
        0x00001a6c:    f000b835    ..5.    B.W      0x1ada ; cpu_fpga_xfer + 710
        0x00001a70:    f000b864    ..d.    B.W      0x1b3c ; cpu_fpga_xfer + 808
        0x00001a74:    f000b893    ....    B.W      0x1b9e ; cpu_fpga_xfer + 906
        0x00001a78:    4951        QI      LDR      r1,[pc,#324] ; [0x1bc0] = 0x20000156
        0x00001a7a:    7808        .x      LDRB     r0,[r1,#0]
        0x00001a7c:    0840        @.      LSRS     r0,r0,#1
        0x00001a7e:    7008        .p      STRB     r0,[r1,#0]
        0x00001a80:    7808        .x      LDRB     r0,[r1,#0]
        0x00001a82:    227f        ."      MOVS     r2,#0x7f
        0x00001a84:    4010        .@      ANDS     r0,r0,r2
        0x00001a86:    7008        .p      STRB     r0,[r1,#0]
        0x00001a88:    484e        NH      LDR      r0,[pc,#312] ; [0x1bc4] = 0x400048cc
        0x00001a8a:    6800        .h      LDR      r0,[r0,#0]
        0x00001a8c:    01c2        ..      LSLS     r2,r0,#7
        0x00001a8e:    7808        .x      LDRB     r0,[r1,#0]
        0x00001a90:    4310        .C      ORRS     r0,r0,r2
        0x00001a92:    7008        .p      STRB     r0,[r1,#0]
        0x00001a94:    484c        LH      LDR      r0,[pc,#304] ; [0x1bc8] = 0x20000157
        0x00001a96:    7801        .x      LDRB     r1,[r0,#0]
        0x00001a98:    1c49        I.      ADDS     r1,r1,#1
        0x00001a9a:    7001        .p      STRB     r1,[r0,#0]
        0x00001a9c:    7800        .x      LDRB     r0,[r0,#0]
        0x00001a9e:    2808        .(      CMP      r0,#8
        0x00001aa0:    d11a        ..      BNE      0x1ad8 ; cpu_fpga_xfer + 708
        0x00001aa2:    e7ff        ..      B        0x1aa4 ; cpu_fpga_xfer + 656
        0x00001aa4:    4848        HH      LDR      r0,[pc,#288] ; [0x1bc8] = 0x20000157
        0x00001aa6:    2100        .!      MOVS     r1,#0
        0x00001aa8:    7001        .p      STRB     r1,[r0,#0]
        0x00001aaa:    4a45        EJ      LDR      r2,[pc,#276] ; [0x1bc0] = 0x20000156
        0x00001aac:    7813        .x      LDRB     r3,[r2,#0]
        0x00001aae:    4847        GH      LDR      r0,[pc,#284] ; [0x1bcc] = 0x20000158
        0x00001ab0:    7805        .x      LDRB     r5,[r0,#0]
        0x00001ab2:    4ccc        .L      LDR      r4,[pc,#816] ; [0x1de4] = 0x20000168
        0x00001ab4:    1964        d.      ADDS     r4,r4,r5
        0x00001ab6:    72e3        .r      STRB     r3,[r4,#0xb]
        0x00001ab8:    7011        .p      STRB     r1,[r2,#0]
        0x00001aba:    7801        .x      LDRB     r1,[r0,#0]
        0x00001abc:    1c49        I.      ADDS     r1,r1,#1
        0x00001abe:    7001        .p      STRB     r1,[r0,#0]
        0x00001ac0:    7800        .x      LDRB     r0,[r0,#0]
        0x00001ac2:    2805        .(      CMP      r0,#5
        0x00001ac4:    d107        ..      BNE      0x1ad6 ; cpu_fpga_xfer + 706
        0x00001ac6:    e7ff        ..      B        0x1ac8 ; cpu_fpga_xfer + 692
        0x00001ac8:    493c        <I      LDR      r1,[pc,#240] ; [0x1bbc] = 0x2000015a
        0x00001aca:    2001        .       MOVS     r0,#1
        0x00001acc:    7008        .p      STRB     r0,[r1,#0]
        0x00001ace:    493f        ?I      LDR      r1,[pc,#252] ; [0x1bcc] = 0x20000158
        0x00001ad0:    2000        .       MOVS     r0,#0
        0x00001ad2:    7008        .p      STRB     r0,[r1,#0]
        0x00001ad4:    e7ff        ..      B        0x1ad6 ; cpu_fpga_xfer + 706
        0x00001ad6:    e7ff        ..      B        0x1ad8 ; cpu_fpga_xfer + 708
        0x00001ad8:    e063        c.      B        0x1ba2 ; cpu_fpga_xfer + 910
        0x00001ada:    4939        9I      LDR      r1,[pc,#228] ; [0x1bc0] = 0x20000156
        0x00001adc:    7808        .x      LDRB     r0,[r1,#0]
        0x00001ade:    0840        @.      LSRS     r0,r0,#1
        0x00001ae0:    7008        .p      STRB     r0,[r1,#0]
        0x00001ae2:    7808        .x      LDRB     r0,[r1,#0]
        0x00001ae4:    227f        ."      MOVS     r2,#0x7f
        0x00001ae6:    4010        .@      ANDS     r0,r0,r2
        0x00001ae8:    7008        .p      STRB     r0,[r1,#0]
        0x00001aea:    4836        6H      LDR      r0,[pc,#216] ; [0x1bc4] = 0x400048cc
        0x00001aec:    6800        .h      LDR      r0,[r0,#0]
        0x00001aee:    01c2        ..      LSLS     r2,r0,#7
        0x00001af0:    7808        .x      LDRB     r0,[r1,#0]
        0x00001af2:    4310        .C      ORRS     r0,r0,r2
        0x00001af4:    7008        .p      STRB     r0,[r1,#0]
        0x00001af6:    4834        4H      LDR      r0,[pc,#208] ; [0x1bc8] = 0x20000157
        0x00001af8:    7801        .x      LDRB     r1,[r0,#0]
        0x00001afa:    1c49        I.      ADDS     r1,r1,#1
        0x00001afc:    7001        .p      STRB     r1,[r0,#0]
        0x00001afe:    7800        .x      LDRB     r0,[r0,#0]
        0x00001b00:    2808        .(      CMP      r0,#8
        0x00001b02:    d11a        ..      BNE      0x1b3a ; cpu_fpga_xfer + 806
        0x00001b04:    e7ff        ..      B        0x1b06 ; cpu_fpga_xfer + 754
        0x00001b06:    4830        0H      LDR      r0,[pc,#192] ; [0x1bc8] = 0x20000157
        0x00001b08:    2100        .!      MOVS     r1,#0
        0x00001b0a:    7001        .p      STRB     r1,[r0,#0]
        0x00001b0c:    4a2c        ,J      LDR      r2,[pc,#176] ; [0x1bc0] = 0x20000156
        0x00001b0e:    7813        .x      LDRB     r3,[r2,#0]
        0x00001b10:    482e        .H      LDR      r0,[pc,#184] ; [0x1bcc] = 0x20000158
        0x00001b12:    7805        .x      LDRB     r5,[r0,#0]
        0x00001b14:    4cb3        .L      LDR      r4,[pc,#716] ; [0x1de4] = 0x20000168
        0x00001b16:    1964        d.      ADDS     r4,r4,r5
        0x00001b18:    75a3        .u      STRB     r3,[r4,#0x16]
        0x00001b1a:    7011        .p      STRB     r1,[r2,#0]
        0x00001b1c:    7801        .x      LDRB     r1,[r0,#0]
        0x00001b1e:    1c49        I.      ADDS     r1,r1,#1
        0x00001b20:    7001        .p      STRB     r1,[r0,#0]
        0x00001b22:    7800        .x      LDRB     r0,[r0,#0]
        0x00001b24:    2802        .(      CMP      r0,#2
        0x00001b26:    d107        ..      BNE      0x1b38 ; cpu_fpga_xfer + 804
        0x00001b28:    e7ff        ..      B        0x1b2a ; cpu_fpga_xfer + 790
        0x00001b2a:    4924        $I      LDR      r1,[pc,#144] ; [0x1bbc] = 0x2000015a
        0x00001b2c:    2002        .       MOVS     r0,#2
        0x00001b2e:    7008        .p      STRB     r0,[r1,#0]
        0x00001b30:    4926        &I      LDR      r1,[pc,#152] ; [0x1bcc] = 0x20000158
        0x00001b32:    2000        .       MOVS     r0,#0
        0x00001b34:    7008        .p      STRB     r0,[r1,#0]
        0x00001b36:    e7ff        ..      B        0x1b38 ; cpu_fpga_xfer + 804
        0x00001b38:    e7ff        ..      B        0x1b3a ; cpu_fpga_xfer + 806
        0x00001b3a:    e032        2.      B        0x1ba2 ; cpu_fpga_xfer + 910
        0x00001b3c:    4920         I      LDR      r1,[pc,#128] ; [0x1bc0] = 0x20000156
        0x00001b3e:    7808        .x      LDRB     r0,[r1,#0]
        0x00001b40:    0840        @.      LSRS     r0,r0,#1
        0x00001b42:    7008        .p      STRB     r0,[r1,#0]
        0x00001b44:    7808        .x      LDRB     r0,[r1,#0]
        0x00001b46:    227f        ."      MOVS     r2,#0x7f
        0x00001b48:    4010        .@      ANDS     r0,r0,r2
        0x00001b4a:    7008        .p      STRB     r0,[r1,#0]
        0x00001b4c:    481d        .H      LDR      r0,[pc,#116] ; [0x1bc4] = 0x400048cc
        0x00001b4e:    6800        .h      LDR      r0,[r0,#0]
        0x00001b50:    01c2        ..      LSLS     r2,r0,#7
        0x00001b52:    7808        .x      LDRB     r0,[r1,#0]
        0x00001b54:    4310        .C      ORRS     r0,r0,r2
        0x00001b56:    7008        .p      STRB     r0,[r1,#0]
        0x00001b58:    481b        .H      LDR      r0,[pc,#108] ; [0x1bc8] = 0x20000157
        0x00001b5a:    7801        .x      LDRB     r1,[r0,#0]
        0x00001b5c:    1c49        I.      ADDS     r1,r1,#1
        0x00001b5e:    7001        .p      STRB     r1,[r0,#0]
        0x00001b60:    7800        .x      LDRB     r0,[r0,#0]
        0x00001b62:    2808        .(      CMP      r0,#8
        0x00001b64:    d11a        ..      BNE      0x1b9c ; cpu_fpga_xfer + 904
        0x00001b66:    e7ff        ..      B        0x1b68 ; cpu_fpga_xfer + 852
        0x00001b68:    4817        .H      LDR      r0,[pc,#92] ; [0x1bc8] = 0x20000157
        0x00001b6a:    2100        .!      MOVS     r1,#0
        0x00001b6c:    7001        .p      STRB     r1,[r0,#0]
        0x00001b6e:    4a14        .J      LDR      r2,[pc,#80] ; [0x1bc0] = 0x20000156
        0x00001b70:    7813        .x      LDRB     r3,[r2,#0]
        0x00001b72:    4816        .H      LDR      r0,[pc,#88] ; [0x1bcc] = 0x20000158
        0x00001b74:    7805        .x      LDRB     r5,[r0,#0]
        0x00001b76:    4c9b        .L      LDR      r4,[pc,#620] ; [0x1de4] = 0x20000168
        0x00001b78:    1964        d.      ADDS     r4,r4,r5
        0x00001b7a:    7423        #t      STRB     r3,[r4,#0x10]
        0x00001b7c:    7011        .p      STRB     r1,[r2,#0]
        0x00001b7e:    7801        .x      LDRB     r1,[r0,#0]
        0x00001b80:    1c49        I.      ADDS     r1,r1,#1
        0x00001b82:    7001        .p      STRB     r1,[r0,#0]
        0x00001b84:    7800        .x      LDRB     r0,[r0,#0]
        0x00001b86:    2806        .(      CMP      r0,#6
        0x00001b88:    d107        ..      BNE      0x1b9a ; cpu_fpga_xfer + 902
        0x00001b8a:    e7ff        ..      B        0x1b8c ; cpu_fpga_xfer + 888
        0x00001b8c:    490b        .I      LDR      r1,[pc,#44] ; [0x1bbc] = 0x2000015a
        0x00001b8e:    2003        .       MOVS     r0,#3
        0x00001b90:    7008        .p      STRB     r0,[r1,#0]
        0x00001b92:    490e        .I      LDR      r1,[pc,#56] ; [0x1bcc] = 0x20000158
        0x00001b94:    2000        .       MOVS     r0,#0
        0x00001b96:    7008        .p      STRB     r0,[r1,#0]
        0x00001b98:    e7ff        ..      B        0x1b9a ; cpu_fpga_xfer + 902
        0x00001b9a:    e7ff        ..      B        0x1b9c ; cpu_fpga_xfer + 904
        0x00001b9c:    e001        ..      B        0x1ba2 ; cpu_fpga_xfer + 910
        0x00001b9e:    e000        ..      B        0x1ba2 ; cpu_fpga_xfer + 910
        0x00001ba0:    e7ff        ..      B        0x1ba2 ; cpu_fpga_xfer + 910
        0x00001ba2:    e000        ..      B        0x1ba6 ; cpu_fpga_xfer + 914
        0x00001ba4:    e7ff        ..      B        0x1ba6 ; cpu_fpga_xfer + 914
        0x00001ba6:    e7ff        ..      B        0x1ba8 ; cpu_fpga_xfer + 916
        0x00001ba8:    e7ff        ..      B        0x1baa ; cpu_fpga_xfer + 918
        0x00001baa:    b00a        ..      ADD      sp,sp,#0x28
        0x00001bac:    bdb0        ..      POP      {r4,r5,r7,pc}
        0x00001bae:    46c0        .F      MOV      r8,r8
    $d
    __arm_cp.3_0
        0x00001bb0:    400048c0    .H.@    DCD    1073760448
    __arm_cp.3_1
        0x00001bb4:    400048c4    .H.@    DCD    1073760452
    __arm_cp.3_2
        0x00001bb8:    20000154    T..     DCD    536871252
    __arm_cp.3_3
        0x00001bbc:    2000015a    Z..     DCD    536871258
    __arm_cp.3_4
        0x00001bc0:    20000156    V..     DCD    536871254
    __arm_cp.3_5
        0x00001bc4:    400048cc    .H.@    DCD    1073760460
    __arm_cp.3_6
        0x00001bc8:    20000157    W..     DCD    536871255
    __arm_cp.3_7
        0x00001bcc:    20000158    X..     DCD    536871256
    __arm_cp.3_8
        0x00001bd0:    20000168    h..     DCD    536871272
    __arm_cp.3_9
        0x00001bd4:    20000155    U..     DCD    536871253
    __arm_cp.3_10
        0x00001bd8:    20000159    Y..     DCD    536871257
    __arm_cp.3_11
        0x00001bdc:    2000015b    [..     DCD    536871259
    __arm_cp.3_12
        0x00001be0:    2000015c    \..     DCD    536871260
    __arm_cp.3_13
        0x00001be4:    2000028e    ...     DCD    536871566
    __arm_cp.3_14
        0x00001be8:    400048c8    .H.@    DCD    1073760456
    __arm_cp.3_15
        0x00001bec:    20000288    ...     DCD    536871560
    __arm_cp.3_16
        0x00001bf0:    200002a8    ...     DCD    536871592
    $t
    cpu_sm
        0x00001bf4:    b510        ..      PUSH     {r4,lr}
        0x00001bf6:    b084        ..      SUB      sp,sp,#0x10
        0x00001bf8:    4876        vH      LDR      r0,[pc,#472] ; [0x1dd4] = 0x20000160
        0x00001bfa:    6800        .h      LDR      r0,[r0,#0]
        0x00001bfc:    9001        ..      STR      r0,[sp,#4]
        0x00001bfe:    2803        .(      CMP      r0,#3
        0x00001c00:    d900        ..      BLS      0x1c04 ; cpu_sm + 16
        0x00001c02:    e0e3        ..      B        0x1dcc ; cpu_sm + 472
        0x00001c04:    9901        ..      LDR      r1,[sp,#4]
        0x00001c06:    008a        ..      LSLS     r2,r1,#2
        0x00001c08:    a001        ..      ADR      r0,{pc}+8 ; 0x1c10
        0x00001c0a:    1880        ..      ADDS     r0,r0,r2
        0x00001c0c:    4687        .F      MOV      pc,r0
        0x00001c0e:    46c0        .F      MOV      r8,r8
        0x00001c10:    f000b806    ....    B.W      0x1c20 ; cpu_sm + 44
        0x00001c14:    f000b812    ....    B.W      0x1c3c ; cpu_sm + 72
        0x00001c18:    f000b81f    ....    B.W      0x1c5a ; cpu_sm + 102
        0x00001c1c:    f000b84e    ..N.    B.W      0x1cbc ; cpu_sm + 200
        0x00001c20:    f7fffd54    ..T.    BL       bsp_ctor ; 0x16cc
        0x00001c24:    f004f81a    ....    BL       interlock_set_defaults ; 0x5c5c
        0x00001c28:    f004f99a    ....    BL       set_ctrl_defaults ; 0x5f60
        0x00001c2c:    f24070d0    @..p    MOVW     r0,#0x7d0
        0x00001c30:    f005f8a0    ....    BL       wait_ms ; 0x6d74
        0x00001c34:    4967        gI      LDR      r1,[pc,#412] ; [0x1dd4] = 0x20000160
        0x00001c36:    2001        .       MOVS     r0,#1
        0x00001c38:    6008        .`      STR      r0,[r1,#0]
        0x00001c3a:    e0c8        ..      B        0x1dce ; cpu_sm + 474
        0x00001c3c:    f000f980    ....    BL       get_flash_checksum ; 0x1f40
        0x00001c40:    4602        .F      MOV      r2,r0
        0x00001c42:    48d2        .H      LDR      r0,[pc,#840] ; [0x1f8c] = 0x20000168
        0x00001c44:    21bf        .!      MOVS     r1,#0xbf
        0x00001c46:    5442        BT      STRB     r2,[r0,r1]
        0x00001c48:    5c40        @\      LDRB     r0,[r0,r1]
        0x00001c4a:    b110        ..      CBZ      r0,0x1c52 ; cpu_sm + 94
        0x00001c4c:    e7ff        ..      B        0x1c4e ; cpu_sm + 90
        0x00001c4e:    e7ff        ..      B        0x1c50 ; cpu_sm + 92
        0x00001c50:    e7fe        ..      B        0x1c50 ; cpu_sm + 92
        0x00001c52:    4960        `I      LDR      r1,[pc,#384] ; [0x1dd4] = 0x20000160
        0x00001c54:    2002        .       MOVS     r0,#2
        0x00001c56:    6008        .`      STR      r0,[r1,#0]
        0x00001c58:    e0b9        ..      B        0x1dce ; cpu_sm + 474
        0x00001c5a:    485f        _H      LDR      r0,[pc,#380] ; [0x1dd8] = 0x20000164
        0x00001c5c:    7801        .x      LDRB     r1,[r0,#0]
        0x00001c5e:    2001        .       MOVS     r0,#1
        0x00001c60:    0749        I.      LSLS     r1,r1,#29
        0x00001c62:    0fc9        ..      LSRS     r1,r1,#31
        0x00001c64:    9000        ..      STR      r0,[sp,#0]
        0x00001c66:    b931        1.      CBNZ     r1,0x1c76 ; cpu_sm + 130
        0x00001c68:    e7ff        ..      B        0x1c6a ; cpu_sm + 118
        0x00001c6a:    485b        [H      LDR      r0,[pc,#364] ; [0x1dd8] = 0x20000164
        0x00001c6c:    7800        .x      LDRB     r0,[r0,#0]
        0x00001c6e:    0700        ..      LSLS     r0,r0,#28
        0x00001c70:    0fc0        ..      LSRS     r0,r0,#31
        0x00001c72:    9000        ..      STR      r0,[sp,#0]
        0x00001c74:    e7ff        ..      B        0x1c76 ; cpu_sm + 130
        0x00001c76:    9900        ..      LDR      r1,[sp,#0]
        0x00001c78:    2201        ."      MOVS     r2,#1
        0x00001c7a:    4011        .@      ANDS     r1,r1,r2
        0x00001c7c:    a802        ..      ADD      r0,sp,#8
        0x00001c7e:    7001        .p      STRB     r1,[r0,#0]
        0x00001c80:    4955        UI      LDR      r1,[pc,#340] ; [0x1dd8] = 0x20000164
        0x00001c82:    780b        .x      LDRB     r3,[r1,#0]
        0x00001c84:    069b        ..      LSLS     r3,r3,#26
        0x00001c86:    0f9c        ..      LSRS     r4,r3,#30
        0x00001c88:    1e63        c.      SUBS     r3,r4,#1
        0x00001c8a:    419c        .A      SBCS     r4,r4,r3
        0x00001c8c:    7803        .x      LDRB     r3,[r0,#0]
        0x00001c8e:    4023        #@      ANDS     r3,r3,r4
        0x00001c90:    7003        .p      STRB     r3,[r0,#0]
        0x00001c92:    7849        Ix      LDRB     r1,[r1,#1]
        0x00001c94:    7803        .x      LDRB     r3,[r0,#0]
        0x00001c96:    4019        .@      ANDS     r1,r1,r3
        0x00001c98:    4011        .@      ANDS     r1,r1,r2
        0x00001c9a:    7001        .p      STRB     r1,[r0,#0]
        0x00001c9c:    4a4f        OJ      LDR      r2,[pc,#316] ; [0x1ddc] = 0x40040008
        0x00001c9e:    4950        PI      LDR      r1,[pc,#320] ; [0x1de0] = 0x5aa5
        0x00001ca0:    6011        .`      STR      r1,[r2,#0]
        0x00001ca2:    7800        .x      LDRB     r0,[r0,#0]
        0x00001ca4:    07c0        ..      LSLS     r0,r0,#31
        0x00001ca6:    b120         .      CBZ      r0,0x1cb2 ; cpu_sm + 190
        0x00001ca8:    e7ff        ..      B        0x1caa ; cpu_sm + 182
        0x00001caa:    494a        JI      LDR      r1,[pc,#296] ; [0x1dd4] = 0x20000160
        0x00001cac:    2003        .       MOVS     r0,#3
        0x00001cae:    6008        .`      STR      r0,[r1,#0]
        0x00001cb0:    e003        ..      B        0x1cba ; cpu_sm + 198
        0x00001cb2:    4948        HI      LDR      r1,[pc,#288] ; [0x1dd4] = 0x20000160
        0x00001cb4:    2002        .       MOVS     r0,#2
        0x00001cb6:    6008        .`      STR      r0,[r1,#0]
        0x00001cb8:    e7ff        ..      B        0x1cba ; cpu_sm + 198
        0x00001cba:    e7ff        ..      B        0x1cbc ; cpu_sm + 200
        0x00001cbc:    a903        ..      ADD      r1,sp,#0xc
        0x00001cbe:    2000        .       MOVS     r0,#0
        0x00001cc0:    7008        .p      STRB     r0,[r1,#0]
        0x00001cc2:    e7ff        ..      B        0x1cc4 ; cpu_sm + 208
        0x00001cc4:    a803        ..      ADD      r0,sp,#0xc
        0x00001cc6:    7800        .x      LDRB     r0,[r0,#0]
        0x00001cc8:    2804        .(      CMP      r0,#4
        0x00001cca:    d80e        ..      BHI      0x1cea ; cpu_sm + 246
        0x00001ccc:    e7ff        ..      B        0x1cce ; cpu_sm + 218
        0x00001cce:    a903        ..      ADD      r1,sp,#0xc
        0x00001cd0:    780a        .x      LDRB     r2,[r1,#0]
        0x00001cd2:    48ae        .H      LDR      r0,[pc,#696] ; [0x1f8c] = 0x20000168
        0x00001cd4:    1880        ..      ADDS     r0,r0,r2
        0x00001cd6:    7980        .y      LDRB     r0,[r0,#6]
        0x00001cd8:    780a        .x      LDRB     r2,[r1,#0]
        0x00001cda:    4948        HI      LDR      r1,[pc,#288] ; [0x1dfc] = 0x2000029f
        0x00001cdc:    5488        .T      STRB     r0,[r1,r2]
        0x00001cde:    e7ff        ..      B        0x1ce0 ; cpu_sm + 236
        0x00001ce0:    9803        ..      LDR      r0,[sp,#0xc]
        0x00001ce2:    1c40        @.      ADDS     r0,r0,#1
        0x00001ce4:    a903        ..      ADD      r1,sp,#0xc
        0x00001ce6:    7008        .p      STRB     r0,[r1,#0]
        0x00001ce8:    e7ec        ..      B        0x1cc4 ; cpu_sm + 208
        0x00001cea:    a903        ..      ADD      r1,sp,#0xc
        0x00001cec:    2000        .       MOVS     r0,#0
        0x00001cee:    7008        .p      STRB     r0,[r1,#0]
        0x00001cf0:    e7ff        ..      B        0x1cf2 ; cpu_sm + 254
        0x00001cf2:    a803        ..      ADD      r0,sp,#0xc
        0x00001cf4:    7800        .x      LDRB     r0,[r0,#0]
        0x00001cf6:    2804        .(      CMP      r0,#4
        0x00001cf8:    d80e        ..      BHI      0x1d18 ; cpu_sm + 292
        0x00001cfa:    e7ff        ..      B        0x1cfc ; cpu_sm + 264
        0x00001cfc:    a903        ..      ADD      r1,sp,#0xc
        0x00001cfe:    780a        .x      LDRB     r2,[r1,#0]
        0x00001d00:    48a2        .H      LDR      r0,[pc,#648] ; [0x1f8c] = 0x20000168
        0x00001d02:    1880        ..      ADDS     r0,r0,r2
        0x00001d04:    7ac0        .z      LDRB     r0,[r0,#0xb]
        0x00001d06:    780a        .x      LDRB     r2,[r1,#0]
        0x00001d08:    493b        ;I      LDR      r1,[pc,#236] ; [0x1df8] = 0x20000298
        0x00001d0a:    5488        .T      STRB     r0,[r1,r2]
        0x00001d0c:    e7ff        ..      B        0x1d0e ; cpu_sm + 282
        0x00001d0e:    9803        ..      LDR      r0,[sp,#0xc]
        0x00001d10:    1c40        @.      ADDS     r0,r0,#1
        0x00001d12:    a903        ..      ADD      r1,sp,#0xc
        0x00001d14:    7008        .p      STRB     r0,[r1,#0]
        0x00001d16:    e7ec        ..      B        0x1cf2 ; cpu_sm + 254
        0x00001d18:    a903        ..      ADD      r1,sp,#0xc
        0x00001d1a:    2000        .       MOVS     r0,#0
        0x00001d1c:    7008        .p      STRB     r0,[r1,#0]
        0x00001d1e:    e7ff        ..      B        0x1d20 ; cpu_sm + 300
        0x00001d20:    a803        ..      ADD      r0,sp,#0xc
        0x00001d22:    7800        .x      LDRB     r0,[r0,#0]
        0x00001d24:    2805        .(      CMP      r0,#5
        0x00001d26:    d80e        ..      BHI      0x1d46 ; cpu_sm + 338
        0x00001d28:    e7ff        ..      B        0x1d2a ; cpu_sm + 310
        0x00001d2a:    a903        ..      ADD      r1,sp,#0xc
        0x00001d2c:    780a        .x      LDRB     r2,[r1,#0]
        0x00001d2e:    4897        .H      LDR      r0,[pc,#604] ; [0x1f8c] = 0x20000168
        0x00001d30:    1880        ..      ADDS     r0,r0,r2
        0x00001d32:    7c00        .|      LDRB     r0,[r0,#0x10]
        0x00001d34:    780a        .x      LDRB     r2,[r1,#0]
        0x00001d36:    492f        /I      LDR      r1,[pc,#188] ; [0x1df4] = 0x20000282
        0x00001d38:    5488        .T      STRB     r0,[r1,r2]
        0x00001d3a:    e7ff        ..      B        0x1d3c ; cpu_sm + 328
        0x00001d3c:    9803        ..      LDR      r0,[sp,#0xc]
        0x00001d3e:    1c40        @.      ADDS     r0,r0,#1
        0x00001d40:    a903        ..      ADD      r1,sp,#0xc
        0x00001d42:    7008        .p      STRB     r0,[r1,#0]
        0x00001d44:    e7ec        ..      B        0x1d20 ; cpu_sm + 300
        0x00001d46:    a903        ..      ADD      r1,sp,#0xc
        0x00001d48:    2000        .       MOVS     r0,#0
        0x00001d4a:    7008        .p      STRB     r0,[r1,#0]
        0x00001d4c:    e7ff        ..      B        0x1d4e ; cpu_sm + 346
        0x00001d4e:    a803        ..      ADD      r0,sp,#0xc
        0x00001d50:    7800        .x      LDRB     r0,[r0,#0]
        0x00001d52:    2801        .(      CMP      r0,#1
        0x00001d54:    d80e        ..      BHI      0x1d74 ; cpu_sm + 384
        0x00001d56:    e7ff        ..      B        0x1d58 ; cpu_sm + 356
        0x00001d58:    a903        ..      ADD      r1,sp,#0xc
        0x00001d5a:    780a        .x      LDRB     r2,[r1,#0]
        0x00001d5c:    488b        .H      LDR      r0,[pc,#556] ; [0x1f8c] = 0x20000168
        0x00001d5e:    1880        ..      ADDS     r0,r0,r2
        0x00001d60:    7d80        .}      LDRB     r0,[r0,#0x16]
        0x00001d62:    780a        .x      LDRB     r2,[r1,#0]
        0x00001d64:    4922        "I      LDR      r1,[pc,#136] ; [0x1df0] = 0x200002a6
        0x00001d66:    5488        .T      STRB     r0,[r1,r2]
        0x00001d68:    e7ff        ..      B        0x1d6a ; cpu_sm + 374
        0x00001d6a:    9803        ..      LDR      r0,[sp,#0xc]
        0x00001d6c:    1c40        @.      ADDS     r0,r0,#1
        0x00001d6e:    a903        ..      ADD      r1,sp,#0xc
        0x00001d70:    7008        .p      STRB     r0,[r1,#0]
        0x00001d72:    e7ec        ..      B        0x1d4e ; cpu_sm + 346
        0x00001d74:    f000f90e    ....    BL       interlock ; 0x1f94
        0x00001d78:    4817        .H      LDR      r0,[pc,#92] ; [0x1dd8] = 0x20000164
        0x00001d7a:    7800        .x      LDRB     r0,[r0,#0]
        0x00001d7c:    07c0        ..      LSLS     r0,r0,#31
        0x00001d7e:    b158        X.      CBZ      r0,0x1d98 ; cpu_sm + 420
        0x00001d80:    e7ff        ..      B        0x1d82 ; cpu_sm + 398
        0x00001d82:    f000f8dd    ....    BL       get_flash_checksum ; 0x1f40
        0x00001d86:    4981        .I      LDR      r1,[pc,#516] ; [0x1f8c] = 0x20000168
        0x00001d88:    22bf        ."      MOVS     r2,#0xbf
        0x00001d8a:    5488        .T      STRB     r0,[r1,r2]
        0x00001d8c:    4912        .I      LDR      r1,[pc,#72] ; [0x1dd8] = 0x20000164
        0x00001d8e:    7808        .x      LDRB     r0,[r1,#0]
        0x00001d90:    22fe        ."      MOVS     r2,#0xfe
        0x00001d92:    4010        .@      ANDS     r0,r0,r2
        0x00001d94:    7008        .p      STRB     r0,[r1,#0]
        0x00001d96:    e7ff        ..      B        0x1d98 ; cpu_sm + 420
        0x00001d98:    4910        .I      LDR      r1,[pc,#64] ; [0x1ddc] = 0x40040008
        0x00001d9a:    4811        .H      LDR      r0,[pc,#68] ; [0x1de0] = 0x5aa5
        0x00001d9c:    6008        .`      STR      r0,[r1,#0]
        0x00001d9e:    480e        .H      LDR      r0,[pc,#56] ; [0x1dd8] = 0x20000164
        0x00001da0:    7800        .x      LDRB     r0,[r0,#0]
        0x00001da2:    0780        ..      LSLS     r0,r0,#30
        0x00001da4:    0fc0        ..      LSRS     r0,r0,#31
        0x00001da6:    b110        ..      CBZ      r0,0x1dae ; cpu_sm + 442
        0x00001da8:    e7ff        ..      B        0x1daa ; cpu_sm + 438
        0x00001daa:    e7ff        ..      B        0x1dac ; cpu_sm + 440
        0x00001dac:    e7fe        ..      B        0x1dac ; cpu_sm + 440
        0x00001dae:    480e        .H      LDR      r0,[pc,#56] ; [0x1de8] = 0x20000293
        0x00001db0:    7800        .x      LDRB     r0,[r0,#0]
        0x00001db2:    07c0        ..      LSLS     r0,r0,#31
        0x00001db4:    b148        H.      CBZ      r0,0x1dca ; cpu_sm + 470
        0x00001db6:    e7ff        ..      B        0x1db8 ; cpu_sm + 452
        0x00001db8:    490b        .I      LDR      r1,[pc,#44] ; [0x1de8] = 0x20000293
        0x00001dba:    2000        .       MOVS     r0,#0
        0x00001dbc:    7008        .p      STRB     r0,[r1,#0]
        0x00001dbe:    490b        .I      LDR      r1,[pc,#44] ; [0x1dec] = 0x40004954
        0x00001dc0:    6808        .h      LDR      r0,[r1,#0]
        0x00001dc2:    4242        BB      RSBS     r2,r0,#0
        0x00001dc4:    4150        PA      ADCS     r0,r0,r2
        0x00001dc6:    6008        .`      STR      r0,[r1,#0]
        0x00001dc8:    e7ff        ..      B        0x1dca ; cpu_sm + 470
        0x00001dca:    e000        ..      B        0x1dce ; cpu_sm + 474
        0x00001dcc:    e7ff        ..      B        0x1dce ; cpu_sm + 474
        0x00001dce:    b004        ..      ADD      sp,sp,#0x10
        0x00001dd0:    bd10        ..      POP      {r4,pc}
        0x00001dd2:    46c0        .F      MOV      r8,r8
    $d
    __arm_cp.0_0
        0x00001dd4:    20000160    `..     DCD    536871264
    __arm_cp.0_1
        0x00001dd8:    20000164    d..     DCD    536871268
    __arm_cp.0_2
        0x00001ddc:    40040008    ...@    DCD    1074003976
    __arm_cp.0_3
        0x00001de0:    00005aa5    .Z..    DCD    23205
    __arm_cp.0_4
        0x00001de4:    20000168    h..     DCD    536871272
    __arm_cp.0_5
        0x00001de8:    20000293    ...     DCD    536871571
    __arm_cp.0_6
        0x00001dec:    40004954    TI.@    DCD    1073760596
    __arm_cp.0_7
        0x00001df0:    200002a6    ...     DCD    536871590
    __arm_cp.0_8
        0x00001df4:    20000282    ...     DCD    536871554
    __arm_cp.0_9
        0x00001df8:    20000298    ...     DCD    536871576
    __arm_cp.0_10
        0x00001dfc:    2000029f    ...     DCD    536871583
    $t
    fifo_init
        0x00001e00:    b083        ..      SUB      sp,sp,#0xc
        0x00001e02:    9002        ..      STR      r0,[sp,#8]
        0x00001e04:    9101        ..      STR      r1,[sp,#4]
        0x00001e06:    4668        hF      MOV      r0,sp
        0x00001e08:    8002        ..      STRH     r2,[r0,#0]
        0x00001e0a:    9902        ..      LDR      r1,[sp,#8]
        0x00001e0c:    2000        .       MOVS     r0,#0
        0x00001e0e:    8008        ..      STRH     r0,[r1,#0]
        0x00001e10:    9902        ..      LDR      r1,[sp,#8]
        0x00001e12:    8048        H.      STRH     r0,[r1,#2]
        0x00001e14:    9902        ..      LDR      r1,[sp,#8]
        0x00001e16:    7248        Hr      STRB     r0,[r1,#9]
        0x00001e18:    9a02        ..      LDR      r2,[sp,#8]
        0x00001e1a:    2101        .!      MOVS     r1,#1
        0x00001e1c:    7211        .r      STRB     r1,[r2,#8]
        0x00001e1e:    9902        ..      LDR      r1,[sp,#8]
        0x00001e20:    72c8        .r      STRB     r0,[r1,#0xb]
        0x00001e22:    9902        ..      LDR      r1,[sp,#8]
        0x00001e24:    7288        .r      STRB     r0,[r1,#0xa]
        0x00001e26:    9902        ..      LDR      r1,[sp,#8]
        0x00001e28:    8188        ..      STRH     r0,[r1,#0xc]
        0x00001e2a:    9800        ..      LDR      r0,[sp,#0]
        0x00001e2c:    9902        ..      LDR      r1,[sp,#8]
        0x00001e2e:    81c8        ..      STRH     r0,[r1,#0xe]
        0x00001e30:    9801        ..      LDR      r0,[sp,#4]
        0x00001e32:    9902        ..      LDR      r1,[sp,#8]
        0x00001e34:    6048        H`      STR      r0,[r1,#4]
        0x00001e36:    b003        ..      ADD      sp,sp,#0xc
        0x00001e38:    4770        pG      BX       lr
    fifo_read
        0x00001e3a:    b082        ..      SUB      sp,sp,#8
        0x00001e3c:    9001        ..      STR      r0,[sp,#4]
        0x00001e3e:    9100        ..      STR      r1,[sp,#0]
        0x00001e40:    9801        ..      LDR      r0,[sp,#4]
        0x00001e42:    7a00        .z      LDRB     r0,[r0,#8]
        0x00001e44:    07c0        ..      LSLS     r0,r0,#31
        0x00001e46:    b120         .      CBZ      r0,0x1e52 ; fifo_read + 24
        0x00001e48:    e7ff        ..      B        0x1e4a ; fifo_read + 16
        0x00001e4a:    9901        ..      LDR      r1,[sp,#4]
        0x00001e4c:    2001        .       MOVS     r0,#1
        0x00001e4e:    72c8        .r      STRB     r0,[r1,#0xb]
        0x00001e50:    e7ff        ..      B        0x1e52 ; fifo_read + 24
        0x00001e52:    9901        ..      LDR      r1,[sp,#4]
        0x00001e54:    6848        Hh      LDR      r0,[r1,#4]
        0x00001e56:    8809        ..      LDRH     r1,[r1,#0]
        0x00001e58:    5c40        @\      LDRB     r0,[r0,r1]
        0x00001e5a:    9900        ..      LDR      r1,[sp,#0]
        0x00001e5c:    7008        .p      STRB     r0,[r1,#0]
        0x00001e5e:    9901        ..      LDR      r1,[sp,#4]
        0x00001e60:    8808        ..      LDRH     r0,[r1,#0]
        0x00001e62:    1c40        @.      ADDS     r0,r0,#1
        0x00001e64:    8008        ..      STRH     r0,[r1,#0]
        0x00001e66:    9901        ..      LDR      r1,[sp,#4]
        0x00001e68:    8988        ..      LDRH     r0,[r1,#0xc]
        0x00001e6a:    1e40        @.      SUBS     r0,r0,#1
        0x00001e6c:    8188        ..      STRH     r0,[r1,#0xc]
        0x00001e6e:    9901        ..      LDR      r1,[sp,#4]
        0x00001e70:    2000        .       MOVS     r0,#0
        0x00001e72:    7248        Hr      STRB     r0,[r1,#9]
        0x00001e74:    9801        ..      LDR      r0,[sp,#4]
        0x00001e76:    8980        ..      LDRH     r0,[r0,#0xc]
        0x00001e78:    b920         .      CBNZ     r0,0x1e84 ; fifo_read + 74
        0x00001e7a:    e7ff        ..      B        0x1e7c ; fifo_read + 66
        0x00001e7c:    9901        ..      LDR      r1,[sp,#4]
        0x00001e7e:    2001        .       MOVS     r0,#1
        0x00001e80:    7208        .r      STRB     r0,[r1,#8]
        0x00001e82:    e7ff        ..      B        0x1e84 ; fifo_read + 74
        0x00001e84:    9901        ..      LDR      r1,[sp,#4]
        0x00001e86:    8808        ..      LDRH     r0,[r1,#0]
        0x00001e88:    89c9        ..      LDRH     r1,[r1,#0xe]
        0x00001e8a:    4288        .B      CMP      r0,r1
        0x00001e8c:    db04        ..      BLT      0x1e98 ; fifo_read + 94
        0x00001e8e:    e7ff        ..      B        0x1e90 ; fifo_read + 86
        0x00001e90:    9901        ..      LDR      r1,[sp,#4]
        0x00001e92:    2000        .       MOVS     r0,#0
        0x00001e94:    8008        ..      STRH     r0,[r1,#0]
        0x00001e96:    e7ff        ..      B        0x1e98 ; fifo_read + 94
        0x00001e98:    b002        ..      ADD      sp,sp,#8
        0x00001e9a:    4770        pG      BX       lr
    fifo_reset
        0x00001e9c:    b081        ..      SUB      sp,sp,#4
        0x00001e9e:    9000        ..      STR      r0,[sp,#0]
        0x00001ea0:    9900        ..      LDR      r1,[sp,#0]
        0x00001ea2:    2000        .       MOVS     r0,#0
        0x00001ea4:    8008        ..      STRH     r0,[r1,#0]
        0x00001ea6:    9900        ..      LDR      r1,[sp,#0]
        0x00001ea8:    8048        H.      STRH     r0,[r1,#2]
        0x00001eaa:    9900        ..      LDR      r1,[sp,#0]
        0x00001eac:    7248        Hr      STRB     r0,[r1,#9]
        0x00001eae:    9a00        ..      LDR      r2,[sp,#0]
        0x00001eb0:    2101        .!      MOVS     r1,#1
        0x00001eb2:    7211        .r      STRB     r1,[r2,#8]
        0x00001eb4:    9900        ..      LDR      r1,[sp,#0]
        0x00001eb6:    72c8        .r      STRB     r0,[r1,#0xb]
        0x00001eb8:    9900        ..      LDR      r1,[sp,#0]
        0x00001eba:    7288        .r      STRB     r0,[r1,#0xa]
        0x00001ebc:    9900        ..      LDR      r1,[sp,#0]
        0x00001ebe:    8188        ..      STRH     r0,[r1,#0xc]
        0x00001ec0:    b001        ..      ADD      sp,sp,#4
        0x00001ec2:    4770        pG      BX       lr
    fifo_write
        0x00001ec4:    b082        ..      SUB      sp,sp,#8
        0x00001ec6:    9001        ..      STR      r0,[sp,#4]
        0x00001ec8:    4668        hF      MOV      r0,sp
        0x00001eca:    7001        .p      STRB     r1,[r0,#0]
        0x00001ecc:    9801        ..      LDR      r0,[sp,#4]
        0x00001ece:    7a40        @z      LDRB     r0,[r0,#9]
        0x00001ed0:    07c0        ..      LSLS     r0,r0,#31
        0x00001ed2:    b120         .      CBZ      r0,0x1ede ; fifo_write + 26
        0x00001ed4:    e7ff        ..      B        0x1ed6 ; fifo_write + 18
        0x00001ed6:    9901        ..      LDR      r1,[sp,#4]
        0x00001ed8:    2001        .       MOVS     r0,#1
        0x00001eda:    7288        .r      STRB     r0,[r1,#0xa]
        0x00001edc:    e7ff        ..      B        0x1ede ; fifo_write + 26
        0x00001ede:    9800        ..      LDR      r0,[sp,#0]
        0x00001ee0:    9a01        ..      LDR      r2,[sp,#4]
        0x00001ee2:    6851        Qh      LDR      r1,[r2,#4]
        0x00001ee4:    8852        R.      LDRH     r2,[r2,#2]
        0x00001ee6:    5488        .T      STRB     r0,[r1,r2]
        0x00001ee8:    9901        ..      LDR      r1,[sp,#4]
        0x00001eea:    8848        H.      LDRH     r0,[r1,#2]
        0x00001eec:    1c40        @.      ADDS     r0,r0,#1
        0x00001eee:    8048        H.      STRH     r0,[r1,#2]
        0x00001ef0:    9901        ..      LDR      r1,[sp,#4]
        0x00001ef2:    8988        ..      LDRH     r0,[r1,#0xc]
        0x00001ef4:    1c40        @.      ADDS     r0,r0,#1
        0x00001ef6:    8188        ..      STRH     r0,[r1,#0xc]
        0x00001ef8:    9901        ..      LDR      r1,[sp,#4]
        0x00001efa:    2000        .       MOVS     r0,#0
        0x00001efc:    7208        .r      STRB     r0,[r1,#8]
        0x00001efe:    9901        ..      LDR      r1,[sp,#4]
        0x00001f00:    8988        ..      LDRH     r0,[r1,#0xc]
        0x00001f02:    89c9        ..      LDRH     r1,[r1,#0xe]
        0x00001f04:    4288        .B      CMP      r0,r1
        0x00001f06:    d104        ..      BNE      0x1f12 ; fifo_write + 78
        0x00001f08:    e7ff        ..      B        0x1f0a ; fifo_write + 70
        0x00001f0a:    9901        ..      LDR      r1,[sp,#4]
        0x00001f0c:    2001        .       MOVS     r0,#1
        0x00001f0e:    7248        Hr      STRB     r0,[r1,#9]
        0x00001f10:    e7ff        ..      B        0x1f12 ; fifo_write + 78
        0x00001f12:    9901        ..      LDR      r1,[sp,#4]
        0x00001f14:    8848        H.      LDRH     r0,[r1,#2]
        0x00001f16:    89c9        ..      LDRH     r1,[r1,#0xe]
        0x00001f18:    4288        .B      CMP      r0,r1
        0x00001f1a:    db04        ..      BLT      0x1f26 ; fifo_write + 98
        0x00001f1c:    e7ff        ..      B        0x1f1e ; fifo_write + 90
        0x00001f1e:    9901        ..      LDR      r1,[sp,#4]
        0x00001f20:    2000        .       MOVS     r0,#0
        0x00001f22:    8048        H.      STRH     r0,[r1,#2]
        0x00001f24:    e7ff        ..      B        0x1f26 ; fifo_write + 98
        0x00001f26:    b002        ..      ADD      sp,sp,#8
        0x00001f28:    4770        pG      BX       lr
    fputc
        0x00001f2a:    b580        ..      PUSH     {r7,lr}
        0x00001f2c:    b082        ..      SUB      sp,sp,#8
        0x00001f2e:    9001        ..      STR      r0,[sp,#4]
        0x00001f30:    9100        ..      STR      r1,[sp,#0]
        0x00001f32:    9801        ..      LDR      r0,[sp,#4]
        0x00001f34:    f7fff9bc    ....    BL       SendChar ; 0x12b0
        0x00001f38:    9801        ..      LDR      r0,[sp,#4]
        0x00001f3a:    b002        ..      ADD      sp,sp,#8
        0x00001f3c:    bd80        ..      POP      {r7,pc}
        0x00001f3e:    0000        ..      MOVS     r0,r0
    get_flash_checksum
        0x00001f40:    b580        ..      PUSH     {r7,lr}
        0x00001f42:    b084        ..      SUB      sp,sp,#0x10
        0x00001f44:    a903        ..      ADD      r1,sp,#0xc
        0x00001f46:    2000        .       MOVS     r0,#0
        0x00001f48:    9001        ..      STR      r0,[sp,#4]
        0x00001f4a:    7008        .p      STRB     r0,[r1,#0]
        0x00001f4c:    f7feff16    ....    BL       FMC_Open ; 0xd7c
        0x00001f50:    9801        ..      LDR      r0,[sp,#4]
        0x00001f52:    f6450100    E...    MOVW     r1,#0x5800
        0x00001f56:    f7fefe9d    ....    BL       FMC_GetChkSum ; 0xc94
        0x00001f5a:    490c        .I      LDR      r1,[pc,#48] ; [0x1f8c] = 0x20000168
        0x00001f5c:    22c0        ."      MOVS     r2,#0xc0
        0x00001f5e:    5088        .P      STR      r0,[r1,r2]
        0x00001f60:    480b        .H      LDR      r0,[pc,#44] ; [0x1f90] = 0x20000264
        0x00001f62:    6801        .h      LDR      r1,[r0,#0]
        0x00001f64:    1e48        H.      SUBS     r0,r1,#1
        0x00001f66:    4181        .A      SBCS     r1,r1,r0
        0x00001f68:    a802        ..      ADD      r0,sp,#8
        0x00001f6a:    7001        .p      STRB     r1,[r0,#0]
        0x00001f6c:    7800        .x      LDRB     r0,[r0,#0]
        0x00001f6e:    07c0        ..      LSLS     r0,r0,#31
        0x00001f70:    b120         .      CBZ      r0,0x1f7c ; get_flash_checksum + 60
        0x00001f72:    e7ff        ..      B        0x1f74 ; get_flash_checksum + 52
        0x00001f74:    a903        ..      ADD      r1,sp,#0xc
        0x00001f76:    2001        .       MOVS     r0,#1
        0x00001f78:    7008        .p      STRB     r0,[r1,#0]
        0x00001f7a:    e000        ..      B        0x1f7e ; get_flash_checksum + 62
        0x00001f7c:    e7ff        ..      B        0x1f7e ; get_flash_checksum + 62
        0x00001f7e:    f7fefe83    ....    BL       FMC_Close ; 0xc88
        0x00001f82:    a803        ..      ADD      r0,sp,#0xc
        0x00001f84:    7800        .x      LDRB     r0,[r0,#0]
        0x00001f86:    b004        ..      ADD      sp,sp,#0x10
        0x00001f88:    bd80        ..      POP      {r7,pc}
        0x00001f8a:    46c0        .F      MOV      r8,r8
    $d
    __arm_cp.2_0
        0x00001f8c:    20000168    h..     DCD    536871272
    __arm_cp.2_1
        0x00001f90:    20000264    d..     DCD    536871524
    $t
    interlock
        0x00001f94:    b5f0        ..      PUSH     {r4-r7,lr}
        0x00001f96:    b091        ..      SUB      sp,sp,#0x44
        0x00001f98:    48f7        .H      LDR      r0,[pc,#988] ; [0x2378] = 0x200002a8
        0x00001f9a:    9010        ..      STR      r0,[sp,#0x40]
        0x00001f9c:    48f7        .H      LDR      r0,[pc,#988] ; [0x237c] = 0x2000028e
        0x00001f9e:    900f        ..      STR      r0,[sp,#0x3c]
        0x00001fa0:    48f7        .H      LDR      r0,[pc,#988] ; [0x2380] = 0x20000164
        0x00001fa2:    7800        .x      LDRB     r0,[r0,#0]
        0x00001fa4:    0680        ..      LSLS     r0,r0,#26
        0x00001fa6:    0f80        ..      LSRS     r0,r0,#30
        0x00001fa8:    2803        .(      CMP      r0,#3
        0x00001faa:    d10b        ..      BNE      0x1fc4 ; interlock + 48
        0x00001fac:    e7ff        ..      B        0x1fae ; interlock + 26
        0x00001fae:    f000fc5b    ..[.    BL       interlock_DL ; 0x2868
        0x00001fb2:    f003fccb    ....    BL       interlock_TGT_SM_DL ; 0x594c
        0x00001fb6:    f003f953    ..S.    BL       interlock_TCF_SM_DL ; 0x5260
        0x00001fba:    f000faa5    ....    BL       interlock_Buzzer_SM_TCF_DL ; 0x2508
        0x00001fbe:    f000fb47    ..G.    BL       interlock_Buzzer_SM_TGT_DL ; 0x2650
        0x00001fc2:    e01c        ..      B        0x1ffe ; interlock + 106
        0x00001fc4:    48ee        .H      LDR      r0,[pc,#952] ; [0x2380] = 0x20000164
        0x00001fc6:    7800        .x      LDRB     r0,[r0,#0]
        0x00001fc8:    0680        ..      LSLS     r0,r0,#26
        0x00001fca:    0f80        ..      LSRS     r0,r0,#30
        0x00001fcc:    2801        .(      CMP      r0,#1
        0x00001fce:    d109        ..      BNE      0x1fe4 ; interlock + 80
        0x00001fd0:    e7ff        ..      B        0x1fd2 ; interlock + 62
        0x00001fd2:    f001fd5f    .._.    BL       interlock_SL ; 0x3a94
        0x00001fd6:    f003fabf    ....    BL       interlock_TGT_SM ; 0x5558
        0x00001fda:    f002ffe1    ....    BL       interlock_TCF_SM ; 0x4fa0
        0x00001fde:    f000fa0b    ....    BL       interlock_Buzzer_SM ; 0x23f8
        0x00001fe2:    e00b        ..      B        0x1ffc ; interlock + 104
        0x00001fe4:    48f9        .H      LDR      r0,[pc,#996] ; [0x23cc] = 0x20000164
        0x00001fe6:    7800        .x      LDRB     r0,[r0,#0]
        0x00001fe8:    0680        ..      LSLS     r0,r0,#26
        0x00001fea:    0f80        ..      LSRS     r0,r0,#30
        0x00001fec:    2802        .(      CMP      r0,#2
        0x00001fee:    d103        ..      BNE      0x1ff8 ; interlock + 100
        0x00001ff0:    e7ff        ..      B        0x1ff2 ; interlock + 94
        0x00001ff2:    f000fbdb    ....    BL       interlock_Bypass ; 0x27ac
        0x00001ff6:    e000        ..      B        0x1ffa ; interlock + 102
        0x00001ff8:    e7ff        ..      B        0x1ffa ; interlock + 102
        0x00001ffa:    e7ff        ..      B        0x1ffc ; interlock + 104
        0x00001ffc:    e7ff        ..      B        0x1ffe ; interlock + 106
        0x00001ffe:    48f4        .H      LDR      r0,[pc,#976] ; [0x23d0] = 0x20000035
        0x00002000:    7800        .x      LDRB     r0,[r0,#0]
        0x00002002:    2802        .(      CMP      r0,#2
        0x00002004:    d10c        ..      BNE      0x2020 ; interlock + 140
        0x00002006:    e7ff        ..      B        0x2008 ; interlock + 116
        0x00002008:    49ef        .I      LDR      r1,[pc,#956] ; [0x23c8] = 0x200002a8
        0x0000200a:    7808        .x      LDRB     r0,[r1,#0]
        0x0000200c:    22fc        ."      MOVS     r2,#0xfc
        0x0000200e:    4010        .@      ANDS     r0,r0,r2
        0x00002010:    1c80        ..      ADDS     r0,r0,#2
        0x00002012:    7008        .p      STRB     r0,[r1,#0]
        0x00002014:    7808        .x      LDRB     r0,[r1,#0]
        0x00002016:    22f3        ."      MOVS     r2,#0xf3
        0x00002018:    4010        .@      ANDS     r0,r0,r2
        0x0000201a:    1d00        ..      ADDS     r0,r0,#4
        0x0000201c:    7008        .p      STRB     r0,[r1,#0]
        0x0000201e:    e01b        ..      B        0x2058 ; interlock + 196
        0x00002020:    48ec        .H      LDR      r0,[pc,#944] ; [0x23d4] = 0x20000036
        0x00002022:    7800        .x      LDRB     r0,[r0,#0]
        0x00002024:    2802        .(      CMP      r0,#2
        0x00002026:    d005        ..      BEQ      0x2034 ; interlock + 160
        0x00002028:    e7ff        ..      B        0x202a ; interlock + 150
        0x0000202a:    48eb        .H      LDR      r0,[pc,#940] ; [0x23d8] = 0x20000037
        0x0000202c:    7800        .x      LDRB     r0,[r0,#0]
        0x0000202e:    2802        .(      CMP      r0,#2
        0x00002030:    d110        ..      BNE      0x2054 ; interlock + 192
        0x00002032:    e7ff        ..      B        0x2034 ; interlock + 160
        0x00002034:    48e9        .H      LDR      r0,[pc,#932] ; [0x23dc] = 0x2000025c
        0x00002036:    8800        ..      LDRH     r0,[r0,#0]
        0x00002038:    b960        `.      CBNZ     r0,0x2054 ; interlock + 192
        0x0000203a:    e7ff        ..      B        0x203c ; interlock + 168
        0x0000203c:    49e2        .I      LDR      r1,[pc,#904] ; [0x23c8] = 0x200002a8
        0x0000203e:    7808        .x      LDRB     r0,[r1,#0]
        0x00002040:    22fc        ."      MOVS     r2,#0xfc
        0x00002042:    4010        .@      ANDS     r0,r0,r2
        0x00002044:    1c40        @.      ADDS     r0,r0,#1
        0x00002046:    7008        .p      STRB     r0,[r1,#0]
        0x00002048:    7808        .x      LDRB     r0,[r1,#0]
        0x0000204a:    22f3        ."      MOVS     r2,#0xf3
        0x0000204c:    4010        .@      ANDS     r0,r0,r2
        0x0000204e:    3008        .0      ADDS     r0,r0,#8
        0x00002050:    7008        .p      STRB     r0,[r1,#0]
        0x00002052:    e000        ..      B        0x2056 ; interlock + 194
        0x00002054:    e7ff        ..      B        0x2056 ; interlock + 194
        0x00002056:    e7ff        ..      B        0x2058 ; interlock + 196
        0x00002058:    48e1        .H      LDR      r0,[pc,#900] ; [0x23e0] = 0x20000032
        0x0000205a:    7800        .x      LDRB     r0,[r0,#0]
        0x0000205c:    2802        .(      CMP      r0,#2
        0x0000205e:    d10c        ..      BNE      0x207a ; interlock + 230
        0x00002060:    e7ff        ..      B        0x2062 ; interlock + 206
        0x00002062:    49d9        .I      LDR      r1,[pc,#868] ; [0x23c8] = 0x200002a8
        0x00002064:    7808        .x      LDRB     r0,[r1,#0]
        0x00002066:    22cf        ."      MOVS     r2,#0xcf
        0x00002068:    4010        .@      ANDS     r0,r0,r2
        0x0000206a:    3020         0      ADDS     r0,r0,#0x20
        0x0000206c:    7008        .p      STRB     r0,[r1,#0]
        0x0000206e:    7808        .x      LDRB     r0,[r1,#0]
        0x00002070:    223f        ?"      MOVS     r2,#0x3f
        0x00002072:    4010        .@      ANDS     r0,r0,r2
        0x00002074:    3040        @0      ADDS     r0,r0,#0x40
        0x00002076:    7008        .p      STRB     r0,[r1,#0]
        0x00002078:    e01b        ..      B        0x20b2 ; interlock + 286
        0x0000207a:    48da        .H      LDR      r0,[pc,#872] ; [0x23e4] = 0x20000033
        0x0000207c:    7800        .x      LDRB     r0,[r0,#0]
        0x0000207e:    2802        .(      CMP      r0,#2
        0x00002080:    d005        ..      BEQ      0x208e ; interlock + 250
        0x00002082:    e7ff        ..      B        0x2084 ; interlock + 240
        0x00002084:    48d8        .H      LDR      r0,[pc,#864] ; [0x23e8] = 0x20000034
        0x00002086:    7800        .x      LDRB     r0,[r0,#0]
        0x00002088:    2802        .(      CMP      r0,#2
        0x0000208a:    d110        ..      BNE      0x20ae ; interlock + 282
        0x0000208c:    e7ff        ..      B        0x208e ; interlock + 250
        0x0000208e:    48d3        .H      LDR      r0,[pc,#844] ; [0x23dc] = 0x2000025c
        0x00002090:    8800        ..      LDRH     r0,[r0,#0]
        0x00002092:    b960        `.      CBNZ     r0,0x20ae ; interlock + 282
        0x00002094:    e7ff        ..      B        0x2096 ; interlock + 258
        0x00002096:    49cc        .I      LDR      r1,[pc,#816] ; [0x23c8] = 0x200002a8
        0x00002098:    7808        .x      LDRB     r0,[r1,#0]
        0x0000209a:    22cf        ."      MOVS     r2,#0xcf
        0x0000209c:    4010        .@      ANDS     r0,r0,r2
        0x0000209e:    3010        .0      ADDS     r0,r0,#0x10
        0x000020a0:    7008        .p      STRB     r0,[r1,#0]
        0x000020a2:    7808        .x      LDRB     r0,[r1,#0]
        0x000020a4:    223f        ?"      MOVS     r2,#0x3f
        0x000020a6:    4010        .@      ANDS     r0,r0,r2
        0x000020a8:    3080        .0      ADDS     r0,r0,#0x80
        0x000020aa:    7008        .p      STRB     r0,[r1,#0]
        0x000020ac:    e000        ..      B        0x20b0 ; interlock + 284
        0x000020ae:    e7ff        ..      B        0x20b0 ; interlock + 284
        0x000020b0:    e7ff        ..      B        0x20b2 ; interlock + 286
        0x000020b2:    48ce        .H      LDR      r0,[pc,#824] ; [0x23ec] = 0x20000030
        0x000020b4:    7800        .x      LDRB     r0,[r0,#0]
        0x000020b6:    2802        .(      CMP      r0,#2
        0x000020b8:    d005        ..      BEQ      0x20c6 ; interlock + 306
        0x000020ba:    e7ff        ..      B        0x20bc ; interlock + 296
        0x000020bc:    48cc        .H      LDR      r0,[pc,#816] ; [0x23f0] = 0x20000031
        0x000020be:    7800        .x      LDRB     r0,[r0,#0]
        0x000020c0:    2802        .(      CMP      r0,#2
        0x000020c2:    d107        ..      BNE      0x20d4 ; interlock + 320
        0x000020c4:    e7ff        ..      B        0x20c6 ; interlock + 306
        0x000020c6:    49c0        .I      LDR      r1,[pc,#768] ; [0x23c8] = 0x200002a8
        0x000020c8:    7848        Hx      LDRB     r0,[r1,#1]
        0x000020ca:    22fc        ."      MOVS     r2,#0xfc
        0x000020cc:    4010        .@      ANDS     r0,r0,r2
        0x000020ce:    1c80        ..      ADDS     r0,r0,#2
        0x000020d0:    7048        Hp      STRB     r0,[r1,#1]
        0x000020d2:    e006        ..      B        0x20e2 ; interlock + 334
        0x000020d4:    49bc        .I      LDR      r1,[pc,#752] ; [0x23c8] = 0x200002a8
        0x000020d6:    7848        Hx      LDRB     r0,[r1,#1]
        0x000020d8:    22fc        ."      MOVS     r2,#0xfc
        0x000020da:    4010        .@      ANDS     r0,r0,r2
        0x000020dc:    1c40        @.      ADDS     r0,r0,#1
        0x000020de:    7048        Hp      STRB     r0,[r1,#1]
        0x000020e0:    e7ff        ..      B        0x20e2 ; interlock + 334
        0x000020e2:    48ba        .H      LDR      r0,[pc,#744] ; [0x23cc] = 0x20000164
        0x000020e4:    7801        .x      LDRB     r1,[r0,#0]
        0x000020e6:    0749        I.      LSLS     r1,r1,#29
        0x000020e8:    0fcb        ..      LSRS     r3,r1,#31
        0x000020ea:    4259        YB      RSBS     r1,r3,#0
        0x000020ec:    414b        KA      ADCS     r3,r3,r1
        0x000020ee:    9a0f        ..      LDR      r2,[sp,#0x3c]
        0x000020f0:    7891        .x      LDRB     r1,[r2,#2]
        0x000020f2:    24fe        .$      MOVS     r4,#0xfe
        0x000020f4:    4021        !@      ANDS     r1,r1,r4
        0x000020f6:    18c9        ..      ADDS     r1,r1,r3
        0x000020f8:    7091        .p      STRB     r1,[r2,#2]
        0x000020fa:    7801        .x      LDRB     r1,[r0,#0]
        0x000020fc:    0709        ..      LSLS     r1,r1,#28
        0x000020fe:    0fcb        ..      LSRS     r3,r1,#31
        0x00002100:    4259        YB      RSBS     r1,r3,#0
        0x00002102:    414b        KA      ADCS     r3,r3,r1
        0x00002104:    9a0f        ..      LDR      r2,[sp,#0x3c]
        0x00002106:    7891        .x      LDRB     r1,[r2,#2]
        0x00002108:    015b        [.      LSLS     r3,r3,#5
        0x0000210a:    24df        .$      MOVS     r4,#0xdf
        0x0000210c:    4021        !@      ANDS     r1,r1,r4
        0x0000210e:    18c9        ..      ADDS     r1,r1,r3
        0x00002110:    7091        .p      STRB     r1,[r2,#2]
        0x00002112:    7800        .x      LDRB     r0,[r0,#0]
        0x00002114:    0640        @.      LSLS     r0,r0,#25
        0x00002116:    0fc0        ..      LSRS     r0,r0,#31
        0x00002118:    b930        0.      CBNZ     r0,0x2128 ; interlock + 404
        0x0000211a:    e7ff        ..      B        0x211c ; interlock + 392
        0x0000211c:    48ab        .H      LDR      r0,[pc,#684] ; [0x23cc] = 0x20000164
        0x0000211e:    7800        .x      LDRB     r0,[r0,#0]
        0x00002120:    09c0        ..      LSRS     r0,r0,#7
        0x00002122:    2801        .(      CMP      r0,#1
        0x00002124:    d007        ..      BEQ      0x2136 ; interlock + 418
        0x00002126:    e7ff        ..      B        0x2128 ; interlock + 404
        0x00002128:    48a8        .H      LDR      r0,[pc,#672] ; [0x23cc] = 0x20000164
        0x0000212a:    7840        @x      LDRB     r0,[r0,#1]
        0x0000212c:    0740        @.      LSLS     r0,r0,#29
        0x0000212e:    0f80        ..      LSRS     r0,r0,#30
        0x00002130:    2803        .(      CMP      r0,#3
        0x00002132:    d000        ..      BEQ      0x2136 ; interlock + 418
        0x00002134:    e0e8        ..      B        0x2308 ; interlock + 884
        0x00002136:    9910        ..      LDR      r1,[sp,#0x40]
        0x00002138:    7808        .x      LDRB     r0,[r1,#0]
        0x0000213a:    22fc        ."      MOVS     r2,#0xfc
        0x0000213c:    4010        .@      ANDS     r0,r0,r2
        0x0000213e:    1c40        @.      ADDS     r0,r0,#1
        0x00002140:    7008        .p      STRB     r0,[r1,#0]
        0x00002142:    9910        ..      LDR      r1,[sp,#0x40]
        0x00002144:    7808        .x      LDRB     r0,[r1,#0]
        0x00002146:    23f3        .#      MOVS     r3,#0xf3
        0x00002148:    4018        .@      ANDS     r0,r0,r3
        0x0000214a:    3008        .0      ADDS     r0,r0,#8
        0x0000214c:    7008        .p      STRB     r0,[r1,#0]
        0x0000214e:    9910        ..      LDR      r1,[sp,#0x40]
        0x00002150:    7808        .x      LDRB     r0,[r1,#0]
        0x00002152:    24cf        .$      MOVS     r4,#0xcf
        0x00002154:    4020         @      ANDS     r0,r0,r4
        0x00002156:    3010        .0      ADDS     r0,r0,#0x10
        0x00002158:    7008        .p      STRB     r0,[r1,#0]
        0x0000215a:    9910        ..      LDR      r1,[sp,#0x40]
        0x0000215c:    7808        .x      LDRB     r0,[r1,#0]
        0x0000215e:    233f        ?#      MOVS     r3,#0x3f
        0x00002160:    4018        .@      ANDS     r0,r0,r3
        0x00002162:    3080        .0      ADDS     r0,r0,#0x80
        0x00002164:    7008        .p      STRB     r0,[r1,#0]
        0x00002166:    9910        ..      LDR      r1,[sp,#0x40]
        0x00002168:    7848        Hx      LDRB     r0,[r1,#1]
        0x0000216a:    4010        .@      ANDS     r0,r0,r2
        0x0000216c:    1c40        @.      ADDS     r0,r0,#1
        0x0000216e:    7048        Hp      STRB     r0,[r1,#1]
        0x00002170:    990f        ..      LDR      r1,[sp,#0x3c]
        0x00002172:    7808        .x      LDRB     r0,[r1,#0]
        0x00002174:    27fe        .'      MOVS     r7,#0xfe
        0x00002176:    970d        ..      STR      r7,[sp,#0x34]
        0x00002178:    4038        8@      ANDS     r0,r0,r7
        0x0000217a:    7008        .p      STRB     r0,[r1,#0]
        0x0000217c:    990f        ..      LDR      r1,[sp,#0x3c]
        0x0000217e:    7808        .x      LDRB     r0,[r1,#0]
        0x00002180:    2202        ."      MOVS     r2,#2
        0x00002182:    4310        .C      ORRS     r0,r0,r2
        0x00002184:    7008        .p      STRB     r0,[r1,#0]
        0x00002186:    990f        ..      LDR      r1,[sp,#0x3c]
        0x00002188:    7808        .x      LDRB     r0,[r1,#0]
        0x0000218a:    26fb        .&      MOVS     r6,#0xfb
        0x0000218c:    4030        0@      ANDS     r0,r0,r6
        0x0000218e:    7008        .p      STRB     r0,[r1,#0]
        0x00002190:    990f        ..      LDR      r1,[sp,#0x3c]
        0x00002192:    7808        .x      LDRB     r0,[r1,#0]
        0x00002194:    25f7        .%      MOVS     r5,#0xf7
        0x00002196:    4028        (@      ANDS     r0,r0,r5
        0x00002198:    7008        .p      STRB     r0,[r1,#0]
        0x0000219a:    990f        ..      LDR      r1,[sp,#0x3c]
        0x0000219c:    7808        .x      LDRB     r0,[r1,#0]
        0x0000219e:    22ef        ."      MOVS     r2,#0xef
        0x000021a0:    9207        ..      STR      r2,[sp,#0x1c]
        0x000021a2:    4010        .@      ANDS     r0,r0,r2
        0x000021a4:    7008        .p      STRB     r0,[r1,#0]
        0x000021a6:    990f        ..      LDR      r1,[sp,#0x3c]
        0x000021a8:    7808        .x      LDRB     r0,[r1,#0]
        0x000021aa:    2220         "      MOVS     r2,#0x20
        0x000021ac:    4310        .C      ORRS     r0,r0,r2
        0x000021ae:    7008        .p      STRB     r0,[r1,#0]
        0x000021b0:    990f        ..      LDR      r1,[sp,#0x3c]
        0x000021b2:    7808        .x      LDRB     r0,[r1,#0]
        0x000021b4:    22bf        ."      MOVS     r2,#0xbf
        0x000021b6:    920b        ..      STR      r2,[sp,#0x2c]
        0x000021b8:    4010        .@      ANDS     r0,r0,r2
        0x000021ba:    7008        .p      STRB     r0,[r1,#0]
        0x000021bc:    990f        ..      LDR      r1,[sp,#0x3c]
        0x000021be:    7808        .x      LDRB     r0,[r1,#0]
        0x000021c0:    227f        ."      MOVS     r2,#0x7f
        0x000021c2:    4010        .@      ANDS     r0,r0,r2
        0x000021c4:    7008        .p      STRB     r0,[r1,#0]
        0x000021c6:    990f        ..      LDR      r1,[sp,#0x3c]
        0x000021c8:    7848        Hx      LDRB     r0,[r1,#1]
        0x000021ca:    4038        8@      ANDS     r0,r0,r7
        0x000021cc:    7048        Hp      STRB     r0,[r1,#1]
        0x000021ce:    990f        ..      LDR      r1,[sp,#0x3c]
        0x000021d0:    7848        Hx      LDRB     r0,[r1,#1]
        0x000021d2:    27fd        .'      MOVS     r7,#0xfd
        0x000021d4:    4038        8@      ANDS     r0,r0,r7
        0x000021d6:    7048        Hp      STRB     r0,[r1,#1]
        0x000021d8:    990f        ..      LDR      r1,[sp,#0x3c]
        0x000021da:    7848        Hx      LDRB     r0,[r1,#1]
        0x000021dc:    4030        0@      ANDS     r0,r0,r6
        0x000021de:    7048        Hp      STRB     r0,[r1,#1]
        0x000021e0:    990f        ..      LDR      r1,[sp,#0x3c]
        0x000021e2:    7848        Hx      LDRB     r0,[r1,#1]
        0x000021e4:    4028        (@      ANDS     r0,r0,r5
        0x000021e6:    7048        Hp      STRB     r0,[r1,#1]
        0x000021e8:    9907        ..      LDR      r1,[sp,#0x1c]
        0x000021ea:    980f        ..      LDR      r0,[sp,#0x3c]
        0x000021ec:    9000        ..      STR      r0,[sp,#0]
        0x000021ee:    7840        @x      LDRB     r0,[r0,#1]
        0x000021f0:    4008        .@      ANDS     r0,r0,r1
        0x000021f2:    9900        ..      LDR      r1,[sp,#0]
        0x000021f4:    7048        Hp      STRB     r0,[r1,#1]
        0x000021f6:    980f        ..      LDR      r0,[sp,#0x3c]
        0x000021f8:    9001        ..      STR      r0,[sp,#4]
        0x000021fa:    7840        @x      LDRB     r0,[r0,#1]
        0x000021fc:    21df        .!      MOVS     r1,#0xdf
        0x000021fe:    9109        ..      STR      r1,[sp,#0x24]
        0x00002200:    4008        .@      ANDS     r0,r0,r1
        0x00002202:    9901        ..      LDR      r1,[sp,#4]
        0x00002204:    7048        Hp      STRB     r0,[r1,#1]
        0x00002206:    990b        ..      LDR      r1,[sp,#0x2c]
        0x00002208:    980f        ..      LDR      r0,[sp,#0x3c]
        0x0000220a:    9002        ..      STR      r0,[sp,#8]
        0x0000220c:    7840        @x      LDRB     r0,[r0,#1]
        0x0000220e:    4008        .@      ANDS     r0,r0,r1
        0x00002210:    9902        ..      LDR      r1,[sp,#8]
        0x00002212:    7048        Hp      STRB     r0,[r1,#1]
        0x00002214:    990f        ..      LDR      r1,[sp,#0x3c]
        0x00002216:    7848        Hx      LDRB     r0,[r1,#1]
        0x00002218:    4010        .@      ANDS     r0,r0,r2
        0x0000221a:    7048        Hp      STRB     r0,[r1,#1]
        0x0000221c:    990d        ..      LDR      r1,[sp,#0x34]
        0x0000221e:    980f        ..      LDR      r0,[sp,#0x3c]
        0x00002220:    9003        ..      STR      r0,[sp,#0xc]
        0x00002222:    7880        .x      LDRB     r0,[r0,#2]
        0x00002224:    4008        .@      ANDS     r0,r0,r1
        0x00002226:    9903        ..      LDR      r1,[sp,#0xc]
        0x00002228:    7088        .p      STRB     r0,[r1,#2]
        0x0000222a:    990f        ..      LDR      r1,[sp,#0x3c]
        0x0000222c:    7888        .x      LDRB     r0,[r1,#2]
        0x0000222e:    4038        8@      ANDS     r0,r0,r7
        0x00002230:    7088        .p      STRB     r0,[r1,#2]
        0x00002232:    990f        ..      LDR      r1,[sp,#0x3c]
        0x00002234:    7888        .x      LDRB     r0,[r1,#2]
        0x00002236:    4030        0@      ANDS     r0,r0,r6
        0x00002238:    7088        .p      STRB     r0,[r1,#2]
        0x0000223a:    990f        ..      LDR      r1,[sp,#0x3c]
        0x0000223c:    7888        .x      LDRB     r0,[r1,#2]
        0x0000223e:    4028        (@      ANDS     r0,r0,r5
        0x00002240:    7088        .p      STRB     r0,[r1,#2]
        0x00002242:    9907        ..      LDR      r1,[sp,#0x1c]
        0x00002244:    980f        ..      LDR      r0,[sp,#0x3c]
        0x00002246:    9004        ..      STR      r0,[sp,#0x10]
        0x00002248:    7880        .x      LDRB     r0,[r0,#2]
        0x0000224a:    4008        .@      ANDS     r0,r0,r1
        0x0000224c:    9904        ..      LDR      r1,[sp,#0x10]
        0x0000224e:    7088        .p      STRB     r0,[r1,#2]
        0x00002250:    9909        ..      LDR      r1,[sp,#0x24]
        0x00002252:    980f        ..      LDR      r0,[sp,#0x3c]
        0x00002254:    9005        ..      STR      r0,[sp,#0x14]
        0x00002256:    7880        .x      LDRB     r0,[r0,#2]
        0x00002258:    4008        .@      ANDS     r0,r0,r1
        0x0000225a:    9905        ..      LDR      r1,[sp,#0x14]
        0x0000225c:    7088        .p      STRB     r0,[r1,#2]
        0x0000225e:    990b        ..      LDR      r1,[sp,#0x2c]
        0x00002260:    980f        ..      LDR      r0,[sp,#0x3c]
        0x00002262:    9006        ..      STR      r0,[sp,#0x18]
        0x00002264:    7880        .x      LDRB     r0,[r0,#2]
        0x00002266:    4008        .@      ANDS     r0,r0,r1
        0x00002268:    9906        ..      LDR      r1,[sp,#0x18]
        0x0000226a:    7088        .p      STRB     r0,[r1,#2]
        0x0000226c:    990f        ..      LDR      r1,[sp,#0x3c]
        0x0000226e:    78c8        .x      LDRB     r0,[r1,#3]
        0x00002270:    4038        8@      ANDS     r0,r0,r7
        0x00002272:    70c8        .p      STRB     r0,[r1,#3]
        0x00002274:    990f        ..      LDR      r1,[sp,#0x3c]
        0x00002276:    78c8        .x      LDRB     r0,[r1,#3]
        0x00002278:    4030        0@      ANDS     r0,r0,r6
        0x0000227a:    70c8        .p      STRB     r0,[r1,#3]
        0x0000227c:    990f        ..      LDR      r1,[sp,#0x3c]
        0x0000227e:    78c8        .x      LDRB     r0,[r1,#3]
        0x00002280:    4028        (@      ANDS     r0,r0,r5
        0x00002282:    70c8        .p      STRB     r0,[r1,#3]
        0x00002284:    9907        ..      LDR      r1,[sp,#0x1c]
        0x00002286:    980f        ..      LDR      r0,[sp,#0x3c]
        0x00002288:    9008        ..      STR      r0,[sp,#0x20]
        0x0000228a:    78c0        .x      LDRB     r0,[r0,#3]
        0x0000228c:    4008        .@      ANDS     r0,r0,r1
        0x0000228e:    9908        ..      LDR      r1,[sp,#0x20]
        0x00002290:    70c8        .p      STRB     r0,[r1,#3]
        0x00002292:    9909        ..      LDR      r1,[sp,#0x24]
        0x00002294:    980f        ..      LDR      r0,[sp,#0x3c]
        0x00002296:    900a        ..      STR      r0,[sp,#0x28]
        0x00002298:    78c0        .x      LDRB     r0,[r0,#3]
        0x0000229a:    4008        .@      ANDS     r0,r0,r1
        0x0000229c:    990a        ..      LDR      r1,[sp,#0x28]
        0x0000229e:    70c8        .p      STRB     r0,[r1,#3]
        0x000022a0:    990b        ..      LDR      r1,[sp,#0x2c]
        0x000022a2:    980f        ..      LDR      r0,[sp,#0x3c]
        0x000022a4:    900c        ..      STR      r0,[sp,#0x30]
        0x000022a6:    78c0        .x      LDRB     r0,[r0,#3]
        0x000022a8:    4008        .@      ANDS     r0,r0,r1
        0x000022aa:    990c        ..      LDR      r1,[sp,#0x30]
        0x000022ac:    70c8        .p      STRB     r0,[r1,#3]
        0x000022ae:    990f        ..      LDR      r1,[sp,#0x3c]
        0x000022b0:    78c8        .x      LDRB     r0,[r1,#3]
        0x000022b2:    4010        .@      ANDS     r0,r0,r2
        0x000022b4:    70c8        .p      STRB     r0,[r1,#3]
        0x000022b6:    990d        ..      LDR      r1,[sp,#0x34]
        0x000022b8:    980f        ..      LDR      r0,[sp,#0x3c]
        0x000022ba:    900e        ..      STR      r0,[sp,#0x38]
        0x000022bc:    7900        .y      LDRB     r0,[r0,#4]
        0x000022be:    4008        .@      ANDS     r0,r0,r1
        0x000022c0:    990e        ..      LDR      r1,[sp,#0x38]
        0x000022c2:    7108        .q      STRB     r0,[r1,#4]
        0x000022c4:    990f        ..      LDR      r1,[sp,#0x3c]
        0x000022c6:    7908        .y      LDRB     r0,[r1,#4]
        0x000022c8:    4038        8@      ANDS     r0,r0,r7
        0x000022ca:    7108        .q      STRB     r0,[r1,#4]
        0x000022cc:    990f        ..      LDR      r1,[sp,#0x3c]
        0x000022ce:    7908        .y      LDRB     r0,[r1,#4]
        0x000022d0:    4030        0@      ANDS     r0,r0,r6
        0x000022d2:    7108        .q      STRB     r0,[r1,#4]
        0x000022d4:    990f        ..      LDR      r1,[sp,#0x3c]
        0x000022d6:    7908        .y      LDRB     r0,[r1,#4]
        0x000022d8:    4028        (@      ANDS     r0,r0,r5
        0x000022da:    7108        .q      STRB     r0,[r1,#4]
        0x000022dc:    990f        ..      LDR      r1,[sp,#0x3c]
        0x000022de:    7908        .y      LDRB     r0,[r1,#4]
        0x000022e0:    4020         @      ANDS     r0,r0,r4
        0x000022e2:    7108        .q      STRB     r0,[r1,#4]
        0x000022e4:    990f        ..      LDR      r1,[sp,#0x3c]
        0x000022e6:    7908        .y      LDRB     r0,[r1,#4]
        0x000022e8:    4018        .@      ANDS     r0,r0,r3
        0x000022ea:    7108        .q      STRB     r0,[r1,#4]
        0x000022ec:    990f        ..      LDR      r1,[sp,#0x3c]
        0x000022ee:    78c8        .x      LDRB     r0,[r1,#3]
        0x000022f0:    2301        .#      MOVS     r3,#1
        0x000022f2:    4318        .C      ORRS     r0,r0,r3
        0x000022f4:    70c8        .p      STRB     r0,[r1,#3]
        0x000022f6:    990f        ..      LDR      r1,[sp,#0x3c]
        0x000022f8:    7888        .x      LDRB     r0,[r1,#2]
        0x000022fa:    4010        .@      ANDS     r0,r0,r2
        0x000022fc:    7088        .p      STRB     r0,[r1,#2]
        0x000022fe:    493d        =I      LDR      r1,[pc,#244] ; [0x23f4] = 0x20000268
        0x00002300:    f24070d0    @..p    MOVW     r0,#0x7d0
        0x00002304:    8008        ..      STRH     r0,[r1,#0]
        0x00002306:    e05d        ].      B        0x23c4 ; 0x23c4
        0x00002308:    4830        0H      LDR      r0,[pc,#192] ; [0x23cc] = 0x20000164
        0x0000230a:    7800        .x      LDRB     r0,[r0,#0]
        0x0000230c:    0640        @.      LSLS     r0,r0,#25
        0x0000230e:    0fc0        ..      LSRS     r0,r0,#31
        0x00002310:    b338        8.      CBZ      r0,0x2362 ; interlock + 974
        0x00002312:    e7ff        ..      B        0x2314 ; interlock + 896
        0x00002314:    482d        -H      LDR      r0,[pc,#180] ; [0x23cc] = 0x20000164
        0x00002316:    7800        .x      LDRB     r0,[r0,#0]
        0x00002318:    09c0        ..      LSRS     r0,r0,#7
        0x0000231a:    2801        .(      CMP      r0,#1
        0x0000231c:    d121        !.      BNE      0x2362 ; interlock + 974
        0x0000231e:    e7ff        ..      B        0x2320 ; interlock + 908
        0x00002320:    990f        ..      LDR      r1,[sp,#0x3c]
        0x00002322:    7888        .x      LDRB     r0,[r1,#2]
        0x00002324:    2280        ."      MOVS     r2,#0x80
        0x00002326:    4310        .C      ORRS     r0,r0,r2
        0x00002328:    7088        .p      STRB     r0,[r1,#2]
        0x0000232a:    4832        2H      LDR      r0,[pc,#200] ; [0x23f4] = 0x20000268
        0x0000232c:    8800        ..      LDRH     r0,[r0,#0]
        0x0000232e:    b950        P.      CBNZ     r0,0x2346 ; interlock + 946
        0x00002330:    e7ff        ..      B        0x2332 ; interlock + 926
        0x00002332:    4930        0I      LDR      r1,[pc,#192] ; [0x23f4] = 0x20000268
        0x00002334:    f24070d0    @..p    MOVW     r0,#0x7d0
        0x00002338:    8008        ..      STRH     r0,[r1,#0]
        0x0000233a:    990f        ..      LDR      r1,[sp,#0x3c]
        0x0000233c:    78c8        .x      LDRB     r0,[r1,#3]
        0x0000233e:    22fe        ."      MOVS     r2,#0xfe
        0x00002340:    4010        .@      ANDS     r0,r0,r2
        0x00002342:    70c8        .p      STRB     r0,[r1,#3]
        0x00002344:    e00c        ..      B        0x2360 ; interlock + 972
        0x00002346:    482b        +H      LDR      r0,[pc,#172] ; [0x23f4] = 0x20000268
        0x00002348:    8800        ..      LDRH     r0,[r0,#0]
        0x0000234a:    08c0        ..      LSRS     r0,r0,#3
        0x0000234c:    287c        |(      CMP      r0,#0x7c
        0x0000234e:    d806        ..      BHI      0x235e ; interlock + 970
        0x00002350:    e7ff        ..      B        0x2352 ; interlock + 958
        0x00002352:    990f        ..      LDR      r1,[sp,#0x3c]
        0x00002354:    78c8        .x      LDRB     r0,[r1,#3]
        0x00002356:    2201        ."      MOVS     r2,#1
        0x00002358:    4310        .C      ORRS     r0,r0,r2
        0x0000235a:    70c8        .p      STRB     r0,[r1,#3]
        0x0000235c:    e7ff        ..      B        0x235e ; interlock + 970
        0x0000235e:    e7ff        ..      B        0x2360 ; interlock + 972
        0x00002360:    e02f        /.      B        0x23c2 ; 0x23c2
        0x00002362:    481a        .H      LDR      r0,[pc,#104] ; [0x23cc] = 0x20000164
        0x00002364:    7800        .x      LDRB     r0,[r0,#0]
        0x00002366:    0640        @.      LSLS     r0,r0,#25
        0x00002368:    0fc0        ..      LSRS     r0,r0,#31
        0x0000236a:    b1d0        ..      CBZ      r0,0x23a2 ; 0x23a2
        0x0000236c:    e7ff        ..      B        0x236e ; interlock + 986
        0x0000236e:    4817        .H      LDR      r0,[pc,#92] ; [0x23cc] = 0x20000164
        0x00002370:    7800        .x      LDRB     r0,[r0,#0]
        0x00002372:    09c0        ..      LSRS     r0,r0,#7
        0x00002374:    b9a8        ..      CBNZ     r0,0x23a2 ; 0x23a2
        0x00002376:    e005        ..      B        0x2384 ; 0x2384
    $d
        0x00002378:    200002a8    ...     DCD    536871592
    __arm_cp.0_14
        0x0000237c:    2000028e    ...     DCD    536871566
        0x00002380:    20000164    d..     DCD    536871268
    $t
        0x00002384:    491b        .I      LDR      r1,[pc,#108] ; [0x23f4] = 0x20000268
        0x00002386:    f24070d0    @..p    MOVW     r0,#0x7d0
        0x0000238a:    8008        ..      STRH     r0,[r1,#0]
        0x0000238c:    990f        ..      LDR      r1,[sp,#0x3c]
        0x0000238e:    7888        .x      LDRB     r0,[r1,#2]
        0x00002390:    2280        ."      MOVS     r2,#0x80
        0x00002392:    4310        .C      ORRS     r0,r0,r2
        0x00002394:    7088        .p      STRB     r0,[r1,#2]
        0x00002396:    990f        ..      LDR      r1,[sp,#0x3c]
        0x00002398:    78c8        .x      LDRB     r0,[r1,#3]
        0x0000239a:    22fe        ."      MOVS     r2,#0xfe
        0x0000239c:    4010        .@      ANDS     r0,r0,r2
        0x0000239e:    70c8        .p      STRB     r0,[r1,#3]
        0x000023a0:    e00e        ..      B        0x23c0 ; 0x23c0
        0x000023a2:    4914        .I      LDR      r1,[pc,#80] ; [0x23f4] = 0x20000268
        0x000023a4:    f24070d0    @..p    MOVW     r0,#0x7d0
        0x000023a8:    8008        ..      STRH     r0,[r1,#0]
        0x000023aa:    990f        ..      LDR      r1,[sp,#0x3c]
        0x000023ac:    7888        .x      LDRB     r0,[r1,#2]
        0x000023ae:    227f        ."      MOVS     r2,#0x7f
        0x000023b0:    4010        .@      ANDS     r0,r0,r2
        0x000023b2:    7088        .p      STRB     r0,[r1,#2]
        0x000023b4:    990f        ..      LDR      r1,[sp,#0x3c]
        0x000023b6:    78c8        .x      LDRB     r0,[r1,#3]
        0x000023b8:    2201        ."      MOVS     r2,#1
        0x000023ba:    4310        .C      ORRS     r0,r0,r2
        0x000023bc:    70c8        .p      STRB     r0,[r1,#3]
        0x000023be:    e7ff        ..      B        0x23c0 ; 0x23c0
        0x000023c0:    e7ff        ..      B        0x23c2 ; 0x23c2
        0x000023c2:    e7ff        ..      B        0x23c4 ; 0x23c4
        0x000023c4:    b011        ..      ADD      sp,sp,#0x44
        0x000023c6:    bdf0        ..      POP      {r4-r7,pc}
    $d
    __arm_cp.0_0
        0x000023c8:    200002a8    ...     DCD    536871592
    __arm_cp.0_2
        0x000023cc:    20000164    d..     DCD    536871268
    __arm_cp.0_3
        0x000023d0:    20000035    5..     DCD    536870965
    __arm_cp.0_4
        0x000023d4:    20000036    6..     DCD    536870966
    __arm_cp.0_5
        0x000023d8:    20000037    7..     DCD    536870967
    __arm_cp.0_6
        0x000023dc:    2000025c    \..     DCD    536871516
    __arm_cp.0_7
        0x000023e0:    20000032    2..     DCD    536870962
    __arm_cp.0_8
        0x000023e4:    20000033    3..     DCD    536870963
    __arm_cp.0_9
        0x000023e8:    20000034    4..     DCD    536870964
    __arm_cp.0_10
        0x000023ec:    20000030    0..     DCD    536870960
    __arm_cp.0_11
        0x000023f0:    20000031    1..     DCD    536870961
    __arm_cp.0_12
        0x000023f4:    20000268    h..     DCD    536871528
    $t
    interlock_Buzzer_SM
        0x000023f8:    b083        ..      SUB      sp,sp,#0xc
        0x000023fa:    48e6        .H      LDR      r0,[pc,#920] ; [0x2794] = 0x2000028e
        0x000023fc:    9002        ..      STR      r0,[sp,#8]
        0x000023fe:    48e8        .H      LDR      r0,[pc,#928] ; [0x27a0] = 0x2000029f
        0x00002400:    9001        ..      STR      r0,[sp,#4]
        0x00002402:    9801        ..      LDR      r0,[sp,#4]
        0x00002404:    78c0        .x      LDRB     r0,[r0,#3]
        0x00002406:    2103        .!      MOVS     r1,#3
        0x00002408:    4008        .@      ANDS     r0,r0,r1
        0x0000240a:    2802        .(      CMP      r0,#2
        0x0000240c:    d10f        ..      BNE      0x242e ; interlock_Buzzer_SM + 54
        0x0000240e:    e7ff        ..      B        0x2410 ; interlock_Buzzer_SM + 24
        0x00002410:    48e4        .H      LDR      r0,[pc,#912] ; [0x27a4] = 0x2000025e
        0x00002412:    8800        ..      LDRH     r0,[r0,#0]
        0x00002414:    b958        X.      CBNZ     r0,0x242e ; interlock_Buzzer_SM + 54
        0x00002416:    e7ff        ..      B        0x2418 ; interlock_Buzzer_SM + 32
        0x00002418:    9902        ..      LDR      r1,[sp,#8]
        0x0000241a:    7888        .x      LDRB     r0,[r1,#2]
        0x0000241c:    22f7        ."      MOVS     r2,#0xf7
        0x0000241e:    4010        .@      ANDS     r0,r0,r2
        0x00002420:    7088        .p      STRB     r0,[r1,#2]
        0x00002422:    9902        ..      LDR      r1,[sp,#8]
        0x00002424:    78c8        .x      LDRB     r0,[r1,#3]
        0x00002426:    22bf        ."      MOVS     r2,#0xbf
        0x00002428:    4010        .@      ANDS     r0,r0,r2
        0x0000242a:    70c8        .p      STRB     r0,[r1,#3]
        0x0000242c:    e000        ..      B        0x2430 ; interlock_Buzzer_SM + 56
        0x0000242e:    e7ff        ..      B        0x2430 ; interlock_Buzzer_SM + 56
        0x00002430:    4834        4H      LDR      r0,[pc,#208] ; [0x2504] = 0x2000026f
        0x00002432:    7800        .x      LDRB     r0,[r0,#0]
        0x00002434:    9000        ..      STR      r0,[sp,#0]
        0x00002436:    b140        @.      CBZ      r0,0x244a ; interlock_Buzzer_SM + 82
        0x00002438:    e7ff        ..      B        0x243a ; interlock_Buzzer_SM + 66
        0x0000243a:    9800        ..      LDR      r0,[sp,#0]
        0x0000243c:    2801        .(      CMP      r0,#1
        0x0000243e:    d027        '.      BEQ      0x2490 ; interlock_Buzzer_SM + 152
        0x00002440:    e7ff        ..      B        0x2442 ; interlock_Buzzer_SM + 74
        0x00002442:    9800        ..      LDR      r0,[sp,#0]
        0x00002444:    2802        .(      CMP      r0,#2
        0x00002446:    d03e        >.      BEQ      0x24c6 ; interlock_Buzzer_SM + 206
        0x00002448:    e058        X.      B        0x24fc ; interlock_Buzzer_SM + 260
        0x0000244a:    9801        ..      LDR      r0,[sp,#4]
        0x0000244c:    7800        .x      LDRB     r0,[r0,#0]
        0x0000244e:    2103        .!      MOVS     r1,#3
        0x00002450:    4008        .@      ANDS     r0,r0,r1
        0x00002452:    2801        .(      CMP      r0,#1
        0x00002454:    d104        ..      BNE      0x2460 ; interlock_Buzzer_SM + 104
        0x00002456:    e7ff        ..      B        0x2458 ; interlock_Buzzer_SM + 96
        0x00002458:    492a        *I      LDR      r1,[pc,#168] ; [0x2504] = 0x2000026f
        0x0000245a:    2002        .       MOVS     r0,#2
        0x0000245c:    7008        .p      STRB     r0,[r1,#0]
        0x0000245e:    e00c        ..      B        0x247a ; interlock_Buzzer_SM + 130
        0x00002460:    9801        ..      LDR      r0,[sp,#4]
        0x00002462:    7800        .x      LDRB     r0,[r0,#0]
        0x00002464:    2103        .!      MOVS     r1,#3
        0x00002466:    4008        .@      ANDS     r0,r0,r1
        0x00002468:    2802        .(      CMP      r0,#2
        0x0000246a:    d104        ..      BNE      0x2476 ; interlock_Buzzer_SM + 126
        0x0000246c:    e7ff        ..      B        0x246e ; interlock_Buzzer_SM + 118
        0x0000246e:    4925        %I      LDR      r1,[pc,#148] ; [0x2504] = 0x2000026f
        0x00002470:    2001        .       MOVS     r0,#1
        0x00002472:    7008        .p      STRB     r0,[r1,#0]
        0x00002474:    e000        ..      B        0x2478 ; interlock_Buzzer_SM + 128
        0x00002476:    e7ff        ..      B        0x2478 ; interlock_Buzzer_SM + 128
        0x00002478:    e7ff        ..      B        0x247a ; interlock_Buzzer_SM + 130
        0x0000247a:    9902        ..      LDR      r1,[sp,#8]
        0x0000247c:    7888        .x      LDRB     r0,[r1,#2]
        0x0000247e:    22f7        ."      MOVS     r2,#0xf7
        0x00002480:    4010        .@      ANDS     r0,r0,r2
        0x00002482:    7088        .p      STRB     r0,[r1,#2]
        0x00002484:    9902        ..      LDR      r1,[sp,#8]
        0x00002486:    78c8        .x      LDRB     r0,[r1,#3]
        0x00002488:    22bf        ."      MOVS     r2,#0xbf
        0x0000248a:    4010        .@      ANDS     r0,r0,r2
        0x0000248c:    70c8        .p      STRB     r0,[r1,#3]
        0x0000248e:    e036        6.      B        0x24fe ; interlock_Buzzer_SM + 262
        0x00002490:    9801        ..      LDR      r0,[sp,#4]
        0x00002492:    7800        .x      LDRB     r0,[r0,#0]
        0x00002494:    2103        .!      MOVS     r1,#3
        0x00002496:    4008        .@      ANDS     r0,r0,r1
        0x00002498:    2801        .(      CMP      r0,#1
        0x0000249a:    d112        ..      BNE      0x24c2 ; interlock_Buzzer_SM + 202
        0x0000249c:    e7ff        ..      B        0x249e ; interlock_Buzzer_SM + 166
        0x0000249e:    9902        ..      LDR      r1,[sp,#8]
        0x000024a0:    7888        .x      LDRB     r0,[r1,#2]
        0x000024a2:    2208        ."      MOVS     r2,#8
        0x000024a4:    4310        .C      ORRS     r0,r0,r2
        0x000024a6:    7088        .p      STRB     r0,[r1,#2]
        0x000024a8:    9902        ..      LDR      r1,[sp,#8]
        0x000024aa:    78c8        .x      LDRB     r0,[r1,#3]
        0x000024ac:    2240        @"      MOVS     r2,#0x40
        0x000024ae:    4310        .C      ORRS     r0,r0,r2
        0x000024b0:    70c8        .p      STRB     r0,[r1,#3]
        0x000024b2:    49bc        .I      LDR      r1,[pc,#752] ; [0x27a4] = 0x2000025e
        0x000024b4:    f24070d0    @..p    MOVW     r0,#0x7d0
        0x000024b8:    8008        ..      STRH     r0,[r1,#0]
        0x000024ba:    4912        .I      LDR      r1,[pc,#72] ; [0x2504] = 0x2000026f
        0x000024bc:    2002        .       MOVS     r0,#2
        0x000024be:    7008        .p      STRB     r0,[r1,#0]
        0x000024c0:    e000        ..      B        0x24c4 ; interlock_Buzzer_SM + 204
        0x000024c2:    e7ff        ..      B        0x24c4 ; interlock_Buzzer_SM + 204
        0x000024c4:    e01b        ..      B        0x24fe ; interlock_Buzzer_SM + 262
        0x000024c6:    9801        ..      LDR      r0,[sp,#4]
        0x000024c8:    7800        .x      LDRB     r0,[r0,#0]
        0x000024ca:    2103        .!      MOVS     r1,#3
        0x000024cc:    4008        .@      ANDS     r0,r0,r1
        0x000024ce:    2802        .(      CMP      r0,#2
        0x000024d0:    d112        ..      BNE      0x24f8 ; interlock_Buzzer_SM + 256
        0x000024d2:    e7ff        ..      B        0x24d4 ; interlock_Buzzer_SM + 220
        0x000024d4:    9902        ..      LDR      r1,[sp,#8]
        0x000024d6:    7888        .x      LDRB     r0,[r1,#2]
        0x000024d8:    2208        ."      MOVS     r2,#8
        0x000024da:    4310        .C      ORRS     r0,r0,r2
        0x000024dc:    7088        .p      STRB     r0,[r1,#2]
        0x000024de:    9902        ..      LDR      r1,[sp,#8]
        0x000024e0:    78c8        .x      LDRB     r0,[r1,#3]
        0x000024e2:    2240        @"      MOVS     r2,#0x40
        0x000024e4:    4310        .C      ORRS     r0,r0,r2
        0x000024e6:    70c8        .p      STRB     r0,[r1,#3]
        0x000024e8:    49ae        .I      LDR      r1,[pc,#696] ; [0x27a4] = 0x2000025e
        0x000024ea:    f24070d0    @..p    MOVW     r0,#0x7d0
        0x000024ee:    8008        ..      STRH     r0,[r1,#0]
        0x000024f0:    4904        .I      LDR      r1,[pc,#16] ; [0x2504] = 0x2000026f
        0x000024f2:    2001        .       MOVS     r0,#1
        0x000024f4:    7008        .p      STRB     r0,[r1,#0]
        0x000024f6:    e000        ..      B        0x24fa ; interlock_Buzzer_SM + 258
        0x000024f8:    e7ff        ..      B        0x24fa ; interlock_Buzzer_SM + 258
        0x000024fa:    e000        ..      B        0x24fe ; interlock_Buzzer_SM + 262
        0x000024fc:    e7ff        ..      B        0x24fe ; interlock_Buzzer_SM + 262
        0x000024fe:    b003        ..      ADD      sp,sp,#0xc
        0x00002500:    4770        pG      BX       lr
        0x00002502:    46c0        .F      MOV      r8,r8
    $d
    __arm_cp.3_3
        0x00002504:    2000026f    o..     DCD    536871535
    $t
    interlock_Buzzer_SM_TCF_DL
        0x00002508:    b510        ..      PUSH     {r4,lr}
        0x0000250a:    b087        ..      SUB      sp,sp,#0x1c
        0x0000250c:    48d4        .H      LDR      r0,[pc,#848] ; [0x2860] = 0x200002a8
        0x0000250e:    9006        ..      STR      r0,[sp,#0x18]
        0x00002510:    489f        .H      LDR      r0,[pc,#636] ; [0x2790] = 0x200002a4
        0x00002512:    9005        ..      STR      r0,[sp,#0x14]
        0x00002514:    489f        .H      LDR      r0,[pc,#636] ; [0x2794] = 0x2000028e
        0x00002516:    9004        ..      STR      r0,[sp,#0x10]
        0x00002518:    489f        .H      LDR      r0,[pc,#636] ; [0x2798] = 0x2000027c
        0x0000251a:    9003        ..      STR      r0,[sp,#0xc]
        0x0000251c:    489f        .H      LDR      r0,[pc,#636] ; [0x279c] = 0x20000288
        0x0000251e:    9002        ..      STR      r0,[sp,#8]
        0x00002520:    489f        .H      LDR      r0,[pc,#636] ; [0x27a0] = 0x2000029f
        0x00002522:    9001        ..      STR      r0,[sp,#4]
        0x00002524:    9801        ..      LDR      r0,[sp,#4]
        0x00002526:    7840        @x      LDRB     r0,[r0,#1]
        0x00002528:    0680        ..      LSLS     r0,r0,#26
        0x0000252a:    0f80        ..      LSRS     r0,r0,#30
        0x0000252c:    2802        .(      CMP      r0,#2
        0x0000252e:    d118        ..      BNE      0x2562 ; interlock_Buzzer_SM_TCF_DL + 90
        0x00002530:    e7ff        ..      B        0x2532 ; interlock_Buzzer_SM_TCF_DL + 42
        0x00002532:    4845        EH      LDR      r0,[pc,#276] ; [0x2648] = 0x20000260
        0x00002534:    8800        ..      LDRH     r0,[r0,#0]
        0x00002536:    b9a0        ..      CBNZ     r0,0x2562 ; interlock_Buzzer_SM_TCF_DL + 90
        0x00002538:    e7ff        ..      B        0x253a ; interlock_Buzzer_SM_TCF_DL + 50
        0x0000253a:    9904        ..      LDR      r1,[sp,#0x10]
        0x0000253c:    7848        Hx      LDRB     r0,[r1,#1]
        0x0000253e:    237f        .#      MOVS     r3,#0x7f
        0x00002540:    4018        .@      ANDS     r0,r0,r3
        0x00002542:    7048        Hp      STRB     r0,[r1,#1]
        0x00002544:    9904        ..      LDR      r1,[sp,#0x10]
        0x00002546:    7908        .y      LDRB     r0,[r1,#4]
        0x00002548:    22f7        ."      MOVS     r2,#0xf7
        0x0000254a:    4010        .@      ANDS     r0,r0,r2
        0x0000254c:    7108        .q      STRB     r0,[r1,#4]
        0x0000254e:    9904        ..      LDR      r1,[sp,#0x10]
        0x00002550:    790a        .y      LDRB     r2,[r1,#4]
        0x00002552:    7848        Hx      LDRB     r0,[r1,#1]
        0x00002554:    0112        ..      LSLS     r2,r2,#4
        0x00002556:    2480        .$      MOVS     r4,#0x80
        0x00002558:    4022        "@      ANDS     r2,r2,r4
        0x0000255a:    4018        .@      ANDS     r0,r0,r3
        0x0000255c:    1880        ..      ADDS     r0,r0,r2
        0x0000255e:    7048        Hp      STRB     r0,[r1,#1]
        0x00002560:    e000        ..      B        0x2564 ; interlock_Buzzer_SM_TCF_DL + 92
        0x00002562:    e7ff        ..      B        0x2564 ; interlock_Buzzer_SM_TCF_DL + 92
        0x00002564:    4839        9H      LDR      r0,[pc,#228] ; [0x264c] = 0x20000270
        0x00002566:    7800        .x      LDRB     r0,[r0,#0]
        0x00002568:    9000        ..      STR      r0,[sp,#0]
        0x0000256a:    b140        @.      CBZ      r0,0x257e ; interlock_Buzzer_SM_TCF_DL + 118
        0x0000256c:    e7ff        ..      B        0x256e ; interlock_Buzzer_SM_TCF_DL + 102
        0x0000256e:    9800        ..      LDR      r0,[sp,#0]
        0x00002570:    2801        .(      CMP      r0,#1
        0x00002572:    d030        0.      BEQ      0x25d6 ; interlock_Buzzer_SM_TCF_DL + 206
        0x00002574:    e7ff        ..      B        0x2576 ; interlock_Buzzer_SM_TCF_DL + 110
        0x00002576:    9800        ..      LDR      r0,[sp,#0]
        0x00002578:    2802        .(      CMP      r0,#2
        0x0000257a:    d047        G.      BEQ      0x260c ; interlock_Buzzer_SM_TCF_DL + 260
        0x0000257c:    e061        a.      B        0x2642 ; interlock_Buzzer_SM_TCF_DL + 314
        0x0000257e:    9801        ..      LDR      r0,[sp,#4]
        0x00002580:    7800        .x      LDRB     r0,[r0,#0]
        0x00002582:    2103        .!      MOVS     r1,#3
        0x00002584:    4008        .@      ANDS     r0,r0,r1
        0x00002586:    2801        .(      CMP      r0,#1
        0x00002588:    d104        ..      BNE      0x2594 ; interlock_Buzzer_SM_TCF_DL + 140
        0x0000258a:    e7ff        ..      B        0x258c ; interlock_Buzzer_SM_TCF_DL + 132
        0x0000258c:    492f        /I      LDR      r1,[pc,#188] ; [0x264c] = 0x20000270
        0x0000258e:    2002        .       MOVS     r0,#2
        0x00002590:    7008        .p      STRB     r0,[r1,#0]
        0x00002592:    e00c        ..      B        0x25ae ; interlock_Buzzer_SM_TCF_DL + 166
        0x00002594:    9801        ..      LDR      r0,[sp,#4]
        0x00002596:    7800        .x      LDRB     r0,[r0,#0]
        0x00002598:    2103        .!      MOVS     r1,#3
        0x0000259a:    4008        .@      ANDS     r0,r0,r1
        0x0000259c:    2802        .(      CMP      r0,#2
        0x0000259e:    d104        ..      BNE      0x25aa ; interlock_Buzzer_SM_TCF_DL + 162
        0x000025a0:    e7ff        ..      B        0x25a2 ; interlock_Buzzer_SM_TCF_DL + 154
        0x000025a2:    492a        *I      LDR      r1,[pc,#168] ; [0x264c] = 0x20000270
        0x000025a4:    2001        .       MOVS     r0,#1
        0x000025a6:    7008        .p      STRB     r0,[r1,#0]
        0x000025a8:    e000        ..      B        0x25ac ; interlock_Buzzer_SM_TCF_DL + 164
        0x000025aa:    e7ff        ..      B        0x25ac ; interlock_Buzzer_SM_TCF_DL + 164
        0x000025ac:    e7ff        ..      B        0x25ae ; interlock_Buzzer_SM_TCF_DL + 166
        0x000025ae:    9904        ..      LDR      r1,[sp,#0x10]
        0x000025b0:    7848        Hx      LDRB     r0,[r1,#1]
        0x000025b2:    237f        .#      MOVS     r3,#0x7f
        0x000025b4:    4018        .@      ANDS     r0,r0,r3
        0x000025b6:    7048        Hp      STRB     r0,[r1,#1]
        0x000025b8:    9904        ..      LDR      r1,[sp,#0x10]
        0x000025ba:    7908        .y      LDRB     r0,[r1,#4]
        0x000025bc:    22f7        ."      MOVS     r2,#0xf7
        0x000025be:    4010        .@      ANDS     r0,r0,r2
        0x000025c0:    7108        .q      STRB     r0,[r1,#4]
        0x000025c2:    9904        ..      LDR      r1,[sp,#0x10]
        0x000025c4:    790a        .y      LDRB     r2,[r1,#4]
        0x000025c6:    7848        Hx      LDRB     r0,[r1,#1]
        0x000025c8:    0112        ..      LSLS     r2,r2,#4
        0x000025ca:    2480        .$      MOVS     r4,#0x80
        0x000025cc:    4022        "@      ANDS     r2,r2,r4
        0x000025ce:    4018        .@      ANDS     r0,r0,r3
        0x000025d0:    1880        ..      ADDS     r0,r0,r2
        0x000025d2:    7048        Hp      STRB     r0,[r1,#1]
        0x000025d4:    e036        6.      B        0x2644 ; interlock_Buzzer_SM_TCF_DL + 316
        0x000025d6:    9801        ..      LDR      r0,[sp,#4]
        0x000025d8:    7800        .x      LDRB     r0,[r0,#0]
        0x000025da:    2103        .!      MOVS     r1,#3
        0x000025dc:    4008        .@      ANDS     r0,r0,r1
        0x000025de:    2801        .(      CMP      r0,#1
        0x000025e0:    d112        ..      BNE      0x2608 ; interlock_Buzzer_SM_TCF_DL + 256
        0x000025e2:    e7ff        ..      B        0x25e4 ; interlock_Buzzer_SM_TCF_DL + 220
        0x000025e4:    9904        ..      LDR      r1,[sp,#0x10]
        0x000025e6:    7848        Hx      LDRB     r0,[r1,#1]
        0x000025e8:    2280        ."      MOVS     r2,#0x80
        0x000025ea:    4310        .C      ORRS     r0,r0,r2
        0x000025ec:    7048        Hp      STRB     r0,[r1,#1]
        0x000025ee:    9904        ..      LDR      r1,[sp,#0x10]
        0x000025f0:    7908        .y      LDRB     r0,[r1,#4]
        0x000025f2:    2208        ."      MOVS     r2,#8
        0x000025f4:    4310        .C      ORRS     r0,r0,r2
        0x000025f6:    7108        .q      STRB     r0,[r1,#4]
        0x000025f8:    4913        .I      LDR      r1,[pc,#76] ; [0x2648] = 0x20000260
        0x000025fa:    f24070d0    @..p    MOVW     r0,#0x7d0
        0x000025fe:    8008        ..      STRH     r0,[r1,#0]
        0x00002600:    4912        .I      LDR      r1,[pc,#72] ; [0x264c] = 0x20000270
        0x00002602:    2002        .       MOVS     r0,#2
        0x00002604:    7008        .p      STRB     r0,[r1,#0]
        0x00002606:    e000        ..      B        0x260a ; interlock_Buzzer_SM_TCF_DL + 258
        0x00002608:    e7ff        ..      B        0x260a ; interlock_Buzzer_SM_TCF_DL + 258
        0x0000260a:    e01b        ..      B        0x2644 ; interlock_Buzzer_SM_TCF_DL + 316
        0x0000260c:    9801        ..      LDR      r0,[sp,#4]
        0x0000260e:    7800        .x      LDRB     r0,[r0,#0]
        0x00002610:    2103        .!      MOVS     r1,#3
        0x00002612:    4008        .@      ANDS     r0,r0,r1
        0x00002614:    2802        .(      CMP      r0,#2
        0x00002616:    d112        ..      BNE      0x263e ; interlock_Buzzer_SM_TCF_DL + 310
        0x00002618:    e7ff        ..      B        0x261a ; interlock_Buzzer_SM_TCF_DL + 274
        0x0000261a:    9904        ..      LDR      r1,[sp,#0x10]
        0x0000261c:    7848        Hx      LDRB     r0,[r1,#1]
        0x0000261e:    2280        ."      MOVS     r2,#0x80
        0x00002620:    4310        .C      ORRS     r0,r0,r2
        0x00002622:    7048        Hp      STRB     r0,[r1,#1]
        0x00002624:    9904        ..      LDR      r1,[sp,#0x10]
        0x00002626:    7908        .y      LDRB     r0,[r1,#4]
        0x00002628:    2208        ."      MOVS     r2,#8
        0x0000262a:    4310        .C      ORRS     r0,r0,r2
        0x0000262c:    7108        .q      STRB     r0,[r1,#4]
        0x0000262e:    4906        .I      LDR      r1,[pc,#24] ; [0x2648] = 0x20000260
        0x00002630:    f24070d0    @..p    MOVW     r0,#0x7d0
        0x00002634:    8008        ..      STRH     r0,[r1,#0]
        0x00002636:    4905        .I      LDR      r1,[pc,#20] ; [0x264c] = 0x20000270
        0x00002638:    2001        .       MOVS     r0,#1
        0x0000263a:    7008        .p      STRB     r0,[r1,#0]
        0x0000263c:    e000        ..      B        0x2640 ; interlock_Buzzer_SM_TCF_DL + 312
        0x0000263e:    e7ff        ..      B        0x2640 ; interlock_Buzzer_SM_TCF_DL + 312
        0x00002640:    e000        ..      B        0x2644 ; interlock_Buzzer_SM_TCF_DL + 316
        0x00002642:    e7ff        ..      B        0x2644 ; interlock_Buzzer_SM_TCF_DL + 316
        0x00002644:    b007        ..      ADD      sp,sp,#0x1c
        0x00002646:    bd10        ..      POP      {r4,pc}
    $d
    __arm_cp.4_6
        0x00002648:    20000260    `..     DCD    536871520
    __arm_cp.4_7
        0x0000264c:    20000270    p..     DCD    536871536
    $t
    interlock_Buzzer_SM_TGT_DL
        0x00002650:    b510        ..      PUSH     {r4,lr}
        0x00002652:    b087        ..      SUB      sp,sp,#0x1c
        0x00002654:    4882        .H      LDR      r0,[pc,#520] ; [0x2860] = 0x200002a8
        0x00002656:    9006        ..      STR      r0,[sp,#0x18]
        0x00002658:    484d        MH      LDR      r0,[pc,#308] ; [0x2790] = 0x200002a4
        0x0000265a:    9005        ..      STR      r0,[sp,#0x14]
        0x0000265c:    484d        MH      LDR      r0,[pc,#308] ; [0x2794] = 0x2000028e
        0x0000265e:    9004        ..      STR      r0,[sp,#0x10]
        0x00002660:    484d        MH      LDR      r0,[pc,#308] ; [0x2798] = 0x2000027c
        0x00002662:    9003        ..      STR      r0,[sp,#0xc]
        0x00002664:    484d        MH      LDR      r0,[pc,#308] ; [0x279c] = 0x20000288
        0x00002666:    9002        ..      STR      r0,[sp,#8]
        0x00002668:    484d        MH      LDR      r0,[pc,#308] ; [0x27a0] = 0x2000029f
        0x0000266a:    9001        ..      STR      r0,[sp,#4]
        0x0000266c:    9801        ..      LDR      r0,[sp,#4]
        0x0000266e:    78c0        .x      LDRB     r0,[r0,#3]
        0x00002670:    2103        .!      MOVS     r1,#3
        0x00002672:    4008        .@      ANDS     r0,r0,r1
        0x00002674:    2802        .(      CMP      r0,#2
        0x00002676:    d118        ..      BNE      0x26aa ; interlock_Buzzer_SM_TGT_DL + 90
        0x00002678:    e7ff        ..      B        0x267a ; interlock_Buzzer_SM_TGT_DL + 42
        0x0000267a:    484a        JH      LDR      r0,[pc,#296] ; [0x27a4] = 0x2000025e
        0x0000267c:    8800        ..      LDRH     r0,[r0,#0]
        0x0000267e:    b9a0        ..      CBNZ     r0,0x26aa ; interlock_Buzzer_SM_TGT_DL + 90
        0x00002680:    e7ff        ..      B        0x2682 ; interlock_Buzzer_SM_TGT_DL + 50
        0x00002682:    9904        ..      LDR      r1,[sp,#0x10]
        0x00002684:    7888        .x      LDRB     r0,[r1,#2]
        0x00002686:    23f7        .#      MOVS     r3,#0xf7
        0x00002688:    4018        .@      ANDS     r0,r0,r3
        0x0000268a:    7088        .p      STRB     r0,[r1,#2]
        0x0000268c:    9904        ..      LDR      r1,[sp,#0x10]
        0x0000268e:    78c8        .x      LDRB     r0,[r1,#3]
        0x00002690:    22bf        ."      MOVS     r2,#0xbf
        0x00002692:    4010        .@      ANDS     r0,r0,r2
        0x00002694:    70c8        .p      STRB     r0,[r1,#3]
        0x00002696:    9904        ..      LDR      r1,[sp,#0x10]
        0x00002698:    78ca        .x      LDRB     r2,[r1,#3]
        0x0000269a:    7888        .x      LDRB     r0,[r1,#2]
        0x0000269c:    08d2        ..      LSRS     r2,r2,#3
        0x0000269e:    2408        .$      MOVS     r4,#8
        0x000026a0:    4022        "@      ANDS     r2,r2,r4
        0x000026a2:    4018        .@      ANDS     r0,r0,r3
        0x000026a4:    1880        ..      ADDS     r0,r0,r2
        0x000026a6:    7088        .p      STRB     r0,[r1,#2]
        0x000026a8:    e000        ..      B        0x26ac ; interlock_Buzzer_SM_TGT_DL + 92
        0x000026aa:    e7ff        ..      B        0x26ac ; interlock_Buzzer_SM_TGT_DL + 92
        0x000026ac:    483e        >H      LDR      r0,[pc,#248] ; [0x27a8] = 0x20000271
        0x000026ae:    7800        .x      LDRB     r0,[r0,#0]
        0x000026b0:    9000        ..      STR      r0,[sp,#0]
        0x000026b2:    b140        @.      CBZ      r0,0x26c6 ; interlock_Buzzer_SM_TGT_DL + 118
        0x000026b4:    e7ff        ..      B        0x26b6 ; interlock_Buzzer_SM_TGT_DL + 102
        0x000026b6:    9800        ..      LDR      r0,[sp,#0]
        0x000026b8:    2801        .(      CMP      r0,#1
        0x000026ba:    d030        0.      BEQ      0x271e ; interlock_Buzzer_SM_TGT_DL + 206
        0x000026bc:    e7ff        ..      B        0x26be ; interlock_Buzzer_SM_TGT_DL + 110
        0x000026be:    9800        ..      LDR      r0,[sp,#0]
        0x000026c0:    2802        .(      CMP      r0,#2
        0x000026c2:    d047        G.      BEQ      0x2754 ; interlock_Buzzer_SM_TGT_DL + 260
        0x000026c4:    e061        a.      B        0x278a ; interlock_Buzzer_SM_TGT_DL + 314
        0x000026c6:    9801        ..      LDR      r0,[sp,#4]
        0x000026c8:    7800        .x      LDRB     r0,[r0,#0]
        0x000026ca:    0700        ..      LSLS     r0,r0,#28
        0x000026cc:    0f80        ..      LSRS     r0,r0,#30
        0x000026ce:    2801        .(      CMP      r0,#1
        0x000026d0:    d104        ..      BNE      0x26dc ; interlock_Buzzer_SM_TGT_DL + 140
        0x000026d2:    e7ff        ..      B        0x26d4 ; interlock_Buzzer_SM_TGT_DL + 132
        0x000026d4:    4934        4I      LDR      r1,[pc,#208] ; [0x27a8] = 0x20000271
        0x000026d6:    2002        .       MOVS     r0,#2
        0x000026d8:    7008        .p      STRB     r0,[r1,#0]
        0x000026da:    e00c        ..      B        0x26f6 ; interlock_Buzzer_SM_TGT_DL + 166
        0x000026dc:    9801        ..      LDR      r0,[sp,#4]
        0x000026de:    7800        .x      LDRB     r0,[r0,#0]
        0x000026e0:    0700        ..      LSLS     r0,r0,#28
        0x000026e2:    0f80        ..      LSRS     r0,r0,#30
        0x000026e4:    2802        .(      CMP      r0,#2
        0x000026e6:    d104        ..      BNE      0x26f2 ; interlock_Buzzer_SM_TGT_DL + 162
        0x000026e8:    e7ff        ..      B        0x26ea ; interlock_Buzzer_SM_TGT_DL + 154
        0x000026ea:    492f        /I      LDR      r1,[pc,#188] ; [0x27a8] = 0x20000271
        0x000026ec:    2001        .       MOVS     r0,#1
        0x000026ee:    7008        .p      STRB     r0,[r1,#0]
        0x000026f0:    e000        ..      B        0x26f4 ; interlock_Buzzer_SM_TGT_DL + 164
        0x000026f2:    e7ff        ..      B        0x26f4 ; interlock_Buzzer_SM_TGT_DL + 164
        0x000026f4:    e7ff        ..      B        0x26f6 ; interlock_Buzzer_SM_TGT_DL + 166
        0x000026f6:    9904        ..      LDR      r1,[sp,#0x10]
        0x000026f8:    7888        .x      LDRB     r0,[r1,#2]
        0x000026fa:    23f7        .#      MOVS     r3,#0xf7
        0x000026fc:    4018        .@      ANDS     r0,r0,r3
        0x000026fe:    7088        .p      STRB     r0,[r1,#2]
        0x00002700:    9904        ..      LDR      r1,[sp,#0x10]
        0x00002702:    78c8        .x      LDRB     r0,[r1,#3]
        0x00002704:    22bf        ."      MOVS     r2,#0xbf
        0x00002706:    4010        .@      ANDS     r0,r0,r2
        0x00002708:    70c8        .p      STRB     r0,[r1,#3]
        0x0000270a:    9904        ..      LDR      r1,[sp,#0x10]
        0x0000270c:    78ca        .x      LDRB     r2,[r1,#3]
        0x0000270e:    7888        .x      LDRB     r0,[r1,#2]
        0x00002710:    08d2        ..      LSRS     r2,r2,#3
        0x00002712:    2408        .$      MOVS     r4,#8
        0x00002714:    4022        "@      ANDS     r2,r2,r4
        0x00002716:    4018        .@      ANDS     r0,r0,r3
        0x00002718:    1880        ..      ADDS     r0,r0,r2
        0x0000271a:    7088        .p      STRB     r0,[r1,#2]
        0x0000271c:    e036        6.      B        0x278c ; interlock_Buzzer_SM_TGT_DL + 316
        0x0000271e:    9801        ..      LDR      r0,[sp,#4]
        0x00002720:    7800        .x      LDRB     r0,[r0,#0]
        0x00002722:    0700        ..      LSLS     r0,r0,#28
        0x00002724:    0f80        ..      LSRS     r0,r0,#30
        0x00002726:    2801        .(      CMP      r0,#1
        0x00002728:    d112        ..      BNE      0x2750 ; interlock_Buzzer_SM_TGT_DL + 256
        0x0000272a:    e7ff        ..      B        0x272c ; interlock_Buzzer_SM_TGT_DL + 220
        0x0000272c:    9904        ..      LDR      r1,[sp,#0x10]
        0x0000272e:    7888        .x      LDRB     r0,[r1,#2]
        0x00002730:    2208        ."      MOVS     r2,#8
        0x00002732:    4310        .C      ORRS     r0,r0,r2
        0x00002734:    7088        .p      STRB     r0,[r1,#2]
        0x00002736:    9904        ..      LDR      r1,[sp,#0x10]
        0x00002738:    78c8        .x      LDRB     r0,[r1,#3]
        0x0000273a:    2240        @"      MOVS     r2,#0x40
        0x0000273c:    4310        .C      ORRS     r0,r0,r2
        0x0000273e:    70c8        .p      STRB     r0,[r1,#3]
        0x00002740:    4918        .I      LDR      r1,[pc,#96] ; [0x27a4] = 0x2000025e
        0x00002742:    f24070d0    @..p    MOVW     r0,#0x7d0
        0x00002746:    8008        ..      STRH     r0,[r1,#0]
        0x00002748:    4917        .I      LDR      r1,[pc,#92] ; [0x27a8] = 0x20000271
        0x0000274a:    2002        .       MOVS     r0,#2
        0x0000274c:    7008        .p      STRB     r0,[r1,#0]
        0x0000274e:    e000        ..      B        0x2752 ; interlock_Buzzer_SM_TGT_DL + 258
        0x00002750:    e7ff        ..      B        0x2752 ; interlock_Buzzer_SM_TGT_DL + 258
        0x00002752:    e01b        ..      B        0x278c ; interlock_Buzzer_SM_TGT_DL + 316
        0x00002754:    9801        ..      LDR      r0,[sp,#4]
        0x00002756:    7800        .x      LDRB     r0,[r0,#0]
        0x00002758:    0700        ..      LSLS     r0,r0,#28
        0x0000275a:    0f80        ..      LSRS     r0,r0,#30
        0x0000275c:    2802        .(      CMP      r0,#2
        0x0000275e:    d112        ..      BNE      0x2786 ; interlock_Buzzer_SM_TGT_DL + 310
        0x00002760:    e7ff        ..      B        0x2762 ; interlock_Buzzer_SM_TGT_DL + 274
        0x00002762:    9904        ..      LDR      r1,[sp,#0x10]
        0x00002764:    7888        .x      LDRB     r0,[r1,#2]
        0x00002766:    2208        ."      MOVS     r2,#8
        0x00002768:    4310        .C      ORRS     r0,r0,r2
        0x0000276a:    7088        .p      STRB     r0,[r1,#2]
        0x0000276c:    9904        ..      LDR      r1,[sp,#0x10]
        0x0000276e:    78c8        .x      LDRB     r0,[r1,#3]
        0x00002770:    2240        @"      MOVS     r2,#0x40
        0x00002772:    4310        .C      ORRS     r0,r0,r2
        0x00002774:    70c8        .p      STRB     r0,[r1,#3]
        0x00002776:    490b        .I      LDR      r1,[pc,#44] ; [0x27a4] = 0x2000025e
        0x00002778:    f24070d0    @..p    MOVW     r0,#0x7d0
        0x0000277c:    8008        ..      STRH     r0,[r1,#0]
        0x0000277e:    490a        .I      LDR      r1,[pc,#40] ; [0x27a8] = 0x20000271
        0x00002780:    2001        .       MOVS     r0,#1
        0x00002782:    7008        .p      STRB     r0,[r1,#0]
        0x00002784:    e000        ..      B        0x2788 ; interlock_Buzzer_SM_TGT_DL + 312
        0x00002786:    e7ff        ..      B        0x2788 ; interlock_Buzzer_SM_TGT_DL + 312
        0x00002788:    e000        ..      B        0x278c ; interlock_Buzzer_SM_TGT_DL + 316
        0x0000278a:    e7ff        ..      B        0x278c ; interlock_Buzzer_SM_TGT_DL + 316
        0x0000278c:    b007        ..      ADD      sp,sp,#0x1c
        0x0000278e:    bd10        ..      POP      {r4,pc}
    $d
    __arm_cp.3_1
        0x00002790:    200002a4    ...     DCD    536871588
    __arm_cp.3_2
        0x00002794:    2000028e    ...     DCD    536871566
    __arm_cp.3_3
        0x00002798:    2000027c    |..     DCD    536871548
    __arm_cp.3_4
        0x0000279c:    20000288    ...     DCD    536871560
    __arm_cp.3_5
        0x000027a0:    2000029f    ...     DCD    536871583
    __arm_cp.3_6
        0x000027a4:    2000025e    ^..     DCD    536871518
    __arm_cp.3_7
        0x000027a8:    20000271    q..     DCD    536871537
    $t
    interlock_Bypass
        0x000027ac:    b5f0        ..      PUSH     {r4-r7,lr}
        0x000027ae:    b087        ..      SUB      sp,sp,#0x1c
        0x000027b0:    482b        +H      LDR      r0,[pc,#172] ; [0x2860] = 0x200002a8
        0x000027b2:    9006        ..      STR      r0,[sp,#0x18]
        0x000027b4:    482b        +H      LDR      r0,[pc,#172] ; [0x2864] = 0x20000298
        0x000027b6:    9005        ..      STR      r0,[sp,#0x14]
        0x000027b8:    9805        ..      LDR      r0,[sp,#0x14]
        0x000027ba:    7803        .x      LDRB     r3,[r0,#0]
        0x000027bc:    2003        .       MOVS     r0,#3
        0x000027be:    9001        ..      STR      r0,[sp,#4]
        0x000027c0:    4003        .@      ANDS     r3,r3,r0
        0x000027c2:    9a06        ..      LDR      r2,[sp,#0x18]
        0x000027c4:    7810        .x      LDRB     r0,[r2,#0]
        0x000027c6:    21fc        .!      MOVS     r1,#0xfc
        0x000027c8:    4008        .@      ANDS     r0,r0,r1
        0x000027ca:    18c0        ..      ADDS     r0,r0,r3
        0x000027cc:    7010        .p      STRB     r0,[r2,#0]
        0x000027ce:    9805        ..      LDR      r0,[sp,#0x14]
        0x000027d0:    7803        .x      LDRB     r3,[r0,#0]
        0x000027d2:    9a06        ..      LDR      r2,[sp,#0x18]
        0x000027d4:    7810        .x      LDRB     r0,[r2,#0]
        0x000027d6:    240c        .$      MOVS     r4,#0xc
        0x000027d8:    9403        ..      STR      r4,[sp,#0xc]
        0x000027da:    4023        #@      ANDS     r3,r3,r4
        0x000027dc:    27f3        .'      MOVS     r7,#0xf3
        0x000027de:    4038        8@      ANDS     r0,r0,r7
        0x000027e0:    18c0        ..      ADDS     r0,r0,r3
        0x000027e2:    7010        .p      STRB     r0,[r2,#0]
        0x000027e4:    9805        ..      LDR      r0,[sp,#0x14]
        0x000027e6:    7803        .x      LDRB     r3,[r0,#0]
        0x000027e8:    9a06        ..      LDR      r2,[sp,#0x18]
        0x000027ea:    7810        .x      LDRB     r0,[r2,#0]
        0x000027ec:    2630        0&      MOVS     r6,#0x30
        0x000027ee:    4033        3@      ANDS     r3,r3,r6
        0x000027f0:    25cf        .%      MOVS     r5,#0xcf
        0x000027f2:    4028        (@      ANDS     r0,r0,r5
        0x000027f4:    18c0        ..      ADDS     r0,r0,r3
        0x000027f6:    7010        .p      STRB     r0,[r2,#0]
        0x000027f8:    9805        ..      LDR      r0,[sp,#0x14]
        0x000027fa:    7800        .x      LDRB     r0,[r0,#0]
        0x000027fc:    9a06        ..      LDR      r2,[sp,#0x18]
        0x000027fe:    9200        ..      STR      r2,[sp,#0]
        0x00002800:    7812        .x      LDRB     r2,[r2,#0]
        0x00002802:    24c0        .$      MOVS     r4,#0xc0
        0x00002804:    4020         @      ANDS     r0,r0,r4
        0x00002806:    233f        ?#      MOVS     r3,#0x3f
        0x00002808:    401a        .@      ANDS     r2,r2,r3
        0x0000280a:    1812        ..      ADDS     r2,r2,r0
        0x0000280c:    9800        ..      LDR      r0,[sp,#0]
        0x0000280e:    7002        .p      STRB     r2,[r0,#0]
        0x00002810:    9801        ..      LDR      r0,[sp,#4]
        0x00002812:    9a05        ..      LDR      r2,[sp,#0x14]
        0x00002814:    7852        Rx      LDRB     r2,[r2,#1]
        0x00002816:    4002        .@      ANDS     r2,r2,r0
        0x00002818:    9806        ..      LDR      r0,[sp,#0x18]
        0x0000281a:    9002        ..      STR      r0,[sp,#8]
        0x0000281c:    7840        @x      LDRB     r0,[r0,#1]
        0x0000281e:    4008        .@      ANDS     r0,r0,r1
        0x00002820:    9902        ..      LDR      r1,[sp,#8]
        0x00002822:    1880        ..      ADDS     r0,r0,r2
        0x00002824:    7048        Hp      STRB     r0,[r1,#1]
        0x00002826:    9805        ..      LDR      r0,[sp,#0x14]
        0x00002828:    7842        Bx      LDRB     r2,[r0,#1]
        0x0000282a:    9906        ..      LDR      r1,[sp,#0x18]
        0x0000282c:    7848        Hx      LDRB     r0,[r1,#1]
        0x0000282e:    9004        ..      STR      r0,[sp,#0x10]
        0x00002830:    9803        ..      LDR      r0,[sp,#0xc]
        0x00002832:    4002        .@      ANDS     r2,r2,r0
        0x00002834:    9804        ..      LDR      r0,[sp,#0x10]
        0x00002836:    4038        8@      ANDS     r0,r0,r7
        0x00002838:    1880        ..      ADDS     r0,r0,r2
        0x0000283a:    7048        Hp      STRB     r0,[r1,#1]
        0x0000283c:    9805        ..      LDR      r0,[sp,#0x14]
        0x0000283e:    7842        Bx      LDRB     r2,[r0,#1]
        0x00002840:    9906        ..      LDR      r1,[sp,#0x18]
        0x00002842:    7848        Hx      LDRB     r0,[r1,#1]
        0x00002844:    4032        2@      ANDS     r2,r2,r6
        0x00002846:    4028        (@      ANDS     r0,r0,r5
        0x00002848:    1880        ..      ADDS     r0,r0,r2
        0x0000284a:    7048        Hp      STRB     r0,[r1,#1]
        0x0000284c:    9805        ..      LDR      r0,[sp,#0x14]
        0x0000284e:    7842        Bx      LDRB     r2,[r0,#1]
        0x00002850:    9906        ..      LDR      r1,[sp,#0x18]
        0x00002852:    7848        Hx      LDRB     r0,[r1,#1]
        0x00002854:    4022        "@      ANDS     r2,r2,r4
        0x00002856:    4018        .@      ANDS     r0,r0,r3
        0x00002858:    1880        ..      ADDS     r0,r0,r2
        0x0000285a:    7048        Hp      STRB     r0,[r1,#1]
        0x0000285c:    b007        ..      ADD      sp,sp,#0x1c
        0x0000285e:    bdf0        ..      POP      {r4-r7,pc}
    $d
    __arm_cp.0_0
        0x00002860:    200002a8    ...     DCD    536871592
    __arm_cp.0_1
        0x00002864:    20000298    ...     DCD    536871576
    $t
    interlock_DL
        0x00002868:    b5f0        ..      PUSH     {r4-r7,lr}
        0x0000286a:    b0e3        ..      SUB      sp,sp,#0x18c
        0x0000286c:    48f9        .H      LDR      r0,[pc,#996] ; [0x2c54] = 0x200002a8
        0x0000286e:    9061        a.      STR      r0,[sp,#0x184]
        0x00002870:    48f9        .H      LDR      r0,[pc,#996] ; [0x2c58] = 0x200002a4
        0x00002872:    9060        `.      STR      r0,[sp,#0x180]
        0x00002874:    48f9        .H      LDR      r0,[pc,#996] ; [0x2c5c] = 0x2000028e
        0x00002876:    905f        _.      STR      r0,[sp,#0x17c]
        0x00002878:    48f9        .H      LDR      r0,[pc,#996] ; [0x2c60] = 0x2000027c
        0x0000287a:    905e        ^.      STR      r0,[sp,#0x178]
        0x0000287c:    48f9        .H      LDR      r0,[pc,#996] ; [0x2c64] = 0x20000288
        0x0000287e:    905d        ].      STR      r0,[sp,#0x174]
        0x00002880:    48f9        .H      LDR      r0,[pc,#996] ; [0x2c68] = 0x2000029f
        0x00002882:    905c        \.      STR      r0,[sp,#0x170]
        0x00002884:    48f9        .H      LDR      r0,[pc,#996] ; [0x2c6c] = 0x20000298
        0x00002886:    905b        [.      STR      r0,[sp,#0x16c]
        0x00002888:    48f9        .H      LDR      r0,[pc,#996] ; [0x2c70] = 0x20000282
        0x0000288a:    905a        Z.      STR      r0,[sp,#0x168]
        0x0000288c:    48f9        .H      LDR      r0,[pc,#996] ; [0x2c74] = 0x200002a6
        0x0000288e:    9059        Y.      STR      r0,[sp,#0x164]
        0x00002890:    48f9        .H      LDR      r0,[pc,#996] ; [0x2c78] = 0x20000272
        0x00002892:    7800        .x      LDRB     r0,[r0,#0]
        0x00002894:    9058        X.      STR      r0,[sp,#0x160]
        0x00002896:    b150        P.      CBZ      r0,0x28ae ; interlock_DL + 70
        0x00002898:    e7ff        ..      B        0x289a ; interlock_DL + 50
        0x0000289a:    9858        X.      LDR      r0,[sp,#0x160]
        0x0000289c:    2801        .(      CMP      r0,#1
        0x0000289e:    d100        ..      BNE      0x28a2 ; interlock_DL + 58
        0x000028a0:    e081        ..      B        0x29a6 ; interlock_DL + 318
        0x000028a2:    9858        X.      LDR      r0,[sp,#0x160]
        0x000028a4:    2802        .(      CMP      r0,#2
        0x000028a6:    d100        ..      BNE      0x28aa ; interlock_DL + 66
        0x000028a8:    e15f        _.      B        0x2b6a ; interlock_DL + 770
        0x000028aa:    f001f8ed    ....    BL       0x3a88 ; 0x3a88
        0x000028ae:    995d        ].      LDR      r1,[sp,#0x174]
        0x000028b0:    7808        .x      LDRB     r0,[r1,#0]
        0x000028b2:    22fc        ."      MOVS     r2,#0xfc
        0x000028b4:    4010        .@      ANDS     r0,r0,r2
        0x000028b6:    1c40        @.      ADDS     r0,r0,#1
        0x000028b8:    7008        .p      STRB     r0,[r1,#0]
        0x000028ba:    995d        ].      LDR      r1,[sp,#0x174]
        0x000028bc:    7808        .x      LDRB     r0,[r1,#0]
        0x000028be:    25f3        .%      MOVS     r5,#0xf3
        0x000028c0:    4028        (@      ANDS     r0,r0,r5
        0x000028c2:    1d00        ..      ADDS     r0,r0,#4
        0x000028c4:    7008        .p      STRB     r0,[r1,#0]
        0x000028c6:    995d        ].      LDR      r1,[sp,#0x174]
        0x000028c8:    7808        .x      LDRB     r0,[r1,#0]
        0x000028ca:    24cf        .$      MOVS     r4,#0xcf
        0x000028cc:    4020         @      ANDS     r0,r0,r4
        0x000028ce:    3010        .0      ADDS     r0,r0,#0x10
        0x000028d0:    7008        .p      STRB     r0,[r1,#0]
        0x000028d2:    995d        ].      LDR      r1,[sp,#0x174]
        0x000028d4:    7808        .x      LDRB     r0,[r1,#0]
        0x000028d6:    233f        ?#      MOVS     r3,#0x3f
        0x000028d8:    4018        .@      ANDS     r0,r0,r3
        0x000028da:    3040        @0      ADDS     r0,r0,#0x40
        0x000028dc:    7008        .p      STRB     r0,[r1,#0]
        0x000028de:    995d        ].      LDR      r1,[sp,#0x174]
        0x000028e0:    7848        Hx      LDRB     r0,[r1,#1]
        0x000028e2:    4010        .@      ANDS     r0,r0,r2
        0x000028e4:    1c40        @.      ADDS     r0,r0,#1
        0x000028e6:    7048        Hp      STRB     r0,[r1,#1]
        0x000028e8:    995d        ].      LDR      r1,[sp,#0x174]
        0x000028ea:    7848        Hx      LDRB     r0,[r1,#1]
        0x000028ec:    4028        (@      ANDS     r0,r0,r5
        0x000028ee:    1d00        ..      ADDS     r0,r0,#4
        0x000028f0:    7048        Hp      STRB     r0,[r1,#1]
        0x000028f2:    995d        ].      LDR      r1,[sp,#0x174]
        0x000028f4:    7848        Hx      LDRB     r0,[r1,#1]
        0x000028f6:    4020         @      ANDS     r0,r0,r4
        0x000028f8:    3010        .0      ADDS     r0,r0,#0x10
        0x000028fa:    7048        Hp      STRB     r0,[r1,#1]
        0x000028fc:    995d        ].      LDR      r1,[sp,#0x174]
        0x000028fe:    7848        Hx      LDRB     r0,[r1,#1]
        0x00002900:    4018        .@      ANDS     r0,r0,r3
        0x00002902:    3040        @0      ADDS     r0,r0,#0x40
        0x00002904:    7048        Hp      STRB     r0,[r1,#1]
        0x00002906:    995d        ].      LDR      r1,[sp,#0x174]
        0x00002908:    7888        .x      LDRB     r0,[r1,#2]
        0x0000290a:    4010        .@      ANDS     r0,r0,r2
        0x0000290c:    1c40        @.      ADDS     r0,r0,#1
        0x0000290e:    7088        .p      STRB     r0,[r1,#2]
        0x00002910:    995d        ].      LDR      r1,[sp,#0x174]
        0x00002912:    7888        .x      LDRB     r0,[r1,#2]
        0x00002914:    4028        (@      ANDS     r0,r0,r5
        0x00002916:    1d00        ..      ADDS     r0,r0,#4
        0x00002918:    7088        .p      STRB     r0,[r1,#2]
        0x0000291a:    995d        ].      LDR      r1,[sp,#0x174]
        0x0000291c:    7888        .x      LDRB     r0,[r1,#2]
        0x0000291e:    4020         @      ANDS     r0,r0,r4
        0x00002920:    3010        .0      ADDS     r0,r0,#0x10
        0x00002922:    7088        .p      STRB     r0,[r1,#2]
        0x00002924:    995d        ].      LDR      r1,[sp,#0x174]
        0x00002926:    7888        .x      LDRB     r0,[r1,#2]
        0x00002928:    4018        .@      ANDS     r0,r0,r3
        0x0000292a:    3080        .0      ADDS     r0,r0,#0x80
        0x0000292c:    7088        .p      STRB     r0,[r1,#2]
        0x0000292e:    995d        ].      LDR      r1,[sp,#0x174]
        0x00002930:    78c8        .x      LDRB     r0,[r1,#3]
        0x00002932:    4010        .@      ANDS     r0,r0,r2
        0x00002934:    1c40        @.      ADDS     r0,r0,#1
        0x00002936:    70c8        .p      STRB     r0,[r1,#3]
        0x00002938:    995d        ].      LDR      r1,[sp,#0x174]
        0x0000293a:    78c8        .x      LDRB     r0,[r1,#3]
        0x0000293c:    4028        (@      ANDS     r0,r0,r5
        0x0000293e:    1d00        ..      ADDS     r0,r0,#4
        0x00002940:    70c8        .p      STRB     r0,[r1,#3]
        0x00002942:    995d        ].      LDR      r1,[sp,#0x174]
        0x00002944:    78c8        .x      LDRB     r0,[r1,#3]
        0x00002946:    4020         @      ANDS     r0,r0,r4
        0x00002948:    3020         0      ADDS     r0,r0,#0x20
        0x0000294a:    70c8        .p      STRB     r0,[r1,#3]
        0x0000294c:    995d        ].      LDR      r1,[sp,#0x174]
        0x0000294e:    78c8        .x      LDRB     r0,[r1,#3]
        0x00002950:    4018        .@      ANDS     r0,r0,r3
        0x00002952:    3080        .0      ADDS     r0,r0,#0x80
        0x00002954:    70c8        .p      STRB     r0,[r1,#3]
        0x00002956:    995d        ].      LDR      r1,[sp,#0x174]
        0x00002958:    7908        .y      LDRB     r0,[r1,#4]
        0x0000295a:    4010        .@      ANDS     r0,r0,r2
        0x0000295c:    1c40        @.      ADDS     r0,r0,#1
        0x0000295e:    7108        .q      STRB     r0,[r1,#4]
        0x00002960:    995d        ].      LDR      r1,[sp,#0x174]
        0x00002962:    7908        .y      LDRB     r0,[r1,#4]
        0x00002964:    4028        (@      ANDS     r0,r0,r5
        0x00002966:    1d00        ..      ADDS     r0,r0,#4
        0x00002968:    7108        .q      STRB     r0,[r1,#4]
        0x0000296a:    9961        a.      LDR      r1,[sp,#0x184]
        0x0000296c:    7808        .x      LDRB     r0,[r1,#0]
        0x0000296e:    4010        .@      ANDS     r0,r0,r2
        0x00002970:    1c40        @.      ADDS     r0,r0,#1
        0x00002972:    7008        .p      STRB     r0,[r1,#0]
        0x00002974:    9961        a.      LDR      r1,[sp,#0x184]
        0x00002976:    7808        .x      LDRB     r0,[r1,#0]
        0x00002978:    4028        (@      ANDS     r0,r0,r5
        0x0000297a:    3008        .0      ADDS     r0,r0,#8
        0x0000297c:    7008        .p      STRB     r0,[r1,#0]
        0x0000297e:    9961        a.      LDR      r1,[sp,#0x184]
        0x00002980:    7808        .x      LDRB     r0,[r1,#0]
        0x00002982:    4020         @      ANDS     r0,r0,r4
        0x00002984:    3010        .0      ADDS     r0,r0,#0x10
        0x00002986:    7008        .p      STRB     r0,[r1,#0]
        0x00002988:    9961        a.      LDR      r1,[sp,#0x184]
        0x0000298a:    7808        .x      LDRB     r0,[r1,#0]
        0x0000298c:    4018        .@      ANDS     r0,r0,r3
        0x0000298e:    3080        .0      ADDS     r0,r0,#0x80
        0x00002990:    7008        .p      STRB     r0,[r1,#0]
        0x00002992:    9961        a.      LDR      r1,[sp,#0x184]
        0x00002994:    7848        Hx      LDRB     r0,[r1,#1]
        0x00002996:    4010        .@      ANDS     r0,r0,r2
        0x00002998:    1c40        @.      ADDS     r0,r0,#1
        0x0000299a:    7048        Hp      STRB     r0,[r1,#1]
        0x0000299c:    49b6        .I      LDR      r1,[pc,#728] ; [0x2c78] = 0x20000272
        0x0000299e:    2001        .       MOVS     r0,#1
        0x000029a0:    7008        .p      STRB     r0,[r1,#0]
        0x000029a2:    f001f872    ..r.    BL       0x3a8a ; 0x3a8a
        0x000029a6:    985d        ].      LDR      r0,[sp,#0x174]
        0x000029a8:    7803        .x      LDRB     r3,[r0,#0]
        0x000029aa:    2003        .       MOVS     r0,#3
        0x000029ac:    9057        W.      STR      r0,[sp,#0x15c]
        0x000029ae:    4003        .@      ANDS     r3,r3,r0
        0x000029b0:    9a5e        ^.      LDR      r2,[sp,#0x178]
        0x000029b2:    7810        .x      LDRB     r0,[r2,#0]
        0x000029b4:    21fc        .!      MOVS     r1,#0xfc
        0x000029b6:    9156        V.      STR      r1,[sp,#0x158]
        0x000029b8:    4008        .@      ANDS     r0,r0,r1
        0x000029ba:    18c0        ..      ADDS     r0,r0,r3
        0x000029bc:    7010        .p      STRB     r0,[r2,#0]
        0x000029be:    985d        ].      LDR      r0,[sp,#0x174]
        0x000029c0:    7804        .x      LDRB     r4,[r0,#0]
        0x000029c2:    9a5e        ^.      LDR      r2,[sp,#0x178]
        0x000029c4:    7810        .x      LDRB     r0,[r2,#0]
        0x000029c6:    230c        .#      MOVS     r3,#0xc
        0x000029c8:    9354        T.      STR      r3,[sp,#0x150]
        0x000029ca:    401c        .@      ANDS     r4,r4,r3
        0x000029cc:    23f3        .#      MOVS     r3,#0xf3
        0x000029ce:    4018        .@      ANDS     r0,r0,r3
        0x000029d0:    1900        ..      ADDS     r0,r0,r4
        0x000029d2:    7010        .p      STRB     r0,[r2,#0]
        0x000029d4:    985d        ].      LDR      r0,[sp,#0x174]
        0x000029d6:    7804        .x      LDRB     r4,[r0,#0]
        0x000029d8:    9a5e        ^.      LDR      r2,[sp,#0x178]
        0x000029da:    7810        .x      LDRB     r0,[r2,#0]
        0x000029dc:    2630        0&      MOVS     r6,#0x30
        0x000029de:    4034        4@      ANDS     r4,r4,r6
        0x000029e0:    25cf        .%      MOVS     r5,#0xcf
        0x000029e2:    4028        (@      ANDS     r0,r0,r5
        0x000029e4:    1900        ..      ADDS     r0,r0,r4
        0x000029e6:    7010        .p      STRB     r0,[r2,#0]
        0x000029e8:    985d        ].      LDR      r0,[sp,#0x174]
        0x000029ea:    7800        .x      LDRB     r0,[r0,#0]
        0x000029ec:    9c5e        ^.      LDR      r4,[sp,#0x178]
        0x000029ee:    7822        "x      LDRB     r2,[r4,#0]
        0x000029f0:    27c0        .'      MOVS     r7,#0xc0
        0x000029f2:    9755        U.      STR      r7,[sp,#0x154]
        0x000029f4:    4038        8@      ANDS     r0,r0,r7
        0x000029f6:    273f        ?'      MOVS     r7,#0x3f
        0x000029f8:    403a        :@      ANDS     r2,r2,r7
        0x000029fa:    1812        ..      ADDS     r2,r2,r0
        0x000029fc:    9857        W.      LDR      r0,[sp,#0x15c]
        0x000029fe:    7022        "p      STRB     r2,[r4,#0]
        0x00002a00:    9a5d        ].      LDR      r2,[sp,#0x174]
        0x00002a02:    7854        Tx      LDRB     r4,[r2,#1]
        0x00002a04:    4004        .@      ANDS     r4,r4,r0
        0x00002a06:    9a5e        ^.      LDR      r2,[sp,#0x178]
        0x00002a08:    7850        Px      LDRB     r0,[r2,#1]
        0x00002a0a:    4008        .@      ANDS     r0,r0,r1
        0x00002a0c:    9954        T.      LDR      r1,[sp,#0x150]
        0x00002a0e:    1900        ..      ADDS     r0,r0,r4
        0x00002a10:    7050        Pp      STRB     r0,[r2,#1]
        0x00002a12:    985d        ].      LDR      r0,[sp,#0x174]
        0x00002a14:    7844        Dx      LDRB     r4,[r0,#1]
        0x00002a16:    9a5e        ^.      LDR      r2,[sp,#0x178]
        0x00002a18:    7850        Px      LDRB     r0,[r2,#1]
        0x00002a1a:    400c        .@      ANDS     r4,r4,r1
        0x00002a1c:    9955        U.      LDR      r1,[sp,#0x154]
        0x00002a1e:    4018        .@      ANDS     r0,r0,r3
        0x00002a20:    1900        ..      ADDS     r0,r0,r4
        0x00002a22:    7050        Pp      STRB     r0,[r2,#1]
        0x00002a24:    985d        ].      LDR      r0,[sp,#0x174]
        0x00002a26:    7844        Dx      LDRB     r4,[r0,#1]
        0x00002a28:    9a5e        ^.      LDR      r2,[sp,#0x178]
        0x00002a2a:    7850        Px      LDRB     r0,[r2,#1]
        0x00002a2c:    4034        4@      ANDS     r4,r4,r6
        0x00002a2e:    4028        (@      ANDS     r0,r0,r5
        0x00002a30:    1900        ..      ADDS     r0,r0,r4
        0x00002a32:    7050        Pp      STRB     r0,[r2,#1]
        0x00002a34:    985d        ].      LDR      r0,[sp,#0x174]
        0x00002a36:    7840        @x      LDRB     r0,[r0,#1]
        0x00002a38:    9c5e        ^.      LDR      r4,[sp,#0x178]
        0x00002a3a:    7862        bx      LDRB     r2,[r4,#1]
        0x00002a3c:    4008        .@      ANDS     r0,r0,r1
        0x00002a3e:    9956        V.      LDR      r1,[sp,#0x158]
        0x00002a40:    403a        :@      ANDS     r2,r2,r7
        0x00002a42:    1812        ..      ADDS     r2,r2,r0
        0x00002a44:    9857        W.      LDR      r0,[sp,#0x15c]
        0x00002a46:    7062        bp      STRB     r2,[r4,#1]
        0x00002a48:    9a5d        ].      LDR      r2,[sp,#0x174]
        0x00002a4a:    7894        .x      LDRB     r4,[r2,#2]
        0x00002a4c:    4004        .@      ANDS     r4,r4,r0
        0x00002a4e:    9a5e        ^.      LDR      r2,[sp,#0x178]
        0x00002a50:    7890        .x      LDRB     r0,[r2,#2]
        0x00002a52:    4008        .@      ANDS     r0,r0,r1
        0x00002a54:    9954        T.      LDR      r1,[sp,#0x150]
        0x00002a56:    1900        ..      ADDS     r0,r0,r4
        0x00002a58:    7090        .p      STRB     r0,[r2,#2]
        0x00002a5a:    985d        ].      LDR      r0,[sp,#0x174]
        0x00002a5c:    7884        .x      LDRB     r4,[r0,#2]
        0x00002a5e:    9a5e        ^.      LDR      r2,[sp,#0x178]
        0x00002a60:    7890        .x      LDRB     r0,[r2,#2]
        0x00002a62:    400c        .@      ANDS     r4,r4,r1
        0x00002a64:    9955        U.      LDR      r1,[sp,#0x154]
        0x00002a66:    4018        .@      ANDS     r0,r0,r3
        0x00002a68:    1900        ..      ADDS     r0,r0,r4
        0x00002a6a:    7090        .p      STRB     r0,[r2,#2]
        0x00002a6c:    985d        ].      LDR      r0,[sp,#0x174]
        0x00002a6e:    7884        .x      LDRB     r4,[r0,#2]
        0x00002a70:    9a5e        ^.      LDR      r2,[sp,#0x178]
        0x00002a72:    7890        .x      LDRB     r0,[r2,#2]
        0x00002a74:    4034        4@      ANDS     r4,r4,r6
        0x00002a76:    4028        (@      ANDS     r0,r0,r5
        0x00002a78:    1900        ..      ADDS     r0,r0,r4
        0x00002a7a:    7090        .p      STRB     r0,[r2,#2]
        0x00002a7c:    985d        ].      LDR      r0,[sp,#0x174]
        0x00002a7e:    7880        .x      LDRB     r0,[r0,#2]
        0x00002a80:    9c5e        ^.      LDR      r4,[sp,#0x178]
        0x00002a82:    78a2        .x      LDRB     r2,[r4,#2]
        0x00002a84:    4008        .@      ANDS     r0,r0,r1
        0x00002a86:    9956        V.      LDR      r1,[sp,#0x158]
        0x00002a88:    403a        :@      ANDS     r2,r2,r7
        0x00002a8a:    1812        ..      ADDS     r2,r2,r0
        0x00002a8c:    9857        W.      LDR      r0,[sp,#0x15c]
        0x00002a8e:    70a2        .p      STRB     r2,[r4,#2]
        0x00002a90:    9a5d        ].      LDR      r2,[sp,#0x174]
        0x00002a92:    78d4        .x      LDRB     r4,[r2,#3]
        0x00002a94:    4004        .@      ANDS     r4,r4,r0
        0x00002a96:    9a5e        ^.      LDR      r2,[sp,#0x178]
        0x00002a98:    78d0        .x      LDRB     r0,[r2,#3]
        0x00002a9a:    4008        .@      ANDS     r0,r0,r1
        0x00002a9c:    9954        T.      LDR      r1,[sp,#0x150]
        0x00002a9e:    1900        ..      ADDS     r0,r0,r4
        0x00002aa0:    70d0        .p      STRB     r0,[r2,#3]
        0x00002aa2:    985d        ].      LDR      r0,[sp,#0x174]
        0x00002aa4:    78c4        .x      LDRB     r4,[r0,#3]
        0x00002aa6:    9a5e        ^.      LDR      r2,[sp,#0x178]
        0x00002aa8:    78d0        .x      LDRB     r0,[r2,#3]
        0x00002aaa:    400c        .@      ANDS     r4,r4,r1
        0x00002aac:    9955        U.      LDR      r1,[sp,#0x154]
        0x00002aae:    4018        .@      ANDS     r0,r0,r3
        0x00002ab0:    1900        ..      ADDS     r0,r0,r4
        0x00002ab2:    70d0        .p      STRB     r0,[r2,#3]
        0x00002ab4:    985d        ].      LDR      r0,[sp,#0x174]
        0x00002ab6:    78c4        .x      LDRB     r4,[r0,#3]
        0x00002ab8:    9a5e        ^.      LDR      r2,[sp,#0x178]
        0x00002aba:    78d0        .x      LDRB     r0,[r2,#3]
        0x00002abc:    4034        4@      ANDS     r4,r4,r6
        0x00002abe:    4028        (@      ANDS     r0,r0,r5
        0x00002ac0:    1900        ..      ADDS     r0,r0,r4
        0x00002ac2:    70d0        .p      STRB     r0,[r2,#3]
        0x00002ac4:    985d        ].      LDR      r0,[sp,#0x174]
        0x00002ac6:    78c0        .x      LDRB     r0,[r0,#3]
        0x00002ac8:    9c5e        ^.      LDR      r4,[sp,#0x178]
        0x00002aca:    78e2        .x      LDRB     r2,[r4,#3]
        0x00002acc:    4008        .@      ANDS     r0,r0,r1
        0x00002ace:    9957        W.      LDR      r1,[sp,#0x15c]
        0x00002ad0:    403a        :@      ANDS     r2,r2,r7
        0x00002ad2:    1812        ..      ADDS     r2,r2,r0
        0x00002ad4:    9856        V.      LDR      r0,[sp,#0x158]
        0x00002ad6:    70e2        .p      STRB     r2,[r4,#3]
        0x00002ad8:    9a5d        ].      LDR      r2,[sp,#0x174]
        0x00002ada:    7914        .y      LDRB     r4,[r2,#4]
        0x00002adc:    400c        .@      ANDS     r4,r4,r1
        0x00002ade:    9a5e        ^.      LDR      r2,[sp,#0x178]
        0x00002ae0:    7911        .y      LDRB     r1,[r2,#4]
        0x00002ae2:    4001        .@      ANDS     r1,r1,r0
        0x00002ae4:    9854        T.      LDR      r0,[sp,#0x150]
        0x00002ae6:    1909        ..      ADDS     r1,r1,r4
        0x00002ae8:    7111        .q      STRB     r1,[r2,#4]
        0x00002aea:    995d        ].      LDR      r1,[sp,#0x174]
        0x00002aec:    790c        .y      LDRB     r4,[r1,#4]
        0x00002aee:    9a5e        ^.      LDR      r2,[sp,#0x178]
        0x00002af0:    7911        .y      LDRB     r1,[r2,#4]
        0x00002af2:    4004        .@      ANDS     r4,r4,r0
        0x00002af4:    9855        U.      LDR      r0,[sp,#0x154]
        0x00002af6:    4019        .@      ANDS     r1,r1,r3
        0x00002af8:    9b56        V.      LDR      r3,[sp,#0x158]
        0x00002afa:    1909        ..      ADDS     r1,r1,r4
        0x00002afc:    7111        .q      STRB     r1,[r2,#4]
        0x00002afe:    995d        ].      LDR      r1,[sp,#0x174]
        0x00002b00:    790c        .y      LDRB     r4,[r1,#4]
        0x00002b02:    9a5e        ^.      LDR      r2,[sp,#0x178]
        0x00002b04:    7911        .y      LDRB     r1,[r2,#4]
        0x00002b06:    4034        4@      ANDS     r4,r4,r6
        0x00002b08:    4029        )@      ANDS     r1,r1,r5
        0x00002b0a:    1909        ..      ADDS     r1,r1,r4
        0x00002b0c:    7111        .q      STRB     r1,[r2,#4]
        0x00002b0e:    995d        ].      LDR      r1,[sp,#0x174]
        0x00002b10:    790c        .y      LDRB     r4,[r1,#4]
        0x00002b12:    9a5e        ^.      LDR      r2,[sp,#0x178]
        0x00002b14:    7911        .y      LDRB     r1,[r2,#4]
        0x00002b16:    4004        .@      ANDS     r4,r4,r0
        0x00002b18:    9857        W.      LDR      r0,[sp,#0x15c]
        0x00002b1a:    4039        9@      ANDS     r1,r1,r7
        0x00002b1c:    1909        ..      ADDS     r1,r1,r4
        0x00002b1e:    7111        .q      STRB     r1,[r2,#4]
        0x00002b20:    995d        ].      LDR      r1,[sp,#0x174]
        0x00002b22:    794c        Ly      LDRB     r4,[r1,#5]
        0x00002b24:    4004        .@      ANDS     r4,r4,r0
        0x00002b26:    9a5e        ^.      LDR      r2,[sp,#0x178]
        0x00002b28:    7951        Qy      LDRB     r1,[r2,#5]
        0x00002b2a:    4019        .@      ANDS     r1,r1,r3
        0x00002b2c:    1909        ..      ADDS     r1,r1,r4
        0x00002b2e:    7151        Qq      STRB     r1,[r2,#5]
        0x00002b30:    9961        a.      LDR      r1,[sp,#0x184]
        0x00002b32:    780c        .x      LDRB     r4,[r1,#0]
        0x00002b34:    4004        .@      ANDS     r4,r4,r0
        0x00002b36:    9a60        `.      LDR      r2,[sp,#0x180]
        0x00002b38:    7811        .x      LDRB     r1,[r2,#0]
        0x00002b3a:    4019        .@      ANDS     r1,r1,r3
        0x00002b3c:    1909        ..      ADDS     r1,r1,r4
        0x00002b3e:    7011        .p      STRB     r1,[r2,#0]
        0x00002b40:    9961        a.      LDR      r1,[sp,#0x184]
        0x00002b42:    780c        .x      LDRB     r4,[r1,#0]
        0x00002b44:    9a60        `.      LDR      r2,[sp,#0x180]
        0x00002b46:    7811        .x      LDRB     r1,[r2,#0]
        0x00002b48:    4034        4@      ANDS     r4,r4,r6
        0x00002b4a:    4029        )@      ANDS     r1,r1,r5
        0x00002b4c:    1909        ..      ADDS     r1,r1,r4
        0x00002b4e:    7011        .p      STRB     r1,[r2,#0]
        0x00002b50:    9961        a.      LDR      r1,[sp,#0x184]
        0x00002b52:    784a        Jx      LDRB     r2,[r1,#1]
        0x00002b54:    4002        .@      ANDS     r2,r2,r0
        0x00002b56:    9960        `.      LDR      r1,[sp,#0x180]
        0x00002b58:    7848        Hx      LDRB     r0,[r1,#1]
        0x00002b5a:    4018        .@      ANDS     r0,r0,r3
        0x00002b5c:    1880        ..      ADDS     r0,r0,r2
        0x00002b5e:    7048        Hp      STRB     r0,[r1,#1]
        0x00002b60:    4945        EI      LDR      r1,[pc,#276] ; [0x2c78] = 0x20000272
        0x00002b62:    2002        .       MOVS     r0,#2
        0x00002b64:    7008        .p      STRB     r0,[r1,#0]
        0x00002b66:    f000ff90    ....    BL       0x3a8a ; 0x3a8a
        0x00002b6a:    985c        \.      LDR      r0,[sp,#0x170]
        0x00002b6c:    7800        .x      LDRB     r0,[r0,#0]
        0x00002b6e:    0700        ..      LSLS     r0,r0,#28
        0x00002b70:    0f81        ..      LSRS     r1,r0,#30
        0x00002b72:    2000        .       MOVS     r0,#0
        0x00002b74:    2902        .)      CMP      r1,#2
        0x00002b76:    9053        S.      STR      r0,[sp,#0x14c]
        0x00002b78:    d134        4.      BNE      0x2be4 ; interlock_DL + 892
        0x00002b7a:    e7ff        ..      B        0x2b7c ; interlock_DL + 788
        0x00002b7c:    985c        \.      LDR      r0,[sp,#0x170]
        0x00002b7e:    7800        .x      LDRB     r0,[r0,#0]
        0x00002b80:    0680        ..      LSLS     r0,r0,#26
        0x00002b82:    0f81        ..      LSRS     r1,r0,#30
        0x00002b84:    2000        .       MOVS     r0,#0
        0x00002b86:    2902        .)      CMP      r1,#2
        0x00002b88:    9053        S.      STR      r0,[sp,#0x14c]
        0x00002b8a:    d12b        +.      BNE      0x2be4 ; interlock_DL + 892
        0x00002b8c:    e7ff        ..      B        0x2b8e ; interlock_DL + 806
        0x00002b8e:    985c        \.      LDR      r0,[sp,#0x170]
        0x00002b90:    7880        .x      LDRB     r0,[r0,#2]
        0x00002b92:    0680        ..      LSLS     r0,r0,#26
        0x00002b94:    0f81        ..      LSRS     r1,r0,#30
        0x00002b96:    2000        .       MOVS     r0,#0
        0x00002b98:    2902        .)      CMP      r1,#2
        0x00002b9a:    9053        S.      STR      r0,[sp,#0x14c]
        0x00002b9c:    d122        ".      BNE      0x2be4 ; interlock_DL + 892
        0x00002b9e:    e7ff        ..      B        0x2ba0 ; interlock_DL + 824
        0x00002ba0:    985c        \.      LDR      r0,[sp,#0x170]
        0x00002ba2:    7880        .x      LDRB     r0,[r0,#2]
        0x00002ba4:    0981        ..      LSRS     r1,r0,#6
        0x00002ba6:    2000        .       MOVS     r0,#0
        0x00002ba8:    2902        .)      CMP      r1,#2
        0x00002baa:    9053        S.      STR      r0,[sp,#0x14c]
        0x00002bac:    d11a        ..      BNE      0x2be4 ; interlock_DL + 892
        0x00002bae:    e7ff        ..      B        0x2bb0 ; interlock_DL + 840
        0x00002bb0:    985e        ^.      LDR      r0,[sp,#0x178]
        0x00002bb2:    7800        .x      LDRB     r0,[r0,#0]
        0x00002bb4:    0700        ..      LSLS     r0,r0,#28
        0x00002bb6:    0f81        ..      LSRS     r1,r0,#30
        0x00002bb8:    2000        .       MOVS     r0,#0
        0x00002bba:    2902        .)      CMP      r1,#2
        0x00002bbc:    9053        S.      STR      r0,[sp,#0x14c]
        0x00002bbe:    d111        ..      BNE      0x2be4 ; interlock_DL + 892
        0x00002bc0:    e7ff        ..      B        0x2bc2 ; interlock_DL + 858
        0x00002bc2:    985e        ^.      LDR      r0,[sp,#0x178]
        0x00002bc4:    7801        .x      LDRB     r1,[r0,#0]
        0x00002bc6:    2003        .       MOVS     r0,#3
        0x00002bc8:    4001        .@      ANDS     r1,r1,r0
        0x00002bca:    2000        .       MOVS     r0,#0
        0x00002bcc:    2902        .)      CMP      r1,#2
        0x00002bce:    9053        S.      STR      r0,[sp,#0x14c]
        0x00002bd0:    d108        ..      BNE      0x2be4 ; interlock_DL + 892
        0x00002bd2:    e7ff        ..      B        0x2bd4 ; interlock_DL + 876
        0x00002bd4:    985c        \.      LDR      r0,[sp,#0x170]
        0x00002bd6:    78c0        .x      LDRB     r0,[r0,#3]
        0x00002bd8:    0980        ..      LSRS     r0,r0,#6
        0x00002bda:    1e80        ..      SUBS     r0,r0,#2
        0x00002bdc:    4241        AB      RSBS     r1,r0,#0
        0x00002bde:    4148        HA      ADCS     r0,r0,r1
        0x00002be0:    9053        S.      STR      r0,[sp,#0x14c]
        0x00002be2:    e7ff        ..      B        0x2be4 ; interlock_DL + 892
        0x00002be4:    9853        S.      LDR      r0,[sp,#0x14c]
        0x00002be6:    07c1        ..      LSLS     r1,r0,#31
        0x00002be8:    2002        .       MOVS     r0,#2
        0x00002bea:    2201        ."      MOVS     r2,#1
        0x00002bec:    9251        Q.      STR      r2,[sp,#0x144]
        0x00002bee:    9052        R.      STR      r0,[sp,#0x148]
        0x00002bf0:    b909        ..      CBNZ     r1,0x2bf6 ; interlock_DL + 910
        0x00002bf2:    9851        Q.      LDR      r0,[sp,#0x144]
        0x00002bf4:    9052        R.      STR      r0,[sp,#0x148]
        0x00002bf6:    9852        R.      LDR      r0,[sp,#0x148]
        0x00002bf8:    4920         I      LDR      r1,[pc,#128] ; [0x2c7c] = 0x20000035
        0x00002bfa:    7008        .p      STRB     r0,[r1,#0]
        0x00002bfc:    985c        \.      LDR      r0,[sp,#0x170]
        0x00002bfe:    7800        .x      LDRB     r0,[r0,#0]
        0x00002c00:    0700        ..      LSLS     r0,r0,#28
        0x00002c02:    0f81        ..      LSRS     r1,r0,#30
        0x00002c04:    2000        .       MOVS     r0,#0
        0x00002c06:    2902        .)      CMP      r1,#2
        0x00002c08:    9050        P.      STR      r0,[sp,#0x140]
        0x00002c0a:    d142        B.      BNE      0x2c92 ; 0x2c92
        0x00002c0c:    e7ff        ..      B        0x2c0e ; interlock_DL + 934
        0x00002c0e:    985c        \.      LDR      r0,[sp,#0x170]
        0x00002c10:    7800        .x      LDRB     r0,[r0,#0]
        0x00002c12:    0680        ..      LSLS     r0,r0,#26
        0x00002c14:    0f81        ..      LSRS     r1,r0,#30
        0x00002c16:    2000        .       MOVS     r0,#0
        0x00002c18:    2902        .)      CMP      r1,#2
        0x00002c1a:    9050        P.      STR      r0,[sp,#0x140]
        0x00002c1c:    d139        9.      BNE      0x2c92 ; 0x2c92
        0x00002c1e:    e7ff        ..      B        0x2c20 ; interlock_DL + 952
        0x00002c20:    985c        \.      LDR      r0,[sp,#0x170]
        0x00002c22:    7880        .x      LDRB     r0,[r0,#2]
        0x00002c24:    0680        ..      LSLS     r0,r0,#26
        0x00002c26:    0f81        ..      LSRS     r1,r0,#30
        0x00002c28:    2000        .       MOVS     r0,#0
        0x00002c2a:    2901        .)      CMP      r1,#1
        0x00002c2c:    9050        P.      STR      r0,[sp,#0x140]
        0x00002c2e:    d130        0.      BNE      0x2c92 ; 0x2c92
        0x00002c30:    e7ff        ..      B        0x2c32 ; interlock_DL + 970
        0x00002c32:    985c        \.      LDR      r0,[sp,#0x170]
        0x00002c34:    7880        .x      LDRB     r0,[r0,#2]
        0x00002c36:    0981        ..      LSRS     r1,r0,#6
        0x00002c38:    2000        .       MOVS     r0,#0
        0x00002c3a:    2901        .)      CMP      r1,#1
        0x00002c3c:    9050        P.      STR      r0,[sp,#0x140]
        0x00002c3e:    d128        (.      BNE      0x2c92 ; 0x2c92
        0x00002c40:    e7ff        ..      B        0x2c42 ; interlock_DL + 986
        0x00002c42:    985e        ^.      LDR      r0,[sp,#0x178]
        0x00002c44:    7800        .x      LDRB     r0,[r0,#0]
        0x00002c46:    0981        ..      LSRS     r1,r0,#6
        0x00002c48:    2000        .       MOVS     r0,#0
        0x00002c4a:    2901        .)      CMP      r1,#1
        0x00002c4c:    9050        P.      STR      r0,[sp,#0x140]
        0x00002c4e:    d120         .      BNE      0x2c92 ; 0x2c92
        0x00002c50:    e016        ..      B        0x2c80 ; 0x2c80
        0x00002c52:    46c0        .F      MOV      r8,r8
    $d
    __arm_cp.0_20
        0x00002c54:    200002a8    ...     DCD    536871592
    __arm_cp.0_21
        0x00002c58:    200002a4    ...     DCD    536871588
    __arm_cp.0_22
        0x00002c5c:    2000028e    ...     DCD    536871566
    __arm_cp.0_23
        0x00002c60:    2000027c    |..     DCD    536871548
    __arm_cp.0_24
        0x00002c64:    20000288    ...     DCD    536871560
    __arm_cp.0_25
        0x00002c68:    2000029f    ...     DCD    536871583
    __arm_cp.0_26
        0x00002c6c:    20000298    ...     DCD    536871576
    __arm_cp.0_27
        0x00002c70:    20000282    ...     DCD    536871554
    __arm_cp.0_28
        0x00002c74:    200002a6    ...     DCD    536871590
        0x00002c78:    20000272    r..     DCD    536871538
    __arm_cp.0_30
        0x00002c7c:    20000035    5..     DCD    536870965
    $t
        0x00002c80:    985e        ^.      LDR      r0,[sp,#0x178]
        0x00002c82:    7800        .x      LDRB     r0,[r0,#0]
        0x00002c84:    0700        ..      LSLS     r0,r0,#28
        0x00002c86:    0f80        ..      LSRS     r0,r0,#30
        0x00002c88:    1e40        @.      SUBS     r0,r0,#1
        0x00002c8a:    4241        AB      RSBS     r1,r0,#0
        0x00002c8c:    4148        HA      ADCS     r0,r0,r1
        0x00002c8e:    9050        P.      STR      r0,[sp,#0x140]
        0x00002c90:    e7ff        ..      B        0x2c92 ; 0x2c92
        0x00002c92:    9850        P.      LDR      r0,[sp,#0x140]
        0x00002c94:    07c1        ..      LSLS     r1,r0,#31
        0x00002c96:    2002        .       MOVS     r0,#2
        0x00002c98:    2201        ."      MOVS     r2,#1
        0x00002c9a:    924e        N.      STR      r2,[sp,#0x138]
        0x00002c9c:    904f        O.      STR      r0,[sp,#0x13c]
        0x00002c9e:    b909        ..      CBNZ     r1,0x2ca4 ; 0x2ca4
        0x00002ca0:    984e        N.      LDR      r0,[sp,#0x138]
        0x00002ca2:    904f        O.      STR      r0,[sp,#0x13c]
        0x00002ca4:    984e        N.      LDR      r0,[sp,#0x138]
        0x00002ca6:    994f        O.      LDR      r1,[sp,#0x13c]
        0x00002ca8:    4af5        .J      LDR      r2,[pc,#980] ; [0x3080] = 0x20000036
        0x00002caa:    7011        .p      STRB     r1,[r2,#0]
        0x00002cac:    49f5        .I      LDR      r1,[pc,#980] ; [0x3084] = 0x20000037
        0x00002cae:    7008        .p      STRB     r0,[r1,#0]
        0x00002cb0:    985c        \.      LDR      r0,[sp,#0x170]
        0x00002cb2:    7801        .x      LDRB     r1,[r0,#0]
        0x00002cb4:    2003        .       MOVS     r0,#3
        0x00002cb6:    4001        .@      ANDS     r1,r1,r0
        0x00002cb8:    2000        .       MOVS     r0,#0
        0x00002cba:    2902        .)      CMP      r1,#2
        0x00002cbc:    904d        M.      STR      r0,[sp,#0x134]
        0x00002cbe:    d168        h.      BNE      0x2d92 ; 0x2d92
        0x00002cc0:    e7ff        ..      B        0x2cc2 ; 0x2cc2
        0x00002cc2:    985c        \.      LDR      r0,[sp,#0x170]
        0x00002cc4:    7800        .x      LDRB     r0,[r0,#0]
        0x00002cc6:    0981        ..      LSRS     r1,r0,#6
        0x00002cc8:    2000        .       MOVS     r0,#0
        0x00002cca:    2902        .)      CMP      r1,#2
        0x00002ccc:    904d        M.      STR      r0,[sp,#0x134]
        0x00002cce:    d160        `.      BNE      0x2d92 ; 0x2d92
        0x00002cd0:    e7ff        ..      B        0x2cd2 ; 0x2cd2
        0x00002cd2:    985c        \.      LDR      r0,[sp,#0x170]
        0x00002cd4:    7881        .x      LDRB     r1,[r0,#2]
        0x00002cd6:    2003        .       MOVS     r0,#3
        0x00002cd8:    4001        .@      ANDS     r1,r1,r0
        0x00002cda:    2000        .       MOVS     r0,#0
        0x00002cdc:    2902        .)      CMP      r1,#2
        0x00002cde:    904d        M.      STR      r0,[sp,#0x134]
        0x00002ce0:    d157        W.      BNE      0x2d92 ; 0x2d92
        0x00002ce2:    e7ff        ..      B        0x2ce4 ; 0x2ce4
        0x00002ce4:    985c        \.      LDR      r0,[sp,#0x170]
        0x00002ce6:    7880        .x      LDRB     r0,[r0,#2]
        0x00002ce8:    0981        ..      LSRS     r1,r0,#6
        0x00002cea:    2000        .       MOVS     r0,#0
        0x00002cec:    2901        .)      CMP      r1,#1
        0x00002cee:    904d        M.      STR      r0,[sp,#0x134]
        0x00002cf0:    d14f        O.      BNE      0x2d92 ; 0x2d92
        0x00002cf2:    e7ff        ..      B        0x2cf4 ; 0x2cf4
        0x00002cf4:    985c        \.      LDR      r0,[sp,#0x170]
        0x00002cf6:    78c0        .x      LDRB     r0,[r0,#3]
        0x00002cf8:    0700        ..      LSLS     r0,r0,#28
        0x00002cfa:    0f81        ..      LSRS     r1,r0,#30
        0x00002cfc:    2000        .       MOVS     r0,#0
        0x00002cfe:    2901        .)      CMP      r1,#1
        0x00002d00:    904d        M.      STR      r0,[sp,#0x134]
        0x00002d02:    d146        F.      BNE      0x2d92 ; 0x2d92
        0x00002d04:    e7ff        ..      B        0x2d06 ; 0x2d06
        0x00002d06:    985e        ^.      LDR      r0,[sp,#0x178]
        0x00002d08:    7841        Ax      LDRB     r1,[r0,#1]
        0x00002d0a:    2003        .       MOVS     r0,#3
        0x00002d0c:    4001        .@      ANDS     r1,r1,r0
        0x00002d0e:    2000        .       MOVS     r0,#0
        0x00002d10:    2902        .)      CMP      r1,#2
        0x00002d12:    904d        M.      STR      r0,[sp,#0x134]
        0x00002d14:    d13d        =.      BNE      0x2d92 ; 0x2d92
        0x00002d16:    e7ff        ..      B        0x2d18 ; 0x2d18
        0x00002d18:    985e        ^.      LDR      r0,[sp,#0x178]
        0x00002d1a:    7880        .x      LDRB     r0,[r0,#2]
        0x00002d1c:    0981        ..      LSRS     r1,r0,#6
        0x00002d1e:    2000        .       MOVS     r0,#0
        0x00002d20:    2902        .)      CMP      r1,#2
        0x00002d22:    904d        M.      STR      r0,[sp,#0x134]
        0x00002d24:    d135        5.      BNE      0x2d92 ; 0x2d92
        0x00002d26:    e7ff        ..      B        0x2d28 ; 0x2d28
        0x00002d28:    985e        ^.      LDR      r0,[sp,#0x178]
        0x00002d2a:    7880        .x      LDRB     r0,[r0,#2]
        0x00002d2c:    0680        ..      LSLS     r0,r0,#26
        0x00002d2e:    0f81        ..      LSRS     r1,r0,#30
        0x00002d30:    2000        .       MOVS     r0,#0
        0x00002d32:    2901        .)      CMP      r1,#1
        0x00002d34:    904d        M.      STR      r0,[sp,#0x134]
        0x00002d36:    d12c        ,.      BNE      0x2d92 ; 0x2d92
        0x00002d38:    e7ff        ..      B        0x2d3a ; 0x2d3a
        0x00002d3a:    985e        ^.      LDR      r0,[sp,#0x178]
        0x00002d3c:    7840        @x      LDRB     r0,[r0,#1]
        0x00002d3e:    0700        ..      LSLS     r0,r0,#28
        0x00002d40:    0f81        ..      LSRS     r1,r0,#30
        0x00002d42:    2000        .       MOVS     r0,#0
        0x00002d44:    2902        .)      CMP      r1,#2
        0x00002d46:    904d        M.      STR      r0,[sp,#0x134]
        0x00002d48:    d123        #.      BNE      0x2d92 ; 0x2d92
        0x00002d4a:    e7ff        ..      B        0x2d4c ; 0x2d4c
        0x00002d4c:    985e        ^.      LDR      r0,[sp,#0x178]
        0x00002d4e:    7900        .y      LDRB     r0,[r0,#4]
        0x00002d50:    0700        ..      LSLS     r0,r0,#28
        0x00002d52:    0f81        ..      LSRS     r1,r0,#30
        0x00002d54:    2000        .       MOVS     r0,#0
        0x00002d56:    2901        .)      CMP      r1,#1
        0x00002d58:    904d        M.      STR      r0,[sp,#0x134]
        0x00002d5a:    d11a        ..      BNE      0x2d92 ; 0x2d92
        0x00002d5c:    e7ff        ..      B        0x2d5e ; 0x2d5e
        0x00002d5e:    985e        ^.      LDR      r0,[sp,#0x178]
        0x00002d60:    78c0        .x      LDRB     r0,[r0,#3]
        0x00002d62:    0981        ..      LSRS     r1,r0,#6
        0x00002d64:    2000        .       MOVS     r0,#0
        0x00002d66:    2901        .)      CMP      r1,#1
        0x00002d68:    904d        M.      STR      r0,[sp,#0x134]
        0x00002d6a:    d112        ..      BNE      0x2d92 ; 0x2d92
        0x00002d6c:    e7ff        ..      B        0x2d6e ; 0x2d6e
        0x00002d6e:    985e        ^.      LDR      r0,[sp,#0x178]
        0x00002d70:    78c0        .x      LDRB     r0,[r0,#3]
        0x00002d72:    0680        ..      LSLS     r0,r0,#26
        0x00002d74:    0f81        ..      LSRS     r1,r0,#30
        0x00002d76:    2000        .       MOVS     r0,#0
        0x00002d78:    2901        .)      CMP      r1,#1
        0x00002d7a:    904d        M.      STR      r0,[sp,#0x134]
        0x00002d7c:    d109        ..      BNE      0x2d92 ; 0x2d92
        0x00002d7e:    e7ff        ..      B        0x2d80 ; 0x2d80
        0x00002d80:    985c        \.      LDR      r0,[sp,#0x170]
        0x00002d82:    7900        .y      LDRB     r0,[r0,#4]
        0x00002d84:    2103        .!      MOVS     r1,#3
        0x00002d86:    4008        .@      ANDS     r0,r0,r1
        0x00002d88:    1e80        ..      SUBS     r0,r0,#2
        0x00002d8a:    4241        AB      RSBS     r1,r0,#0
        0x00002d8c:    4148        HA      ADCS     r0,r0,r1
        0x00002d8e:    904d        M.      STR      r0,[sp,#0x134]
        0x00002d90:    e7ff        ..      B        0x2d92 ; 0x2d92
        0x00002d92:    984d        M.      LDR      r0,[sp,#0x134]
        0x00002d94:    07c1        ..      LSLS     r1,r0,#31
        0x00002d96:    2002        .       MOVS     r0,#2
        0x00002d98:    2201        ."      MOVS     r2,#1
        0x00002d9a:    924b        K.      STR      r2,[sp,#0x12c]
        0x00002d9c:    904c        L.      STR      r0,[sp,#0x130]
        0x00002d9e:    b909        ..      CBNZ     r1,0x2da4 ; 0x2da4
        0x00002da0:    984b        K.      LDR      r0,[sp,#0x12c]
        0x00002da2:    904c        L.      STR      r0,[sp,#0x130]
        0x00002da4:    984c        L.      LDR      r0,[sp,#0x130]
        0x00002da6:    49b8        .I      LDR      r1,[pc,#736] ; [0x3088] = 0x20000032
        0x00002da8:    7008        .p      STRB     r0,[r1,#0]
        0x00002daa:    985c        \.      LDR      r0,[sp,#0x170]
        0x00002dac:    7801        .x      LDRB     r1,[r0,#0]
        0x00002dae:    2003        .       MOVS     r0,#3
        0x00002db0:    4001        .@      ANDS     r1,r1,r0
        0x00002db2:    2000        .       MOVS     r0,#0
        0x00002db4:    2902        .)      CMP      r1,#2
        0x00002db6:    904a        J.      STR      r0,[sp,#0x128]
        0x00002db8:    d135        5.      BNE      0x2e26 ; 0x2e26
        0x00002dba:    e7ff        ..      B        0x2dbc ; 0x2dbc
        0x00002dbc:    985c        \.      LDR      r0,[sp,#0x170]
        0x00002dbe:    7800        .x      LDRB     r0,[r0,#0]
        0x00002dc0:    0981        ..      LSRS     r1,r0,#6
        0x00002dc2:    2000        .       MOVS     r0,#0
        0x00002dc4:    2902        .)      CMP      r1,#2
        0x00002dc6:    904a        J.      STR      r0,[sp,#0x128]
        0x00002dc8:    d12d        -.      BNE      0x2e26 ; 0x2e26
        0x00002dca:    e7ff        ..      B        0x2dcc ; 0x2dcc
        0x00002dcc:    985c        \.      LDR      r0,[sp,#0x170]
        0x00002dce:    78c0        .x      LDRB     r0,[r0,#3]
        0x00002dd0:    0700        ..      LSLS     r0,r0,#28
        0x00002dd2:    0f81        ..      LSRS     r1,r0,#30
        0x00002dd4:    2000        .       MOVS     r0,#0
        0x00002dd6:    2901        .)      CMP      r1,#1
        0x00002dd8:    904a        J.      STR      r0,[sp,#0x128]
        0x00002dda:    d124        $.      BNE      0x2e26 ; 0x2e26
        0x00002ddc:    e7ff        ..      B        0x2dde ; 0x2dde
        0x00002dde:    985e        ^.      LDR      r0,[sp,#0x178]
        0x00002de0:    7841        Ax      LDRB     r1,[r0,#1]
        0x00002de2:    2003        .       MOVS     r0,#3
        0x00002de4:    4001        .@      ANDS     r1,r1,r0
        0x00002de6:    2000        .       MOVS     r0,#0
        0x00002de8:    2901        .)      CMP      r1,#1
        0x00002dea:    904a        J.      STR      r0,[sp,#0x128]
        0x00002dec:    d11b        ..      BNE      0x2e26 ; 0x2e26
        0x00002dee:    e7ff        ..      B        0x2df0 ; 0x2df0
        0x00002df0:    985e        ^.      LDR      r0,[sp,#0x178]
        0x00002df2:    7880        .x      LDRB     r0,[r0,#2]
        0x00002df4:    0680        ..      LSLS     r0,r0,#26
        0x00002df6:    0f81        ..      LSRS     r1,r0,#30
        0x00002df8:    2000        .       MOVS     r0,#0
        0x00002dfa:    2902        .)      CMP      r1,#2
        0x00002dfc:    904a        J.      STR      r0,[sp,#0x128]
        0x00002dfe:    d112        ..      BNE      0x2e26 ; 0x2e26
        0x00002e00:    e7ff        ..      B        0x2e02 ; 0x2e02
        0x00002e02:    985e        ^.      LDR      r0,[sp,#0x178]
        0x00002e04:    7840        @x      LDRB     r0,[r0,#1]
        0x00002e06:    0700        ..      LSLS     r0,r0,#28
        0x00002e08:    0f81        ..      LSRS     r1,r0,#30
        0x00002e0a:    2000        .       MOVS     r0,#0
        0x00002e0c:    2902        .)      CMP      r1,#2
        0x00002e0e:    904a        J.      STR      r0,[sp,#0x128]
        0x00002e10:    d109        ..      BNE      0x2e26 ; 0x2e26
        0x00002e12:    e7ff        ..      B        0x2e14 ; 0x2e14
        0x00002e14:    985e        ^.      LDR      r0,[sp,#0x178]
        0x00002e16:    7900        .y      LDRB     r0,[r0,#4]
        0x00002e18:    0700        ..      LSLS     r0,r0,#28
        0x00002e1a:    0f80        ..      LSRS     r0,r0,#30
        0x00002e1c:    1e80        ..      SUBS     r0,r0,#2
        0x00002e1e:    4241        AB      RSBS     r1,r0,#0
        0x00002e20:    4148        HA      ADCS     r0,r0,r1
        0x00002e22:    904a        J.      STR      r0,[sp,#0x128]
        0x00002e24:    e7ff        ..      B        0x2e26 ; 0x2e26
        0x00002e26:    984a        J.      LDR      r0,[sp,#0x128]
        0x00002e28:    07c1        ..      LSLS     r1,r0,#31
        0x00002e2a:    2002        .       MOVS     r0,#2
        0x00002e2c:    2201        ."      MOVS     r2,#1
        0x00002e2e:    9248        H.      STR      r2,[sp,#0x120]
        0x00002e30:    9049        I.      STR      r0,[sp,#0x124]
        0x00002e32:    b909        ..      CBNZ     r1,0x2e38 ; 0x2e38
        0x00002e34:    9848        H.      LDR      r0,[sp,#0x120]
        0x00002e36:    9049        I.      STR      r0,[sp,#0x124]
        0x00002e38:    9849        I.      LDR      r0,[sp,#0x124]
        0x00002e3a:    4994        .I      LDR      r1,[pc,#592] ; [0x308c] = 0x20000033
        0x00002e3c:    7008        .p      STRB     r0,[r1,#0]
        0x00002e3e:    985c        \.      LDR      r0,[sp,#0x170]
        0x00002e40:    7801        .x      LDRB     r1,[r0,#0]
        0x00002e42:    2003        .       MOVS     r0,#3
        0x00002e44:    4001        .@      ANDS     r1,r1,r0
        0x00002e46:    2000        .       MOVS     r0,#0
        0x00002e48:    2902        .)      CMP      r1,#2
        0x00002e4a:    9047        G.      STR      r0,[sp,#0x11c]
        0x00002e4c:    d135        5.      BNE      0x2eba ; 0x2eba
        0x00002e4e:    e7ff        ..      B        0x2e50 ; 0x2e50
        0x00002e50:    985c        \.      LDR      r0,[sp,#0x170]
        0x00002e52:    7800        .x      LDRB     r0,[r0,#0]
        0x00002e54:    0981        ..      LSRS     r1,r0,#6
        0x00002e56:    2000        .       MOVS     r0,#0
        0x00002e58:    2902        .)      CMP      r1,#2
        0x00002e5a:    9047        G.      STR      r0,[sp,#0x11c]
        0x00002e5c:    d12d        -.      BNE      0x2eba ; 0x2eba
        0x00002e5e:    e7ff        ..      B        0x2e60 ; 0x2e60
        0x00002e60:    985c        \.      LDR      r0,[sp,#0x170]
        0x00002e62:    78c0        .x      LDRB     r0,[r0,#3]
        0x00002e64:    0700        ..      LSLS     r0,r0,#28
        0x00002e66:    0f81        ..      LSRS     r1,r0,#30
        0x00002e68:    2000        .       MOVS     r0,#0
        0x00002e6a:    2901        .)      CMP      r1,#1
        0x00002e6c:    9047        G.      STR      r0,[sp,#0x11c]
        0x00002e6e:    d124        $.      BNE      0x2eba ; 0x2eba
        0x00002e70:    e7ff        ..      B        0x2e72 ; 0x2e72
        0x00002e72:    985e        ^.      LDR      r0,[sp,#0x178]
        0x00002e74:    7841        Ax      LDRB     r1,[r0,#1]
        0x00002e76:    2003        .       MOVS     r0,#3
        0x00002e78:    4001        .@      ANDS     r1,r1,r0
        0x00002e7a:    2000        .       MOVS     r0,#0
        0x00002e7c:    2901        .)      CMP      r1,#1
        0x00002e7e:    9047        G.      STR      r0,[sp,#0x11c]
        0x00002e80:    d11b        ..      BNE      0x2eba ; 0x2eba
        0x00002e82:    e7ff        ..      B        0x2e84 ; 0x2e84
        0x00002e84:    985e        ^.      LDR      r0,[sp,#0x178]
        0x00002e86:    7880        .x      LDRB     r0,[r0,#2]
        0x00002e88:    0680        ..      LSLS     r0,r0,#26
        0x00002e8a:    0f81        ..      LSRS     r1,r0,#30
        0x00002e8c:    2000        .       MOVS     r0,#0
        0x00002e8e:    2901        .)      CMP      r1,#1
        0x00002e90:    9047        G.      STR      r0,[sp,#0x11c]
        0x00002e92:    d112        ..      BNE      0x2eba ; 0x2eba
        0x00002e94:    e7ff        ..      B        0x2e96 ; 0x2e96
        0x00002e96:    985e        ^.      LDR      r0,[sp,#0x178]
        0x00002e98:    7840        @x      LDRB     r0,[r0,#1]
        0x00002e9a:    0700        ..      LSLS     r0,r0,#28
        0x00002e9c:    0f81        ..      LSRS     r1,r0,#30
        0x00002e9e:    2000        .       MOVS     r0,#0
        0x00002ea0:    2902        .)      CMP      r1,#2
        0x00002ea2:    9047        G.      STR      r0,[sp,#0x11c]
        0x00002ea4:    d109        ..      BNE      0x2eba ; 0x2eba
        0x00002ea6:    e7ff        ..      B        0x2ea8 ; 0x2ea8
        0x00002ea8:    985e        ^.      LDR      r0,[sp,#0x178]
        0x00002eaa:    78c0        .x      LDRB     r0,[r0,#3]
        0x00002eac:    0680        ..      LSLS     r0,r0,#26
        0x00002eae:    0f80        ..      LSRS     r0,r0,#30
        0x00002eb0:    1e80        ..      SUBS     r0,r0,#2
        0x00002eb2:    4241        AB      RSBS     r1,r0,#0
        0x00002eb4:    4148        HA      ADCS     r0,r0,r1
        0x00002eb6:    9047        G.      STR      r0,[sp,#0x11c]
        0x00002eb8:    e7ff        ..      B        0x2eba ; 0x2eba
        0x00002eba:    9847        G.      LDR      r0,[sp,#0x11c]
        0x00002ebc:    07c1        ..      LSLS     r1,r0,#31
        0x00002ebe:    2002        .       MOVS     r0,#2
        0x00002ec0:    2201        ."      MOVS     r2,#1
        0x00002ec2:    9245        E.      STR      r2,[sp,#0x114]
        0x00002ec4:    9046        F.      STR      r0,[sp,#0x118]
        0x00002ec6:    b909        ..      CBNZ     r1,0x2ecc ; 0x2ecc
        0x00002ec8:    9845        E.      LDR      r0,[sp,#0x114]
        0x00002eca:    9046        F.      STR      r0,[sp,#0x118]
        0x00002ecc:    9846        F.      LDR      r0,[sp,#0x118]
        0x00002ece:    4970        pI      LDR      r1,[pc,#448] ; [0x3090] = 0x20000034
        0x00002ed0:    7008        .p      STRB     r0,[r1,#0]
        0x00002ed2:    985c        \.      LDR      r0,[sp,#0x170]
        0x00002ed4:    7800        .x      LDRB     r0,[r0,#0]
        0x00002ed6:    0700        ..      LSLS     r0,r0,#28
        0x00002ed8:    0f81        ..      LSRS     r1,r0,#30
        0x00002eda:    2000        .       MOVS     r0,#0
        0x00002edc:    2902        .)      CMP      r1,#2
        0x00002ede:    9044        D.      STR      r0,[sp,#0x110]
        0x00002ee0:    d11b        ..      BNE      0x2f1a ; 0x2f1a
        0x00002ee2:    e7ff        ..      B        0x2ee4 ; 0x2ee4
        0x00002ee4:    985c        \.      LDR      r0,[sp,#0x170]
        0x00002ee6:    7840        @x      LDRB     r0,[r0,#1]
        0x00002ee8:    0700        ..      LSLS     r0,r0,#28
        0x00002eea:    0f81        ..      LSRS     r1,r0,#30
        0x00002eec:    2000        .       MOVS     r0,#0
        0x00002eee:    2902        .)      CMP      r1,#2
        0x00002ef0:    9044        D.      STR      r0,[sp,#0x110]
        0x00002ef2:    d112        ..      BNE      0x2f1a ; 0x2f1a
        0x00002ef4:    e7ff        ..      B        0x2ef6 ; 0x2ef6
        0x00002ef6:    9860        `.      LDR      r0,[sp,#0x180]
        0x00002ef8:    7801        .x      LDRB     r1,[r0,#0]
        0x00002efa:    2003        .       MOVS     r0,#3
        0x00002efc:    4001        .@      ANDS     r1,r1,r0
        0x00002efe:    2000        .       MOVS     r0,#0
        0x00002f00:    2902        .)      CMP      r1,#2
        0x00002f02:    9044        D.      STR      r0,[sp,#0x110]
        0x00002f04:    d109        ..      BNE      0x2f1a ; 0x2f1a
        0x00002f06:    e7ff        ..      B        0x2f08 ; 0x2f08
        0x00002f08:    985e        ^.      LDR      r0,[sp,#0x178]
        0x00002f0a:    7800        .x      LDRB     r0,[r0,#0]
        0x00002f0c:    0700        ..      LSLS     r0,r0,#28
        0x00002f0e:    0f80        ..      LSRS     r0,r0,#30
        0x00002f10:    1e80        ..      SUBS     r0,r0,#2
        0x00002f12:    4241        AB      RSBS     r1,r0,#0
        0x00002f14:    4148        HA      ADCS     r0,r0,r1
        0x00002f16:    9044        D.      STR      r0,[sp,#0x110]
        0x00002f18:    e7ff        ..      B        0x2f1a ; 0x2f1a
        0x00002f1a:    9844        D.      LDR      r0,[sp,#0x110]
        0x00002f1c:    07c1        ..      LSLS     r1,r0,#31
        0x00002f1e:    2002        .       MOVS     r0,#2
        0x00002f20:    2201        ."      MOVS     r2,#1
        0x00002f22:    9242        B.      STR      r2,[sp,#0x108]
        0x00002f24:    9043        C.      STR      r0,[sp,#0x10c]
        0x00002f26:    b909        ..      CBNZ     r1,0x2f2c ; 0x2f2c
        0x00002f28:    9842        B.      LDR      r0,[sp,#0x108]
        0x00002f2a:    9043        C.      STR      r0,[sp,#0x10c]
        0x00002f2c:    9843        C.      LDR      r0,[sp,#0x10c]
        0x00002f2e:    4959        YI      LDR      r1,[pc,#356] ; [0x3094] = 0x20000030
        0x00002f30:    7008        .p      STRB     r0,[r1,#0]
        0x00002f32:    985c        \.      LDR      r0,[sp,#0x170]
        0x00002f34:    7800        .x      LDRB     r0,[r0,#0]
        0x00002f36:    0700        ..      LSLS     r0,r0,#28
        0x00002f38:    0f81        ..      LSRS     r1,r0,#30
        0x00002f3a:    2000        .       MOVS     r0,#0
        0x00002f3c:    2902        .)      CMP      r1,#2
        0x00002f3e:    9041        A.      STR      r0,[sp,#0x104]
        0x00002f40:    d11b        ..      BNE      0x2f7a ; 0x2f7a
        0x00002f42:    e7ff        ..      B        0x2f44 ; 0x2f44
        0x00002f44:    985c        \.      LDR      r0,[sp,#0x170]
        0x00002f46:    7840        @x      LDRB     r0,[r0,#1]
        0x00002f48:    0700        ..      LSLS     r0,r0,#28
        0x00002f4a:    0f81        ..      LSRS     r1,r0,#30
        0x00002f4c:    2000        .       MOVS     r0,#0
        0x00002f4e:    2902        .)      CMP      r1,#2
        0x00002f50:    9041        A.      STR      r0,[sp,#0x104]
        0x00002f52:    d112        ..      BNE      0x2f7a ; 0x2f7a
        0x00002f54:    e7ff        ..      B        0x2f56 ; 0x2f56
        0x00002f56:    985c        \.      LDR      r0,[sp,#0x170]
        0x00002f58:    7900        .y      LDRB     r0,[r0,#4]
        0x00002f5a:    0700        ..      LSLS     r0,r0,#28
        0x00002f5c:    0f81        ..      LSRS     r1,r0,#30
        0x00002f5e:    2000        .       MOVS     r0,#0
        0x00002f60:    2902        .)      CMP      r1,#2
        0x00002f62:    9041        A.      STR      r0,[sp,#0x104]
        0x00002f64:    d109        ..      BNE      0x2f7a ; 0x2f7a
        0x00002f66:    e7ff        ..      B        0x2f68 ; 0x2f68
        0x00002f68:    9860        `.      LDR      r0,[sp,#0x180]
        0x00002f6a:    7800        .x      LDRB     r0,[r0,#0]
        0x00002f6c:    2103        .!      MOVS     r1,#3
        0x00002f6e:    4008        .@      ANDS     r0,r0,r1
        0x00002f70:    1e80        ..      SUBS     r0,r0,#2
        0x00002f72:    4241        AB      RSBS     r1,r0,#0
        0x00002f74:    4148        HA      ADCS     r0,r0,r1
        0x00002f76:    9041        A.      STR      r0,[sp,#0x104]
        0x00002f78:    e7ff        ..      B        0x2f7a ; 0x2f7a
        0x00002f7a:    9841        A.      LDR      r0,[sp,#0x104]
        0x00002f7c:    07c1        ..      LSLS     r1,r0,#31
        0x00002f7e:    2002        .       MOVS     r0,#2
        0x00002f80:    2201        ."      MOVS     r2,#1
        0x00002f82:    923f        ?.      STR      r2,[sp,#0xfc]
        0x00002f84:    9040        @.      STR      r0,[sp,#0x100]
        0x00002f86:    b909        ..      CBNZ     r1,0x2f8c ; 0x2f8c
        0x00002f88:    983f        ?.      LDR      r0,[sp,#0xfc]
        0x00002f8a:    9040        @.      STR      r0,[sp,#0x100]
        0x00002f8c:    9840        @.      LDR      r0,[sp,#0x100]
        0x00002f8e:    4942        BI      LDR      r1,[pc,#264] ; [0x3098] = 0x20000031
        0x00002f90:    7008        .p      STRB     r0,[r1,#0]
        0x00002f92:    985c        \.      LDR      r0,[sp,#0x170]
        0x00002f94:    7800        .x      LDRB     r0,[r0,#0]
        0x00002f96:    0700        ..      LSLS     r0,r0,#28
        0x00002f98:    0f81        ..      LSRS     r1,r0,#30
        0x00002f9a:    2000        .       MOVS     r0,#0
        0x00002f9c:    2902        .)      CMP      r1,#2
        0x00002f9e:    903e        >.      STR      r0,[sp,#0xf8]
        0x00002fa0:    d12b        +.      BNE      0x2ffa ; 0x2ffa
        0x00002fa2:    e7ff        ..      B        0x2fa4 ; 0x2fa4
        0x00002fa4:    985c        \.      LDR      r0,[sp,#0x170]
        0x00002fa6:    7800        .x      LDRB     r0,[r0,#0]
        0x00002fa8:    0680        ..      LSLS     r0,r0,#26
        0x00002faa:    0f81        ..      LSRS     r1,r0,#30
        0x00002fac:    2000        .       MOVS     r0,#0
        0x00002fae:    2902        .)      CMP      r1,#2
        0x00002fb0:    903e        >.      STR      r0,[sp,#0xf8]
        0x00002fb2:    d122        ".      BNE      0x2ffa ; 0x2ffa
        0x00002fb4:    e7ff        ..      B        0x2fb6 ; 0x2fb6
        0x00002fb6:    985c        \.      LDR      r0,[sp,#0x170]
        0x00002fb8:    7880        .x      LDRB     r0,[r0,#2]
        0x00002fba:    0680        ..      LSLS     r0,r0,#26
        0x00002fbc:    0f81        ..      LSRS     r1,r0,#30
        0x00002fbe:    2000        .       MOVS     r0,#0
        0x00002fc0:    2902        .)      CMP      r1,#2
        0x00002fc2:    903e        >.      STR      r0,[sp,#0xf8]
        0x00002fc4:    d119        ..      BNE      0x2ffa ; 0x2ffa
        0x00002fc6:    e7ff        ..      B        0x2fc8 ; 0x2fc8
        0x00002fc8:    985c        \.      LDR      r0,[sp,#0x170]
        0x00002fca:    7880        .x      LDRB     r0,[r0,#2]
        0x00002fcc:    0981        ..      LSRS     r1,r0,#6
        0x00002fce:    2000        .       MOVS     r0,#0
        0x00002fd0:    2902        .)      CMP      r1,#2
        0x00002fd2:    903e        >.      STR      r0,[sp,#0xf8]
        0x00002fd4:    d111        ..      BNE      0x2ffa ; 0x2ffa
        0x00002fd6:    e7ff        ..      B        0x2fd8 ; 0x2fd8
        0x00002fd8:    9860        `.      LDR      r0,[sp,#0x180]
        0x00002fda:    7801        .x      LDRB     r1,[r0,#0]
        0x00002fdc:    2003        .       MOVS     r0,#3
        0x00002fde:    4001        .@      ANDS     r1,r1,r0
        0x00002fe0:    2000        .       MOVS     r0,#0
        0x00002fe2:    2901        .)      CMP      r1,#1
        0x00002fe4:    903e        >.      STR      r0,[sp,#0xf8]
        0x00002fe6:    d108        ..      BNE      0x2ffa ; 0x2ffa
        0x00002fe8:    e7ff        ..      B        0x2fea ; 0x2fea
        0x00002fea:    985c        \.      LDR      r0,[sp,#0x170]
        0x00002fec:    78c0        .x      LDRB     r0,[r0,#3]
        0x00002fee:    0980        ..      LSRS     r0,r0,#6
        0x00002ff0:    1e80        ..      SUBS     r0,r0,#2
        0x00002ff2:    4241        AB      RSBS     r1,r0,#0
        0x00002ff4:    4148        HA      ADCS     r0,r0,r1
        0x00002ff6:    903e        >.      STR      r0,[sp,#0xf8]
        0x00002ff8:    e7ff        ..      B        0x2ffa ; 0x2ffa
        0x00002ffa:    983e        >.      LDR      r0,[sp,#0xf8]
        0x00002ffc:    07c1        ..      LSLS     r1,r0,#31
        0x00002ffe:    2002        .       MOVS     r0,#2
        0x00003000:    2201        ."      MOVS     r2,#1
        0x00003002:    923c        <.      STR      r2,[sp,#0xf0]
        0x00003004:    903d        =.      STR      r0,[sp,#0xf4]
        0x00003006:    b909        ..      CBNZ     r1,0x300c ; 0x300c
        0x00003008:    983c        <.      LDR      r0,[sp,#0xf0]
        0x0000300a:    903d        =.      STR      r0,[sp,#0xf4]
        0x0000300c:    9a3d        =.      LDR      r2,[sp,#0xf4]
        0x0000300e:    995d        ].      LDR      r1,[sp,#0x174]
        0x00003010:    7808        .x      LDRB     r0,[r1,#0]
        0x00003012:    23fc        .#      MOVS     r3,#0xfc
        0x00003014:    4018        .@      ANDS     r0,r0,r3
        0x00003016:    1880        ..      ADDS     r0,r0,r2
        0x00003018:    7008        .p      STRB     r0,[r1,#0]
        0x0000301a:    9859        Y.      LDR      r0,[sp,#0x164]
        0x0000301c:    7800        .x      LDRB     r0,[r0,#0]
        0x0000301e:    0680        ..      LSLS     r0,r0,#26
        0x00003020:    0f81        ..      LSRS     r1,r0,#30
        0x00003022:    2000        .       MOVS     r0,#0
        0x00003024:    2902        .)      CMP      r1,#2
        0x00003026:    903b        ;.      STR      r0,[sp,#0xec]
        0x00003028:    d110        ..      BNE      0x304c ; 0x304c
        0x0000302a:    e7ff        ..      B        0x302c ; 0x302c
        0x0000302c:    985a        Z.      LDR      r0,[sp,#0x168]
        0x0000302e:    7880        .x      LDRB     r0,[r0,#2]
        0x00003030:    0981        ..      LSRS     r1,r0,#6
        0x00003032:    2000        .       MOVS     r0,#0
        0x00003034:    2902        .)      CMP      r1,#2
        0x00003036:    903b        ;.      STR      r0,[sp,#0xec]
        0x00003038:    d108        ..      BNE      0x304c ; 0x304c
        0x0000303a:    e7ff        ..      B        0x303c ; 0x303c
        0x0000303c:    985c        \.      LDR      r0,[sp,#0x170]
        0x0000303e:    78c0        .x      LDRB     r0,[r0,#3]
        0x00003040:    0980        ..      LSRS     r0,r0,#6
        0x00003042:    1e80        ..      SUBS     r0,r0,#2
        0x00003044:    4241        AB      RSBS     r1,r0,#0
        0x00003046:    4148        HA      ADCS     r0,r0,r1
        0x00003048:    903b        ;.      STR      r0,[sp,#0xec]
        0x0000304a:    e7ff        ..      B        0x304c ; 0x304c
        0x0000304c:    983b        ;.      LDR      r0,[sp,#0xec]
        0x0000304e:    07c1        ..      LSLS     r1,r0,#31
        0x00003050:    2008        .       MOVS     r0,#8
        0x00003052:    2204        ."      MOVS     r2,#4
        0x00003054:    9239        9.      STR      r2,[sp,#0xe4]
        0x00003056:    903a        :.      STR      r0,[sp,#0xe8]
        0x00003058:    b909        ..      CBNZ     r1,0x305e ; 0x305e
        0x0000305a:    9839        9.      LDR      r0,[sp,#0xe4]
        0x0000305c:    903a        :.      STR      r0,[sp,#0xe8]
        0x0000305e:    9a3a        :.      LDR      r2,[sp,#0xe8]
        0x00003060:    995d        ].      LDR      r1,[sp,#0x174]
        0x00003062:    7808        .x      LDRB     r0,[r1,#0]
        0x00003064:    23f3        .#      MOVS     r3,#0xf3
        0x00003066:    4018        .@      ANDS     r0,r0,r3
        0x00003068:    1880        ..      ADDS     r0,r0,r2
        0x0000306a:    7008        .p      STRB     r0,[r1,#0]
        0x0000306c:    9859        Y.      LDR      r0,[sp,#0x164]
        0x0000306e:    7800        .x      LDRB     r0,[r0,#0]
        0x00003070:    0680        ..      LSLS     r0,r0,#26
        0x00003072:    0f81        ..      LSRS     r1,r0,#30
        0x00003074:    2000        .       MOVS     r0,#0
        0x00003076:    2902        .)      CMP      r1,#2
        0x00003078:    9038        8.      STR      r0,[sp,#0xe0]
        0x0000307a:    d117        ..      BNE      0x30ac ; 0x30ac
        0x0000307c:    e00e        ..      B        0x309c ; 0x309c
        0x0000307e:    46c0        .F      MOV      r8,r8
    $d
    __arm_cp.0_31
        0x00003080:    20000036    6..     DCD    536870966
    __arm_cp.0_32
        0x00003084:    20000037    7..     DCD    536870967
    __arm_cp.0_33
        0x00003088:    20000032    2..     DCD    536870962
    __arm_cp.0_34
        0x0000308c:    20000033    3..     DCD    536870963
    __arm_cp.0_35
        0x00003090:    20000034    4..     DCD    536870964
    __arm_cp.0_36
        0x00003094:    20000030    0..     DCD    536870960
    __arm_cp.0_37
        0x00003098:    20000031    1..     DCD    536870961
    $t
        0x0000309c:    985b        [.      LDR      r0,[sp,#0x16c]
        0x0000309e:    7800        .x      LDRB     r0,[r0,#0]
        0x000030a0:    0980        ..      LSRS     r0,r0,#6
        0x000030a2:    1e80        ..      SUBS     r0,r0,#2
        0x000030a4:    4241        AB      RSBS     r1,r0,#0
        0x000030a6:    4148        HA      ADCS     r0,r0,r1
        0x000030a8:    9038        8.      STR      r0,[sp,#0xe0]
        0x000030aa:    e7ff        ..      B        0x30ac ; 0x30ac
        0x000030ac:    9838        8.      LDR      r0,[sp,#0xe0]
        0x000030ae:    07c1        ..      LSLS     r1,r0,#31
        0x000030b0:    2080        .       MOVS     r0,#0x80
        0x000030b2:    2240        @"      MOVS     r2,#0x40
        0x000030b4:    9236        6.      STR      r2,[sp,#0xd8]
        0x000030b6:    9037        7.      STR      r0,[sp,#0xdc]
        0x000030b8:    b909        ..      CBNZ     r1,0x30be ; 0x30be
        0x000030ba:    9836        6.      LDR      r0,[sp,#0xd8]
        0x000030bc:    9037        7.      STR      r0,[sp,#0xdc]
        0x000030be:    9a37        7.      LDR      r2,[sp,#0xdc]
        0x000030c0:    995d        ].      LDR      r1,[sp,#0x174]
        0x000030c2:    7808        .x      LDRB     r0,[r1,#0]
        0x000030c4:    233f        ?#      MOVS     r3,#0x3f
        0x000030c6:    4018        .@      ANDS     r0,r0,r3
        0x000030c8:    1880        ..      ADDS     r0,r0,r2
        0x000030ca:    7008        .p      STRB     r0,[r1,#0]
        0x000030cc:    985a        Z.      LDR      r0,[sp,#0x168]
        0x000030ce:    7801        .x      LDRB     r1,[r0,#0]
        0x000030d0:    2003        .       MOVS     r0,#3
        0x000030d2:    9032        2.      STR      r0,[sp,#0xc8]
        0x000030d4:    4001        .@      ANDS     r1,r1,r0
        0x000030d6:    9133        3.      STR      r1,[sp,#0xcc]
        0x000030d8:    2001        .       MOVS     r0,#1
        0x000030da:    9034        4.      STR      r0,[sp,#0xd0]
        0x000030dc:    2902        .)      CMP      r1,#2
        0x000030de:    9035        5.      STR      r0,[sp,#0xd4]
        0x000030e0:    d101        ..      BNE      0x30e6 ; 0x30e6
        0x000030e2:    9833        3.      LDR      r0,[sp,#0xcc]
        0x000030e4:    9035        5.      STR      r0,[sp,#0xd4]
        0x000030e6:    9834        4.      LDR      r0,[sp,#0xd0]
        0x000030e8:    9b35        5.      LDR      r3,[sp,#0xd4]
        0x000030ea:    9a5d        ].      LDR      r2,[sp,#0x174]
        0x000030ec:    7851        Qx      LDRB     r1,[r2,#1]
        0x000030ee:    24fc        .$      MOVS     r4,#0xfc
        0x000030f0:    4021        !@      ANDS     r1,r1,r4
        0x000030f2:    18c9        ..      ADDS     r1,r1,r3
        0x000030f4:    7051        Qp      STRB     r1,[r2,#1]
        0x000030f6:    995b        [.      LDR      r1,[sp,#0x16c]
        0x000030f8:    7809        .x      LDRB     r1,[r1,#0]
        0x000030fa:    0689        ..      LSLS     r1,r1,#26
        0x000030fc:    0f89        ..      LSRS     r1,r1,#30
        0x000030fe:    9130        0.      STR      r1,[sp,#0xc0]
        0x00003100:    2902        .)      CMP      r1,#2
        0x00003102:    9031        1.      STR      r0,[sp,#0xc4]
        0x00003104:    d101        ..      BNE      0x310a ; 0x310a
        0x00003106:    9830        0.      LDR      r0,[sp,#0xc0]
        0x00003108:    9031        1.      STR      r0,[sp,#0xc4]
        0x0000310a:    9832        2.      LDR      r0,[sp,#0xc8]
        0x0000310c:    9b31        1.      LDR      r3,[sp,#0xc4]
        0x0000310e:    9a5d        ].      LDR      r2,[sp,#0x174]
        0x00003110:    7851        Qx      LDRB     r1,[r2,#1]
        0x00003112:    009b        ..      LSLS     r3,r3,#2
        0x00003114:    24f3        .$      MOVS     r4,#0xf3
        0x00003116:    4021        !@      ANDS     r1,r1,r4
        0x00003118:    18c9        ..      ADDS     r1,r1,r3
        0x0000311a:    7051        Qp      STRB     r1,[r2,#1]
        0x0000311c:    995c        \.      LDR      r1,[sp,#0x170]
        0x0000311e:    7809        .x      LDRB     r1,[r1,#0]
        0x00003120:    4001        .@      ANDS     r1,r1,r0
        0x00003122:    2000        .       MOVS     r0,#0
        0x00003124:    2902        .)      CMP      r1,#2
        0x00003126:    902f        /.      STR      r0,[sp,#0xbc]
        0x00003128:    d13c        <.      BNE      0x31a4 ; 0x31a4
        0x0000312a:    e7ff        ..      B        0x312c ; 0x312c
        0x0000312c:    985c        \.      LDR      r0,[sp,#0x170]
        0x0000312e:    7800        .x      LDRB     r0,[r0,#0]
        0x00003130:    0981        ..      LSRS     r1,r0,#6
        0x00003132:    2000        .       MOVS     r0,#0
        0x00003134:    2902        .)      CMP      r1,#2
        0x00003136:    902f        /.      STR      r0,[sp,#0xbc]
        0x00003138:    d134        4.      BNE      0x31a4 ; 0x31a4
        0x0000313a:    e7ff        ..      B        0x313c ; 0x313c
        0x0000313c:    985c        \.      LDR      r0,[sp,#0x170]
        0x0000313e:    7880        .x      LDRB     r0,[r0,#2]
        0x00003140:    0981        ..      LSRS     r1,r0,#6
        0x00003142:    2000        .       MOVS     r0,#0
        0x00003144:    2902        .)      CMP      r1,#2
        0x00003146:    902f        /.      STR      r0,[sp,#0xbc]
        0x00003148:    d12c        ,.      BNE      0x31a4 ; 0x31a4
        0x0000314a:    e7ff        ..      B        0x314c ; 0x314c
        0x0000314c:    985c        \.      LDR      r0,[sp,#0x170]
        0x0000314e:    78c0        .x      LDRB     r0,[r0,#3]
        0x00003150:    0700        ..      LSLS     r0,r0,#28
        0x00003152:    0f81        ..      LSRS     r1,r0,#30
        0x00003154:    2000        .       MOVS     r0,#0
        0x00003156:    2902        .)      CMP      r1,#2
        0x00003158:    902f        /.      STR      r0,[sp,#0xbc]
        0x0000315a:    d123        #.      BNE      0x31a4 ; 0x31a4
        0x0000315c:    e7ff        ..      B        0x315e ; 0x315e
        0x0000315e:    985e        ^.      LDR      r0,[sp,#0x178]
        0x00003160:    7840        @x      LDRB     r0,[r0,#1]
        0x00003162:    0700        ..      LSLS     r0,r0,#28
        0x00003164:    0f81        ..      LSRS     r1,r0,#30
        0x00003166:    2000        .       MOVS     r0,#0
        0x00003168:    2902        .)      CMP      r1,#2
        0x0000316a:    902f        /.      STR      r0,[sp,#0xbc]
        0x0000316c:    d11a        ..      BNE      0x31a4 ; 0x31a4
        0x0000316e:    e7ff        ..      B        0x3170 ; 0x3170
        0x00003170:    985e        ^.      LDR      r0,[sp,#0x178]
        0x00003172:    7941        Ay      LDRB     r1,[r0,#5]
        0x00003174:    2003        .       MOVS     r0,#3
        0x00003176:    4001        .@      ANDS     r1,r1,r0
        0x00003178:    2000        .       MOVS     r0,#0
        0x0000317a:    2902        .)      CMP      r1,#2
        0x0000317c:    902f        /.      STR      r0,[sp,#0xbc]
        0x0000317e:    d111        ..      BNE      0x31a4 ; 0x31a4
        0x00003180:    e7ff        ..      B        0x3182 ; 0x3182
        0x00003182:    9860        `.      LDR      r0,[sp,#0x180]
        0x00003184:    7800        .x      LDRB     r0,[r0,#0]
        0x00003186:    0680        ..      LSLS     r0,r0,#26
        0x00003188:    0f81        ..      LSRS     r1,r0,#30
        0x0000318a:    2000        .       MOVS     r0,#0
        0x0000318c:    2902        .)      CMP      r1,#2
        0x0000318e:    902f        /.      STR      r0,[sp,#0xbc]
        0x00003190:    d108        ..      BNE      0x31a4 ; 0x31a4
        0x00003192:    e7ff        ..      B        0x3194 ; 0x3194
        0x00003194:    985c        \.      LDR      r0,[sp,#0x170]
        0x00003196:    78c0        .x      LDRB     r0,[r0,#3]
        0x00003198:    0980        ..      LSRS     r0,r0,#6
        0x0000319a:    1e80        ..      SUBS     r0,r0,#2
        0x0000319c:    4241        AB      RSBS     r1,r0,#0
        0x0000319e:    4148        HA      ADCS     r0,r0,r1
        0x000031a0:    902f        /.      STR      r0,[sp,#0xbc]
        0x000031a2:    e7ff        ..      B        0x31a4 ; 0x31a4
        0x000031a4:    9a2f        /.      LDR      r2,[sp,#0xbc]
        0x000031a6:    2001        .       MOVS     r0,#1
        0x000031a8:    4002        .@      ANDS     r2,r2,r0
        0x000031aa:    a962        b.      ADD      r1,sp,#0x188
        0x000031ac:    700a        .p      STRB     r2,[r1,#0]
        0x000031ae:    7809        .x      LDRB     r1,[r1,#0]
        0x000031b0:    07c9        ..      LSLS     r1,r1,#31
        0x000031b2:    902e        ..      STR      r0,[sp,#0xb8]
        0x000031b4:    b9f1        ..      CBNZ     r1,0x31f4 ; 0x31f4
        0x000031b6:    e7ff        ..      B        0x31b8 ; 0x31b8
        0x000031b8:    985c        \.      LDR      r0,[sp,#0x170]
        0x000031ba:    7801        .x      LDRB     r1,[r0,#0]
        0x000031bc:    2003        .       MOVS     r0,#3
        0x000031be:    4001        .@      ANDS     r1,r1,r0
        0x000031c0:    2000        .       MOVS     r0,#0
        0x000031c2:    2902        .)      CMP      r1,#2
        0x000031c4:    902d        -.      STR      r0,[sp,#0xb4]
        0x000031c6:    d112        ..      BNE      0x31ee ; 0x31ee
        0x000031c8:    e7ff        ..      B        0x31ca ; 0x31ca
        0x000031ca:    985e        ^.      LDR      r0,[sp,#0x178]
        0x000031cc:    7880        .x      LDRB     r0,[r0,#2]
        0x000031ce:    0680        ..      LSLS     r0,r0,#26
        0x000031d0:    0f81        ..      LSRS     r1,r0,#30
        0x000031d2:    2000        .       MOVS     r0,#0
        0x000031d4:    2902        .)      CMP      r1,#2
        0x000031d6:    902d        -.      STR      r0,[sp,#0xb4]
        0x000031d8:    d109        ..      BNE      0x31ee ; 0x31ee
        0x000031da:    e7ff        ..      B        0x31dc ; 0x31dc
        0x000031dc:    9860        `.      LDR      r0,[sp,#0x180]
        0x000031de:    7800        .x      LDRB     r0,[r0,#0]
        0x000031e0:    0680        ..      LSLS     r0,r0,#26
        0x000031e2:    0f80        ..      LSRS     r0,r0,#30
        0x000031e4:    1e80        ..      SUBS     r0,r0,#2
        0x000031e6:    4241        AB      RSBS     r1,r0,#0
        0x000031e8:    4148        HA      ADCS     r0,r0,r1
        0x000031ea:    902d        -.      STR      r0,[sp,#0xb4]
        0x000031ec:    e7ff        ..      B        0x31ee ; 0x31ee
        0x000031ee:    982d        -.      LDR      r0,[sp,#0xb4]
        0x000031f0:    902e        ..      STR      r0,[sp,#0xb8]
        0x000031f2:    e7ff        ..      B        0x31f4 ; 0x31f4
        0x000031f4:    992e        ..      LDR      r1,[sp,#0xb8]
        0x000031f6:    2001        .       MOVS     r0,#1
        0x000031f8:    4001        .@      ANDS     r1,r1,r0
        0x000031fa:    a862        b.      ADD      r0,sp,#0x188
        0x000031fc:    7001        .p      STRB     r1,[r0,#0]
        0x000031fe:    7800        .x      LDRB     r0,[r0,#0]
        0x00003200:    07c1        ..      LSLS     r1,r0,#31
        0x00003202:    2020                MOVS     r0,#0x20
        0x00003204:    2210        ."      MOVS     r2,#0x10
        0x00003206:    922b        +.      STR      r2,[sp,#0xac]
        0x00003208:    902c        ,.      STR      r0,[sp,#0xb0]
        0x0000320a:    b909        ..      CBNZ     r1,0x3210 ; 0x3210
        0x0000320c:    982b        +.      LDR      r0,[sp,#0xac]
        0x0000320e:    902c        ,.      STR      r0,[sp,#0xb0]
        0x00003210:    9a2c        ,.      LDR      r2,[sp,#0xb0]
        0x00003212:    995d        ].      LDR      r1,[sp,#0x174]
        0x00003214:    7888        .x      LDRB     r0,[r1,#2]
        0x00003216:    23cf        .#      MOVS     r3,#0xcf
        0x00003218:    4018        .@      ANDS     r0,r0,r3
        0x0000321a:    1880        ..      ADDS     r0,r0,r2
        0x0000321c:    7088        .p      STRB     r0,[r1,#2]
        0x0000321e:    985c        \.      LDR      r0,[sp,#0x170]
        0x00003220:    7801        .x      LDRB     r1,[r0,#0]
        0x00003222:    2003        .       MOVS     r0,#3
        0x00003224:    4001        .@      ANDS     r1,r1,r0
        0x00003226:    2000        .       MOVS     r0,#0
        0x00003228:    2902        .)      CMP      r1,#2
        0x0000322a:    902a        *.      STR      r0,[sp,#0xa8]
        0x0000322c:    d112        ..      BNE      0x3254 ; 0x3254
        0x0000322e:    e7ff        ..      B        0x3230 ; 0x3230
        0x00003230:    985e        ^.      LDR      r0,[sp,#0x178]
        0x00003232:    7880        .x      LDRB     r0,[r0,#2]
        0x00003234:    0680        ..      LSLS     r0,r0,#26
        0x00003236:    0f81        ..      LSRS     r1,r0,#30
        0x00003238:    2000        .       MOVS     r0,#0
        0x0000323a:    2901        .)      CMP      r1,#1
        0x0000323c:    902a        *.      STR      r0,[sp,#0xa8]
        0x0000323e:    d109        ..      BNE      0x3254 ; 0x3254
        0x00003240:    e7ff        ..      B        0x3242 ; 0x3242
        0x00003242:    9860        `.      LDR      r0,[sp,#0x180]
        0x00003244:    7800        .x      LDRB     r0,[r0,#0]
        0x00003246:    0680        ..      LSLS     r0,r0,#26
        0x00003248:    0f80        ..      LSRS     r0,r0,#30
        0x0000324a:    1e40        @.      SUBS     r0,r0,#1
        0x0000324c:    4241        AB      RSBS     r1,r0,#0
        0x0000324e:    4148        HA      ADCS     r0,r0,r1
        0x00003250:    902a        *.      STR      r0,[sp,#0xa8]
        0x00003252:    e7ff        ..      B        0x3254 ; 0x3254
        0x00003254:    9a2a        *.      LDR      r2,[sp,#0xa8]
        0x00003256:    2001        .       MOVS     r0,#1
        0x00003258:    4002        .@      ANDS     r2,r2,r0
        0x0000325a:    a962        b.      ADD      r1,sp,#0x188
        0x0000325c:    700a        .p      STRB     r2,[r1,#0]
        0x0000325e:    7809        .x      LDRB     r1,[r1,#0]
        0x00003260:    07c9        ..      LSLS     r1,r1,#31
        0x00003262:    9029        ).      STR      r0,[sp,#0xa4]
        0x00003264:    b9e9        ..      CBNZ     r1,0x32a2 ; 0x32a2
        0x00003266:    e7ff        ..      B        0x3268 ; 0x3268
        0x00003268:    985c        \.      LDR      r0,[sp,#0x170]
        0x0000326a:    7801        .x      LDRB     r1,[r0,#0]
        0x0000326c:    2003        .       MOVS     r0,#3
        0x0000326e:    4001        .@      ANDS     r1,r1,r0
        0x00003270:    2000        .       MOVS     r0,#0
        0x00003272:    2902        .)      CMP      r1,#2
        0x00003274:    9028        (.      STR      r0,[sp,#0xa0]
        0x00003276:    d111        ..      BNE      0x329c ; 0x329c
        0x00003278:    e7ff        ..      B        0x327a ; 0x327a
        0x0000327a:    985e        ^.      LDR      r0,[sp,#0x178]
        0x0000327c:    7880        .x      LDRB     r0,[r0,#2]
        0x0000327e:    0981        ..      LSRS     r1,r0,#6
        0x00003280:    2000        .       MOVS     r0,#0
        0x00003282:    2902        .)      CMP      r1,#2
        0x00003284:    9028        (.      STR      r0,[sp,#0xa0]
        0x00003286:    d109        ..      BNE      0x329c ; 0x329c
        0x00003288:    e7ff        ..      B        0x328a ; 0x328a
        0x0000328a:    985e        ^.      LDR      r0,[sp,#0x178]
        0x0000328c:    7880        .x      LDRB     r0,[r0,#2]
        0x0000328e:    0680        ..      LSLS     r0,r0,#26
        0x00003290:    0f80        ..      LSRS     r0,r0,#30
        0x00003292:    1e40        @.      SUBS     r0,r0,#1
        0x00003294:    4241        AB      RSBS     r1,r0,#0
        0x00003296:    4148        HA      ADCS     r0,r0,r1
        0x00003298:    9028        (.      STR      r0,[sp,#0xa0]
        0x0000329a:    e7ff        ..      B        0x329c ; 0x329c
        0x0000329c:    9828        (.      LDR      r0,[sp,#0xa0]
        0x0000329e:    9029        ).      STR      r0,[sp,#0xa4]
        0x000032a0:    e7ff        ..      B        0x32a2 ; 0x32a2
        0x000032a2:    9929        ).      LDR      r1,[sp,#0xa4]
        0x000032a4:    2001        .       MOVS     r0,#1
        0x000032a6:    4001        .@      ANDS     r1,r1,r0
        0x000032a8:    a862        b.      ADD      r0,sp,#0x188
        0x000032aa:    7001        .p      STRB     r1,[r0,#0]
        0x000032ac:    7800        .x      LDRB     r0,[r0,#0]
        0x000032ae:    07c1        ..      LSLS     r1,r0,#31
        0x000032b0:    2080        .       MOVS     r0,#0x80
        0x000032b2:    2240        @"      MOVS     r2,#0x40
        0x000032b4:    9226        &.      STR      r2,[sp,#0x98]
        0x000032b6:    9027        '.      STR      r0,[sp,#0x9c]
        0x000032b8:    b909        ..      CBNZ     r1,0x32be ; 0x32be
        0x000032ba:    9826        &.      LDR      r0,[sp,#0x98]
        0x000032bc:    9027        '.      STR      r0,[sp,#0x9c]
        0x000032be:    9a27        '.      LDR      r2,[sp,#0x9c]
        0x000032c0:    995d        ].      LDR      r1,[sp,#0x174]
        0x000032c2:    7888        .x      LDRB     r0,[r1,#2]
        0x000032c4:    233f        ?#      MOVS     r3,#0x3f
        0x000032c6:    4018        .@      ANDS     r0,r0,r3
        0x000032c8:    1880        ..      ADDS     r0,r0,r2
        0x000032ca:    7088        .p      STRB     r0,[r1,#2]
        0x000032cc:    985c        \.      LDR      r0,[sp,#0x170]
        0x000032ce:    7801        .x      LDRB     r1,[r0,#0]
        0x000032d0:    2003        .       MOVS     r0,#3
        0x000032d2:    4001        .@      ANDS     r1,r1,r0
        0x000032d4:    2000        .       MOVS     r0,#0
        0x000032d6:    2902        .)      CMP      r1,#2
        0x000032d8:    9025        %.      STR      r0,[sp,#0x94]
        0x000032da:    d11a        ..      BNE      0x3312 ; 0x3312
        0x000032dc:    e7ff        ..      B        0x32de ; 0x32de
        0x000032de:    985e        ^.      LDR      r0,[sp,#0x178]
        0x000032e0:    7880        .x      LDRB     r0,[r0,#2]
        0x000032e2:    0981        ..      LSRS     r1,r0,#6
        0x000032e4:    2000        .       MOVS     r0,#0
        0x000032e6:    2901        .)      CMP      r1,#1
        0x000032e8:    9025        %.      STR      r0,[sp,#0x94]
        0x000032ea:    d112        ..      BNE      0x3312 ; 0x3312
        0x000032ec:    e7ff        ..      B        0x32ee ; 0x32ee
        0x000032ee:    985e        ^.      LDR      r0,[sp,#0x178]
        0x000032f0:    78c0        .x      LDRB     r0,[r0,#3]
        0x000032f2:    0700        ..      LSLS     r0,r0,#28
        0x000032f4:    0f81        ..      LSRS     r1,r0,#30
        0x000032f6:    2000        .       MOVS     r0,#0
        0x000032f8:    2901        .)      CMP      r1,#1
        0x000032fa:    9025        %.      STR      r0,[sp,#0x94]
        0x000032fc:    d109        ..      BNE      0x3312 ; 0x3312
        0x000032fe:    e7ff        ..      B        0x3300 ; 0x3300
        0x00003300:    9860        `.      LDR      r0,[sp,#0x180]
        0x00003302:    7800        .x      LDRB     r0,[r0,#0]
        0x00003304:    0680        ..      LSLS     r0,r0,#26
        0x00003306:    0f80        ..      LSRS     r0,r0,#30
        0x00003308:    1e80        ..      SUBS     r0,r0,#2
        0x0000330a:    4241        AB      RSBS     r1,r0,#0
        0x0000330c:    4148        HA      ADCS     r0,r0,r1
        0x0000330e:    9025        %.      STR      r0,[sp,#0x94]
        0x00003310:    e7ff        ..      B        0x3312 ; 0x3312
        0x00003312:    9a25        %.      LDR      r2,[sp,#0x94]
        0x00003314:    2001        .       MOVS     r0,#1
        0x00003316:    4002        .@      ANDS     r2,r2,r0
        0x00003318:    a962        b.      ADD      r1,sp,#0x188
        0x0000331a:    700a        .p      STRB     r2,[r1,#0]
        0x0000331c:    7809        .x      LDRB     r1,[r1,#0]
        0x0000331e:    07c9        ..      LSLS     r1,r1,#31
        0x00003320:    9024        $.      STR      r0,[sp,#0x90]
        0x00003322:    bb39        9.      CBNZ     r1,0x3374 ; 0x3374
        0x00003324:    e7ff        ..      B        0x3326 ; 0x3326
        0x00003326:    985c        \.      LDR      r0,[sp,#0x170]
        0x00003328:    7800        .x      LDRB     r0,[r0,#0]
        0x0000332a:    0700        ..      LSLS     r0,r0,#28
        0x0000332c:    0f81        ..      LSRS     r1,r0,#30
        0x0000332e:    2000        .       MOVS     r0,#0
        0x00003330:    2902        .)      CMP      r1,#2
        0x00003332:    9023        #.      STR      r0,[sp,#0x8c]
        0x00003334:    d11b        ..      BNE      0x336e ; 0x336e
        0x00003336:    e7ff        ..      B        0x3338 ; 0x3338
        0x00003338:    985e        ^.      LDR      r0,[sp,#0x178]
        0x0000333a:    7800        .x      LDRB     r0,[r0,#0]
        0x0000333c:    0700        ..      LSLS     r0,r0,#28
        0x0000333e:    0f81        ..      LSRS     r1,r0,#30
        0x00003340:    2000        .       MOVS     r0,#0
        0x00003342:    2901        .)      CMP      r1,#1
        0x00003344:    9023        #.      STR      r0,[sp,#0x8c]
        0x00003346:    d112        ..      BNE      0x336e ; 0x336e
        0x00003348:    e7ff        ..      B        0x334a ; 0x334a
        0x0000334a:    985e        ^.      LDR      r0,[sp,#0x178]
        0x0000334c:    78c0        .x      LDRB     r0,[r0,#3]
        0x0000334e:    0700        ..      LSLS     r0,r0,#28
        0x00003350:    0f81        ..      LSRS     r1,r0,#30
        0x00003352:    2000        .       MOVS     r0,#0
        0x00003354:    2901        .)      CMP      r1,#1
        0x00003356:    9023        #.      STR      r0,[sp,#0x8c]
        0x00003358:    d109        ..      BNE      0x336e ; 0x336e
        0x0000335a:    e7ff        ..      B        0x335c ; 0x335c
        0x0000335c:    9860        `.      LDR      r0,[sp,#0x180]
        0x0000335e:    7800        .x      LDRB     r0,[r0,#0]
        0x00003360:    2103        .!      MOVS     r1,#3
        0x00003362:    4008        .@      ANDS     r0,r0,r1
        0x00003364:    1e80        ..      SUBS     r0,r0,#2
        0x00003366:    4241        AB      RSBS     r1,r0,#0
        0x00003368:    4148        HA      ADCS     r0,r0,r1
        0x0000336a:    9023        #.      STR      r0,[sp,#0x8c]
        0x0000336c:    e7ff        ..      B        0x336e ; 0x336e
        0x0000336e:    9823        #.      LDR      r0,[sp,#0x8c]
        0x00003370:    9024        $.      STR      r0,[sp,#0x90]
        0x00003372:    e7ff        ..      B        0x3374 ; 0x3374
        0x00003374:    9924        $.      LDR      r1,[sp,#0x90]
        0x00003376:    2001        .       MOVS     r0,#1
        0x00003378:    9021        !.      STR      r0,[sp,#0x84]
        0x0000337a:    4001        .@      ANDS     r1,r1,r0
        0x0000337c:    a862        b.      ADD      r0,sp,#0x188
        0x0000337e:    7001        .p      STRB     r1,[r0,#0]
        0x00003380:    7800        .x      LDRB     r0,[r0,#0]
        0x00003382:    07c1        ..      LSLS     r1,r0,#31
        0x00003384:    2002        .       MOVS     r0,#2
        0x00003386:    9022        ".      STR      r0,[sp,#0x88]
        0x00003388:    b909        ..      CBNZ     r1,0x338e ; 0x338e
        0x0000338a:    9821        !.      LDR      r0,[sp,#0x84]
        0x0000338c:    9022        ".      STR      r0,[sp,#0x88]
        0x0000338e:    9a22        ".      LDR      r2,[sp,#0x88]
        0x00003390:    995d        ].      LDR      r1,[sp,#0x174]
        0x00003392:    78c8        .x      LDRB     r0,[r1,#3]
        0x00003394:    23fc        .#      MOVS     r3,#0xfc
        0x00003396:    4018        .@      ANDS     r0,r0,r3
        0x00003398:    1880        ..      ADDS     r0,r0,r2
        0x0000339a:    70c8        .p      STRB     r0,[r1,#3]
        0x0000339c:    985c        \.      LDR      r0,[sp,#0x170]
        0x0000339e:    7801        .x      LDRB     r1,[r0,#0]
        0x000033a0:    2003        .       MOVS     r0,#3
        0x000033a2:    4001        .@      ANDS     r1,r1,r0
        0x000033a4:    2000        .       MOVS     r0,#0
        0x000033a6:    2902        .)      CMP      r1,#2
        0x000033a8:    9020         .      STR      r0,[sp,#0x80]
        0x000033aa:    d11a        ..      BNE      0x33e2 ; 0x33e2
        0x000033ac:    e7ff        ..      B        0x33ae ; 0x33ae
        0x000033ae:    985e        ^.      LDR      r0,[sp,#0x178]
        0x000033b0:    7880        .x      LDRB     r0,[r0,#2]
        0x000033b2:    0981        ..      LSRS     r1,r0,#6
        0x000033b4:    2000        .       MOVS     r0,#0
        0x000033b6:    2901        .)      CMP      r1,#1
        0x000033b8:    9020         .      STR      r0,[sp,#0x80]
        0x000033ba:    d112        ..      BNE      0x33e2 ; 0x33e2
        0x000033bc:    e7ff        ..      B        0x33be ; 0x33be
        0x000033be:    985e        ^.      LDR      r0,[sp,#0x178]
        0x000033c0:    78c1        .x      LDRB     r1,[r0,#3]
        0x000033c2:    2003        .       MOVS     r0,#3
        0x000033c4:    4001        .@      ANDS     r1,r1,r0
        0x000033c6:    2000        .       MOVS     r0,#0
        0x000033c8:    2902        .)      CMP      r1,#2
        0x000033ca:    9020         .      STR      r0,[sp,#0x80]
        0x000033cc:    d109        ..      BNE      0x33e2 ; 0x33e2
        0x000033ce:    e7ff        ..      B        0x33d0 ; 0x33d0
        0x000033d0:    9860        `.      LDR      r0,[sp,#0x180]
        0x000033d2:    7800        .x      LDRB     r0,[r0,#0]
        0x000033d4:    0680        ..      LSLS     r0,r0,#26
        0x000033d6:    0f80        ..      LSRS     r0,r0,#30
        0x000033d8:    1e80        ..      SUBS     r0,r0,#2
        0x000033da:    4241        AB      RSBS     r1,r0,#0
        0x000033dc:    4148        HA      ADCS     r0,r0,r1
        0x000033de:    9020         .      STR      r0,[sp,#0x80]
        0x000033e0:    e7ff        ..      B        0x33e2 ; 0x33e2
        0x000033e2:    9a20         .      LDR      r2,[sp,#0x80]
        0x000033e4:    2001        .       MOVS     r0,#1
        0x000033e6:    4002        .@      ANDS     r2,r2,r0
        0x000033e8:    a962        b.      ADD      r1,sp,#0x188
        0x000033ea:    700a        .p      STRB     r2,[r1,#0]
        0x000033ec:    7809        .x      LDRB     r1,[r1,#0]
        0x000033ee:    07c9        ..      LSLS     r1,r1,#31
        0x000033f0:    901f        ..      STR      r0,[sp,#0x7c]
        0x000033f2:    bb39        9.      CBNZ     r1,0x3444 ; 0x3444
        0x000033f4:    e7ff        ..      B        0x33f6 ; 0x33f6
        0x000033f6:    985c        \.      LDR      r0,[sp,#0x170]
        0x000033f8:    7800        .x      LDRB     r0,[r0,#0]
        0x000033fa:    0700        ..      LSLS     r0,r0,#28
        0x000033fc:    0f81        ..      LSRS     r1,r0,#30
        0x000033fe:    2000        .       MOVS     r0,#0
        0x00003400:    2902        .)      CMP      r1,#2
        0x00003402:    901e        ..      STR      r0,[sp,#0x78]
        0x00003404:    d11b        ..      BNE      0x343e ; 0x343e
        0x00003406:    e7ff        ..      B        0x3408 ; 0x3408
        0x00003408:    985e        ^.      LDR      r0,[sp,#0x178]
        0x0000340a:    7800        .x      LDRB     r0,[r0,#0]
        0x0000340c:    0700        ..      LSLS     r0,r0,#28
        0x0000340e:    0f81        ..      LSRS     r1,r0,#30
        0x00003410:    2000        .       MOVS     r0,#0
        0x00003412:    2901        .)      CMP      r1,#1
        0x00003414:    901e        ..      STR      r0,[sp,#0x78]
        0x00003416:    d112        ..      BNE      0x343e ; 0x343e
        0x00003418:    e7ff        ..      B        0x341a ; 0x341a
        0x0000341a:    985e        ^.      LDR      r0,[sp,#0x178]
        0x0000341c:    78c1        .x      LDRB     r1,[r0,#3]
        0x0000341e:    2003        .       MOVS     r0,#3
        0x00003420:    4001        .@      ANDS     r1,r1,r0
        0x00003422:    2000        .       MOVS     r0,#0
        0x00003424:    2902        .)      CMP      r1,#2
        0x00003426:    901e        ..      STR      r0,[sp,#0x78]
        0x00003428:    d109        ..      BNE      0x343e ; 0x343e
        0x0000342a:    e7ff        ..      B        0x342c ; 0x342c
        0x0000342c:    9860        `.      LDR      r0,[sp,#0x180]
        0x0000342e:    7800        .x      LDRB     r0,[r0,#0]
        0x00003430:    2103        .!      MOVS     r1,#3
        0x00003432:    4008        .@      ANDS     r0,r0,r1
        0x00003434:    1e80        ..      SUBS     r0,r0,#2
        0x00003436:    4241        AB      RSBS     r1,r0,#0
        0x00003438:    4148        HA      ADCS     r0,r0,r1
        0x0000343a:    901e        ..      STR      r0,[sp,#0x78]
        0x0000343c:    e7ff        ..      B        0x343e ; 0x343e
        0x0000343e:    981e        ..      LDR      r0,[sp,#0x78]
        0x00003440:    901f        ..      STR      r0,[sp,#0x7c]
        0x00003442:    e7ff        ..      B        0x3444 ; 0x3444
        0x00003444:    991f        ..      LDR      r1,[sp,#0x7c]
        0x00003446:    2001        .       MOVS     r0,#1
        0x00003448:    4001        .@      ANDS     r1,r1,r0
        0x0000344a:    a862        b.      ADD      r0,sp,#0x188
        0x0000344c:    7001        .p      STRB     r1,[r0,#0]
        0x0000344e:    7800        .x      LDRB     r0,[r0,#0]
        0x00003450:    07c1        ..      LSLS     r1,r0,#31
        0x00003452:    2008        .       MOVS     r0,#8
        0x00003454:    2204        ."      MOVS     r2,#4
        0x00003456:    921c        ..      STR      r2,[sp,#0x70]
        0x00003458:    901d        ..      STR      r0,[sp,#0x74]
        0x0000345a:    b909        ..      CBNZ     r1,0x3460 ; 0x3460
        0x0000345c:    981c        ..      LDR      r0,[sp,#0x70]
        0x0000345e:    901d        ..      STR      r0,[sp,#0x74]
        0x00003460:    9a1d        ..      LDR      r2,[sp,#0x74]
        0x00003462:    995d        ].      LDR      r1,[sp,#0x174]
        0x00003464:    78c8        .x      LDRB     r0,[r1,#3]
        0x00003466:    23f3        .#      MOVS     r3,#0xf3
        0x00003468:    4018        .@      ANDS     r0,r0,r3
        0x0000346a:    1880        ..      ADDS     r0,r0,r2
        0x0000346c:    70c8        .p      STRB     r0,[r1,#3]
        0x0000346e:    985c        \.      LDR      r0,[sp,#0x170]
        0x00003470:    7840        @x      LDRB     r0,[r0,#1]
        0x00003472:    0981        ..      LSRS     r1,r0,#6
        0x00003474:    2000        .       MOVS     r0,#0
        0x00003476:    2902        .)      CMP      r1,#2
        0x00003478:    901b        ..      STR      r0,[sp,#0x6c]
        0x0000347a:    d119        ..      BNE      0x34b0 ; 0x34b0
        0x0000347c:    e7ff        ..      B        0x347e ; 0x347e
        0x0000347e:    985c        \.      LDR      r0,[sp,#0x170]
        0x00003480:    7881        .x      LDRB     r1,[r0,#2]
        0x00003482:    2003        .       MOVS     r0,#3
        0x00003484:    4001        .@      ANDS     r1,r1,r0
        0x00003486:    2000        .       MOVS     r0,#0
        0x00003488:    2901        .)      CMP      r1,#1
        0x0000348a:    901b        ..      STR      r0,[sp,#0x6c]
        0x0000348c:    d110        ..      BNE      0x34b0 ; 0x34b0
        0x0000348e:    e7ff        ..      B        0x3490 ; 0x3490
        0x00003490:    985e        ^.      LDR      r0,[sp,#0x178]
        0x00003492:    7880        .x      LDRB     r0,[r0,#2]
        0x00003494:    0981        ..      LSRS     r1,r0,#6
        0x00003496:    2000        .       MOVS     r0,#0
        0x00003498:    2901        .)      CMP      r1,#1
        0x0000349a:    901b        ..      STR      r0,[sp,#0x6c]
        0x0000349c:    d108        ..      BNE      0x34b0 ; 0x34b0
        0x0000349e:    e7ff        ..      B        0x34a0 ; 0x34a0
        0x000034a0:    985e        ^.      LDR      r0,[sp,#0x178]
        0x000034a2:    78c0        .x      LDRB     r0,[r0,#3]
        0x000034a4:    0980        ..      LSRS     r0,r0,#6
        0x000034a6:    1e80        ..      SUBS     r0,r0,#2
        0x000034a8:    4241        AB      RSBS     r1,r0,#0
        0x000034aa:    4148        HA      ADCS     r0,r0,r1
        0x000034ac:    901b        ..      STR      r0,[sp,#0x6c]
        0x000034ae:    e7ff        ..      B        0x34b0 ; 0x34b0
        0x000034b0:    9a1b        ..      LDR      r2,[sp,#0x6c]
        0x000034b2:    2001        .       MOVS     r0,#1
        0x000034b4:    4002        .@      ANDS     r2,r2,r0
        0x000034b6:    a962        b.      ADD      r1,sp,#0x188
        0x000034b8:    700a        .p      STRB     r2,[r1,#0]
        0x000034ba:    7809        .x      LDRB     r1,[r1,#0]
        0x000034bc:    07c9        ..      LSLS     r1,r1,#31
        0x000034be:    901a        ..      STR      r0,[sp,#0x68]
        0x000034c0:    b9a1        ..      CBNZ     r1,0x34ec ; 0x34ec
        0x000034c2:    e7ff        ..      B        0x34c4 ; 0x34c4
        0x000034c4:    985e        ^.      LDR      r0,[sp,#0x178]
        0x000034c6:    7880        .x      LDRB     r0,[r0,#2]
        0x000034c8:    0981        ..      LSRS     r1,r0,#6
        0x000034ca:    2000        .       MOVS     r0,#0
        0x000034cc:    2901        .)      CMP      r1,#1
        0x000034ce:    9019        ..      STR      r0,[sp,#0x64]
        0x000034d0:    d109        ..      BNE      0x34e6 ; 0x34e6
        0x000034d2:    e7ff        ..      B        0x34d4 ; 0x34d4
        0x000034d4:    985e        ^.      LDR      r0,[sp,#0x178]
        0x000034d6:    78c0        .x      LDRB     r0,[r0,#3]
        0x000034d8:    0680        ..      LSLS     r0,r0,#26
        0x000034da:    0f80        ..      LSRS     r0,r0,#30
        0x000034dc:    1e80        ..      SUBS     r0,r0,#2
        0x000034de:    4241        AB      RSBS     r1,r0,#0
        0x000034e0:    4148        HA      ADCS     r0,r0,r1
        0x000034e2:    9019        ..      STR      r0,[sp,#0x64]
        0x000034e4:    e7ff        ..      B        0x34e6 ; 0x34e6
        0x000034e6:    9819        ..      LDR      r0,[sp,#0x64]
        0x000034e8:    901a        ..      STR      r0,[sp,#0x68]
        0x000034ea:    e7ff        ..      B        0x34ec ; 0x34ec
        0x000034ec:    991a        ..      LDR      r1,[sp,#0x68]
        0x000034ee:    2001        .       MOVS     r0,#1
        0x000034f0:    4001        .@      ANDS     r1,r1,r0
        0x000034f2:    a862        b.      ADD      r0,sp,#0x188
        0x000034f4:    7001        .p      STRB     r1,[r0,#0]
        0x000034f6:    7800        .x      LDRB     r0,[r0,#0]
        0x000034f8:    07c1        ..      LSLS     r1,r0,#31
        0x000034fa:    2020                MOVS     r0,#0x20
        0x000034fc:    2210        ."      MOVS     r2,#0x10
        0x000034fe:    9217        ..      STR      r2,[sp,#0x5c]
        0x00003500:    9018        ..      STR      r0,[sp,#0x60]
        0x00003502:    b909        ..      CBNZ     r1,0x3508 ; 0x3508
        0x00003504:    9817        ..      LDR      r0,[sp,#0x5c]
        0x00003506:    9018        ..      STR      r0,[sp,#0x60]
        0x00003508:    9a18        ..      LDR      r2,[sp,#0x60]
        0x0000350a:    995d        ].      LDR      r1,[sp,#0x174]
        0x0000350c:    78c8        .x      LDRB     r0,[r1,#3]
        0x0000350e:    23cf        .#      MOVS     r3,#0xcf
        0x00003510:    4018        .@      ANDS     r0,r0,r3
        0x00003512:    1880        ..      ADDS     r0,r0,r2
        0x00003514:    70c8        .p      STRB     r0,[r1,#3]
        0x00003516:    985c        \.      LDR      r0,[sp,#0x170]
        0x00003518:    7881        .x      LDRB     r1,[r0,#2]
        0x0000351a:    2003        .       MOVS     r0,#3
        0x0000351c:    4001        .@      ANDS     r1,r1,r0
        0x0000351e:    2000        .       MOVS     r0,#0
        0x00003520:    2902        .)      CMP      r1,#2
        0x00003522:    9016        ..      STR      r0,[sp,#0x58]
        0x00003524:    d112        ..      BNE      0x354c ; 0x354c
        0x00003526:    e7ff        ..      B        0x3528 ; 0x3528
        0x00003528:    985e        ^.      LDR      r0,[sp,#0x178]
        0x0000352a:    78c0        .x      LDRB     r0,[r0,#3]
        0x0000352c:    0680        ..      LSLS     r0,r0,#26
        0x0000352e:    0f81        ..      LSRS     r1,r0,#30
        0x00003530:    2000        .       MOVS     r0,#0
        0x00003532:    2901        .)      CMP      r1,#1
        0x00003534:    9016        ..      STR      r0,[sp,#0x58]
        0x00003536:    d109        ..      BNE      0x354c ; 0x354c
        0x00003538:    e7ff        ..      B        0x353a ; 0x353a
        0x0000353a:    9860        `.      LDR      r0,[sp,#0x180]
        0x0000353c:    7800        .x      LDRB     r0,[r0,#0]
        0x0000353e:    0680        ..      LSLS     r0,r0,#26
        0x00003540:    0f80        ..      LSRS     r0,r0,#30
        0x00003542:    1e80        ..      SUBS     r0,r0,#2
        0x00003544:    4241        AB      RSBS     r1,r0,#0
        0x00003546:    4148        HA      ADCS     r0,r0,r1
        0x00003548:    9016        ..      STR      r0,[sp,#0x58]
        0x0000354a:    e7ff        ..      B        0x354c ; 0x354c
        0x0000354c:    9a16        ..      LDR      r2,[sp,#0x58]
        0x0000354e:    2001        .       MOVS     r0,#1
        0x00003550:    4002        .@      ANDS     r2,r2,r0
        0x00003552:    a962        b.      ADD      r1,sp,#0x188
        0x00003554:    700a        .p      STRB     r2,[r1,#0]
        0x00003556:    7809        .x      LDRB     r1,[r1,#0]
        0x00003558:    07c9        ..      LSLS     r1,r1,#31
        0x0000355a:    9015        ..      STR      r0,[sp,#0x54]
        0x0000355c:    b999        ..      CBNZ     r1,0x3586 ; 0x3586
        0x0000355e:    e7ff        ..      B        0x3560 ; 0x3560
        0x00003560:    985c        \.      LDR      r0,[sp,#0x170]
        0x00003562:    7840        @x      LDRB     r0,[r0,#1]
        0x00003564:    0981        ..      LSRS     r1,r0,#6
        0x00003566:    2000        .       MOVS     r0,#0
        0x00003568:    2901        .)      CMP      r1,#1
        0x0000356a:    9014        ..      STR      r0,[sp,#0x50]
        0x0000356c:    d108        ..      BNE      0x3580 ; 0x3580
        0x0000356e:    e7ff        ..      B        0x3570 ; 0x3570
        0x00003570:    985e        ^.      LDR      r0,[sp,#0x178]
        0x00003572:    78c0        .x      LDRB     r0,[r0,#3]
        0x00003574:    0980        ..      LSRS     r0,r0,#6
        0x00003576:    1e80        ..      SUBS     r0,r0,#2
        0x00003578:    4241        AB      RSBS     r1,r0,#0
        0x0000357a:    4148        HA      ADCS     r0,r0,r1
        0x0000357c:    9014        ..      STR      r0,[sp,#0x50]
        0x0000357e:    e7ff        ..      B        0x3580 ; 0x3580
        0x00003580:    9814        ..      LDR      r0,[sp,#0x50]
        0x00003582:    9015        ..      STR      r0,[sp,#0x54]
        0x00003584:    e7ff        ..      B        0x3586 ; 0x3586
        0x00003586:    9915        ..      LDR      r1,[sp,#0x54]
        0x00003588:    2001        .       MOVS     r0,#1
        0x0000358a:    4001        .@      ANDS     r1,r1,r0
        0x0000358c:    a862        b.      ADD      r0,sp,#0x188
        0x0000358e:    7001        .p      STRB     r1,[r0,#0]
        0x00003590:    7800        .x      LDRB     r0,[r0,#0]
        0x00003592:    07c1        ..      LSLS     r1,r0,#31
        0x00003594:    2080        .       MOVS     r0,#0x80
        0x00003596:    2240        @"      MOVS     r2,#0x40
        0x00003598:    9212        ..      STR      r2,[sp,#0x48]
        0x0000359a:    9013        ..      STR      r0,[sp,#0x4c]
        0x0000359c:    b909        ..      CBNZ     r1,0x35a2 ; 0x35a2
        0x0000359e:    9812        ..      LDR      r0,[sp,#0x48]
        0x000035a0:    9013        ..      STR      r0,[sp,#0x4c]
        0x000035a2:    9a13        ..      LDR      r2,[sp,#0x4c]
        0x000035a4:    995d        ].      LDR      r1,[sp,#0x174]
        0x000035a6:    78c8        .x      LDRB     r0,[r1,#3]
        0x000035a8:    233f        ?#      MOVS     r3,#0x3f
        0x000035aa:    4018        .@      ANDS     r0,r0,r3
        0x000035ac:    1880        ..      ADDS     r0,r0,r2
        0x000035ae:    70c8        .p      STRB     r0,[r1,#3]
        0x000035b0:    48fa        .H      LDR      r0,[pc,#1000] ; [0x399c] = 0x2000025c
        0x000035b2:    8801        ..      LDRH     r1,[r0,#0]
        0x000035b4:    2000        .       MOVS     r0,#0
        0x000035b6:    290a        .)      CMP      r1,#0xa
        0x000035b8:    9011        ..      STR      r0,[sp,#0x44]
        0x000035ba:    d806        ..      BHI      0x35ca ; 0x35ca
        0x000035bc:    e7ff        ..      B        0x35be ; 0x35be
        0x000035be:    48f7        .H      LDR      r0,[pc,#988] ; [0x399c] = 0x2000025c
        0x000035c0:    8800        ..      LDRH     r0,[r0,#0]
        0x000035c2:    1e41        A.      SUBS     r1,r0,#1
        0x000035c4:    4188        .A      SBCS     r0,r0,r1
        0x000035c6:    9011        ..      STR      r0,[sp,#0x44]
        0x000035c8:    e7ff        ..      B        0x35ca ; 0x35ca
        0x000035ca:    9811        ..      LDR      r0,[sp,#0x44]
        0x000035cc:    07c1        ..      LSLS     r1,r0,#31
        0x000035ce:    2008        .       MOVS     r0,#8
        0x000035d0:    2204        ."      MOVS     r2,#4
        0x000035d2:    920f        ..      STR      r2,[sp,#0x3c]
        0x000035d4:    9010        ..      STR      r0,[sp,#0x40]
        0x000035d6:    b909        ..      CBNZ     r1,0x35dc ; 0x35dc
        0x000035d8:    980f        ..      LDR      r0,[sp,#0x3c]
        0x000035da:    9010        ..      STR      r0,[sp,#0x40]
        0x000035dc:    9a10        ..      LDR      r2,[sp,#0x40]
        0x000035de:    995d        ].      LDR      r1,[sp,#0x174]
        0x000035e0:    7908        .y      LDRB     r0,[r1,#4]
        0x000035e2:    23f3        .#      MOVS     r3,#0xf3
        0x000035e4:    4018        .@      ANDS     r0,r0,r3
        0x000035e6:    1880        ..      ADDS     r0,r0,r2
        0x000035e8:    7108        .q      STRB     r0,[r1,#4]
        0x000035ea:    48ed        .H      LDR      r0,[pc,#948] ; [0x39a0] = 0x2000026e
        0x000035ec:    7800        .x      LDRB     r0,[r0,#0]
        0x000035ee:    2802        .(      CMP      r0,#2
        0x000035f0:    d104        ..      BNE      0x35fc ; 0x35fc
        0x000035f2:    e7ff        ..      B        0x35f4 ; 0x35f4
        0x000035f4:    49ea        .I      LDR      r1,[pc,#936] ; [0x39a0] = 0x2000026e
        0x000035f6:    2000        .       MOVS     r0,#0
        0x000035f8:    7008        .p      STRB     r0,[r1,#0]
        0x000035fa:    e000        ..      B        0x35fe ; 0x35fe
        0x000035fc:    e7ff        ..      B        0x35fe ; 0x35fe
        0x000035fe:    9860        `.      LDR      r0,[sp,#0x180]
        0x00003600:    7800        .x      LDRB     r0,[r0,#0]
        0x00003602:    0680        ..      LSLS     r0,r0,#26
        0x00003604:    0f81        ..      LSRS     r1,r0,#30
        0x00003606:    2002        .       MOVS     r0,#2
        0x00003608:    900c        ..      STR      r0,[sp,#0x30]
        0x0000360a:    2201        ."      MOVS     r2,#1
        0x0000360c:    920d        ..      STR      r2,[sp,#0x34]
        0x0000360e:    2901        .)      CMP      r1,#1
        0x00003610:    900e        ..      STR      r0,[sp,#0x38]
        0x00003612:    d001        ..      BEQ      0x3618 ; 0x3618
        0x00003614:    980d        ..      LDR      r0,[sp,#0x34]
        0x00003616:    900e        ..      STR      r0,[sp,#0x38]
        0x00003618:    980d        ..      LDR      r0,[sp,#0x34]
        0x0000361a:    9b0e        ..      LDR      r3,[sp,#0x38]
        0x0000361c:    9a5d        ].      LDR      r2,[sp,#0x174]
        0x0000361e:    7911        .y      LDRB     r1,[r2,#4]
        0x00003620:    011b        ..      LSLS     r3,r3,#4
        0x00003622:    24cf        .$      MOVS     r4,#0xcf
        0x00003624:    4021        !@      ANDS     r1,r1,r4
        0x00003626:    18c9        ..      ADDS     r1,r1,r3
        0x00003628:    7111        .q      STRB     r1,[r2,#4]
        0x0000362a:    995b        [.      LDR      r1,[sp,#0x16c]
        0x0000362c:    7809        .x      LDRB     r1,[r1,#0]
        0x0000362e:    0689        ..      LSLS     r1,r1,#26
        0x00003630:    0f89        ..      LSRS     r1,r1,#30
        0x00003632:    910a        ..      STR      r1,[sp,#0x28]
        0x00003634:    2902        .)      CMP      r1,#2
        0x00003636:    900b        ..      STR      r0,[sp,#0x2c]
        0x00003638:    d101        ..      BNE      0x363e ; 0x363e
        0x0000363a:    980a        ..      LDR      r0,[sp,#0x28]
        0x0000363c:    900b        ..      STR      r0,[sp,#0x2c]
        0x0000363e:    980c        ..      LDR      r0,[sp,#0x30]
        0x00003640:    9b0b        ..      LDR      r3,[sp,#0x2c]
        0x00003642:    9a5d        ].      LDR      r2,[sp,#0x174]
        0x00003644:    7951        Qy      LDRB     r1,[r2,#5]
        0x00003646:    24fc        .$      MOVS     r4,#0xfc
        0x00003648:    4021        !@      ANDS     r1,r1,r4
        0x0000364a:    18c9        ..      ADDS     r1,r1,r3
        0x0000364c:    7151        Qq      STRB     r1,[r2,#5]
        0x0000364e:    9960        `.      LDR      r1,[sp,#0x180]
        0x00003650:    7809        .x      LDRB     r1,[r1,#0]
        0x00003652:    2203        ."      MOVS     r2,#3
        0x00003654:    4011        .@      ANDS     r1,r1,r2
        0x00003656:    2901        .)      CMP      r1,#1
        0x00003658:    9009        ..      STR      r0,[sp,#0x24]
        0x0000365a:    d001        ..      BEQ      0x3660 ; 0x3660
        0x0000365c:    980d        ..      LDR      r0,[sp,#0x34]
        0x0000365e:    9009        ..      STR      r0,[sp,#0x24]
        0x00003660:    9a09        ..      LDR      r2,[sp,#0x24]
        0x00003662:    995d        ].      LDR      r1,[sp,#0x174]
        0x00003664:    7908        .y      LDRB     r0,[r1,#4]
        0x00003666:    0192        ..      LSLS     r2,r2,#6
        0x00003668:    233f        ?#      MOVS     r3,#0x3f
        0x0000366a:    4018        .@      ANDS     r0,r0,r3
        0x0000366c:    1880        ..      ADDS     r0,r0,r2
        0x0000366e:    7108        .q      STRB     r0,[r1,#4]
        0x00003670:    985e        ^.      LDR      r0,[sp,#0x178]
        0x00003672:    7880        .x      LDRB     r0,[r0,#2]
        0x00003674:    0680        ..      LSLS     r0,r0,#26
        0x00003676:    0f80        ..      LSRS     r0,r0,#30
        0x00003678:    1e82        ..      SUBS     r2,r0,#2
        0x0000367a:    4250        PB      RSBS     r0,r2,#0
        0x0000367c:    4142        BA      ADCS     r2,r2,r0
        0x0000367e:    995f        _.      LDR      r1,[sp,#0x17c]
        0x00003680:    7808        .x      LDRB     r0,[r1,#0]
        0x00003682:    23fe        .#      MOVS     r3,#0xfe
        0x00003684:    4018        .@      ANDS     r0,r0,r3
        0x00003686:    1880        ..      ADDS     r0,r0,r2
        0x00003688:    7008        .p      STRB     r0,[r1,#0]
        0x0000368a:    985c        \.      LDR      r0,[sp,#0x170]
        0x0000368c:    7800        .x      LDRB     r0,[r0,#0]
        0x0000368e:    0700        ..      LSLS     r0,r0,#28
        0x00003690:    0f81        ..      LSRS     r1,r0,#30
        0x00003692:    2000        .       MOVS     r0,#0
        0x00003694:    2901        .)      CMP      r1,#1
        0x00003696:    9008        ..      STR      r0,[sp,#0x20]
        0x00003698:    d109        ..      BNE      0x36ae ; 0x36ae
        0x0000369a:    e7ff        ..      B        0x369c ; 0x369c
        0x0000369c:    9860        `.      LDR      r0,[sp,#0x180]
        0x0000369e:    7800        .x      LDRB     r0,[r0,#0]
        0x000036a0:    2103        .!      MOVS     r1,#3
        0x000036a2:    4008        .@      ANDS     r0,r0,r1
        0x000036a4:    1e80        ..      SUBS     r0,r0,#2
        0x000036a6:    4241        AB      RSBS     r1,r0,#0
        0x000036a8:    4148        HA      ADCS     r0,r0,r1
        0x000036aa:    9008        ..      STR      r0,[sp,#0x20]
        0x000036ac:    e7ff        ..      B        0x36ae ; 0x36ae
        0x000036ae:    9a08        ..      LDR      r2,[sp,#0x20]
        0x000036b0:    995f        _.      LDR      r1,[sp,#0x17c]
        0x000036b2:    7808        .x      LDRB     r0,[r1,#0]
        0x000036b4:    07d2        ..      LSLS     r2,r2,#31
        0x000036b6:    0f92        ..      LSRS     r2,r2,#30
        0x000036b8:    23fd        .#      MOVS     r3,#0xfd
        0x000036ba:    4018        .@      ANDS     r0,r0,r3
        0x000036bc:    1880        ..      ADDS     r0,r0,r2
        0x000036be:    7008        .p      STRB     r0,[r1,#0]
        0x000036c0:    985c        \.      LDR      r0,[sp,#0x170]
        0x000036c2:    7800        .x      LDRB     r0,[r0,#0]
        0x000036c4:    0700        ..      LSLS     r0,r0,#28
        0x000036c6:    0f81        ..      LSRS     r1,r0,#30
        0x000036c8:    2000        .       MOVS     r0,#0
        0x000036ca:    2901        .)      CMP      r1,#1
        0x000036cc:    9007        ..      STR      r0,[sp,#0x1c]
        0x000036ce:    d109        ..      BNE      0x36e4 ; 0x36e4
        0x000036d0:    e7ff        ..      B        0x36d2 ; 0x36d2
        0x000036d2:    9860        `.      LDR      r0,[sp,#0x180]
        0x000036d4:    7800        .x      LDRB     r0,[r0,#0]
        0x000036d6:    2103        .!      MOVS     r1,#3
        0x000036d8:    4008        .@      ANDS     r0,r0,r1
        0x000036da:    1e80        ..      SUBS     r0,r0,#2
        0x000036dc:    4241        AB      RSBS     r1,r0,#0
        0x000036de:    4148        HA      ADCS     r0,r0,r1
        0x000036e0:    9007        ..      STR      r0,[sp,#0x1c]
        0x000036e2:    e7ff        ..      B        0x36e4 ; 0x36e4
        0x000036e4:    9a07        ..      LDR      r2,[sp,#0x1c]
        0x000036e6:    995f        _.      LDR      r1,[sp,#0x17c]
        0x000036e8:    7808        .x      LDRB     r0,[r1,#0]
        0x000036ea:    07d2        ..      LSLS     r2,r2,#31
        0x000036ec:    0f52        R.      LSRS     r2,r2,#29
        0x000036ee:    23fb        .#      MOVS     r3,#0xfb
        0x000036f0:    4018        .@      ANDS     r0,r0,r3
        0x000036f2:    1880        ..      ADDS     r0,r0,r2
        0x000036f4:    7008        .p      STRB     r0,[r1,#0]
        0x000036f6:    985c        \.      LDR      r0,[sp,#0x170]
        0x000036f8:    7801        .x      LDRB     r1,[r0,#0]
        0x000036fa:    2003        .       MOVS     r0,#3
        0x000036fc:    4001        .@      ANDS     r1,r1,r0
        0x000036fe:    2000        .       MOVS     r0,#0
        0x00003700:    2901        .)      CMP      r1,#1
        0x00003702:    9006        ..      STR      r0,[sp,#0x18]
        0x00003704:    d109        ..      BNE      0x371a ; 0x371a
        0x00003706:    e7ff        ..      B        0x3708 ; 0x3708
        0x00003708:    9860        `.      LDR      r0,[sp,#0x180]
        0x0000370a:    7800        .x      LDRB     r0,[r0,#0]
        0x0000370c:    0680        ..      LSLS     r0,r0,#26
        0x0000370e:    0f80        ..      LSRS     r0,r0,#30
        0x00003710:    1e80        ..      SUBS     r0,r0,#2
        0x00003712:    4241        AB      RSBS     r1,r0,#0
        0x00003714:    4148        HA      ADCS     r0,r0,r1
        0x00003716:    9006        ..      STR      r0,[sp,#0x18]
        0x00003718:    e7ff        ..      B        0x371a ; 0x371a
        0x0000371a:    9a06        ..      LDR      r2,[sp,#0x18]
        0x0000371c:    995f        _.      LDR      r1,[sp,#0x17c]
        0x0000371e:    7808        .x      LDRB     r0,[r1,#0]
        0x00003720:    07d2        ..      LSLS     r2,r2,#31
        0x00003722:    0e92        ..      LSRS     r2,r2,#26
        0x00003724:    23df        .#      MOVS     r3,#0xdf
        0x00003726:    4018        .@      ANDS     r0,r0,r3
        0x00003728:    1880        ..      ADDS     r0,r0,r2
        0x0000372a:    7008        .p      STRB     r0,[r1,#0]
        0x0000372c:    985c        \.      LDR      r0,[sp,#0x170]
        0x0000372e:    7801        .x      LDRB     r1,[r0,#0]
        0x00003730:    2003        .       MOVS     r0,#3
        0x00003732:    4001        .@      ANDS     r1,r1,r0
        0x00003734:    2000        .       MOVS     r0,#0
        0x00003736:    2901        .)      CMP      r1,#1
        0x00003738:    9005        ..      STR      r0,[sp,#0x14]
        0x0000373a:    d109        ..      BNE      0x3750 ; 0x3750
        0x0000373c:    e7ff        ..      B        0x373e ; 0x373e
        0x0000373e:    9860        `.      LDR      r0,[sp,#0x180]
        0x00003740:    7800        .x      LDRB     r0,[r0,#0]
        0x00003742:    0680        ..      LSLS     r0,r0,#26
        0x00003744:    0f80        ..      LSRS     r0,r0,#30
        0x00003746:    1e80        ..      SUBS     r0,r0,#2
        0x00003748:    4241        AB      RSBS     r1,r0,#0
        0x0000374a:    4148        HA      ADCS     r0,r0,r1
        0x0000374c:    9005        ..      STR      r0,[sp,#0x14]
        0x0000374e:    e7ff        ..      B        0x3750 ; 0x3750
        0x00003750:    9a05        ..      LDR      r2,[sp,#0x14]
        0x00003752:    995f        _.      LDR      r1,[sp,#0x17c]
        0x00003754:    7808        .x      LDRB     r0,[r1,#0]
        0x00003756:    07d2        ..      LSLS     r2,r2,#31
        0x00003758:    0e52        R.      LSRS     r2,r2,#25
        0x0000375a:    23bf        .#      MOVS     r3,#0xbf
        0x0000375c:    4018        .@      ANDS     r0,r0,r3
        0x0000375e:    1880        ..      ADDS     r0,r0,r2
        0x00003760:    7008        .p      STRB     r0,[r1,#0]
        0x00003762:    985c        \.      LDR      r0,[sp,#0x170]
        0x00003764:    78c0        .x      LDRB     r0,[r0,#3]
        0x00003766:    0980        ..      LSRS     r0,r0,#6
        0x00003768:    1e82        ..      SUBS     r2,r0,#2
        0x0000376a:    4250        PB      RSBS     r0,r2,#0
        0x0000376c:    4142        BA      ADCS     r2,r2,r0
        0x0000376e:    995f        _.      LDR      r1,[sp,#0x17c]
        0x00003770:    7848        Hx      LDRB     r0,[r1,#1]
        0x00003772:    00d2        ..      LSLS     r2,r2,#3
        0x00003774:    23f7        .#      MOVS     r3,#0xf7
        0x00003776:    4018        .@      ANDS     r0,r0,r3
        0x00003778:    1880        ..      ADDS     r0,r0,r2
        0x0000377a:    7048        Hp      STRB     r0,[r1,#1]
        0x0000377c:    9859        Y.      LDR      r0,[sp,#0x164]
        0x0000377e:    7840        @x      LDRB     r0,[r0,#1]
        0x00003780:    2103        .!      MOVS     r1,#3
        0x00003782:    4008        .@      ANDS     r0,r0,r1
        0x00003784:    1e42        B.      SUBS     r2,r0,#1
        0x00003786:    4250        PB      RSBS     r0,r2,#0
        0x00003788:    4142        BA      ADCS     r2,r2,r0
        0x0000378a:    995f        _.      LDR      r1,[sp,#0x17c]
        0x0000378c:    7848        Hx      LDRB     r0,[r1,#1]
        0x0000378e:    0112        ..      LSLS     r2,r2,#4
        0x00003790:    23ef        .#      MOVS     r3,#0xef
        0x00003792:    4018        .@      ANDS     r0,r0,r3
        0x00003794:    1880        ..      ADDS     r0,r0,r2
        0x00003796:    7048        Hp      STRB     r0,[r1,#1]
        0x00003798:    985c        \.      LDR      r0,[sp,#0x170]
        0x0000379a:    7900        .y      LDRB     r0,[r0,#4]
        0x0000379c:    0700        ..      LSLS     r0,r0,#28
        0x0000379e:    0f80        ..      LSRS     r0,r0,#30
        0x000037a0:    1e42        B.      SUBS     r2,r0,#1
        0x000037a2:    4250        PB      RSBS     r0,r2,#0
        0x000037a4:    4142        BA      ADCS     r2,r2,r0
        0x000037a6:    995f        _.      LDR      r1,[sp,#0x17c]
        0x000037a8:    7848        Hx      LDRB     r0,[r1,#1]
        0x000037aa:    0152        R.      LSLS     r2,r2,#5
        0x000037ac:    23df        .#      MOVS     r3,#0xdf
        0x000037ae:    4018        .@      ANDS     r0,r0,r3
        0x000037b0:    1880        ..      ADDS     r0,r0,r2
        0x000037b2:    7048        Hp      STRB     r0,[r1,#1]
        0x000037b4:    985c        \.      LDR      r0,[sp,#0x170]
        0x000037b6:    7800        .x      LDRB     r0,[r0,#0]
        0x000037b8:    0700        ..      LSLS     r0,r0,#28
        0x000037ba:    0f81        ..      LSRS     r1,r0,#30
        0x000037bc:    2000        .       MOVS     r0,#0
        0x000037be:    2902        .)      CMP      r1,#2
        0x000037c0:    9004        ..      STR      r0,[sp,#0x10]
        0x000037c2:    d13d        =.      BNE      0x3840 ; 0x3840
        0x000037c4:    e7ff        ..      B        0x37c6 ; 0x37c6
        0x000037c6:    985c        \.      LDR      r0,[sp,#0x170]
        0x000037c8:    7800        .x      LDRB     r0,[r0,#0]
        0x000037ca:    0680        ..      LSLS     r0,r0,#26
        0x000037cc:    0f81        ..      LSRS     r1,r0,#30
        0x000037ce:    2000        .       MOVS     r0,#0
        0x000037d0:    2902        .)      CMP      r1,#2
        0x000037d2:    9004        ..      STR      r0,[sp,#0x10]
        0x000037d4:    d134        4.      BNE      0x3840 ; 0x3840
        0x000037d6:    e7ff        ..      B        0x37d8 ; 0x37d8
        0x000037d8:    985b        [.      LDR      r0,[sp,#0x16c]
        0x000037da:    7800        .x      LDRB     r0,[r0,#0]
        0x000037dc:    0981        ..      LSRS     r1,r0,#6
        0x000037de:    2000        .       MOVS     r0,#0
        0x000037e0:    2902        .)      CMP      r1,#2
        0x000037e2:    9004        ..      STR      r0,[sp,#0x10]
        0x000037e4:    d12c        ,.      BNE      0x3840 ; 0x3840
        0x000037e6:    e7ff        ..      B        0x37e8 ; 0x37e8
        0x000037e8:    985b        [.      LDR      r0,[sp,#0x16c]
        0x000037ea:    7840        @x      LDRB     r0,[r0,#1]
        0x000037ec:    0981        ..      LSRS     r1,r0,#6
        0x000037ee:    2000        .       MOVS     r0,#0
        0x000037f0:    2902        .)      CMP      r1,#2
        0x000037f2:    9004        ..      STR      r0,[sp,#0x10]
        0x000037f4:    d124        $.      BNE      0x3840 ; 0x3840
        0x000037f6:    e7ff        ..      B        0x37f8 ; 0x37f8
        0x000037f8:    985b        [.      LDR      r0,[sp,#0x16c]
        0x000037fa:    7881        .x      LDRB     r1,[r0,#2]
        0x000037fc:    2003        .       MOVS     r0,#3
        0x000037fe:    4001        .@      ANDS     r1,r1,r0
        0x00003800:    2000        .       MOVS     r0,#0
        0x00003802:    2902        .)      CMP      r1,#2
        0x00003804:    9004        ..      STR      r0,[sp,#0x10]
        0x00003806:    d11b        ..      BNE      0x3840 ; 0x3840
        0x00003808:    e7ff        ..      B        0x380a ; 0x380a
        0x0000380a:    985c        \.      LDR      r0,[sp,#0x170]
        0x0000380c:    7900        .y      LDRB     r0,[r0,#4]
        0x0000380e:    0700        ..      LSLS     r0,r0,#28
        0x00003810:    0f81        ..      LSRS     r1,r0,#30
        0x00003812:    2000        .       MOVS     r0,#0
        0x00003814:    2901        .)      CMP      r1,#1
        0x00003816:    9004        ..      STR      r0,[sp,#0x10]
        0x00003818:    d112        ..      BNE      0x3840 ; 0x3840
        0x0000381a:    e7ff        ..      B        0x381c ; 0x381c
        0x0000381c:    9859        Y.      LDR      r0,[sp,#0x164]
        0x0000381e:    7800        .x      LDRB     r0,[r0,#0]
        0x00003820:    0680        ..      LSLS     r0,r0,#26
        0x00003822:    0f81        ..      LSRS     r1,r0,#30
        0x00003824:    2000        .       MOVS     r0,#0
        0x00003826:    2901        .)      CMP      r1,#1
        0x00003828:    9004        ..      STR      r0,[sp,#0x10]
        0x0000382a:    d109        ..      BNE      0x3840 ; 0x3840
        0x0000382c:    e7ff        ..      B        0x382e ; 0x382e
        0x0000382e:    9860        `.      LDR      r0,[sp,#0x180]
        0x00003830:    7800        .x      LDRB     r0,[r0,#0]
        0x00003832:    2103        .!      MOVS     r1,#3
        0x00003834:    4008        .@      ANDS     r0,r0,r1
        0x00003836:    1e40        @.      SUBS     r0,r0,#1
        0x00003838:    4241        AB      RSBS     r1,r0,#0
        0x0000383a:    4148        HA      ADCS     r0,r0,r1
        0x0000383c:    9004        ..      STR      r0,[sp,#0x10]
        0x0000383e:    e7ff        ..      B        0x3840 ; 0x3840
        0x00003840:    9a04        ..      LDR      r2,[sp,#0x10]
        0x00003842:    995f        _.      LDR      r1,[sp,#0x17c]
        0x00003844:    7848        Hx      LDRB     r0,[r1,#1]
        0x00003846:    07d2        ..      LSLS     r2,r2,#31
        0x00003848:    0e52        R.      LSRS     r2,r2,#25
        0x0000384a:    23bf        .#      MOVS     r3,#0xbf
        0x0000384c:    4018        .@      ANDS     r0,r0,r3
        0x0000384e:    1880        ..      ADDS     r0,r0,r2
        0x00003850:    7048        Hp      STRB     r0,[r1,#1]
        0x00003852:    985c        \.      LDR      r0,[sp,#0x170]
        0x00003854:    7900        .y      LDRB     r0,[r0,#4]
        0x00003856:    0680        ..      LSLS     r0,r0,#26
        0x00003858:    0f81        ..      LSRS     r1,r0,#30
        0x0000385a:    2000        .       MOVS     r0,#0
        0x0000385c:    2902        .)      CMP      r1,#2
        0x0000385e:    9003        ..      STR      r0,[sp,#0xc]
        0x00003860:    d108        ..      BNE      0x3874 ; 0x3874
        0x00003862:    e7ff        ..      B        0x3864 ; 0x3864
        0x00003864:    985c        \.      LDR      r0,[sp,#0x170]
        0x00003866:    78c0        .x      LDRB     r0,[r0,#3]
        0x00003868:    0980        ..      LSRS     r0,r0,#6
        0x0000386a:    1e40        @.      SUBS     r0,r0,#1
        0x0000386c:    4241        AB      RSBS     r1,r0,#0
        0x0000386e:    4148        HA      ADCS     r0,r0,r1
        0x00003870:    9003        ..      STR      r0,[sp,#0xc]
        0x00003872:    e7ff        ..      B        0x3874 ; 0x3874
        0x00003874:    9a03        ..      LDR      r2,[sp,#0xc]
        0x00003876:    995f        _.      LDR      r1,[sp,#0x17c]
        0x00003878:    7888        .x      LDRB     r0,[r1,#2]
        0x0000387a:    07d2        ..      LSLS     r2,r2,#31
        0x0000387c:    0f92        ..      LSRS     r2,r2,#30
        0x0000387e:    24fd        .$      MOVS     r4,#0xfd
        0x00003880:    4020         @      ANDS     r0,r0,r4
        0x00003882:    1880        ..      ADDS     r0,r0,r2
        0x00003884:    7088        .p      STRB     r0,[r1,#2]
        0x00003886:    985c        \.      LDR      r0,[sp,#0x170]
        0x00003888:    78c0        .x      LDRB     r0,[r0,#3]
        0x0000388a:    0980        ..      LSRS     r0,r0,#6
        0x0000388c:    1e82        ..      SUBS     r2,r0,#2
        0x0000388e:    4250        PB      RSBS     r0,r2,#0
        0x00003890:    4142        BA      ADCS     r2,r2,r0
        0x00003892:    995f        _.      LDR      r1,[sp,#0x17c]
        0x00003894:    7888        .x      LDRB     r0,[r1,#2]
        0x00003896:    0092        ..      LSLS     r2,r2,#2
        0x00003898:    23fb        .#      MOVS     r3,#0xfb
        0x0000389a:    4018        .@      ANDS     r0,r0,r3
        0x0000389c:    1880        ..      ADDS     r0,r0,r2
        0x0000389e:    7088        .p      STRB     r0,[r1,#2]
        0x000038a0:    985c        \.      LDR      r0,[sp,#0x170]
        0x000038a2:    7900        .y      LDRB     r0,[r0,#4]
        0x000038a4:    0980        ..      LSRS     r0,r0,#6
        0x000038a6:    1e82        ..      SUBS     r2,r0,#2
        0x000038a8:    4250        PB      RSBS     r0,r2,#0
        0x000038aa:    4142        BA      ADCS     r2,r2,r0
        0x000038ac:    995f        _.      LDR      r1,[sp,#0x17c]
        0x000038ae:    7888        .x      LDRB     r0,[r1,#2]
        0x000038b0:    0192        ..      LSLS     r2,r2,#6
        0x000038b2:    25bf        .%      MOVS     r5,#0xbf
        0x000038b4:    4028        (@      ANDS     r0,r0,r5
        0x000038b6:    1880        ..      ADDS     r0,r0,r2
        0x000038b8:    7088        .p      STRB     r0,[r1,#2]
        0x000038ba:    985c        \.      LDR      r0,[sp,#0x170]
        0x000038bc:    7900        .y      LDRB     r0,[r0,#4]
        0x000038be:    0700        ..      LSLS     r0,r0,#28
        0x000038c0:    0f80        ..      LSRS     r0,r0,#30
        0x000038c2:    1e42        B.      SUBS     r2,r0,#1
        0x000038c4:    4250        PB      RSBS     r0,r2,#0
        0x000038c6:    4142        BA      ADCS     r2,r2,r0
        0x000038c8:    995f        _.      LDR      r1,[sp,#0x17c]
        0x000038ca:    78c8        .x      LDRB     r0,[r1,#3]
        0x000038cc:    0052        R.      LSLS     r2,r2,#1
        0x000038ce:    4020         @      ANDS     r0,r0,r4
        0x000038d0:    1880        ..      ADDS     r0,r0,r2
        0x000038d2:    70c8        .p      STRB     r0,[r1,#3]
        0x000038d4:    985c        \.      LDR      r0,[sp,#0x170]
        0x000038d6:    7900        .y      LDRB     r0,[r0,#4]
        0x000038d8:    0700        ..      LSLS     r0,r0,#28
        0x000038da:    0f80        ..      LSRS     r0,r0,#30
        0x000038dc:    1e82        ..      SUBS     r2,r0,#2
        0x000038de:    4250        PB      RSBS     r0,r2,#0
        0x000038e0:    4142        BA      ADCS     r2,r2,r0
        0x000038e2:    995f        _.      LDR      r1,[sp,#0x17c]
        0x000038e4:    78c8        .x      LDRB     r0,[r1,#3]
        0x000038e6:    0092        ..      LSLS     r2,r2,#2
        0x000038e8:    4018        .@      ANDS     r0,r0,r3
        0x000038ea:    1880        ..      ADDS     r0,r0,r2
        0x000038ec:    70c8        .p      STRB     r0,[r1,#3]
        0x000038ee:    985c        \.      LDR      r0,[sp,#0x170]
        0x000038f0:    7800        .x      LDRB     r0,[r0,#0]
        0x000038f2:    0700        ..      LSLS     r0,r0,#28
        0x000038f4:    0f80        ..      LSRS     r0,r0,#30
        0x000038f6:    1e82        ..      SUBS     r2,r0,#2
        0x000038f8:    4250        PB      RSBS     r0,r2,#0
        0x000038fa:    4142        BA      ADCS     r2,r2,r0
        0x000038fc:    995f        _.      LDR      r1,[sp,#0x17c]
        0x000038fe:    78c8        .x      LDRB     r0,[r1,#3]
        0x00003900:    00d2        ..      LSLS     r2,r2,#3
        0x00003902:    23f7        .#      MOVS     r3,#0xf7
        0x00003904:    4018        .@      ANDS     r0,r0,r3
        0x00003906:    1880        ..      ADDS     r0,r0,r2
        0x00003908:    70c8        .p      STRB     r0,[r1,#3]
        0x0000390a:    985c        \.      LDR      r0,[sp,#0x170]
        0x0000390c:    7800        .x      LDRB     r0,[r0,#0]
        0x0000390e:    0700        ..      LSLS     r0,r0,#28
        0x00003910:    0f80        ..      LSRS     r0,r0,#30
        0x00003912:    1e42        B.      SUBS     r2,r0,#1
        0x00003914:    4250        PB      RSBS     r0,r2,#0
        0x00003916:    4142        BA      ADCS     r2,r2,r0
        0x00003918:    995f        _.      LDR      r1,[sp,#0x17c]
        0x0000391a:    78c8        .x      LDRB     r0,[r1,#3]
        0x0000391c:    0112        ..      LSLS     r2,r2,#4
        0x0000391e:    23ef        .#      MOVS     r3,#0xef
        0x00003920:    4018        .@      ANDS     r0,r0,r3
        0x00003922:    1880        ..      ADDS     r0,r0,r2
        0x00003924:    70c8        .p      STRB     r0,[r1,#3]
        0x00003926:    985b        [.      LDR      r0,[sp,#0x16c]
        0x00003928:    7880        .x      LDRB     r0,[r0,#2]
        0x0000392a:    0981        ..      LSRS     r1,r0,#6
        0x0000392c:    2000        .       MOVS     r0,#0
        0x0000392e:    2902        .)      CMP      r1,#2
        0x00003930:    9002        ..      STR      r0,[sp,#8]
        0x00003932:    d108        ..      BNE      0x3946 ; 0x3946
        0x00003934:    e7ff        ..      B        0x3936 ; 0x3936
        0x00003936:    985b        [.      LDR      r0,[sp,#0x16c]
        0x00003938:    78c0        .x      LDRB     r0,[r0,#3]
        0x0000393a:    0980        ..      LSRS     r0,r0,#6
        0x0000393c:    1e80        ..      SUBS     r0,r0,#2
        0x0000393e:    4241        AB      RSBS     r1,r0,#0
        0x00003940:    4148        HA      ADCS     r0,r0,r1
        0x00003942:    9002        ..      STR      r0,[sp,#8]
        0x00003944:    e7ff        ..      B        0x3946 ; 0x3946
        0x00003946:    9a02        ..      LDR      r2,[sp,#8]
        0x00003948:    995f        _.      LDR      r1,[sp,#0x17c]
        0x0000394a:    78c8        .x      LDRB     r0,[r1,#3]
        0x0000394c:    07d2        ..      LSLS     r2,r2,#31
        0x0000394e:    0e92        ..      LSRS     r2,r2,#26
        0x00003950:    23df        .#      MOVS     r3,#0xdf
        0x00003952:    4018        .@      ANDS     r0,r0,r3
        0x00003954:    1880        ..      ADDS     r0,r0,r2
        0x00003956:    70c8        .p      STRB     r0,[r1,#3]
        0x00003958:    985c        \.      LDR      r0,[sp,#0x170]
        0x0000395a:    7801        .x      LDRB     r1,[r0,#0]
        0x0000395c:    2003        .       MOVS     r0,#3
        0x0000395e:    4001        .@      ANDS     r1,r1,r0
        0x00003960:    2000        .       MOVS     r0,#0
        0x00003962:    2902        .)      CMP      r1,#2
        0x00003964:    9001        ..      STR      r0,[sp,#4]
        0x00003966:    d141        A.      BNE      0x39ec ; 0x39ec
        0x00003968:    e7ff        ..      B        0x396a ; 0x396a
        0x0000396a:    985b        [.      LDR      r0,[sp,#0x16c]
        0x0000396c:    7800        .x      LDRB     r0,[r0,#0]
        0x0000396e:    0680        ..      LSLS     r0,r0,#26
        0x00003970:    0f81        ..      LSRS     r1,r0,#30
        0x00003972:    2000        .       MOVS     r0,#0
        0x00003974:    2902        .)      CMP      r1,#2
        0x00003976:    9001        ..      STR      r0,[sp,#4]
        0x00003978:    d138        8.      BNE      0x39ec ; 0x39ec
        0x0000397a:    e7ff        ..      B        0x397c ; 0x397c
        0x0000397c:    985c        \.      LDR      r0,[sp,#0x170]
        0x0000397e:    7800        .x      LDRB     r0,[r0,#0]
        0x00003980:    0981        ..      LSRS     r1,r0,#6
        0x00003982:    2000        .       MOVS     r0,#0
        0x00003984:    2902        .)      CMP      r1,#2
        0x00003986:    9001        ..      STR      r0,[sp,#4]
        0x00003988:    d130        0.      BNE      0x39ec ; 0x39ec
        0x0000398a:    e7ff        ..      B        0x398c ; 0x398c
        0x0000398c:    985c        \.      LDR      r0,[sp,#0x170]
        0x0000398e:    7840        @x      LDRB     r0,[r0,#1]
        0x00003990:    0981        ..      LSRS     r1,r0,#6
        0x00003992:    2000        .       MOVS     r0,#0
        0x00003994:    2902        .)      CMP      r1,#2
        0x00003996:    9001        ..      STR      r0,[sp,#4]
        0x00003998:    d128        (.      BNE      0x39ec ; 0x39ec
        0x0000399a:    e003        ..      B        0x39a4 ; 0x39a4
    $d
    __arm_cp.0_38
        0x0000399c:    2000025c    \..     DCD    536871516
    __arm_cp.0_39
        0x000039a0:    2000026e    n..     DCD    536871534
    $t
        0x000039a4:    985c        \.      LDR      r0,[sp,#0x170]
        0x000039a6:    7881        .x      LDRB     r1,[r0,#2]
        0x000039a8:    2003        .       MOVS     r0,#3
        0x000039aa:    4001        .@      ANDS     r1,r1,r0
        0x000039ac:    2000        .       MOVS     r0,#0
        0x000039ae:    2902        .)      CMP      r1,#2
        0x000039b0:    9001        ..      STR      r0,[sp,#4]
        0x000039b2:    d11b        ..      BNE      0x39ec ; 0x39ec
        0x000039b4:    e7ff        ..      B        0x39b6 ; 0x39b6
        0x000039b6:    985b        [.      LDR      r0,[sp,#0x16c]
        0x000039b8:    7900        .y      LDRB     r0,[r0,#4]
        0x000039ba:    0700        ..      LSLS     r0,r0,#28
        0x000039bc:    0f81        ..      LSRS     r1,r0,#30
        0x000039be:    2000        .       MOVS     r0,#0
        0x000039c0:    2901        .)      CMP      r1,#1
        0x000039c2:    9001        ..      STR      r0,[sp,#4]
        0x000039c4:    d112        ..      BNE      0x39ec ; 0x39ec
        0x000039c6:    e7ff        ..      B        0x39c8 ; 0x39c8
        0x000039c8:    9860        `.      LDR      r0,[sp,#0x180]
        0x000039ca:    7800        .x      LDRB     r0,[r0,#0]
        0x000039cc:    0680        ..      LSLS     r0,r0,#26
        0x000039ce:    0f81        ..      LSRS     r1,r0,#30
        0x000039d0:    2000        .       MOVS     r0,#0
        0x000039d2:    2901        .)      CMP      r1,#1
        0x000039d4:    9001        ..      STR      r0,[sp,#4]
        0x000039d6:    d109        ..      BNE      0x39ec ; 0x39ec
        0x000039d8:    e7ff        ..      B        0x39da ; 0x39da
        0x000039da:    9859        Y.      LDR      r0,[sp,#0x164]
        0x000039dc:    7800        .x      LDRB     r0,[r0,#0]
        0x000039de:    2103        .!      MOVS     r1,#3
        0x000039e0:    4008        .@      ANDS     r0,r0,r1
        0x000039e2:    1e40        @.      SUBS     r0,r0,#1
        0x000039e4:    4241        AB      RSBS     r1,r0,#0
        0x000039e6:    4148        HA      ADCS     r0,r0,r1
        0x000039e8:    9001        ..      STR      r0,[sp,#4]
        0x000039ea:    e7ff        ..      B        0x39ec ; 0x39ec
        0x000039ec:    9a01        ..      LDR      r2,[sp,#4]
        0x000039ee:    995f        _.      LDR      r1,[sp,#0x17c]
        0x000039f0:    78c8        .x      LDRB     r0,[r1,#3]
        0x000039f2:    01d2        ..      LSLS     r2,r2,#7
        0x000039f4:    237f        .#      MOVS     r3,#0x7f
        0x000039f6:    4018        .@      ANDS     r0,r0,r3
        0x000039f8:    1880        ..      ADDS     r0,r0,r2
        0x000039fa:    70c8        .p      STRB     r0,[r1,#3]
        0x000039fc:    985c        \.      LDR      r0,[sp,#0x170]
        0x000039fe:    7800        .x      LDRB     r0,[r0,#0]
        0x00003a00:    2103        .!      MOVS     r1,#3
        0x00003a02:    4008        .@      ANDS     r0,r0,r1
        0x00003a04:    1e83        ..      SUBS     r3,r0,#2
        0x00003a06:    4258        XB      RSBS     r0,r3,#0
        0x00003a08:    4143        CA      ADCS     r3,r3,r0
        0x00003a0a:    9a5f        _.      LDR      r2,[sp,#0x17c]
        0x00003a0c:    7910        .y      LDRB     r0,[r2,#4]
        0x00003a0e:    24fe        .$      MOVS     r4,#0xfe
        0x00003a10:    4020         @      ANDS     r0,r0,r4
        0x00003a12:    18c0        ..      ADDS     r0,r0,r3
        0x00003a14:    7110        .q      STRB     r0,[r2,#4]
        0x00003a16:    985c        \.      LDR      r0,[sp,#0x170]
        0x00003a18:    7800        .x      LDRB     r0,[r0,#0]
        0x00003a1a:    4008        .@      ANDS     r0,r0,r1
        0x00003a1c:    1e42        B.      SUBS     r2,r0,#1
        0x00003a1e:    4250        PB      RSBS     r0,r2,#0
        0x00003a20:    4142        BA      ADCS     r2,r2,r0
        0x00003a22:    995f        _.      LDR      r1,[sp,#0x17c]
        0x00003a24:    7908        .y      LDRB     r0,[r1,#4]
        0x00003a26:    0052        R.      LSLS     r2,r2,#1
        0x00003a28:    23fd        .#      MOVS     r3,#0xfd
        0x00003a2a:    4018        .@      ANDS     r0,r0,r3
        0x00003a2c:    1880        ..      ADDS     r0,r0,r2
        0x00003a2e:    7108        .q      STRB     r0,[r1,#4]
        0x00003a30:    985c        \.      LDR      r0,[sp,#0x170]
        0x00003a32:    7800        .x      LDRB     r0,[r0,#0]
        0x00003a34:    0981        ..      LSRS     r1,r0,#6
        0x00003a36:    2000        .       MOVS     r0,#0
        0x00003a38:    2902        .)      CMP      r1,#2
        0x00003a3a:    9000        ..      STR      r0,[sp,#0]
        0x00003a3c:    d109        ..      BNE      0x3a52 ; 0x3a52
        0x00003a3e:    e7ff        ..      B        0x3a40 ; 0x3a40
        0x00003a40:    985b        [.      LDR      r0,[sp,#0x16c]
        0x00003a42:    7900        .y      LDRB     r0,[r0,#4]
        0x00003a44:    0700        ..      LSLS     r0,r0,#28
        0x00003a46:    0f80        ..      LSRS     r0,r0,#30
        0x00003a48:    1e40        @.      SUBS     r0,r0,#1
        0x00003a4a:    4241        AB      RSBS     r1,r0,#0
        0x00003a4c:    4148        HA      ADCS     r0,r0,r1
        0x00003a4e:    9000        ..      STR      r0,[sp,#0]
        0x00003a50:    e7ff        ..      B        0x3a52 ; 0x3a52
        0x00003a52:    9a00        ..      LDR      r2,[sp,#0]
        0x00003a54:    995f        _.      LDR      r1,[sp,#0x17c]
        0x00003a56:    7888        .x      LDRB     r0,[r1,#2]
        0x00003a58:    07d2        ..      LSLS     r2,r2,#31
        0x00003a5a:    0ed2        ..      LSRS     r2,r2,#27
        0x00003a5c:    23ef        .#      MOVS     r3,#0xef
        0x00003a5e:    4018        .@      ANDS     r0,r0,r3
        0x00003a60:    1880        ..      ADDS     r0,r0,r2
        0x00003a62:    7088        .p      STRB     r0,[r1,#2]
        0x00003a64:    985c        \.      LDR      r0,[sp,#0x170]
        0x00003a66:    7900        .y      LDRB     r0,[r0,#4]
        0x00003a68:    2103        .!      MOVS     r1,#3
        0x00003a6a:    4008        .@      ANDS     r0,r0,r1
        0x00003a6c:    1e42        B.      SUBS     r2,r0,#1
        0x00003a6e:    1e50        P.      SUBS     r0,r2,#1
        0x00003a70:    4182        .A      SBCS     r2,r2,r0
        0x00003a72:    995f        _.      LDR      r1,[sp,#0x17c]
        0x00003a74:    7908        .y      LDRB     r0,[r1,#4]
        0x00003a76:    0092        ..      LSLS     r2,r2,#2
        0x00003a78:    23fb        .#      MOVS     r3,#0xfb
        0x00003a7a:    4018        .@      ANDS     r0,r0,r3
        0x00003a7c:    1880        ..      ADDS     r0,r0,r2
        0x00003a7e:    7108        .q      STRB     r0,[r1,#4]
        0x00003a80:    4903        .I      LDR      r1,[pc,#12] ; [0x3a90] = 0x20000272
        0x00003a82:    2001        .       MOVS     r0,#1
        0x00003a84:    7008        .p      STRB     r0,[r1,#0]
        0x00003a86:    e000        ..      B        0x3a8a ; 0x3a8a
        0x00003a88:    e7ff        ..      B        0x3a8a ; 0x3a8a
        0x00003a8a:    b063        c.      ADD      sp,sp,#0x18c
        0x00003a8c:    bdf0        ..      POP      {r4-r7,pc}
        0x00003a8e:    46c0        .F      MOV      r8,r8
    $d
    __arm_cp.0_9
        0x00003a90:    20000272    r..     DCD    536871538
    $t
    interlock_SL
        0x00003a94:    b5f0        ..      PUSH     {r4-r7,lr}
        0x00003a96:    b0e3        ..      SUB      sp,sp,#0x18c
        0x00003a98:    48f3        .H      LDR      r0,[pc,#972] ; [0x3e68] = 0x200002a8
        0x00003a9a:    9061        a.      STR      r0,[sp,#0x184]
        0x00003a9c:    48f3        .H      LDR      r0,[pc,#972] ; [0x3e6c] = 0x200002a4
        0x00003a9e:    9060        `.      STR      r0,[sp,#0x180]
        0x00003aa0:    48f3        .H      LDR      r0,[pc,#972] ; [0x3e70] = 0x2000028e
        0x00003aa2:    905f        _.      STR      r0,[sp,#0x17c]
        0x00003aa4:    48f3        .H      LDR      r0,[pc,#972] ; [0x3e74] = 0x2000027c
        0x00003aa6:    905e        ^.      STR      r0,[sp,#0x178]
        0x00003aa8:    48f3        .H      LDR      r0,[pc,#972] ; [0x3e78] = 0x20000288
        0x00003aaa:    905d        ].      STR      r0,[sp,#0x174]
        0x00003aac:    48f3        .H      LDR      r0,[pc,#972] ; [0x3e7c] = 0x2000029f
        0x00003aae:    905c        \.      STR      r0,[sp,#0x170]
        0x00003ab0:    48f3        .H      LDR      r0,[pc,#972] ; [0x3e80] = 0x20000298
        0x00003ab2:    905b        [.      STR      r0,[sp,#0x16c]
        0x00003ab4:    48f3        .H      LDR      r0,[pc,#972] ; [0x3e84] = 0x20000282
        0x00003ab6:    905a        Z.      STR      r0,[sp,#0x168]
        0x00003ab8:    48f3        .H      LDR      r0,[pc,#972] ; [0x3e88] = 0x200002a6
        0x00003aba:    9059        Y.      STR      r0,[sp,#0x164]
        0x00003abc:    48f3        .H      LDR      r0,[pc,#972] ; [0x3e8c] = 0x20000273
        0x00003abe:    7800        .x      LDRB     r0,[r0,#0]
        0x00003ac0:    9058        X.      STR      r0,[sp,#0x160]
        0x00003ac2:    b150        P.      CBZ      r0,0x3ada ; interlock_SL + 70
        0x00003ac4:    e7ff        ..      B        0x3ac6 ; interlock_SL + 50
        0x00003ac6:    9858        X.      LDR      r0,[sp,#0x160]
        0x00003ac8:    2801        .(      CMP      r0,#1
        0x00003aca:    d100        ..      BNE      0x3ace ; interlock_SL + 58
        0x00003acc:    e081        ..      B        0x3bd2 ; interlock_SL + 318
        0x00003ace:    9858        X.      LDR      r0,[sp,#0x160]
        0x00003ad0:    2802        .(      CMP      r0,#2
        0x00003ad2:    d100        ..      BNE      0x3ad6 ; interlock_SL + 66
        0x00003ad4:    e15f        _.      B        0x3d96 ; interlock_SL + 770
        0x00003ad6:    f001fa5e    ..^.    BL       0x4f96 ; 0x4f96
        0x00003ada:    995d        ].      LDR      r1,[sp,#0x174]
        0x00003adc:    7808        .x      LDRB     r0,[r1,#0]
        0x00003ade:    22fc        ."      MOVS     r2,#0xfc
        0x00003ae0:    4010        .@      ANDS     r0,r0,r2
        0x00003ae2:    1c40        @.      ADDS     r0,r0,#1
        0x00003ae4:    7008        .p      STRB     r0,[r1,#0]
        0x00003ae6:    995d        ].      LDR      r1,[sp,#0x174]
        0x00003ae8:    7808        .x      LDRB     r0,[r1,#0]
        0x00003aea:    25f3        .%      MOVS     r5,#0xf3
        0x00003aec:    4028        (@      ANDS     r0,r0,r5
        0x00003aee:    1d00        ..      ADDS     r0,r0,#4
        0x00003af0:    7008        .p      STRB     r0,[r1,#0]
        0x00003af2:    995d        ].      LDR      r1,[sp,#0x174]
        0x00003af4:    7808        .x      LDRB     r0,[r1,#0]
        0x00003af6:    24cf        .$      MOVS     r4,#0xcf
        0x00003af8:    4020         @      ANDS     r0,r0,r4
        0x00003afa:    3010        .0      ADDS     r0,r0,#0x10
        0x00003afc:    7008        .p      STRB     r0,[r1,#0]
        0x00003afe:    995d        ].      LDR      r1,[sp,#0x174]
        0x00003b00:    7808        .x      LDRB     r0,[r1,#0]
        0x00003b02:    233f        ?#      MOVS     r3,#0x3f
        0x00003b04:    4018        .@      ANDS     r0,r0,r3
        0x00003b06:    3040        @0      ADDS     r0,r0,#0x40
        0x00003b08:    7008        .p      STRB     r0,[r1,#0]
        0x00003b0a:    995d        ].      LDR      r1,[sp,#0x174]
        0x00003b0c:    7848        Hx      LDRB     r0,[r1,#1]
        0x00003b0e:    4010        .@      ANDS     r0,r0,r2
        0x00003b10:    1c40        @.      ADDS     r0,r0,#1
        0x00003b12:    7048        Hp      STRB     r0,[r1,#1]
        0x00003b14:    995d        ].      LDR      r1,[sp,#0x174]
        0x00003b16:    7848        Hx      LDRB     r0,[r1,#1]
        0x00003b18:    4028        (@      ANDS     r0,r0,r5
        0x00003b1a:    1d00        ..      ADDS     r0,r0,#4
        0x00003b1c:    7048        Hp      STRB     r0,[r1,#1]
        0x00003b1e:    995d        ].      LDR      r1,[sp,#0x174]
        0x00003b20:    7848        Hx      LDRB     r0,[r1,#1]
        0x00003b22:    4020         @      ANDS     r0,r0,r4
        0x00003b24:    3010        .0      ADDS     r0,r0,#0x10
        0x00003b26:    7048        Hp      STRB     r0,[r1,#1]
        0x00003b28:    995d        ].      LDR      r1,[sp,#0x174]
        0x00003b2a:    7848        Hx      LDRB     r0,[r1,#1]
        0x00003b2c:    4018        .@      ANDS     r0,r0,r3
        0x00003b2e:    3040        @0      ADDS     r0,r0,#0x40
        0x00003b30:    7048        Hp      STRB     r0,[r1,#1]
        0x00003b32:    995d        ].      LDR      r1,[sp,#0x174]
        0x00003b34:    7888        .x      LDRB     r0,[r1,#2]
        0x00003b36:    4010        .@      ANDS     r0,r0,r2
        0x00003b38:    1c40        @.      ADDS     r0,r0,#1
        0x00003b3a:    7088        .p      STRB     r0,[r1,#2]
        0x00003b3c:    995d        ].      LDR      r1,[sp,#0x174]
        0x00003b3e:    7888        .x      LDRB     r0,[r1,#2]
        0x00003b40:    4028        (@      ANDS     r0,r0,r5
        0x00003b42:    1d00        ..      ADDS     r0,r0,#4
        0x00003b44:    7088        .p      STRB     r0,[r1,#2]
        0x00003b46:    995d        ].      LDR      r1,[sp,#0x174]
        0x00003b48:    7888        .x      LDRB     r0,[r1,#2]
        0x00003b4a:    4020         @      ANDS     r0,r0,r4
        0x00003b4c:    3010        .0      ADDS     r0,r0,#0x10
        0x00003b4e:    7088        .p      STRB     r0,[r1,#2]
        0x00003b50:    995d        ].      LDR      r1,[sp,#0x174]
        0x00003b52:    7888        .x      LDRB     r0,[r1,#2]
        0x00003b54:    4018        .@      ANDS     r0,r0,r3
        0x00003b56:    3080        .0      ADDS     r0,r0,#0x80
        0x00003b58:    7088        .p      STRB     r0,[r1,#2]
        0x00003b5a:    995d        ].      LDR      r1,[sp,#0x174]
        0x00003b5c:    78c8        .x      LDRB     r0,[r1,#3]
        0x00003b5e:    4010        .@      ANDS     r0,r0,r2
        0x00003b60:    1c40        @.      ADDS     r0,r0,#1
        0x00003b62:    70c8        .p      STRB     r0,[r1,#3]
        0x00003b64:    995d        ].      LDR      r1,[sp,#0x174]
        0x00003b66:    78c8        .x      LDRB     r0,[r1,#3]
        0x00003b68:    4028        (@      ANDS     r0,r0,r5
        0x00003b6a:    1d00        ..      ADDS     r0,r0,#4
        0x00003b6c:    70c8        .p      STRB     r0,[r1,#3]
        0x00003b6e:    995d        ].      LDR      r1,[sp,#0x174]
        0x00003b70:    78c8        .x      LDRB     r0,[r1,#3]
        0x00003b72:    4020         @      ANDS     r0,r0,r4
        0x00003b74:    3020         0      ADDS     r0,r0,#0x20
        0x00003b76:    70c8        .p      STRB     r0,[r1,#3]
        0x00003b78:    995d        ].      LDR      r1,[sp,#0x174]
        0x00003b7a:    78c8        .x      LDRB     r0,[r1,#3]
        0x00003b7c:    4018        .@      ANDS     r0,r0,r3
        0x00003b7e:    3080        .0      ADDS     r0,r0,#0x80
        0x00003b80:    70c8        .p      STRB     r0,[r1,#3]
        0x00003b82:    995d        ].      LDR      r1,[sp,#0x174]
        0x00003b84:    7908        .y      LDRB     r0,[r1,#4]
        0x00003b86:    4010        .@      ANDS     r0,r0,r2
        0x00003b88:    1c40        @.      ADDS     r0,r0,#1
        0x00003b8a:    7108        .q      STRB     r0,[r1,#4]
        0x00003b8c:    995d        ].      LDR      r1,[sp,#0x174]
        0x00003b8e:    7908        .y      LDRB     r0,[r1,#4]
        0x00003b90:    4028        (@      ANDS     r0,r0,r5
        0x00003b92:    1d00        ..      ADDS     r0,r0,#4
        0x00003b94:    7108        .q      STRB     r0,[r1,#4]
        0x00003b96:    9961        a.      LDR      r1,[sp,#0x184]
        0x00003b98:    7808        .x      LDRB     r0,[r1,#0]
        0x00003b9a:    4010        .@      ANDS     r0,r0,r2
        0x00003b9c:    1c40        @.      ADDS     r0,r0,#1
        0x00003b9e:    7008        .p      STRB     r0,[r1,#0]
        0x00003ba0:    9961        a.      LDR      r1,[sp,#0x184]
        0x00003ba2:    7808        .x      LDRB     r0,[r1,#0]
        0x00003ba4:    4028        (@      ANDS     r0,r0,r5
        0x00003ba6:    3008        .0      ADDS     r0,r0,#8
        0x00003ba8:    7008        .p      STRB     r0,[r1,#0]
        0x00003baa:    9961        a.      LDR      r1,[sp,#0x184]
        0x00003bac:    7808        .x      LDRB     r0,[r1,#0]
        0x00003bae:    4020         @      ANDS     r0,r0,r4
        0x00003bb0:    3010        .0      ADDS     r0,r0,#0x10
        0x00003bb2:    7008        .p      STRB     r0,[r1,#0]
        0x00003bb4:    9961        a.      LDR      r1,[sp,#0x184]
        0x00003bb6:    7808        .x      LDRB     r0,[r1,#0]
        0x00003bb8:    4018        .@      ANDS     r0,r0,r3
        0x00003bba:    3080        .0      ADDS     r0,r0,#0x80
        0x00003bbc:    7008        .p      STRB     r0,[r1,#0]
        0x00003bbe:    9961        a.      LDR      r1,[sp,#0x184]
        0x00003bc0:    7848        Hx      LDRB     r0,[r1,#1]
        0x00003bc2:    4010        .@      ANDS     r0,r0,r2
        0x00003bc4:    1c40        @.      ADDS     r0,r0,#1
        0x00003bc6:    7048        Hp      STRB     r0,[r1,#1]
        0x00003bc8:    49b0        .I      LDR      r1,[pc,#704] ; [0x3e8c] = 0x20000273
        0x00003bca:    2001        .       MOVS     r0,#1
        0x00003bcc:    7008        .p      STRB     r0,[r1,#0]
        0x00003bce:    f001f9e3    ....    BL       0x4f98 ; 0x4f98
        0x00003bd2:    985d        ].      LDR      r0,[sp,#0x174]
        0x00003bd4:    7803        .x      LDRB     r3,[r0,#0]
        0x00003bd6:    2003        .       MOVS     r0,#3
        0x00003bd8:    9057        W.      STR      r0,[sp,#0x15c]
        0x00003bda:    4003        .@      ANDS     r3,r3,r0
        0x00003bdc:    9a5e        ^.      LDR      r2,[sp,#0x178]
        0x00003bde:    7810        .x      LDRB     r0,[r2,#0]
        0x00003be0:    21fc        .!      MOVS     r1,#0xfc
        0x00003be2:    9156        V.      STR      r1,[sp,#0x158]
        0x00003be4:    4008        .@      ANDS     r0,r0,r1
        0x00003be6:    18c0        ..      ADDS     r0,r0,r3
        0x00003be8:    7010        .p      STRB     r0,[r2,#0]
        0x00003bea:    985d        ].      LDR      r0,[sp,#0x174]
        0x00003bec:    7804        .x      LDRB     r4,[r0,#0]
        0x00003bee:    9a5e        ^.      LDR      r2,[sp,#0x178]
        0x00003bf0:    7810        .x      LDRB     r0,[r2,#0]
        0x00003bf2:    230c        .#      MOVS     r3,#0xc
        0x00003bf4:    9354        T.      STR      r3,[sp,#0x150]
        0x00003bf6:    401c        .@      ANDS     r4,r4,r3
        0x00003bf8:    23f3        .#      MOVS     r3,#0xf3
        0x00003bfa:    4018        .@      ANDS     r0,r0,r3
        0x00003bfc:    1900        ..      ADDS     r0,r0,r4
        0x00003bfe:    7010        .p      STRB     r0,[r2,#0]
        0x00003c00:    985d        ].      LDR      r0,[sp,#0x174]
        0x00003c02:    7804        .x      LDRB     r4,[r0,#0]
        0x00003c04:    9a5e        ^.      LDR      r2,[sp,#0x178]
        0x00003c06:    7810        .x      LDRB     r0,[r2,#0]
        0x00003c08:    2630        0&      MOVS     r6,#0x30
        0x00003c0a:    4034        4@      ANDS     r4,r4,r6
        0x00003c0c:    25cf        .%      MOVS     r5,#0xcf
        0x00003c0e:    4028        (@      ANDS     r0,r0,r5
        0x00003c10:    1900        ..      ADDS     r0,r0,r4
        0x00003c12:    7010        .p      STRB     r0,[r2,#0]
        0x00003c14:    985d        ].      LDR      r0,[sp,#0x174]
        0x00003c16:    7800        .x      LDRB     r0,[r0,#0]
        0x00003c18:    9c5e        ^.      LDR      r4,[sp,#0x178]
        0x00003c1a:    7822        "x      LDRB     r2,[r4,#0]
        0x00003c1c:    27c0        .'      MOVS     r7,#0xc0
        0x00003c1e:    9755        U.      STR      r7,[sp,#0x154]
        0x00003c20:    4038        8@      ANDS     r0,r0,r7
        0x00003c22:    273f        ?'      MOVS     r7,#0x3f
        0x00003c24:    403a        :@      ANDS     r2,r2,r7
        0x00003c26:    1812        ..      ADDS     r2,r2,r0
        0x00003c28:    9857        W.      LDR      r0,[sp,#0x15c]
        0x00003c2a:    7022        "p      STRB     r2,[r4,#0]
        0x00003c2c:    9a5d        ].      LDR      r2,[sp,#0x174]
        0x00003c2e:    7854        Tx      LDRB     r4,[r2,#1]
        0x00003c30:    4004        .@      ANDS     r4,r4,r0
        0x00003c32:    9a5e        ^.      LDR      r2,[sp,#0x178]
        0x00003c34:    7850        Px      LDRB     r0,[r2,#1]
        0x00003c36:    4008        .@      ANDS     r0,r0,r1
        0x00003c38:    9954        T.      LDR      r1,[sp,#0x150]
        0x00003c3a:    1900        ..      ADDS     r0,r0,r4
        0x00003c3c:    7050        Pp      STRB     r0,[r2,#1]
        0x00003c3e:    985d        ].      LDR      r0,[sp,#0x174]
        0x00003c40:    7844        Dx      LDRB     r4,[r0,#1]
        0x00003c42:    9a5e        ^.      LDR      r2,[sp,#0x178]
        0x00003c44:    7850        Px      LDRB     r0,[r2,#1]
        0x00003c46:    400c        .@      ANDS     r4,r4,r1
        0x00003c48:    9955        U.      LDR      r1,[sp,#0x154]
        0x00003c4a:    4018        .@      ANDS     r0,r0,r3
        0x00003c4c:    1900        ..      ADDS     r0,r0,r4
        0x00003c4e:    7050        Pp      STRB     r0,[r2,#1]
        0x00003c50:    985d        ].      LDR      r0,[sp,#0x174]
        0x00003c52:    7844        Dx      LDRB     r4,[r0,#1]
        0x00003c54:    9a5e        ^.      LDR      r2,[sp,#0x178]
        0x00003c56:    7850        Px      LDRB     r0,[r2,#1]
        0x00003c58:    4034        4@      ANDS     r4,r4,r6
        0x00003c5a:    4028        (@      ANDS     r0,r0,r5
        0x00003c5c:    1900        ..      ADDS     r0,r0,r4
        0x00003c5e:    7050        Pp      STRB     r0,[r2,#1]
        0x00003c60:    985d        ].      LDR      r0,[sp,#0x174]
        0x00003c62:    7840        @x      LDRB     r0,[r0,#1]
        0x00003c64:    9c5e        ^.      LDR      r4,[sp,#0x178]
        0x00003c66:    7862        bx      LDRB     r2,[r4,#1]
        0x00003c68:    4008        .@      ANDS     r0,r0,r1
        0x00003c6a:    9956        V.      LDR      r1,[sp,#0x158]
        0x00003c6c:    403a        :@      ANDS     r2,r2,r7
        0x00003c6e:    1812        ..      ADDS     r2,r2,r0
        0x00003c70:    9857        W.      LDR      r0,[sp,#0x15c]
        0x00003c72:    7062        bp      STRB     r2,[r4,#1]
        0x00003c74:    9a5d        ].      LDR      r2,[sp,#0x174]
        0x00003c76:    7894        .x      LDRB     r4,[r2,#2]
        0x00003c78:    4004        .@      ANDS     r4,r4,r0
        0x00003c7a:    9a5e        ^.      LDR      r2,[sp,#0x178]
        0x00003c7c:    7890        .x      LDRB     r0,[r2,#2]
        0x00003c7e:    4008        .@      ANDS     r0,r0,r1
        0x00003c80:    9954        T.      LDR      r1,[sp,#0x150]
        0x00003c82:    1900        ..      ADDS     r0,r0,r4
        0x00003c84:    7090        .p      STRB     r0,[r2,#2]
        0x00003c86:    985d        ].      LDR      r0,[sp,#0x174]
        0x00003c88:    7884        .x      LDRB     r4,[r0,#2]
        0x00003c8a:    9a5e        ^.      LDR      r2,[sp,#0x178]
        0x00003c8c:    7890        .x      LDRB     r0,[r2,#2]
        0x00003c8e:    400c        .@      ANDS     r4,r4,r1
        0x00003c90:    9955        U.      LDR      r1,[sp,#0x154]
        0x00003c92:    4018        .@      ANDS     r0,r0,r3
        0x00003c94:    1900        ..      ADDS     r0,r0,r4
        0x00003c96:    7090        .p      STRB     r0,[r2,#2]
        0x00003c98:    985d        ].      LDR      r0,[sp,#0x174]
        0x00003c9a:    7884        .x      LDRB     r4,[r0,#2]
        0x00003c9c:    9a5e        ^.      LDR      r2,[sp,#0x178]
        0x00003c9e:    7890        .x      LDRB     r0,[r2,#2]
        0x00003ca0:    4034        4@      ANDS     r4,r4,r6
        0x00003ca2:    4028        (@      ANDS     r0,r0,r5
        0x00003ca4:    1900        ..      ADDS     r0,r0,r4
        0x00003ca6:    7090        .p      STRB     r0,[r2,#2]
        0x00003ca8:    985d        ].      LDR      r0,[sp,#0x174]
        0x00003caa:    7880        .x      LDRB     r0,[r0,#2]
        0x00003cac:    9c5e        ^.      LDR      r4,[sp,#0x178]
        0x00003cae:    78a2        .x      LDRB     r2,[r4,#2]
        0x00003cb0:    4008        .@      ANDS     r0,r0,r1
        0x00003cb2:    9956        V.      LDR      r1,[sp,#0x158]
        0x00003cb4:    403a        :@      ANDS     r2,r2,r7
        0x00003cb6:    1812        ..      ADDS     r2,r2,r0
        0x00003cb8:    9857        W.      LDR      r0,[sp,#0x15c]
        0x00003cba:    70a2        .p      STRB     r2,[r4,#2]
        0x00003cbc:    9a5d        ].      LDR      r2,[sp,#0x174]
        0x00003cbe:    78d4        .x      LDRB     r4,[r2,#3]
        0x00003cc0:    4004        .@      ANDS     r4,r4,r0
        0x00003cc2:    9a5e        ^.      LDR      r2,[sp,#0x178]
        0x00003cc4:    78d0        .x      LDRB     r0,[r2,#3]
        0x00003cc6:    4008        .@      ANDS     r0,r0,r1
        0x00003cc8:    9954        T.      LDR      r1,[sp,#0x150]
        0x00003cca:    1900        ..      ADDS     r0,r0,r4
        0x00003ccc:    70d0        .p      STRB     r0,[r2,#3]
        0x00003cce:    985d        ].      LDR      r0,[sp,#0x174]
        0x00003cd0:    78c4        .x      LDRB     r4,[r0,#3]
        0x00003cd2:    9a5e        ^.      LDR      r2,[sp,#0x178]
        0x00003cd4:    78d0        .x      LDRB     r0,[r2,#3]
        0x00003cd6:    400c        .@      ANDS     r4,r4,r1
        0x00003cd8:    9955        U.      LDR      r1,[sp,#0x154]
        0x00003cda:    4018        .@      ANDS     r0,r0,r3
        0x00003cdc:    1900        ..      ADDS     r0,r0,r4
        0x00003cde:    70d0        .p      STRB     r0,[r2,#3]
        0x00003ce0:    985d        ].      LDR      r0,[sp,#0x174]
        0x00003ce2:    78c4        .x      LDRB     r4,[r0,#3]
        0x00003ce4:    9a5e        ^.      LDR      r2,[sp,#0x178]
        0x00003ce6:    78d0        .x      LDRB     r0,[r2,#3]
        0x00003ce8:    4034        4@      ANDS     r4,r4,r6
        0x00003cea:    4028        (@      ANDS     r0,r0,r5
        0x00003cec:    1900        ..      ADDS     r0,r0,r4
        0x00003cee:    70d0        .p      STRB     r0,[r2,#3]
        0x00003cf0:    985d        ].      LDR      r0,[sp,#0x174]
        0x00003cf2:    78c0        .x      LDRB     r0,[r0,#3]
        0x00003cf4:    9c5e        ^.      LDR      r4,[sp,#0x178]
        0x00003cf6:    78e2        .x      LDRB     r2,[r4,#3]
        0x00003cf8:    4008        .@      ANDS     r0,r0,r1
        0x00003cfa:    9957        W.      LDR      r1,[sp,#0x15c]
        0x00003cfc:    403a        :@      ANDS     r2,r2,r7
        0x00003cfe:    1812        ..      ADDS     r2,r2,r0
        0x00003d00:    9856        V.      LDR      r0,[sp,#0x158]
        0x00003d02:    70e2        .p      STRB     r2,[r4,#3]
        0x00003d04:    9a5d        ].      LDR      r2,[sp,#0x174]
        0x00003d06:    7914        .y      LDRB     r4,[r2,#4]
        0x00003d08:    400c        .@      ANDS     r4,r4,r1
        0x00003d0a:    9a5e        ^.      LDR      r2,[sp,#0x178]
        0x00003d0c:    7911        .y      LDRB     r1,[r2,#4]
        0x00003d0e:    4001        .@      ANDS     r1,r1,r0
        0x00003d10:    9854        T.      LDR      r0,[sp,#0x150]
        0x00003d12:    1909        ..      ADDS     r1,r1,r4
        0x00003d14:    7111        .q      STRB     r1,[r2,#4]
        0x00003d16:    995d        ].      LDR      r1,[sp,#0x174]
        0x00003d18:    790c        .y      LDRB     r4,[r1,#4]
        0x00003d1a:    9a5e        ^.      LDR      r2,[sp,#0x178]
        0x00003d1c:    7911        .y      LDRB     r1,[r2,#4]
        0x00003d1e:    4004        .@      ANDS     r4,r4,r0
        0x00003d20:    9855        U.      LDR      r0,[sp,#0x154]
        0x00003d22:    4019        .@      ANDS     r1,r1,r3
        0x00003d24:    9b56        V.      LDR      r3,[sp,#0x158]
        0x00003d26:    1909        ..      ADDS     r1,r1,r4
        0x00003d28:    7111        .q      STRB     r1,[r2,#4]
        0x00003d2a:    995d        ].      LDR      r1,[sp,#0x174]
        0x00003d2c:    790c        .y      LDRB     r4,[r1,#4]
        0x00003d2e:    9a5e        ^.      LDR      r2,[sp,#0x178]
        0x00003d30:    7911        .y      LDRB     r1,[r2,#4]
        0x00003d32:    4034        4@      ANDS     r4,r4,r6
        0x00003d34:    4029        )@      ANDS     r1,r1,r5
        0x00003d36:    1909        ..      ADDS     r1,r1,r4
        0x00003d38:    7111        .q      STRB     r1,[r2,#4]
        0x00003d3a:    995d        ].      LDR      r1,[sp,#0x174]
        0x00003d3c:    790c        .y      LDRB     r4,[r1,#4]
        0x00003d3e:    9a5e        ^.      LDR      r2,[sp,#0x178]
        0x00003d40:    7911        .y      LDRB     r1,[r2,#4]
        0x00003d42:    4004        .@      ANDS     r4,r4,r0
        0x00003d44:    9857        W.      LDR      r0,[sp,#0x15c]
        0x00003d46:    4039        9@      ANDS     r1,r1,r7
        0x00003d48:    1909        ..      ADDS     r1,r1,r4
        0x00003d4a:    7111        .q      STRB     r1,[r2,#4]
        0x00003d4c:    995d        ].      LDR      r1,[sp,#0x174]
        0x00003d4e:    794c        Ly      LDRB     r4,[r1,#5]
        0x00003d50:    4004        .@      ANDS     r4,r4,r0
        0x00003d52:    9a5e        ^.      LDR      r2,[sp,#0x178]
        0x00003d54:    7951        Qy      LDRB     r1,[r2,#5]
        0x00003d56:    4019        .@      ANDS     r1,r1,r3
        0x00003d58:    1909        ..      ADDS     r1,r1,r4
        0x00003d5a:    7151        Qq      STRB     r1,[r2,#5]
        0x00003d5c:    9961        a.      LDR      r1,[sp,#0x184]
        0x00003d5e:    780c        .x      LDRB     r4,[r1,#0]
        0x00003d60:    4004        .@      ANDS     r4,r4,r0
        0x00003d62:    9a60        `.      LDR      r2,[sp,#0x180]
        0x00003d64:    7811        .x      LDRB     r1,[r2,#0]
        0x00003d66:    4019        .@      ANDS     r1,r1,r3
        0x00003d68:    1909        ..      ADDS     r1,r1,r4
        0x00003d6a:    7011        .p      STRB     r1,[r2,#0]
        0x00003d6c:    9961        a.      LDR      r1,[sp,#0x184]
        0x00003d6e:    780c        .x      LDRB     r4,[r1,#0]
        0x00003d70:    9a60        `.      LDR      r2,[sp,#0x180]
        0x00003d72:    7811        .x      LDRB     r1,[r2,#0]
        0x00003d74:    4034        4@      ANDS     r4,r4,r6
        0x00003d76:    4029        )@      ANDS     r1,r1,r5
        0x00003d78:    1909        ..      ADDS     r1,r1,r4
        0x00003d7a:    7011        .p      STRB     r1,[r2,#0]
        0x00003d7c:    9961        a.      LDR      r1,[sp,#0x184]
        0x00003d7e:    784a        Jx      LDRB     r2,[r1,#1]
        0x00003d80:    4002        .@      ANDS     r2,r2,r0
        0x00003d82:    9960        `.      LDR      r1,[sp,#0x180]
        0x00003d84:    7848        Hx      LDRB     r0,[r1,#1]
        0x00003d86:    4018        .@      ANDS     r0,r0,r3
        0x00003d88:    1880        ..      ADDS     r0,r0,r2
        0x00003d8a:    7048        Hp      STRB     r0,[r1,#1]
        0x00003d8c:    493f        ?I      LDR      r1,[pc,#252] ; [0x3e8c] = 0x20000273
        0x00003d8e:    2002        .       MOVS     r0,#2
        0x00003d90:    7008        .p      STRB     r0,[r1,#0]
        0x00003d92:    f001f901    ....    BL       0x4f98 ; 0x4f98
        0x00003d96:    985c        \.      LDR      r0,[sp,#0x170]
        0x00003d98:    7801        .x      LDRB     r1,[r0,#0]
        0x00003d9a:    2003        .       MOVS     r0,#3
        0x00003d9c:    4001        .@      ANDS     r1,r1,r0
        0x00003d9e:    2000        .       MOVS     r0,#0
        0x00003da0:    2902        .)      CMP      r1,#2
        0x00003da2:    9053        S.      STR      r0,[sp,#0x14c]
        0x00003da4:    d17c        |.      BNE      0x3ea0 ; 0x3ea0
        0x00003da6:    e7ff        ..      B        0x3da8 ; interlock_SL + 788
        0x00003da8:    985c        \.      LDR      r0,[sp,#0x170]
        0x00003daa:    7800        .x      LDRB     r0,[r0,#0]
        0x00003dac:    0680        ..      LSLS     r0,r0,#26
        0x00003dae:    0f81        ..      LSRS     r1,r0,#30
        0x00003db0:    2000        .       MOVS     r0,#0
        0x00003db2:    2902        .)      CMP      r1,#2
        0x00003db4:    9053        S.      STR      r0,[sp,#0x14c]
        0x00003db6:    d173        s.      BNE      0x3ea0 ; 0x3ea0
        0x00003db8:    e7ff        ..      B        0x3dba ; interlock_SL + 806
        0x00003dba:    985c        \.      LDR      r0,[sp,#0x170]
        0x00003dbc:    7800        .x      LDRB     r0,[r0,#0]
        0x00003dbe:    0981        ..      LSRS     r1,r0,#6
        0x00003dc0:    2000        .       MOVS     r0,#0
        0x00003dc2:    2902        .)      CMP      r1,#2
        0x00003dc4:    9053        S.      STR      r0,[sp,#0x14c]
        0x00003dc6:    d16b        k.      BNE      0x3ea0 ; 0x3ea0
        0x00003dc8:    e7ff        ..      B        0x3dca ; interlock_SL + 822
        0x00003dca:    985c        \.      LDR      r0,[sp,#0x170]
        0x00003dcc:    7800        .x      LDRB     r0,[r0,#0]
        0x00003dce:    0700        ..      LSLS     r0,r0,#28
        0x00003dd0:    0f81        ..      LSRS     r1,r0,#30
        0x00003dd2:    2000        .       MOVS     r0,#0
        0x00003dd4:    2902        .)      CMP      r1,#2
        0x00003dd6:    9053        S.      STR      r0,[sp,#0x14c]
        0x00003dd8:    d162        b.      BNE      0x3ea0 ; 0x3ea0
        0x00003dda:    e7ff        ..      B        0x3ddc ; interlock_SL + 840
        0x00003ddc:    985c        \.      LDR      r0,[sp,#0x170]
        0x00003dde:    7880        .x      LDRB     r0,[r0,#2]
        0x00003de0:    0680        ..      LSLS     r0,r0,#26
        0x00003de2:    0f81        ..      LSRS     r1,r0,#30
        0x00003de4:    2000        .       MOVS     r0,#0
        0x00003de6:    2902        .)      CMP      r1,#2
        0x00003de8:    9053        S.      STR      r0,[sp,#0x14c]
        0x00003dea:    d159        Y.      BNE      0x3ea0 ; 0x3ea0
        0x00003dec:    e7ff        ..      B        0x3dee ; interlock_SL + 858
        0x00003dee:    985c        \.      LDR      r0,[sp,#0x170]
        0x00003df0:    7880        .x      LDRB     r0,[r0,#2]
        0x00003df2:    0981        ..      LSRS     r1,r0,#6
        0x00003df4:    2000        .       MOVS     r0,#0
        0x00003df6:    2902        .)      CMP      r1,#2
        0x00003df8:    9053        S.      STR      r0,[sp,#0x14c]
        0x00003dfa:    d151        Q.      BNE      0x3ea0 ; 0x3ea0
        0x00003dfc:    e7ff        ..      B        0x3dfe ; interlock_SL + 874
        0x00003dfe:    985c        \.      LDR      r0,[sp,#0x170]
        0x00003e00:    78c0        .x      LDRB     r0,[r0,#3]
        0x00003e02:    0700        ..      LSLS     r0,r0,#28
        0x00003e04:    0f81        ..      LSRS     r1,r0,#30
        0x00003e06:    2000        .       MOVS     r0,#0
        0x00003e08:    2901        .)      CMP      r1,#1
        0x00003e0a:    9053        S.      STR      r0,[sp,#0x14c]
        0x00003e0c:    d148        H.      BNE      0x3ea0 ; 0x3ea0
        0x00003e0e:    e7ff        ..      B        0x3e10 ; interlock_SL + 892
        0x00003e10:    985e        ^.      LDR      r0,[sp,#0x178]
        0x00003e12:    7800        .x      LDRB     r0,[r0,#0]
        0x00003e14:    0700        ..      LSLS     r0,r0,#28
        0x00003e16:    0f81        ..      LSRS     r1,r0,#30
        0x00003e18:    2000        .       MOVS     r0,#0
        0x00003e1a:    2902        .)      CMP      r1,#2
        0x00003e1c:    9053        S.      STR      r0,[sp,#0x14c]
        0x00003e1e:    d13f        ?.      BNE      0x3ea0 ; 0x3ea0
        0x00003e20:    e7ff        ..      B        0x3e22 ; interlock_SL + 910
        0x00003e22:    985e        ^.      LDR      r0,[sp,#0x178]
        0x00003e24:    7801        .x      LDRB     r1,[r0,#0]
        0x00003e26:    2003        .       MOVS     r0,#3
        0x00003e28:    4001        .@      ANDS     r1,r1,r0
        0x00003e2a:    2000        .       MOVS     r0,#0
        0x00003e2c:    2902        .)      CMP      r1,#2
        0x00003e2e:    9053        S.      STR      r0,[sp,#0x14c]
        0x00003e30:    d136        6.      BNE      0x3ea0 ; 0x3ea0
        0x00003e32:    e7ff        ..      B        0x3e34 ; interlock_SL + 928
        0x00003e34:    985e        ^.      LDR      r0,[sp,#0x178]
        0x00003e36:    7841        Ax      LDRB     r1,[r0,#1]
        0x00003e38:    2003        .       MOVS     r0,#3
        0x00003e3a:    4001        .@      ANDS     r1,r1,r0
        0x00003e3c:    2000        .       MOVS     r0,#0
        0x00003e3e:    2901        .)      CMP      r1,#1
        0x00003e40:    9053        S.      STR      r0,[sp,#0x14c]
        0x00003e42:    d12d        -.      BNE      0x3ea0 ; 0x3ea0
        0x00003e44:    e7ff        ..      B        0x3e46 ; interlock_SL + 946
        0x00003e46:    985e        ^.      LDR      r0,[sp,#0x178]
        0x00003e48:    7880        .x      LDRB     r0,[r0,#2]
        0x00003e4a:    0981        ..      LSRS     r1,r0,#6
        0x00003e4c:    2000        .       MOVS     r0,#0
        0x00003e4e:    2902        .)      CMP      r1,#2
        0x00003e50:    9053        S.      STR      r0,[sp,#0x14c]
        0x00003e52:    d125        %.      BNE      0x3ea0 ; 0x3ea0
        0x00003e54:    e7ff        ..      B        0x3e56 ; interlock_SL + 962
        0x00003e56:    9860        `.      LDR      r0,[sp,#0x180]
        0x00003e58:    7800        .x      LDRB     r0,[r0,#0]
        0x00003e5a:    0680        ..      LSLS     r0,r0,#26
        0x00003e5c:    0f81        ..      LSRS     r1,r0,#30
        0x00003e5e:    2000        .       MOVS     r0,#0
        0x00003e60:    2901        .)      CMP      r1,#1
        0x00003e62:    9053        S.      STR      r0,[sp,#0x14c]
        0x00003e64:    d11c        ..      BNE      0x3ea0 ; 0x3ea0
        0x00003e66:    e013        ..      B        0x3e90 ; 0x3e90
    $d
    __arm_cp.0_18
        0x00003e68:    200002a8    ...     DCD    536871592
    __arm_cp.0_19
        0x00003e6c:    200002a4    ...     DCD    536871588
    __arm_cp.0_20
        0x00003e70:    2000028e    ...     DCD    536871566
    __arm_cp.0_21
        0x00003e74:    2000027c    |..     DCD    536871548
    __arm_cp.0_22
        0x00003e78:    20000288    ...     DCD    536871560
    __arm_cp.0_23
        0x00003e7c:    2000029f    ...     DCD    536871583
    __arm_cp.0_24
        0x00003e80:    20000298    ...     DCD    536871576
    __arm_cp.0_25
        0x00003e84:    20000282    ...     DCD    536871554
    __arm_cp.0_26
        0x00003e88:    200002a6    ...     DCD    536871590
        0x00003e8c:    20000273    s..     DCD    536871539
    $t
        0x00003e90:    985c        \.      LDR      r0,[sp,#0x170]
        0x00003e92:    78c0        .x      LDRB     r0,[r0,#3]
        0x00003e94:    0980        ..      LSRS     r0,r0,#6
        0x00003e96:    1e80        ..      SUBS     r0,r0,#2
        0x00003e98:    4241        AB      RSBS     r1,r0,#0
        0x00003e9a:    4148        HA      ADCS     r0,r0,r1
        0x00003e9c:    9053        S.      STR      r0,[sp,#0x14c]
        0x00003e9e:    e7ff        ..      B        0x3ea0 ; 0x3ea0
        0x00003ea0:    9853        S.      LDR      r0,[sp,#0x14c]
        0x00003ea2:    07c1        ..      LSLS     r1,r0,#31
        0x00003ea4:    2002        .       MOVS     r0,#2
        0x00003ea6:    2201        ."      MOVS     r2,#1
        0x00003ea8:    9251        Q.      STR      r2,[sp,#0x144]
        0x00003eaa:    9052        R.      STR      r0,[sp,#0x148]
        0x00003eac:    b909        ..      CBNZ     r1,0x3eb2 ; 0x3eb2
        0x00003eae:    9851        Q.      LDR      r0,[sp,#0x144]
        0x00003eb0:    9052        R.      STR      r0,[sp,#0x148]
        0x00003eb2:    9852        R.      LDR      r0,[sp,#0x148]
        0x00003eb4:    49fa        .I      LDR      r1,[pc,#1000] ; [0x42a0] = 0x20000035
        0x00003eb6:    7008        .p      STRB     r0,[r1,#0]
        0x00003eb8:    985c        \.      LDR      r0,[sp,#0x170]
        0x00003eba:    7801        .x      LDRB     r1,[r0,#0]
        0x00003ebc:    2003        .       MOVS     r0,#3
        0x00003ebe:    4001        .@      ANDS     r1,r1,r0
        0x00003ec0:    2000        .       MOVS     r0,#0
        0x00003ec2:    2902        .)      CMP      r1,#2
        0x00003ec4:    9050        P.      STR      r0,[sp,#0x140]
        0x00003ec6:    d000        ..      BEQ      0x3eca ; 0x3eca
        0x00003ec8:    e081        ..      B        0x3fce ; 0x3fce
        0x00003eca:    985c        \.      LDR      r0,[sp,#0x170]
        0x00003ecc:    7800        .x      LDRB     r0,[r0,#0]
        0x00003ece:    0680        ..      LSLS     r0,r0,#26
        0x00003ed0:    0f81        ..      LSRS     r1,r0,#30
        0x00003ed2:    2000        .       MOVS     r0,#0
        0x00003ed4:    2902        .)      CMP      r1,#2
        0x00003ed6:    9050        P.      STR      r0,[sp,#0x140]
        0x00003ed8:    d179        y.      BNE      0x3fce ; 0x3fce
        0x00003eda:    e7ff        ..      B        0x3edc ; 0x3edc
        0x00003edc:    985c        \.      LDR      r0,[sp,#0x170]
        0x00003ede:    7800        .x      LDRB     r0,[r0,#0]
        0x00003ee0:    0981        ..      LSRS     r1,r0,#6
        0x00003ee2:    2000        .       MOVS     r0,#0
        0x00003ee4:    2902        .)      CMP      r1,#2
        0x00003ee6:    9050        P.      STR      r0,[sp,#0x140]
        0x00003ee8:    d171        q.      BNE      0x3fce ; 0x3fce
        0x00003eea:    e7ff        ..      B        0x3eec ; 0x3eec
        0x00003eec:    985c        \.      LDR      r0,[sp,#0x170]
        0x00003eee:    7800        .x      LDRB     r0,[r0,#0]
        0x00003ef0:    0700        ..      LSLS     r0,r0,#28
        0x00003ef2:    0f81        ..      LSRS     r1,r0,#30
        0x00003ef4:    2000        .       MOVS     r0,#0
        0x00003ef6:    2902        .)      CMP      r1,#2
        0x00003ef8:    9050        P.      STR      r0,[sp,#0x140]
        0x00003efa:    d168        h.      BNE      0x3fce ; 0x3fce
        0x00003efc:    e7ff        ..      B        0x3efe ; 0x3efe
        0x00003efe:    985c        \.      LDR      r0,[sp,#0x170]
        0x00003f00:    7880        .x      LDRB     r0,[r0,#2]
        0x00003f02:    0680        ..      LSLS     r0,r0,#26
        0x00003f04:    0f81        ..      LSRS     r1,r0,#30
        0x00003f06:    2000        .       MOVS     r0,#0
        0x00003f08:    2901        .)      CMP      r1,#1
        0x00003f0a:    9050        P.      STR      r0,[sp,#0x140]
        0x00003f0c:    d15f        _.      BNE      0x3fce ; 0x3fce
        0x00003f0e:    e7ff        ..      B        0x3f10 ; 0x3f10
        0x00003f10:    985c        \.      LDR      r0,[sp,#0x170]
        0x00003f12:    7880        .x      LDRB     r0,[r0,#2]
        0x00003f14:    0981        ..      LSRS     r1,r0,#6
        0x00003f16:    2000        .       MOVS     r0,#0
        0x00003f18:    2901        .)      CMP      r1,#1
        0x00003f1a:    9050        P.      STR      r0,[sp,#0x140]
        0x00003f1c:    d157        W.      BNE      0x3fce ; 0x3fce
        0x00003f1e:    e7ff        ..      B        0x3f20 ; 0x3f20
        0x00003f20:    985c        \.      LDR      r0,[sp,#0x170]
        0x00003f22:    78c0        .x      LDRB     r0,[r0,#3]
        0x00003f24:    0700        ..      LSLS     r0,r0,#28
        0x00003f26:    0f81        ..      LSRS     r1,r0,#30
        0x00003f28:    2000        .       MOVS     r0,#0
        0x00003f2a:    2901        .)      CMP      r1,#1
        0x00003f2c:    9050        P.      STR      r0,[sp,#0x140]
        0x00003f2e:    d14e        N.      BNE      0x3fce ; 0x3fce
        0x00003f30:    e7ff        ..      B        0x3f32 ; 0x3f32
        0x00003f32:    985e        ^.      LDR      r0,[sp,#0x178]
        0x00003f34:    7800        .x      LDRB     r0,[r0,#0]
        0x00003f36:    0981        ..      LSRS     r1,r0,#6
        0x00003f38:    2000        .       MOVS     r0,#0
        0x00003f3a:    2902        .)      CMP      r1,#2
        0x00003f3c:    9050        P.      STR      r0,[sp,#0x140]
        0x00003f3e:    d146        F.      BNE      0x3fce ; 0x3fce
        0x00003f40:    e7ff        ..      B        0x3f42 ; 0x3f42
        0x00003f42:    985e        ^.      LDR      r0,[sp,#0x178]
        0x00003f44:    7800        .x      LDRB     r0,[r0,#0]
        0x00003f46:    0700        ..      LSLS     r0,r0,#28
        0x00003f48:    0f81        ..      LSRS     r1,r0,#30
        0x00003f4a:    2000        .       MOVS     r0,#0
        0x00003f4c:    2901        .)      CMP      r1,#1
        0x00003f4e:    9050        P.      STR      r0,[sp,#0x140]
        0x00003f50:    d13d        =.      BNE      0x3fce ; 0x3fce
        0x00003f52:    e7ff        ..      B        0x3f54 ; 0x3f54
        0x00003f54:    985e        ^.      LDR      r0,[sp,#0x178]
        0x00003f56:    7841        Ax      LDRB     r1,[r0,#1]
        0x00003f58:    2003        .       MOVS     r0,#3
        0x00003f5a:    4001        .@      ANDS     r1,r1,r0
        0x00003f5c:    2000        .       MOVS     r0,#0
        0x00003f5e:    2901        .)      CMP      r1,#1
        0x00003f60:    9050        P.      STR      r0,[sp,#0x140]
        0x00003f62:    d134        4.      BNE      0x3fce ; 0x3fce
        0x00003f64:    e7ff        ..      B        0x3f66 ; 0x3f66
        0x00003f66:    985e        ^.      LDR      r0,[sp,#0x178]
        0x00003f68:    7880        .x      LDRB     r0,[r0,#2]
        0x00003f6a:    0680        ..      LSLS     r0,r0,#26
        0x00003f6c:    0f81        ..      LSRS     r1,r0,#30
        0x00003f6e:    2000        .       MOVS     r0,#0
        0x00003f70:    2901        .)      CMP      r1,#1
        0x00003f72:    9050        P.      STR      r0,[sp,#0x140]
        0x00003f74:    d12b        +.      BNE      0x3fce ; 0x3fce
        0x00003f76:    e7ff        ..      B        0x3f78 ; 0x3f78
        0x00003f78:    985e        ^.      LDR      r0,[sp,#0x178]
        0x00003f7a:    7840        @x      LDRB     r0,[r0,#1]
        0x00003f7c:    0700        ..      LSLS     r0,r0,#28
        0x00003f7e:    0f81        ..      LSRS     r1,r0,#30
        0x00003f80:    2000        .       MOVS     r0,#0
        0x00003f82:    2902        .)      CMP      r1,#2
        0x00003f84:    9050        P.      STR      r0,[sp,#0x140]
        0x00003f86:    d122        ".      BNE      0x3fce ; 0x3fce
        0x00003f88:    e7ff        ..      B        0x3f8a ; 0x3f8a
        0x00003f8a:    985e        ^.      LDR      r0,[sp,#0x178]
        0x00003f8c:    7900        .y      LDRB     r0,[r0,#4]
        0x00003f8e:    0700        ..      LSLS     r0,r0,#28
        0x00003f90:    0f81        ..      LSRS     r1,r0,#30
        0x00003f92:    2000        .       MOVS     r0,#0
        0x00003f94:    2901        .)      CMP      r1,#1
        0x00003f96:    9050        P.      STR      r0,[sp,#0x140]
        0x00003f98:    d119        ..      BNE      0x3fce ; 0x3fce
        0x00003f9a:    e7ff        ..      B        0x3f9c ; 0x3f9c
        0x00003f9c:    985e        ^.      LDR      r0,[sp,#0x178]
        0x00003f9e:    78c0        .x      LDRB     r0,[r0,#3]
        0x00003fa0:    0981        ..      LSRS     r1,r0,#6
        0x00003fa2:    2000        .       MOVS     r0,#0
        0x00003fa4:    2901        .)      CMP      r1,#1
        0x00003fa6:    9050        P.      STR      r0,[sp,#0x140]
        0x00003fa8:    d111        ..      BNE      0x3fce ; 0x3fce
        0x00003faa:    e7ff        ..      B        0x3fac ; 0x3fac
        0x00003fac:    985e        ^.      LDR      r0,[sp,#0x178]
        0x00003fae:    78c0        .x      LDRB     r0,[r0,#3]
        0x00003fb0:    0680        ..      LSLS     r0,r0,#26
        0x00003fb2:    0f81        ..      LSRS     r1,r0,#30
        0x00003fb4:    2000        .       MOVS     r0,#0
        0x00003fb6:    2901        .)      CMP      r1,#1
        0x00003fb8:    9050        P.      STR      r0,[sp,#0x140]
        0x00003fba:    d108        ..      BNE      0x3fce ; 0x3fce
        0x00003fbc:    e7ff        ..      B        0x3fbe ; 0x3fbe
        0x00003fbe:    985c        \.      LDR      r0,[sp,#0x170]
        0x00003fc0:    78c0        .x      LDRB     r0,[r0,#3]
        0x00003fc2:    0980        ..      LSRS     r0,r0,#6
        0x00003fc4:    1e80        ..      SUBS     r0,r0,#2
        0x00003fc6:    4241        AB      RSBS     r1,r0,#0
        0x00003fc8:    4148        HA      ADCS     r0,r0,r1
        0x00003fca:    9050        P.      STR      r0,[sp,#0x140]
        0x00003fcc:    e7ff        ..      B        0x3fce ; 0x3fce
        0x00003fce:    9850        P.      LDR      r0,[sp,#0x140]
        0x00003fd0:    07c1        ..      LSLS     r1,r0,#31
        0x00003fd2:    2002        .       MOVS     r0,#2
        0x00003fd4:    2201        ."      MOVS     r2,#1
        0x00003fd6:    924e        N.      STR      r2,[sp,#0x138]
        0x00003fd8:    904f        O.      STR      r0,[sp,#0x13c]
        0x00003fda:    b909        ..      CBNZ     r1,0x3fe0 ; 0x3fe0
        0x00003fdc:    984e        N.      LDR      r0,[sp,#0x138]
        0x00003fde:    904f        O.      STR      r0,[sp,#0x13c]
        0x00003fe0:    984e        N.      LDR      r0,[sp,#0x138]
        0x00003fe2:    994f        O.      LDR      r1,[sp,#0x13c]
        0x00003fe4:    4aaf        .J      LDR      r2,[pc,#700] ; [0x42a4] = 0x20000036
        0x00003fe6:    7011        .p      STRB     r1,[r2,#0]
        0x00003fe8:    49af        .I      LDR      r1,[pc,#700] ; [0x42a8] = 0x20000037
        0x00003fea:    7008        .p      STRB     r0,[r1,#0]
        0x00003fec:    985c        \.      LDR      r0,[sp,#0x170]
        0x00003fee:    7801        .x      LDRB     r1,[r0,#0]
        0x00003ff0:    2003        .       MOVS     r0,#3
        0x00003ff2:    4001        .@      ANDS     r1,r1,r0
        0x00003ff4:    2000        .       MOVS     r0,#0
        0x00003ff6:    2902        .)      CMP      r1,#2
        0x00003ff8:    904d        M.      STR      r0,[sp,#0x134]
        0x00003ffa:    d000        ..      BEQ      0x3ffe ; 0x3ffe
        0x00003ffc:    e0a3        ..      B        0x4146 ; 0x4146
        0x00003ffe:    985c        \.      LDR      r0,[sp,#0x170]
        0x00004000:    7800        .x      LDRB     r0,[r0,#0]
        0x00004002:    0680        ..      LSLS     r0,r0,#26
        0x00004004:    0f81        ..      LSRS     r1,r0,#30
        0x00004006:    2000        .       MOVS     r0,#0
        0x00004008:    2902        .)      CMP      r1,#2
        0x0000400a:    904d        M.      STR      r0,[sp,#0x134]
        0x0000400c:    d000        ..      BEQ      0x4010 ; 0x4010
        0x0000400e:    e09a        ..      B        0x4146 ; 0x4146
        0x00004010:    985c        \.      LDR      r0,[sp,#0x170]
        0x00004012:    7800        .x      LDRB     r0,[r0,#0]
        0x00004014:    0981        ..      LSRS     r1,r0,#6
        0x00004016:    2000        .       MOVS     r0,#0
        0x00004018:    2902        .)      CMP      r1,#2
        0x0000401a:    904d        M.      STR      r0,[sp,#0x134]
        0x0000401c:    d000        ..      BEQ      0x4020 ; 0x4020
        0x0000401e:    e092        ..      B        0x4146 ; 0x4146
        0x00004020:    985c        \.      LDR      r0,[sp,#0x170]
        0x00004022:    7840        @x      LDRB     r0,[r0,#1]
        0x00004024:    0981        ..      LSRS     r1,r0,#6
        0x00004026:    2000        .       MOVS     r0,#0
        0x00004028:    2902        .)      CMP      r1,#2
        0x0000402a:    904d        M.      STR      r0,[sp,#0x134]
        0x0000402c:    d000        ..      BEQ      0x4030 ; 0x4030
        0x0000402e:    e08a        ..      B        0x4146 ; 0x4146
        0x00004030:    985c        \.      LDR      r0,[sp,#0x170]
        0x00004032:    7881        .x      LDRB     r1,[r0,#2]
        0x00004034:    2003        .       MOVS     r0,#3
        0x00004036:    4001        .@      ANDS     r1,r1,r0
        0x00004038:    2000        .       MOVS     r0,#0
        0x0000403a:    2902        .)      CMP      r1,#2
        0x0000403c:    904d        M.      STR      r0,[sp,#0x134]
        0x0000403e:    d000        ..      BEQ      0x4042 ; 0x4042
        0x00004040:    e081        ..      B        0x4146 ; 0x4146
        0x00004042:    985c        \.      LDR      r0,[sp,#0x170]
        0x00004044:    7800        .x      LDRB     r0,[r0,#0]
        0x00004046:    0700        ..      LSLS     r0,r0,#28
        0x00004048:    0f81        ..      LSRS     r1,r0,#30
        0x0000404a:    2000        .       MOVS     r0,#0
        0x0000404c:    2902        .)      CMP      r1,#2
        0x0000404e:    904d        M.      STR      r0,[sp,#0x134]
        0x00004050:    d179        y.      BNE      0x4146 ; 0x4146
        0x00004052:    e7ff        ..      B        0x4054 ; 0x4054
        0x00004054:    985c        \.      LDR      r0,[sp,#0x170]
        0x00004056:    7880        .x      LDRB     r0,[r0,#2]
        0x00004058:    0680        ..      LSLS     r0,r0,#26
        0x0000405a:    0f81        ..      LSRS     r1,r0,#30
        0x0000405c:    2000        .       MOVS     r0,#0
        0x0000405e:    2901        .)      CMP      r1,#1
        0x00004060:    904d        M.      STR      r0,[sp,#0x134]
        0x00004062:    d170        p.      BNE      0x4146 ; 0x4146
        0x00004064:    e7ff        ..      B        0x4066 ; 0x4066
        0x00004066:    985c        \.      LDR      r0,[sp,#0x170]
        0x00004068:    7880        .x      LDRB     r0,[r0,#2]
        0x0000406a:    0981        ..      LSRS     r1,r0,#6
        0x0000406c:    2000        .       MOVS     r0,#0
        0x0000406e:    2901        .)      CMP      r1,#1
        0x00004070:    904d        M.      STR      r0,[sp,#0x134]
        0x00004072:    d168        h.      BNE      0x4146 ; 0x4146
        0x00004074:    e7ff        ..      B        0x4076 ; 0x4076
        0x00004076:    985c        \.      LDR      r0,[sp,#0x170]
        0x00004078:    78c0        .x      LDRB     r0,[r0,#3]
        0x0000407a:    0700        ..      LSLS     r0,r0,#28
        0x0000407c:    0f81        ..      LSRS     r1,r0,#30
        0x0000407e:    2000        .       MOVS     r0,#0
        0x00004080:    2901        .)      CMP      r1,#1
        0x00004082:    904d        M.      STR      r0,[sp,#0x134]
        0x00004084:    d15f        _.      BNE      0x4146 ; 0x4146
        0x00004086:    e7ff        ..      B        0x4088 ; 0x4088
        0x00004088:    985e        ^.      LDR      r0,[sp,#0x178]
        0x0000408a:    7800        .x      LDRB     r0,[r0,#0]
        0x0000408c:    0981        ..      LSRS     r1,r0,#6
        0x0000408e:    2000        .       MOVS     r0,#0
        0x00004090:    2902        .)      CMP      r1,#2
        0x00004092:    904d        M.      STR      r0,[sp,#0x134]
        0x00004094:    d157        W.      BNE      0x4146 ; 0x4146
        0x00004096:    e7ff        ..      B        0x4098 ; 0x4098
        0x00004098:    985e        ^.      LDR      r0,[sp,#0x178]
        0x0000409a:    7800        .x      LDRB     r0,[r0,#0]
        0x0000409c:    0700        ..      LSLS     r0,r0,#28
        0x0000409e:    0f81        ..      LSRS     r1,r0,#30
        0x000040a0:    2000        .       MOVS     r0,#0
        0x000040a2:    2901        .)      CMP      r1,#1
        0x000040a4:    904d        M.      STR      r0,[sp,#0x134]
        0x000040a6:    d14e        N.      BNE      0x4146 ; 0x4146
        0x000040a8:    e7ff        ..      B        0x40aa ; 0x40aa
        0x000040aa:    985e        ^.      LDR      r0,[sp,#0x178]
        0x000040ac:    7841        Ax      LDRB     r1,[r0,#1]
        0x000040ae:    2003        .       MOVS     r0,#3
        0x000040b0:    4001        .@      ANDS     r1,r1,r0
        0x000040b2:    2000        .       MOVS     r0,#0
        0x000040b4:    2902        .)      CMP      r1,#2
        0x000040b6:    904d        M.      STR      r0,[sp,#0x134]
        0x000040b8:    d145        E.      BNE      0x4146 ; 0x4146
        0x000040ba:    e7ff        ..      B        0x40bc ; 0x40bc
        0x000040bc:    985e        ^.      LDR      r0,[sp,#0x178]
        0x000040be:    7880        .x      LDRB     r0,[r0,#2]
        0x000040c0:    0981        ..      LSRS     r1,r0,#6
        0x000040c2:    2000        .       MOVS     r0,#0
        0x000040c4:    2902        .)      CMP      r1,#2
        0x000040c6:    904d        M.      STR      r0,[sp,#0x134]
        0x000040c8:    d13d        =.      BNE      0x4146 ; 0x4146
        0x000040ca:    e7ff        ..      B        0x40cc ; 0x40cc
        0x000040cc:    985e        ^.      LDR      r0,[sp,#0x178]
        0x000040ce:    7880        .x      LDRB     r0,[r0,#2]
        0x000040d0:    0680        ..      LSLS     r0,r0,#26
        0x000040d2:    0f81        ..      LSRS     r1,r0,#30
        0x000040d4:    2000        .       MOVS     r0,#0
        0x000040d6:    2901        .)      CMP      r1,#1
        0x000040d8:    904d        M.      STR      r0,[sp,#0x134]
        0x000040da:    d134        4.      BNE      0x4146 ; 0x4146
        0x000040dc:    e7ff        ..      B        0x40de ; 0x40de
        0x000040de:    985e        ^.      LDR      r0,[sp,#0x178]
        0x000040e0:    7840        @x      LDRB     r0,[r0,#1]
        0x000040e2:    0700        ..      LSLS     r0,r0,#28
        0x000040e4:    0f81        ..      LSRS     r1,r0,#30
        0x000040e6:    2000        .       MOVS     r0,#0
        0x000040e8:    2902        .)      CMP      r1,#2
        0x000040ea:    904d        M.      STR      r0,[sp,#0x134]
        0x000040ec:    d12b        +.      BNE      0x4146 ; 0x4146
        0x000040ee:    e7ff        ..      B        0x40f0 ; 0x40f0
        0x000040f0:    985e        ^.      LDR      r0,[sp,#0x178]
        0x000040f2:    7900        .y      LDRB     r0,[r0,#4]
        0x000040f4:    0700        ..      LSLS     r0,r0,#28
        0x000040f6:    0f81        ..      LSRS     r1,r0,#30
        0x000040f8:    2000        .       MOVS     r0,#0
        0x000040fa:    2901        .)      CMP      r1,#1
        0x000040fc:    904d        M.      STR      r0,[sp,#0x134]
        0x000040fe:    d122        ".      BNE      0x4146 ; 0x4146
        0x00004100:    e7ff        ..      B        0x4102 ; 0x4102
        0x00004102:    985e        ^.      LDR      r0,[sp,#0x178]
        0x00004104:    78c0        .x      LDRB     r0,[r0,#3]
        0x00004106:    0981        ..      LSRS     r1,r0,#6
        0x00004108:    2000        .       MOVS     r0,#0
        0x0000410a:    2901        .)      CMP      r1,#1
        0x0000410c:    904d        M.      STR      r0,[sp,#0x134]
        0x0000410e:    d11a        ..      BNE      0x4146 ; 0x4146
        0x00004110:    e7ff        ..      B        0x4112 ; 0x4112
        0x00004112:    985e        ^.      LDR      r0,[sp,#0x178]
        0x00004114:    78c0        .x      LDRB     r0,[r0,#3]
        0x00004116:    0680        ..      LSLS     r0,r0,#26
        0x00004118:    0f81        ..      LSRS     r1,r0,#30
        0x0000411a:    2000        .       MOVS     r0,#0
        0x0000411c:    2901        .)      CMP      r1,#1
        0x0000411e:    904d        M.      STR      r0,[sp,#0x134]
        0x00004120:    d111        ..      BNE      0x4146 ; 0x4146
        0x00004122:    e7ff        ..      B        0x4124 ; 0x4124
        0x00004124:    9860        `.      LDR      r0,[sp,#0x180]
        0x00004126:    7801        .x      LDRB     r1,[r0,#0]
        0x00004128:    2003        .       MOVS     r0,#3
        0x0000412a:    4001        .@      ANDS     r1,r1,r0
        0x0000412c:    2000        .       MOVS     r0,#0
        0x0000412e:    2901        .)      CMP      r1,#1
        0x00004130:    904d        M.      STR      r0,[sp,#0x134]
        0x00004132:    d108        ..      BNE      0x4146 ; 0x4146
        0x00004134:    e7ff        ..      B        0x4136 ; 0x4136
        0x00004136:    985c        \.      LDR      r0,[sp,#0x170]
        0x00004138:    78c0        .x      LDRB     r0,[r0,#3]
        0x0000413a:    0980        ..      LSRS     r0,r0,#6
        0x0000413c:    1e80        ..      SUBS     r0,r0,#2
        0x0000413e:    4241        AB      RSBS     r1,r0,#0
        0x00004140:    4148        HA      ADCS     r0,r0,r1
        0x00004142:    904d        M.      STR      r0,[sp,#0x134]
        0x00004144:    e7ff        ..      B        0x4146 ; 0x4146
        0x00004146:    984d        M.      LDR      r0,[sp,#0x134]
        0x00004148:    07c1        ..      LSLS     r1,r0,#31
        0x0000414a:    2002        .       MOVS     r0,#2
        0x0000414c:    2201        ."      MOVS     r2,#1
        0x0000414e:    924b        K.      STR      r2,[sp,#0x12c]
        0x00004150:    904c        L.      STR      r0,[sp,#0x130]
        0x00004152:    b909        ..      CBNZ     r1,0x4158 ; 0x4158
        0x00004154:    984b        K.      LDR      r0,[sp,#0x12c]
        0x00004156:    904c        L.      STR      r0,[sp,#0x130]
        0x00004158:    984c        L.      LDR      r0,[sp,#0x130]
        0x0000415a:    4954        TI      LDR      r1,[pc,#336] ; [0x42ac] = 0x20000032
        0x0000415c:    7008        .p      STRB     r0,[r1,#0]
        0x0000415e:    985c        \.      LDR      r0,[sp,#0x170]
        0x00004160:    7801        .x      LDRB     r1,[r0,#0]
        0x00004162:    2003        .       MOVS     r0,#3
        0x00004164:    4001        .@      ANDS     r1,r1,r0
        0x00004166:    2000        .       MOVS     r0,#0
        0x00004168:    2902        .)      CMP      r1,#2
        0x0000416a:    904a        J.      STR      r0,[sp,#0x128]
        0x0000416c:    d171        q.      BNE      0x4252 ; 0x4252
        0x0000416e:    e7ff        ..      B        0x4170 ; 0x4170
        0x00004170:    985c        \.      LDR      r0,[sp,#0x170]
        0x00004172:    7800        .x      LDRB     r0,[r0,#0]
        0x00004174:    0680        ..      LSLS     r0,r0,#26
        0x00004176:    0f81        ..      LSRS     r1,r0,#30
        0x00004178:    2000        .       MOVS     r0,#0
        0x0000417a:    2902        .)      CMP      r1,#2
        0x0000417c:    904a        J.      STR      r0,[sp,#0x128]
        0x0000417e:    d168        h.      BNE      0x4252 ; 0x4252
        0x00004180:    e7ff        ..      B        0x4182 ; 0x4182
        0x00004182:    985c        \.      LDR      r0,[sp,#0x170]
        0x00004184:    7800        .x      LDRB     r0,[r0,#0]
        0x00004186:    0981        ..      LSRS     r1,r0,#6
        0x00004188:    2000        .       MOVS     r0,#0
        0x0000418a:    2902        .)      CMP      r1,#2
        0x0000418c:    904a        J.      STR      r0,[sp,#0x128]
        0x0000418e:    d160        `.      BNE      0x4252 ; 0x4252
        0x00004190:    e7ff        ..      B        0x4192 ; 0x4192
        0x00004192:    985c        \.      LDR      r0,[sp,#0x170]
        0x00004194:    7800        .x      LDRB     r0,[r0,#0]
        0x00004196:    0700        ..      LSLS     r0,r0,#28
        0x00004198:    0f81        ..      LSRS     r1,r0,#30
        0x0000419a:    2000        .       MOVS     r0,#0
        0x0000419c:    2902        .)      CMP      r1,#2
        0x0000419e:    904a        J.      STR      r0,[sp,#0x128]
        0x000041a0:    d157        W.      BNE      0x4252 ; 0x4252
        0x000041a2:    e7ff        ..      B        0x41a4 ; 0x41a4
        0x000041a4:    985c        \.      LDR      r0,[sp,#0x170]
        0x000041a6:    7880        .x      LDRB     r0,[r0,#2]
        0x000041a8:    0680        ..      LSLS     r0,r0,#26
        0x000041aa:    0f81        ..      LSRS     r1,r0,#30
        0x000041ac:    2000        .       MOVS     r0,#0
        0x000041ae:    2901        .)      CMP      r1,#1
        0x000041b0:    904a        J.      STR      r0,[sp,#0x128]
        0x000041b2:    d14e        N.      BNE      0x4252 ; 0x4252
        0x000041b4:    e7ff        ..      B        0x41b6 ; 0x41b6
        0x000041b6:    985c        \.      LDR      r0,[sp,#0x170]
        0x000041b8:    7880        .x      LDRB     r0,[r0,#2]
        0x000041ba:    0981        ..      LSRS     r1,r0,#6
        0x000041bc:    2000        .       MOVS     r0,#0
        0x000041be:    2901        .)      CMP      r1,#1
        0x000041c0:    904a        J.      STR      r0,[sp,#0x128]
        0x000041c2:    d146        F.      BNE      0x4252 ; 0x4252
        0x000041c4:    e7ff        ..      B        0x41c6 ; 0x41c6
        0x000041c6:    985c        \.      LDR      r0,[sp,#0x170]
        0x000041c8:    78c0        .x      LDRB     r0,[r0,#3]
        0x000041ca:    0700        ..      LSLS     r0,r0,#28
        0x000041cc:    0f81        ..      LSRS     r1,r0,#30
        0x000041ce:    2000        .       MOVS     r0,#0
        0x000041d0:    2901        .)      CMP      r1,#1
        0x000041d2:    904a        J.      STR      r0,[sp,#0x128]
        0x000041d4:    d13d        =.      BNE      0x4252 ; 0x4252
        0x000041d6:    e7ff        ..      B        0x41d8 ; 0x41d8
        0x000041d8:    985e        ^.      LDR      r0,[sp,#0x178]
        0x000041da:    7800        .x      LDRB     r0,[r0,#0]
        0x000041dc:    0981        ..      LSRS     r1,r0,#6
        0x000041de:    2000        .       MOVS     r0,#0
        0x000041e0:    2902        .)      CMP      r1,#2
        0x000041e2:    904a        J.      STR      r0,[sp,#0x128]
        0x000041e4:    d135        5.      BNE      0x4252 ; 0x4252
        0x000041e6:    e7ff        ..      B        0x41e8 ; 0x41e8
        0x000041e8:    985e        ^.      LDR      r0,[sp,#0x178]
        0x000041ea:    7800        .x      LDRB     r0,[r0,#0]
        0x000041ec:    0700        ..      LSLS     r0,r0,#28
        0x000041ee:    0f81        ..      LSRS     r1,r0,#30
        0x000041f0:    2000        .       MOVS     r0,#0
        0x000041f2:    2901        .)      CMP      r1,#1
        0x000041f4:    904a        J.      STR      r0,[sp,#0x128]
        0x000041f6:    d12c        ,.      BNE      0x4252 ; 0x4252
        0x000041f8:    e7ff        ..      B        0x41fa ; 0x41fa
        0x000041fa:    985e        ^.      LDR      r0,[sp,#0x178]
        0x000041fc:    7841        Ax      LDRB     r1,[r0,#1]
        0x000041fe:    2003        .       MOVS     r0,#3
        0x00004200:    4001        .@      ANDS     r1,r1,r0
        0x00004202:    2000        .       MOVS     r0,#0
        0x00004204:    2901        .)      CMP      r1,#1
        0x00004206:    904a        J.      STR      r0,[sp,#0x128]
        0x00004208:    d123        #.      BNE      0x4252 ; 0x4252
        0x0000420a:    e7ff        ..      B        0x420c ; 0x420c
        0x0000420c:    985e        ^.      LDR      r0,[sp,#0x178]
        0x0000420e:    7880        .x      LDRB     r0,[r0,#2]
        0x00004210:    0680        ..      LSLS     r0,r0,#26
        0x00004212:    0f81        ..      LSRS     r1,r0,#30
        0x00004214:    2000        .       MOVS     r0,#0
        0x00004216:    2902        .)      CMP      r1,#2
        0x00004218:    904a        J.      STR      r0,[sp,#0x128]
        0x0000421a:    d11a        ..      BNE      0x4252 ; 0x4252
        0x0000421c:    e7ff        ..      B        0x421e ; 0x421e
        0x0000421e:    985e        ^.      LDR      r0,[sp,#0x178]
        0x00004220:    7840        @x      LDRB     r0,[r0,#1]
        0x00004222:    0700        ..      LSLS     r0,r0,#28
        0x00004224:    0f81        ..      LSRS     r1,r0,#30
        0x00004226:    2000        .       MOVS     r0,#0
        0x00004228:    2902        .)      CMP      r1,#2
        0x0000422a:    904a        J.      STR      r0,[sp,#0x128]
        0x0000422c:    d111        ..      BNE      0x4252 ; 0x4252
        0x0000422e:    e7ff        ..      B        0x4230 ; 0x4230
        0x00004230:    985e        ^.      LDR      r0,[sp,#0x178]
        0x00004232:    7900        .y      LDRB     r0,[r0,#4]
        0x00004234:    0700        ..      LSLS     r0,r0,#28
        0x00004236:    0f81        ..      LSRS     r1,r0,#30
        0x00004238:    2000        .       MOVS     r0,#0
        0x0000423a:    2902        .)      CMP      r1,#2
        0x0000423c:    904a        J.      STR      r0,[sp,#0x128]
        0x0000423e:    d108        ..      BNE      0x4252 ; 0x4252
        0x00004240:    e7ff        ..      B        0x4242 ; 0x4242
        0x00004242:    985c        \.      LDR      r0,[sp,#0x170]
        0x00004244:    78c0        .x      LDRB     r0,[r0,#3]
        0x00004246:    0980        ..      LSRS     r0,r0,#6
        0x00004248:    1e80        ..      SUBS     r0,r0,#2
        0x0000424a:    4241        AB      RSBS     r1,r0,#0
        0x0000424c:    4148        HA      ADCS     r0,r0,r1
        0x0000424e:    904a        J.      STR      r0,[sp,#0x128]
        0x00004250:    e7ff        ..      B        0x4252 ; 0x4252
        0x00004252:    984a        J.      LDR      r0,[sp,#0x128]
        0x00004254:    07c1        ..      LSLS     r1,r0,#31
        0x00004256:    2002        .       MOVS     r0,#2
        0x00004258:    2201        ."      MOVS     r2,#1
        0x0000425a:    9248        H.      STR      r2,[sp,#0x120]
        0x0000425c:    9049        I.      STR      r0,[sp,#0x124]
        0x0000425e:    b909        ..      CBNZ     r1,0x4264 ; 0x4264
        0x00004260:    9848        H.      LDR      r0,[sp,#0x120]
        0x00004262:    9049        I.      STR      r0,[sp,#0x124]
        0x00004264:    9849        I.      LDR      r0,[sp,#0x124]
        0x00004266:    4912        .I      LDR      r1,[pc,#72] ; [0x42b0] = 0x20000033
        0x00004268:    7008        .p      STRB     r0,[r1,#0]
        0x0000426a:    985c        \.      LDR      r0,[sp,#0x170]
        0x0000426c:    7801        .x      LDRB     r1,[r0,#0]
        0x0000426e:    2003        .       MOVS     r0,#3
        0x00004270:    4001        .@      ANDS     r1,r1,r0
        0x00004272:    2000        .       MOVS     r0,#0
        0x00004274:    2902        .)      CMP      r1,#2
        0x00004276:    9047        G.      STR      r0,[sp,#0x11c]
        0x00004278:    d17c        |.      BNE      0x4374 ; 0x4374
        0x0000427a:    e7ff        ..      B        0x427c ; 0x427c
        0x0000427c:    985c        \.      LDR      r0,[sp,#0x170]
        0x0000427e:    7800        .x      LDRB     r0,[r0,#0]
        0x00004280:    0680        ..      LSLS     r0,r0,#26
        0x00004282:    0f81        ..      LSRS     r1,r0,#30
        0x00004284:    2000        .       MOVS     r0,#0
        0x00004286:    2902        .)      CMP      r1,#2
        0x00004288:    9047        G.      STR      r0,[sp,#0x11c]
        0x0000428a:    d173        s.      BNE      0x4374 ; 0x4374
        0x0000428c:    e7ff        ..      B        0x428e ; 0x428e
        0x0000428e:    985c        \.      LDR      r0,[sp,#0x170]
        0x00004290:    7800        .x      LDRB     r0,[r0,#0]
        0x00004292:    0981        ..      LSRS     r1,r0,#6
        0x00004294:    2000        .       MOVS     r0,#0
        0x00004296:    2902        .)      CMP      r1,#2
        0x00004298:    9047        G.      STR      r0,[sp,#0x11c]
        0x0000429a:    d16b        k.      BNE      0x4374 ; 0x4374
        0x0000429c:    e00a        ..      B        0x42b4 ; 0x42b4
        0x0000429e:    46c0        .F      MOV      r8,r8
    $d
    __arm_cp.0_28
        0x000042a0:    20000035    5..     DCD    536870965
    __arm_cp.0_29
        0x000042a4:    20000036    6..     DCD    536870966
    __arm_cp.0_30
        0x000042a8:    20000037    7..     DCD    536870967
    __arm_cp.0_31
        0x000042ac:    20000032    2..     DCD    536870962
    __arm_cp.0_32
        0x000042b0:    20000033    3..     DCD    536870963
    $t
        0x000042b4:    985c        \.      LDR      r0,[sp,#0x170]
        0x000042b6:    7800        .x      LDRB     r0,[r0,#0]
        0x000042b8:    0700        ..      LSLS     r0,r0,#28
        0x000042ba:    0f81        ..      LSRS     r1,r0,#30
        0x000042bc:    2000        .       MOVS     r0,#0
        0x000042be:    2902        .)      CMP      r1,#2
        0x000042c0:    9047        G.      STR      r0,[sp,#0x11c]
        0x000042c2:    d157        W.      BNE      0x4374 ; 0x4374
        0x000042c4:    e7ff        ..      B        0x42c6 ; 0x42c6
        0x000042c6:    985c        \.      LDR      r0,[sp,#0x170]
        0x000042c8:    7880        .x      LDRB     r0,[r0,#2]
        0x000042ca:    0680        ..      LSLS     r0,r0,#26
        0x000042cc:    0f81        ..      LSRS     r1,r0,#30
        0x000042ce:    2000        .       MOVS     r0,#0
        0x000042d0:    2901        .)      CMP      r1,#1
        0x000042d2:    9047        G.      STR      r0,[sp,#0x11c]
        0x000042d4:    d14e        N.      BNE      0x4374 ; 0x4374
        0x000042d6:    e7ff        ..      B        0x42d8 ; 0x42d8
        0x000042d8:    985c        \.      LDR      r0,[sp,#0x170]
        0x000042da:    7880        .x      LDRB     r0,[r0,#2]
        0x000042dc:    0981        ..      LSRS     r1,r0,#6
        0x000042de:    2000        .       MOVS     r0,#0
        0x000042e0:    2901        .)      CMP      r1,#1
        0x000042e2:    9047        G.      STR      r0,[sp,#0x11c]
        0x000042e4:    d146        F.      BNE      0x4374 ; 0x4374
        0x000042e6:    e7ff        ..      B        0x42e8 ; 0x42e8
        0x000042e8:    985c        \.      LDR      r0,[sp,#0x170]
        0x000042ea:    78c0        .x      LDRB     r0,[r0,#3]
        0x000042ec:    0700        ..      LSLS     r0,r0,#28
        0x000042ee:    0f81        ..      LSRS     r1,r0,#30
        0x000042f0:    2000        .       MOVS     r0,#0
        0x000042f2:    2901        .)      CMP      r1,#1
        0x000042f4:    9047        G.      STR      r0,[sp,#0x11c]
        0x000042f6:    d13d        =.      BNE      0x4374 ; 0x4374
        0x000042f8:    e7ff        ..      B        0x42fa ; 0x42fa
        0x000042fa:    985e        ^.      LDR      r0,[sp,#0x178]
        0x000042fc:    7800        .x      LDRB     r0,[r0,#0]
        0x000042fe:    0981        ..      LSRS     r1,r0,#6
        0x00004300:    2000        .       MOVS     r0,#0
        0x00004302:    2902        .)      CMP      r1,#2
        0x00004304:    9047        G.      STR      r0,[sp,#0x11c]
        0x00004306:    d135        5.      BNE      0x4374 ; 0x4374
        0x00004308:    e7ff        ..      B        0x430a ; 0x430a
        0x0000430a:    985e        ^.      LDR      r0,[sp,#0x178]
        0x0000430c:    7800        .x      LDRB     r0,[r0,#0]
        0x0000430e:    0700        ..      LSLS     r0,r0,#28
        0x00004310:    0f81        ..      LSRS     r1,r0,#30
        0x00004312:    2000        .       MOVS     r0,#0
        0x00004314:    2901        .)      CMP      r1,#1
        0x00004316:    9047        G.      STR      r0,[sp,#0x11c]
        0x00004318:    d12c        ,.      BNE      0x4374 ; 0x4374
        0x0000431a:    e7ff        ..      B        0x431c ; 0x431c
        0x0000431c:    985e        ^.      LDR      r0,[sp,#0x178]
        0x0000431e:    7841        Ax      LDRB     r1,[r0,#1]
        0x00004320:    2003        .       MOVS     r0,#3
        0x00004322:    4001        .@      ANDS     r1,r1,r0
        0x00004324:    2000        .       MOVS     r0,#0
        0x00004326:    2901        .)      CMP      r1,#1
        0x00004328:    9047        G.      STR      r0,[sp,#0x11c]
        0x0000432a:    d123        #.      BNE      0x4374 ; 0x4374
        0x0000432c:    e7ff        ..      B        0x432e ; 0x432e
        0x0000432e:    985e        ^.      LDR      r0,[sp,#0x178]
        0x00004330:    7880        .x      LDRB     r0,[r0,#2]
        0x00004332:    0680        ..      LSLS     r0,r0,#26
        0x00004334:    0f81        ..      LSRS     r1,r0,#30
        0x00004336:    2000        .       MOVS     r0,#0
        0x00004338:    2901        .)      CMP      r1,#1
        0x0000433a:    9047        G.      STR      r0,[sp,#0x11c]
        0x0000433c:    d11a        ..      BNE      0x4374 ; 0x4374
        0x0000433e:    e7ff        ..      B        0x4340 ; 0x4340
        0x00004340:    985e        ^.      LDR      r0,[sp,#0x178]
        0x00004342:    7840        @x      LDRB     r0,[r0,#1]
        0x00004344:    0700        ..      LSLS     r0,r0,#28
        0x00004346:    0f81        ..      LSRS     r1,r0,#30
        0x00004348:    2000        .       MOVS     r0,#0
        0x0000434a:    2902        .)      CMP      r1,#2
        0x0000434c:    9047        G.      STR      r0,[sp,#0x11c]
        0x0000434e:    d111        ..      BNE      0x4374 ; 0x4374
        0x00004350:    e7ff        ..      B        0x4352 ; 0x4352
        0x00004352:    985e        ^.      LDR      r0,[sp,#0x178]
        0x00004354:    78c0        .x      LDRB     r0,[r0,#3]
        0x00004356:    0680        ..      LSLS     r0,r0,#26
        0x00004358:    0f81        ..      LSRS     r1,r0,#30
        0x0000435a:    2000        .       MOVS     r0,#0
        0x0000435c:    2902        .)      CMP      r1,#2
        0x0000435e:    9047        G.      STR      r0,[sp,#0x11c]
        0x00004360:    d108        ..      BNE      0x4374 ; 0x4374
        0x00004362:    e7ff        ..      B        0x4364 ; 0x4364
        0x00004364:    985c        \.      LDR      r0,[sp,#0x170]
        0x00004366:    78c0        .x      LDRB     r0,[r0,#3]
        0x00004368:    0980        ..      LSRS     r0,r0,#6
        0x0000436a:    1e80        ..      SUBS     r0,r0,#2
        0x0000436c:    4241        AB      RSBS     r1,r0,#0
        0x0000436e:    4148        HA      ADCS     r0,r0,r1
        0x00004370:    9047        G.      STR      r0,[sp,#0x11c]
        0x00004372:    e7ff        ..      B        0x4374 ; 0x4374
        0x00004374:    9847        G.      LDR      r0,[sp,#0x11c]
        0x00004376:    07c1        ..      LSLS     r1,r0,#31
        0x00004378:    2002        .       MOVS     r0,#2
        0x0000437a:    2201        ."      MOVS     r2,#1
        0x0000437c:    9245        E.      STR      r2,[sp,#0x114]
        0x0000437e:    9046        F.      STR      r0,[sp,#0x118]
        0x00004380:    b909        ..      CBNZ     r1,0x4386 ; 0x4386
        0x00004382:    9845        E.      LDR      r0,[sp,#0x114]
        0x00004384:    9046        F.      STR      r0,[sp,#0x118]
        0x00004386:    9846        F.      LDR      r0,[sp,#0x118]
        0x00004388:    49f7        .I      LDR      r1,[pc,#988] ; [0x4768] = 0x20000034
        0x0000438a:    7008        .p      STRB     r0,[r1,#0]
        0x0000438c:    985c        \.      LDR      r0,[sp,#0x170]
        0x0000438e:    7801        .x      LDRB     r1,[r0,#0]
        0x00004390:    2003        .       MOVS     r0,#3
        0x00004392:    4001        .@      ANDS     r1,r1,r0
        0x00004394:    2000        .       MOVS     r0,#0
        0x00004396:    2902        .)      CMP      r1,#2
        0x00004398:    9044        D.      STR      r0,[sp,#0x110]
        0x0000439a:    d124        $.      BNE      0x43e6 ; 0x43e6
        0x0000439c:    e7ff        ..      B        0x439e ; 0x439e
        0x0000439e:    985c        \.      LDR      r0,[sp,#0x170]
        0x000043a0:    7800        .x      LDRB     r0,[r0,#0]
        0x000043a2:    0700        ..      LSLS     r0,r0,#28
        0x000043a4:    0f81        ..      LSRS     r1,r0,#30
        0x000043a6:    2000        .       MOVS     r0,#0
        0x000043a8:    2902        .)      CMP      r1,#2
        0x000043aa:    9044        D.      STR      r0,[sp,#0x110]
        0x000043ac:    d11b        ..      BNE      0x43e6 ; 0x43e6
        0x000043ae:    e7ff        ..      B        0x43b0 ; 0x43b0
        0x000043b0:    985e        ^.      LDR      r0,[sp,#0x178]
        0x000043b2:    7800        .x      LDRB     r0,[r0,#0]
        0x000043b4:    0700        ..      LSLS     r0,r0,#28
        0x000043b6:    0f81        ..      LSRS     r1,r0,#30
        0x000043b8:    2000        .       MOVS     r0,#0
        0x000043ba:    2902        .)      CMP      r1,#2
        0x000043bc:    9044        D.      STR      r0,[sp,#0x110]
        0x000043be:    d112        ..      BNE      0x43e6 ; 0x43e6
        0x000043c0:    e7ff        ..      B        0x43c2 ; 0x43c2
        0x000043c2:    9860        `.      LDR      r0,[sp,#0x180]
        0x000043c4:    7801        .x      LDRB     r1,[r0,#0]
        0x000043c6:    2003        .       MOVS     r0,#3
        0x000043c8:    4001        .@      ANDS     r1,r1,r0
        0x000043ca:    2000        .       MOVS     r0,#0
        0x000043cc:    2902        .)      CMP      r1,#2
        0x000043ce:    9044        D.      STR      r0,[sp,#0x110]
        0x000043d0:    d109        ..      BNE      0x43e6 ; 0x43e6
        0x000043d2:    e7ff        ..      B        0x43d4 ; 0x43d4
        0x000043d4:    985c        \.      LDR      r0,[sp,#0x170]
        0x000043d6:    7840        @x      LDRB     r0,[r0,#1]
        0x000043d8:    0700        ..      LSLS     r0,r0,#28
        0x000043da:    0f80        ..      LSRS     r0,r0,#30
        0x000043dc:    1e80        ..      SUBS     r0,r0,#2
        0x000043de:    4241        AB      RSBS     r1,r0,#0
        0x000043e0:    4148        HA      ADCS     r0,r0,r1
        0x000043e2:    9044        D.      STR      r0,[sp,#0x110]
        0x000043e4:    e7ff        ..      B        0x43e6 ; 0x43e6
        0x000043e6:    9844        D.      LDR      r0,[sp,#0x110]
        0x000043e8:    07c1        ..      LSLS     r1,r0,#31
        0x000043ea:    2002        .       MOVS     r0,#2
        0x000043ec:    2201        ."      MOVS     r2,#1
        0x000043ee:    9242        B.      STR      r2,[sp,#0x108]
        0x000043f0:    9043        C.      STR      r0,[sp,#0x10c]
        0x000043f2:    b909        ..      CBNZ     r1,0x43f8 ; 0x43f8
        0x000043f4:    9842        B.      LDR      r0,[sp,#0x108]
        0x000043f6:    9043        C.      STR      r0,[sp,#0x10c]
        0x000043f8:    9843        C.      LDR      r0,[sp,#0x10c]
        0x000043fa:    49dc        .I      LDR      r1,[pc,#880] ; [0x476c] = 0x20000030
        0x000043fc:    7008        .p      STRB     r0,[r1,#0]
        0x000043fe:    985c        \.      LDR      r0,[sp,#0x170]
        0x00004400:    7801        .x      LDRB     r1,[r0,#0]
        0x00004402:    2003        .       MOVS     r0,#3
        0x00004404:    4001        .@      ANDS     r1,r1,r0
        0x00004406:    2000        .       MOVS     r0,#0
        0x00004408:    2902        .)      CMP      r1,#2
        0x0000440a:    9041        A.      STR      r0,[sp,#0x104]
        0x0000440c:    d112        ..      BNE      0x4434 ; 0x4434
        0x0000440e:    e7ff        ..      B        0x4410 ; 0x4410
        0x00004410:    985c        \.      LDR      r0,[sp,#0x170]
        0x00004412:    7841        Ax      LDRB     r1,[r0,#1]
        0x00004414:    2003        .       MOVS     r0,#3
        0x00004416:    4001        .@      ANDS     r1,r1,r0
        0x00004418:    2000        .       MOVS     r0,#0
        0x0000441a:    2902        .)      CMP      r1,#2
        0x0000441c:    9041        A.      STR      r0,[sp,#0x104]
        0x0000441e:    d109        ..      BNE      0x4434 ; 0x4434
        0x00004420:    e7ff        ..      B        0x4422 ; 0x4422
        0x00004422:    9860        `.      LDR      r0,[sp,#0x180]
        0x00004424:    7800        .x      LDRB     r0,[r0,#0]
        0x00004426:    2103        .!      MOVS     r1,#3
        0x00004428:    4008        .@      ANDS     r0,r0,r1
        0x0000442a:    1e80        ..      SUBS     r0,r0,#2
        0x0000442c:    4241        AB      RSBS     r1,r0,#0
        0x0000442e:    4148        HA      ADCS     r0,r0,r1
        0x00004430:    9041        A.      STR      r0,[sp,#0x104]
        0x00004432:    e7ff        ..      B        0x4434 ; 0x4434
        0x00004434:    9841        A.      LDR      r0,[sp,#0x104]
        0x00004436:    07c1        ..      LSLS     r1,r0,#31
        0x00004438:    2002        .       MOVS     r0,#2
        0x0000443a:    2201        ."      MOVS     r2,#1
        0x0000443c:    923f        ?.      STR      r2,[sp,#0xfc]
        0x0000443e:    9040        @.      STR      r0,[sp,#0x100]
        0x00004440:    b909        ..      CBNZ     r1,0x4446 ; 0x4446
        0x00004442:    983f        ?.      LDR      r0,[sp,#0xfc]
        0x00004444:    9040        @.      STR      r0,[sp,#0x100]
        0x00004446:    9840        @.      LDR      r0,[sp,#0x100]
        0x00004448:    49c9        .I      LDR      r1,[pc,#804] ; [0x4770] = 0x20000031
        0x0000444a:    7008        .p      STRB     r0,[r1,#0]
        0x0000444c:    985c        \.      LDR      r0,[sp,#0x170]
        0x0000444e:    7801        .x      LDRB     r1,[r0,#0]
        0x00004450:    2003        .       MOVS     r0,#3
        0x00004452:    4001        .@      ANDS     r1,r1,r0
        0x00004454:    2000        .       MOVS     r0,#0
        0x00004456:    2902        .)      CMP      r1,#2
        0x00004458:    903e        >.      STR      r0,[sp,#0xf8]
        0x0000445a:    d15f        _.      BNE      0x451c ; 0x451c
        0x0000445c:    e7ff        ..      B        0x445e ; 0x445e
        0x0000445e:    985c        \.      LDR      r0,[sp,#0x170]
        0x00004460:    7800        .x      LDRB     r0,[r0,#0]
        0x00004462:    0680        ..      LSLS     r0,r0,#26
        0x00004464:    0f81        ..      LSRS     r1,r0,#30
        0x00004466:    2000        .       MOVS     r0,#0
        0x00004468:    2902        .)      CMP      r1,#2
        0x0000446a:    903e        >.      STR      r0,[sp,#0xf8]
        0x0000446c:    d156        V.      BNE      0x451c ; 0x451c
        0x0000446e:    e7ff        ..      B        0x4470 ; 0x4470
        0x00004470:    985c        \.      LDR      r0,[sp,#0x170]
        0x00004472:    7800        .x      LDRB     r0,[r0,#0]
        0x00004474:    0981        ..      LSRS     r1,r0,#6
        0x00004476:    2000        .       MOVS     r0,#0
        0x00004478:    2902        .)      CMP      r1,#2
        0x0000447a:    903e        >.      STR      r0,[sp,#0xf8]
        0x0000447c:    d14e        N.      BNE      0x451c ; 0x451c
        0x0000447e:    e7ff        ..      B        0x4480 ; 0x4480
        0x00004480:    985c        \.      LDR      r0,[sp,#0x170]
        0x00004482:    7800        .x      LDRB     r0,[r0,#0]
        0x00004484:    0700        ..      LSLS     r0,r0,#28
        0x00004486:    0f81        ..      LSRS     r1,r0,#30
        0x00004488:    2000        .       MOVS     r0,#0
        0x0000448a:    2902        .)      CMP      r1,#2
        0x0000448c:    903e        >.      STR      r0,[sp,#0xf8]
        0x0000448e:    d145        E.      BNE      0x451c ; 0x451c
        0x00004490:    e7ff        ..      B        0x4492 ; 0x4492
        0x00004492:    985c        \.      LDR      r0,[sp,#0x170]
        0x00004494:    7880        .x      LDRB     r0,[r0,#2]
        0x00004496:    0680        ..      LSLS     r0,r0,#26
        0x00004498:    0f81        ..      LSRS     r1,r0,#30
        0x0000449a:    2000        .       MOVS     r0,#0
        0x0000449c:    2902        .)      CMP      r1,#2
        0x0000449e:    903e        >.      STR      r0,[sp,#0xf8]
        0x000044a0:    d13c        <.      BNE      0x451c ; 0x451c
        0x000044a2:    e7ff        ..      B        0x44a4 ; 0x44a4
        0x000044a4:    985c        \.      LDR      r0,[sp,#0x170]
        0x000044a6:    7880        .x      LDRB     r0,[r0,#2]
        0x000044a8:    0981        ..      LSRS     r1,r0,#6
        0x000044aa:    2000        .       MOVS     r0,#0
        0x000044ac:    2902        .)      CMP      r1,#2
        0x000044ae:    903e        >.      STR      r0,[sp,#0xf8]
        0x000044b0:    d134        4.      BNE      0x451c ; 0x451c
        0x000044b2:    e7ff        ..      B        0x44b4 ; 0x44b4
        0x000044b4:    985c        \.      LDR      r0,[sp,#0x170]
        0x000044b6:    78c0        .x      LDRB     r0,[r0,#3]
        0x000044b8:    0700        ..      LSLS     r0,r0,#28
        0x000044ba:    0f81        ..      LSRS     r1,r0,#30
        0x000044bc:    2000        .       MOVS     r0,#0
        0x000044be:    2901        .)      CMP      r1,#1
        0x000044c0:    903e        >.      STR      r0,[sp,#0xf8]
        0x000044c2:    d12b        +.      BNE      0x451c ; 0x451c
        0x000044c4:    e7ff        ..      B        0x44c6 ; 0x44c6
        0x000044c6:    985e        ^.      LDR      r0,[sp,#0x178]
        0x000044c8:    7841        Ax      LDRB     r1,[r0,#1]
        0x000044ca:    2003        .       MOVS     r0,#3
        0x000044cc:    4001        .@      ANDS     r1,r1,r0
        0x000044ce:    2000        .       MOVS     r0,#0
        0x000044d0:    2901        .)      CMP      r1,#1
        0x000044d2:    903e        >.      STR      r0,[sp,#0xf8]
        0x000044d4:    d122        ".      BNE      0x451c ; 0x451c
        0x000044d6:    e7ff        ..      B        0x44d8 ; 0x44d8
        0x000044d8:    985e        ^.      LDR      r0,[sp,#0x178]
        0x000044da:    7880        .x      LDRB     r0,[r0,#2]
        0x000044dc:    0981        ..      LSRS     r1,r0,#6
        0x000044de:    2000        .       MOVS     r0,#0
        0x000044e0:    2902        .)      CMP      r1,#2
        0x000044e2:    903e        >.      STR      r0,[sp,#0xf8]
        0x000044e4:    d11a        ..      BNE      0x451c ; 0x451c
        0x000044e6:    e7ff        ..      B        0x44e8 ; 0x44e8
        0x000044e8:    9860        `.      LDR      r0,[sp,#0x180]
        0x000044ea:    7800        .x      LDRB     r0,[r0,#0]
        0x000044ec:    0680        ..      LSLS     r0,r0,#26
        0x000044ee:    0f81        ..      LSRS     r1,r0,#30
        0x000044f0:    2000        .       MOVS     r0,#0
        0x000044f2:    2901        .)      CMP      r1,#1
        0x000044f4:    903e        >.      STR      r0,[sp,#0xf8]
        0x000044f6:    d111        ..      BNE      0x451c ; 0x451c
        0x000044f8:    e7ff        ..      B        0x44fa ; 0x44fa
        0x000044fa:    9860        `.      LDR      r0,[sp,#0x180]
        0x000044fc:    7801        .x      LDRB     r1,[r0,#0]
        0x000044fe:    2003        .       MOVS     r0,#3
        0x00004500:    4001        .@      ANDS     r1,r1,r0
        0x00004502:    2000        .       MOVS     r0,#0
        0x00004504:    2901        .)      CMP      r1,#1
        0x00004506:    903e        >.      STR      r0,[sp,#0xf8]
        0x00004508:    d108        ..      BNE      0x451c ; 0x451c
        0x0000450a:    e7ff        ..      B        0x450c ; 0x450c
        0x0000450c:    985c        \.      LDR      r0,[sp,#0x170]
        0x0000450e:    78c0        .x      LDRB     r0,[r0,#3]
        0x00004510:    0980        ..      LSRS     r0,r0,#6
        0x00004512:    1e80        ..      SUBS     r0,r0,#2
        0x00004514:    4241        AB      RSBS     r1,r0,#0
        0x00004516:    4148        HA      ADCS     r0,r0,r1
        0x00004518:    903e        >.      STR      r0,[sp,#0xf8]
        0x0000451a:    e7ff        ..      B        0x451c ; 0x451c
        0x0000451c:    983e        >.      LDR      r0,[sp,#0xf8]
        0x0000451e:    07c1        ..      LSLS     r1,r0,#31
        0x00004520:    2002        .       MOVS     r0,#2
        0x00004522:    2201        ."      MOVS     r2,#1
        0x00004524:    923c        <.      STR      r2,[sp,#0xf0]
        0x00004526:    903d        =.      STR      r0,[sp,#0xf4]
        0x00004528:    b909        ..      CBNZ     r1,0x452e ; 0x452e
        0x0000452a:    983c        <.      LDR      r0,[sp,#0xf0]
        0x0000452c:    903d        =.      STR      r0,[sp,#0xf4]
        0x0000452e:    9a3d        =.      LDR      r2,[sp,#0xf4]
        0x00004530:    995d        ].      LDR      r1,[sp,#0x174]
        0x00004532:    7808        .x      LDRB     r0,[r1,#0]
        0x00004534:    23fc        .#      MOVS     r3,#0xfc
        0x00004536:    4018        .@      ANDS     r0,r0,r3
        0x00004538:    1880        ..      ADDS     r0,r0,r2
        0x0000453a:    7008        .p      STRB     r0,[r1,#0]
        0x0000453c:    9859        Y.      LDR      r0,[sp,#0x164]
        0x0000453e:    7800        .x      LDRB     r0,[r0,#0]
        0x00004540:    0680        ..      LSLS     r0,r0,#26
        0x00004542:    0f81        ..      LSRS     r1,r0,#30
        0x00004544:    2000        .       MOVS     r0,#0
        0x00004546:    2902        .)      CMP      r1,#2
        0x00004548:    903b        ;.      STR      r0,[sp,#0xec]
        0x0000454a:    d13e        >.      BNE      0x45ca ; 0x45ca
        0x0000454c:    e7ff        ..      B        0x454e ; 0x454e
        0x0000454e:    9859        Y.      LDR      r0,[sp,#0x164]
        0x00004550:    7801        .x      LDRB     r1,[r0,#0]
        0x00004552:    2003        .       MOVS     r0,#3
        0x00004554:    4001        .@      ANDS     r1,r1,r0
        0x00004556:    2000        .       MOVS     r0,#0
        0x00004558:    2901        .)      CMP      r1,#1
        0x0000455a:    903b        ;.      STR      r0,[sp,#0xec]
        0x0000455c:    d135        5.      BNE      0x45ca ; 0x45ca
        0x0000455e:    e7ff        ..      B        0x4560 ; 0x4560
        0x00004560:    985b        [.      LDR      r0,[sp,#0x16c]
        0x00004562:    7800        .x      LDRB     r0,[r0,#0]
        0x00004564:    0680        ..      LSLS     r0,r0,#26
        0x00004566:    0f81        ..      LSRS     r1,r0,#30
        0x00004568:    2000        .       MOVS     r0,#0
        0x0000456a:    2902        .)      CMP      r1,#2
        0x0000456c:    903b        ;.      STR      r0,[sp,#0xec]
        0x0000456e:    d12c        ,.      BNE      0x45ca ; 0x45ca
        0x00004570:    e7ff        ..      B        0x4572 ; 0x4572
        0x00004572:    985b        [.      LDR      r0,[sp,#0x16c]
        0x00004574:    7800        .x      LDRB     r0,[r0,#0]
        0x00004576:    0700        ..      LSLS     r0,r0,#28
        0x00004578:    0f81        ..      LSRS     r1,r0,#30
        0x0000457a:    2000        .       MOVS     r0,#0
        0x0000457c:    2902        .)      CMP      r1,#2
        0x0000457e:    903b        ;.      STR      r0,[sp,#0xec]
        0x00004580:    d123        #.      BNE      0x45ca ; 0x45ca
        0x00004582:    e7ff        ..      B        0x4584 ; 0x4584
        0x00004584:    985a        Z.      LDR      r0,[sp,#0x168]
        0x00004586:    7880        .x      LDRB     r0,[r0,#2]
        0x00004588:    0981        ..      LSRS     r1,r0,#6
        0x0000458a:    2000        .       MOVS     r0,#0
        0x0000458c:    2902        .)      CMP      r1,#2
        0x0000458e:    903b        ;.      STR      r0,[sp,#0xec]
        0x00004590:    d11b        ..      BNE      0x45ca ; 0x45ca
        0x00004592:    e7ff        ..      B        0x4594 ; 0x4594
        0x00004594:    985a        Z.      LDR      r0,[sp,#0x168]
        0x00004596:    7800        .x      LDRB     r0,[r0,#0]
        0x00004598:    0700        ..      LSLS     r0,r0,#28
        0x0000459a:    0f81        ..      LSRS     r1,r0,#30
        0x0000459c:    2000        .       MOVS     r0,#0
        0x0000459e:    2901        .)      CMP      r1,#1
        0x000045a0:    903b        ;.      STR      r0,[sp,#0xec]
        0x000045a2:    d112        ..      BNE      0x45ca ; 0x45ca
        0x000045a4:    e7ff        ..      B        0x45a6 ; 0x45a6
        0x000045a6:    9859        Y.      LDR      r0,[sp,#0x164]
        0x000045a8:    7800        .x      LDRB     r0,[r0,#0]
        0x000045aa:    0680        ..      LSLS     r0,r0,#26
        0x000045ac:    0f81        ..      LSRS     r1,r0,#30
        0x000045ae:    2000        .       MOVS     r0,#0
        0x000045b0:    2902        .)      CMP      r1,#2
        0x000045b2:    903b        ;.      STR      r0,[sp,#0xec]
        0x000045b4:    d109        ..      BNE      0x45ca ; 0x45ca
        0x000045b6:    e7ff        ..      B        0x45b8 ; 0x45b8
        0x000045b8:    9859        Y.      LDR      r0,[sp,#0x164]
        0x000045ba:    7800        .x      LDRB     r0,[r0,#0]
        0x000045bc:    2103        .!      MOVS     r1,#3
        0x000045be:    4008        .@      ANDS     r0,r0,r1
        0x000045c0:    1e40        @.      SUBS     r0,r0,#1
        0x000045c2:    4241        AB      RSBS     r1,r0,#0
        0x000045c4:    4148        HA      ADCS     r0,r0,r1
        0x000045c6:    903b        ;.      STR      r0,[sp,#0xec]
        0x000045c8:    e7ff        ..      B        0x45ca ; 0x45ca
        0x000045ca:    983b        ;.      LDR      r0,[sp,#0xec]
        0x000045cc:    07c1        ..      LSLS     r1,r0,#31
        0x000045ce:    2008        .       MOVS     r0,#8
        0x000045d0:    2204        ."      MOVS     r2,#4
        0x000045d2:    9239        9.      STR      r2,[sp,#0xe4]
        0x000045d4:    903a        :.      STR      r0,[sp,#0xe8]
        0x000045d6:    b909        ..      CBNZ     r1,0x45dc ; 0x45dc
        0x000045d8:    9839        9.      LDR      r0,[sp,#0xe4]
        0x000045da:    903a        :.      STR      r0,[sp,#0xe8]
        0x000045dc:    9a3a        :.      LDR      r2,[sp,#0xe8]
        0x000045de:    995d        ].      LDR      r1,[sp,#0x174]
        0x000045e0:    7808        .x      LDRB     r0,[r1,#0]
        0x000045e2:    23f3        .#      MOVS     r3,#0xf3
        0x000045e4:    4018        .@      ANDS     r0,r0,r3
        0x000045e6:    1880        ..      ADDS     r0,r0,r2
        0x000045e8:    7008        .p      STRB     r0,[r1,#0]
        0x000045ea:    9859        Y.      LDR      r0,[sp,#0x164]
        0x000045ec:    7800        .x      LDRB     r0,[r0,#0]
        0x000045ee:    0680        ..      LSLS     r0,r0,#26
        0x000045f0:    0f81        ..      LSRS     r1,r0,#30
        0x000045f2:    2000        .       MOVS     r0,#0
        0x000045f4:    2901        .)      CMP      r1,#1
        0x000045f6:    9038        8.      STR      r0,[sp,#0xe0]
        0x000045f8:    d111        ..      BNE      0x461e ; 0x461e
        0x000045fa:    e7ff        ..      B        0x45fc ; 0x45fc
        0x000045fc:    985b        [.      LDR      r0,[sp,#0x16c]
        0x000045fe:    7800        .x      LDRB     r0,[r0,#0]
        0x00004600:    0981        ..      LSRS     r1,r0,#6
        0x00004602:    2000        .       MOVS     r0,#0
        0x00004604:    2902        .)      CMP      r1,#2
        0x00004606:    9038        8.      STR      r0,[sp,#0xe0]
        0x00004608:    d109        ..      BNE      0x461e ; 0x461e
        0x0000460a:    e7ff        ..      B        0x460c ; 0x460c
        0x0000460c:    9859        Y.      LDR      r0,[sp,#0x164]
        0x0000460e:    7800        .x      LDRB     r0,[r0,#0]
        0x00004610:    0680        ..      LSLS     r0,r0,#26
        0x00004612:    0f80        ..      LSRS     r0,r0,#30
        0x00004614:    1e40        @.      SUBS     r0,r0,#1
        0x00004616:    4241        AB      RSBS     r1,r0,#0
        0x00004618:    4148        HA      ADCS     r0,r0,r1
        0x0000461a:    9038        8.      STR      r0,[sp,#0xe0]
        0x0000461c:    e7ff        ..      B        0x461e ; 0x461e
        0x0000461e:    9838        8.      LDR      r0,[sp,#0xe0]
        0x00004620:    07c1        ..      LSLS     r1,r0,#31
        0x00004622:    2080        .       MOVS     r0,#0x80
        0x00004624:    2240        @"      MOVS     r2,#0x40
        0x00004626:    9236        6.      STR      r2,[sp,#0xd8]
        0x00004628:    9037        7.      STR      r0,[sp,#0xdc]
        0x0000462a:    b909        ..      CBNZ     r1,0x4630 ; 0x4630
        0x0000462c:    9836        6.      LDR      r0,[sp,#0xd8]
        0x0000462e:    9037        7.      STR      r0,[sp,#0xdc]
        0x00004630:    9a37        7.      LDR      r2,[sp,#0xdc]
        0x00004632:    995d        ].      LDR      r1,[sp,#0x174]
        0x00004634:    7808        .x      LDRB     r0,[r1,#0]
        0x00004636:    233f        ?#      MOVS     r3,#0x3f
        0x00004638:    4018        .@      ANDS     r0,r0,r3
        0x0000463a:    1880        ..      ADDS     r0,r0,r2
        0x0000463c:    7008        .p      STRB     r0,[r1,#0]
        0x0000463e:    985a        Z.      LDR      r0,[sp,#0x168]
        0x00004640:    7801        .x      LDRB     r1,[r0,#0]
        0x00004642:    2003        .       MOVS     r0,#3
        0x00004644:    4001        .@      ANDS     r1,r1,r0
        0x00004646:    9134        4.      STR      r1,[sp,#0xd0]
        0x00004648:    2001        .       MOVS     r0,#1
        0x0000464a:    2902        .)      CMP      r1,#2
        0x0000464c:    9035        5.      STR      r0,[sp,#0xd4]
        0x0000464e:    d101        ..      BNE      0x4654 ; 0x4654
        0x00004650:    9834        4.      LDR      r0,[sp,#0xd0]
        0x00004652:    9035        5.      STR      r0,[sp,#0xd4]
        0x00004654:    9a35        5.      LDR      r2,[sp,#0xd4]
        0x00004656:    995d        ].      LDR      r1,[sp,#0x174]
        0x00004658:    7848        Hx      LDRB     r0,[r1,#1]
        0x0000465a:    23fc        .#      MOVS     r3,#0xfc
        0x0000465c:    4018        .@      ANDS     r0,r0,r3
        0x0000465e:    1880        ..      ADDS     r0,r0,r2
        0x00004660:    7048        Hp      STRB     r0,[r1,#1]
        0x00004662:    985b        [.      LDR      r0,[sp,#0x16c]
        0x00004664:    7800        .x      LDRB     r0,[r0,#0]
        0x00004666:    0680        ..      LSLS     r0,r0,#26
        0x00004668:    0f81        ..      LSRS     r1,r0,#30
        0x0000466a:    2000        .       MOVS     r0,#0
        0x0000466c:    2902        .)      CMP      r1,#2
        0x0000466e:    9033        3.      STR      r0,[sp,#0xcc]
        0x00004670:    d109        ..      BNE      0x4686 ; 0x4686
        0x00004672:    e7ff        ..      B        0x4674 ; 0x4674
        0x00004674:    985b        [.      LDR      r0,[sp,#0x16c]
        0x00004676:    7800        .x      LDRB     r0,[r0,#0]
        0x00004678:    0700        ..      LSLS     r0,r0,#28
        0x0000467a:    0f80        ..      LSRS     r0,r0,#30
        0x0000467c:    1e80        ..      SUBS     r0,r0,#2
        0x0000467e:    4241        AB      RSBS     r1,r0,#0
        0x00004680:    4148        HA      ADCS     r0,r0,r1
        0x00004682:    9033        3.      STR      r0,[sp,#0xcc]
        0x00004684:    e7ff        ..      B        0x4686 ; 0x4686
        0x00004686:    9833        3.      LDR      r0,[sp,#0xcc]
        0x00004688:    07c1        ..      LSLS     r1,r0,#31
        0x0000468a:    2008        .       MOVS     r0,#8
        0x0000468c:    2204        ."      MOVS     r2,#4
        0x0000468e:    9231        1.      STR      r2,[sp,#0xc4]
        0x00004690:    9032        2.      STR      r0,[sp,#0xc8]
        0x00004692:    b909        ..      CBNZ     r1,0x4698 ; 0x4698
        0x00004694:    9831        1.      LDR      r0,[sp,#0xc4]
        0x00004696:    9032        2.      STR      r0,[sp,#0xc8]
        0x00004698:    9a32        2.      LDR      r2,[sp,#0xc8]
        0x0000469a:    995d        ].      LDR      r1,[sp,#0x174]
        0x0000469c:    7848        Hx      LDRB     r0,[r1,#1]
        0x0000469e:    23f3        .#      MOVS     r3,#0xf3
        0x000046a0:    4018        .@      ANDS     r0,r0,r3
        0x000046a2:    1880        ..      ADDS     r0,r0,r2
        0x000046a4:    7048        Hp      STRB     r0,[r1,#1]
        0x000046a6:    985c        \.      LDR      r0,[sp,#0x170]
        0x000046a8:    7801        .x      LDRB     r1,[r0,#0]
        0x000046aa:    2003        .       MOVS     r0,#3
        0x000046ac:    4001        .@      ANDS     r1,r1,r0
        0x000046ae:    2000        .       MOVS     r0,#0
        0x000046b0:    2902        .)      CMP      r1,#2
        0x000046b2:    9030        0.      STR      r0,[sp,#0xc0]
        0x000046b4:    d14d        M.      BNE      0x4752 ; 0x4752
        0x000046b6:    e7ff        ..      B        0x46b8 ; 0x46b8
        0x000046b8:    985c        \.      LDR      r0,[sp,#0x170]
        0x000046ba:    7800        .x      LDRB     r0,[r0,#0]
        0x000046bc:    0680        ..      LSLS     r0,r0,#26
        0x000046be:    0f81        ..      LSRS     r1,r0,#30
        0x000046c0:    2000        .       MOVS     r0,#0
        0x000046c2:    2902        .)      CMP      r1,#2
        0x000046c4:    9030        0.      STR      r0,[sp,#0xc0]
        0x000046c6:    d144        D.      BNE      0x4752 ; 0x4752
        0x000046c8:    e7ff        ..      B        0x46ca ; 0x46ca
        0x000046ca:    985c        \.      LDR      r0,[sp,#0x170]
        0x000046cc:    7800        .x      LDRB     r0,[r0,#0]
        0x000046ce:    0981        ..      LSRS     r1,r0,#6
        0x000046d0:    2000        .       MOVS     r0,#0
        0x000046d2:    2902        .)      CMP      r1,#2
        0x000046d4:    9030        0.      STR      r0,[sp,#0xc0]
        0x000046d6:    d13c        <.      BNE      0x4752 ; 0x4752
        0x000046d8:    e7ff        ..      B        0x46da ; 0x46da
        0x000046da:    985c        \.      LDR      r0,[sp,#0x170]
        0x000046dc:    7880        .x      LDRB     r0,[r0,#2]
        0x000046de:    0981        ..      LSRS     r1,r0,#6
        0x000046e0:    2000        .       MOVS     r0,#0
        0x000046e2:    2902        .)      CMP      r1,#2
        0x000046e4:    9030        0.      STR      r0,[sp,#0xc0]
        0x000046e6:    d134        4.      BNE      0x4752 ; 0x4752
        0x000046e8:    e7ff        ..      B        0x46ea ; 0x46ea
        0x000046ea:    985c        \.      LDR      r0,[sp,#0x170]
        0x000046ec:    78c0        .x      LDRB     r0,[r0,#3]
        0x000046ee:    0700        ..      LSLS     r0,r0,#28
        0x000046f0:    0f81        ..      LSRS     r1,r0,#30
        0x000046f2:    2000        .       MOVS     r0,#0
        0x000046f4:    2902        .)      CMP      r1,#2
        0x000046f6:    9030        0.      STR      r0,[sp,#0xc0]
        0x000046f8:    d12b        +.      BNE      0x4752 ; 0x4752
        0x000046fa:    e7ff        ..      B        0x46fc ; 0x46fc
        0x000046fc:    985e        ^.      LDR      r0,[sp,#0x178]
        0x000046fe:    7800        .x      LDRB     r0,[r0,#0]
        0x00004700:    0981        ..      LSRS     r1,r0,#6
        0x00004702:    2000        .       MOVS     r0,#0
        0x00004704:    2902        .)      CMP      r1,#2
        0x00004706:    9030        0.      STR      r0,[sp,#0xc0]
        0x00004708:    d123        #.      BNE      0x4752 ; 0x4752
        0x0000470a:    e7ff        ..      B        0x470c ; 0x470c
        0x0000470c:    985e        ^.      LDR      r0,[sp,#0x178]
        0x0000470e:    7840        @x      LDRB     r0,[r0,#1]
        0x00004710:    0700        ..      LSLS     r0,r0,#28
        0x00004712:    0f81        ..      LSRS     r1,r0,#30
        0x00004714:    2000        .       MOVS     r0,#0
        0x00004716:    2902        .)      CMP      r1,#2
        0x00004718:    9030        0.      STR      r0,[sp,#0xc0]
        0x0000471a:    d11a        ..      BNE      0x4752 ; 0x4752
        0x0000471c:    e7ff        ..      B        0x471e ; 0x471e
        0x0000471e:    985e        ^.      LDR      r0,[sp,#0x178]
        0x00004720:    7941        Ay      LDRB     r1,[r0,#5]
        0x00004722:    2003        .       MOVS     r0,#3
        0x00004724:    4001        .@      ANDS     r1,r1,r0
        0x00004726:    2000        .       MOVS     r0,#0
        0x00004728:    2902        .)      CMP      r1,#2
        0x0000472a:    9030        0.      STR      r0,[sp,#0xc0]
        0x0000472c:    d111        ..      BNE      0x4752 ; 0x4752
        0x0000472e:    e7ff        ..      B        0x4730 ; 0x4730
        0x00004730:    9860        `.      LDR      r0,[sp,#0x180]
        0x00004732:    7800        .x      LDRB     r0,[r0,#0]
        0x00004734:    0680        ..      LSLS     r0,r0,#26
        0x00004736:    0f81        ..      LSRS     r1,r0,#30
        0x00004738:    2000        .       MOVS     r0,#0
        0x0000473a:    2902        .)      CMP      r1,#2
        0x0000473c:    9030        0.      STR      r0,[sp,#0xc0]
        0x0000473e:    d108        ..      BNE      0x4752 ; 0x4752
        0x00004740:    e7ff        ..      B        0x4742 ; 0x4742
        0x00004742:    985c        \.      LDR      r0,[sp,#0x170]
        0x00004744:    78c0        .x      LDRB     r0,[r0,#3]
        0x00004746:    0980        ..      LSRS     r0,r0,#6
        0x00004748:    1e80        ..      SUBS     r0,r0,#2
        0x0000474a:    4241        AB      RSBS     r1,r0,#0
        0x0000474c:    4148        HA      ADCS     r0,r0,r1
        0x0000474e:    9030        0.      STR      r0,[sp,#0xc0]
        0x00004750:    e7ff        ..      B        0x4752 ; 0x4752
        0x00004752:    9a30        0.      LDR      r2,[sp,#0xc0]
        0x00004754:    2001        .       MOVS     r0,#1
        0x00004756:    4002        .@      ANDS     r2,r2,r0
        0x00004758:    a962        b.      ADD      r1,sp,#0x188
        0x0000475a:    700a        .p      STRB     r2,[r1,#0]
        0x0000475c:    7809        .x      LDRB     r1,[r1,#0]
        0x0000475e:    07c9        ..      LSLS     r1,r1,#31
        0x00004760:    902f        /.      STR      r0,[sp,#0xbc]
        0x00004762:    bb69        i.      CBNZ     r1,0x47c0 ; 0x47c0
        0x00004764:    e006        ..      B        0x4774 ; 0x4774
        0x00004766:    46c0        .F      MOV      r8,r8
    $d
    __arm_cp.0_33
        0x00004768:    20000034    4..     DCD    536870964
    __arm_cp.0_34
        0x0000476c:    20000030    0..     DCD    536870960
    __arm_cp.0_35
        0x00004770:    20000031    1..     DCD    536870961
    $t
        0x00004774:    985c        \.      LDR      r0,[sp,#0x170]
        0x00004776:    7801        .x      LDRB     r1,[r0,#0]
        0x00004778:    2003        .       MOVS     r0,#3
        0x0000477a:    4001        .@      ANDS     r1,r1,r0
        0x0000477c:    2000        .       MOVS     r0,#0
        0x0000477e:    2902        .)      CMP      r1,#2
        0x00004780:    902e        ..      STR      r0,[sp,#0xb8]
        0x00004782:    d11a        ..      BNE      0x47ba ; 0x47ba
        0x00004784:    e7ff        ..      B        0x4786 ; 0x4786
        0x00004786:    985e        ^.      LDR      r0,[sp,#0x178]
        0x00004788:    7880        .x      LDRB     r0,[r0,#2]
        0x0000478a:    0680        ..      LSLS     r0,r0,#26
        0x0000478c:    0f81        ..      LSRS     r1,r0,#30
        0x0000478e:    2000        .       MOVS     r0,#0
        0x00004790:    2902        .)      CMP      r1,#2
        0x00004792:    902e        ..      STR      r0,[sp,#0xb8]
        0x00004794:    d111        ..      BNE      0x47ba ; 0x47ba
        0x00004796:    e7ff        ..      B        0x4798 ; 0x4798
        0x00004798:    9860        `.      LDR      r0,[sp,#0x180]
        0x0000479a:    7800        .x      LDRB     r0,[r0,#0]
        0x0000479c:    0680        ..      LSLS     r0,r0,#26
        0x0000479e:    0f81        ..      LSRS     r1,r0,#30
        0x000047a0:    2000        .       MOVS     r0,#0
        0x000047a2:    2902        .)      CMP      r1,#2
        0x000047a4:    902e        ..      STR      r0,[sp,#0xb8]
        0x000047a6:    d108        ..      BNE      0x47ba ; 0x47ba
        0x000047a8:    e7ff        ..      B        0x47aa ; 0x47aa
        0x000047aa:    985c        \.      LDR      r0,[sp,#0x170]
        0x000047ac:    78c0        .x      LDRB     r0,[r0,#3]
        0x000047ae:    0980        ..      LSRS     r0,r0,#6
        0x000047b0:    1e80        ..      SUBS     r0,r0,#2
        0x000047b2:    4241        AB      RSBS     r1,r0,#0
        0x000047b4:    4148        HA      ADCS     r0,r0,r1
        0x000047b6:    902e        ..      STR      r0,[sp,#0xb8]
        0x000047b8:    e7ff        ..      B        0x47ba ; 0x47ba
        0x000047ba:    982e        ..      LDR      r0,[sp,#0xb8]
        0x000047bc:    902f        /.      STR      r0,[sp,#0xbc]
        0x000047be:    e7ff        ..      B        0x47c0 ; 0x47c0
        0x000047c0:    992f        /.      LDR      r1,[sp,#0xbc]
        0x000047c2:    2001        .       MOVS     r0,#1
        0x000047c4:    4001        .@      ANDS     r1,r1,r0
        0x000047c6:    a862        b.      ADD      r0,sp,#0x188
        0x000047c8:    7001        .p      STRB     r1,[r0,#0]
        0x000047ca:    7800        .x      LDRB     r0,[r0,#0]
        0x000047cc:    07c1        ..      LSLS     r1,r0,#31
        0x000047ce:    2020                MOVS     r0,#0x20
        0x000047d0:    2210        ."      MOVS     r2,#0x10
        0x000047d2:    922c        ,.      STR      r2,[sp,#0xb0]
        0x000047d4:    902d        -.      STR      r0,[sp,#0xb4]
        0x000047d6:    b909        ..      CBNZ     r1,0x47dc ; 0x47dc
        0x000047d8:    982c        ,.      LDR      r0,[sp,#0xb0]
        0x000047da:    902d        -.      STR      r0,[sp,#0xb4]
        0x000047dc:    9a2d        -.      LDR      r2,[sp,#0xb4]
        0x000047de:    995d        ].      LDR      r1,[sp,#0x174]
        0x000047e0:    7888        .x      LDRB     r0,[r1,#2]
        0x000047e2:    23cf        .#      MOVS     r3,#0xcf
        0x000047e4:    4018        .@      ANDS     r0,r0,r3
        0x000047e6:    1880        ..      ADDS     r0,r0,r2
        0x000047e8:    7088        .p      STRB     r0,[r1,#2]
        0x000047ea:    985c        \.      LDR      r0,[sp,#0x170]
        0x000047ec:    7801        .x      LDRB     r1,[r0,#0]
        0x000047ee:    2003        .       MOVS     r0,#3
        0x000047f0:    4001        .@      ANDS     r1,r1,r0
        0x000047f2:    2000        .       MOVS     r0,#0
        0x000047f4:    2902        .)      CMP      r1,#2
        0x000047f6:    902b        +.      STR      r0,[sp,#0xac]
        0x000047f8:    d11a        ..      BNE      0x4830 ; 0x4830
        0x000047fa:    e7ff        ..      B        0x47fc ; 0x47fc
        0x000047fc:    985e        ^.      LDR      r0,[sp,#0x178]
        0x000047fe:    7880        .x      LDRB     r0,[r0,#2]
        0x00004800:    0680        ..      LSLS     r0,r0,#26
        0x00004802:    0f81        ..      LSRS     r1,r0,#30
        0x00004804:    2000        .       MOVS     r0,#0
        0x00004806:    2901        .)      CMP      r1,#1
        0x00004808:    902b        +.      STR      r0,[sp,#0xac]
        0x0000480a:    d111        ..      BNE      0x4830 ; 0x4830
        0x0000480c:    e7ff        ..      B        0x480e ; 0x480e
        0x0000480e:    985e        ^.      LDR      r0,[sp,#0x178]
        0x00004810:    7900        .y      LDRB     r0,[r0,#4]
        0x00004812:    0981        ..      LSRS     r1,r0,#6
        0x00004814:    2000        .       MOVS     r0,#0
        0x00004816:    2902        .)      CMP      r1,#2
        0x00004818:    902b        +.      STR      r0,[sp,#0xac]
        0x0000481a:    d109        ..      BNE      0x4830 ; 0x4830
        0x0000481c:    e7ff        ..      B        0x481e ; 0x481e
        0x0000481e:    985e        ^.      LDR      r0,[sp,#0x178]
        0x00004820:    7900        .y      LDRB     r0,[r0,#4]
        0x00004822:    0680        ..      LSLS     r0,r0,#26
        0x00004824:    0f80        ..      LSRS     r0,r0,#30
        0x00004826:    1e80        ..      SUBS     r0,r0,#2
        0x00004828:    4241        AB      RSBS     r1,r0,#0
        0x0000482a:    4148        HA      ADCS     r0,r0,r1
        0x0000482c:    902b        +.      STR      r0,[sp,#0xac]
        0x0000482e:    e7ff        ..      B        0x4830 ; 0x4830
        0x00004830:    9a2b        +.      LDR      r2,[sp,#0xac]
        0x00004832:    2001        .       MOVS     r0,#1
        0x00004834:    4002        .@      ANDS     r2,r2,r0
        0x00004836:    a962        b.      ADD      r1,sp,#0x188
        0x00004838:    700a        .p      STRB     r2,[r1,#0]
        0x0000483a:    7809        .x      LDRB     r1,[r1,#0]
        0x0000483c:    07c9        ..      LSLS     r1,r1,#31
        0x0000483e:    902a        *.      STR      r0,[sp,#0xa8]
        0x00004840:    b9e9        ..      CBNZ     r1,0x487e ; 0x487e
        0x00004842:    e7ff        ..      B        0x4844 ; 0x4844
        0x00004844:    985c        \.      LDR      r0,[sp,#0x170]
        0x00004846:    7801        .x      LDRB     r1,[r0,#0]
        0x00004848:    2003        .       MOVS     r0,#3
        0x0000484a:    4001        .@      ANDS     r1,r1,r0
        0x0000484c:    2000        .       MOVS     r0,#0
        0x0000484e:    2902        .)      CMP      r1,#2
        0x00004850:    9029        ).      STR      r0,[sp,#0xa4]
        0x00004852:    d111        ..      BNE      0x4878 ; 0x4878
        0x00004854:    e7ff        ..      B        0x4856 ; 0x4856
        0x00004856:    985e        ^.      LDR      r0,[sp,#0x178]
        0x00004858:    7880        .x      LDRB     r0,[r0,#2]
        0x0000485a:    0981        ..      LSRS     r1,r0,#6
        0x0000485c:    2000        .       MOVS     r0,#0
        0x0000485e:    2902        .)      CMP      r1,#2
        0x00004860:    9029        ).      STR      r0,[sp,#0xa4]
        0x00004862:    d109        ..      BNE      0x4878 ; 0x4878
        0x00004864:    e7ff        ..      B        0x4866 ; 0x4866
        0x00004866:    985e        ^.      LDR      r0,[sp,#0x178]
        0x00004868:    7880        .x      LDRB     r0,[r0,#2]
        0x0000486a:    0680        ..      LSLS     r0,r0,#26
        0x0000486c:    0f80        ..      LSRS     r0,r0,#30
        0x0000486e:    1e40        @.      SUBS     r0,r0,#1
        0x00004870:    4241        AB      RSBS     r1,r0,#0
        0x00004872:    4148        HA      ADCS     r0,r0,r1
        0x00004874:    9029        ).      STR      r0,[sp,#0xa4]
        0x00004876:    e7ff        ..      B        0x4878 ; 0x4878
        0x00004878:    9829        ).      LDR      r0,[sp,#0xa4]
        0x0000487a:    902a        *.      STR      r0,[sp,#0xa8]
        0x0000487c:    e7ff        ..      B        0x487e ; 0x487e
        0x0000487e:    992a        *.      LDR      r1,[sp,#0xa8]
        0x00004880:    2001        .       MOVS     r0,#1
        0x00004882:    4001        .@      ANDS     r1,r1,r0
        0x00004884:    a862        b.      ADD      r0,sp,#0x188
        0x00004886:    7001        .p      STRB     r1,[r0,#0]
        0x00004888:    7800        .x      LDRB     r0,[r0,#0]
        0x0000488a:    07c1        ..      LSLS     r1,r0,#31
        0x0000488c:    2080        .       MOVS     r0,#0x80
        0x0000488e:    2240        @"      MOVS     r2,#0x40
        0x00004890:    9227        '.      STR      r2,[sp,#0x9c]
        0x00004892:    9028        (.      STR      r0,[sp,#0xa0]
        0x00004894:    b909        ..      CBNZ     r1,0x489a ; 0x489a
        0x00004896:    9827        '.      LDR      r0,[sp,#0x9c]
        0x00004898:    9028        (.      STR      r0,[sp,#0xa0]
        0x0000489a:    9a28        (.      LDR      r2,[sp,#0xa0]
        0x0000489c:    995d        ].      LDR      r1,[sp,#0x174]
        0x0000489e:    7888        .x      LDRB     r0,[r1,#2]
        0x000048a0:    233f        ?#      MOVS     r3,#0x3f
        0x000048a2:    4018        .@      ANDS     r0,r0,r3
        0x000048a4:    1880        ..      ADDS     r0,r0,r2
        0x000048a6:    7088        .p      STRB     r0,[r1,#2]
        0x000048a8:    985c        \.      LDR      r0,[sp,#0x170]
        0x000048aa:    7801        .x      LDRB     r1,[r0,#0]
        0x000048ac:    2003        .       MOVS     r0,#3
        0x000048ae:    4001        .@      ANDS     r1,r1,r0
        0x000048b0:    2000        .       MOVS     r0,#0
        0x000048b2:    2902        .)      CMP      r1,#2
        0x000048b4:    9026        &.      STR      r0,[sp,#0x98]
        0x000048b6:    d11a        ..      BNE      0x48ee ; 0x48ee
        0x000048b8:    e7ff        ..      B        0x48ba ; 0x48ba
        0x000048ba:    985e        ^.      LDR      r0,[sp,#0x178]
        0x000048bc:    7880        .x      LDRB     r0,[r0,#2]
        0x000048be:    0981        ..      LSRS     r1,r0,#6
        0x000048c0:    2000        .       MOVS     r0,#0
        0x000048c2:    2901        .)      CMP      r1,#1
        0x000048c4:    9026        &.      STR      r0,[sp,#0x98]
        0x000048c6:    d112        ..      BNE      0x48ee ; 0x48ee
        0x000048c8:    e7ff        ..      B        0x48ca ; 0x48ca
        0x000048ca:    985e        ^.      LDR      r0,[sp,#0x178]
        0x000048cc:    78c0        .x      LDRB     r0,[r0,#3]
        0x000048ce:    0700        ..      LSLS     r0,r0,#28
        0x000048d0:    0f81        ..      LSRS     r1,r0,#30
        0x000048d2:    2000        .       MOVS     r0,#0
        0x000048d4:    2901        .)      CMP      r1,#1
        0x000048d6:    9026        &.      STR      r0,[sp,#0x98]
        0x000048d8:    d109        ..      BNE      0x48ee ; 0x48ee
        0x000048da:    e7ff        ..      B        0x48dc ; 0x48dc
        0x000048dc:    9860        `.      LDR      r0,[sp,#0x180]
        0x000048de:    7800        .x      LDRB     r0,[r0,#0]
        0x000048e0:    0680        ..      LSLS     r0,r0,#26
        0x000048e2:    0f80        ..      LSRS     r0,r0,#30
        0x000048e4:    1e80        ..      SUBS     r0,r0,#2
        0x000048e6:    4241        AB      RSBS     r1,r0,#0
        0x000048e8:    4148        HA      ADCS     r0,r0,r1
        0x000048ea:    9026        &.      STR      r0,[sp,#0x98]
        0x000048ec:    e7ff        ..      B        0x48ee ; 0x48ee
        0x000048ee:    9a26        &.      LDR      r2,[sp,#0x98]
        0x000048f0:    2001        .       MOVS     r0,#1
        0x000048f2:    4002        .@      ANDS     r2,r2,r0
        0x000048f4:    a962        b.      ADD      r1,sp,#0x188
        0x000048f6:    700a        .p      STRB     r2,[r1,#0]
        0x000048f8:    7809        .x      LDRB     r1,[r1,#0]
        0x000048fa:    07c9        ..      LSLS     r1,r1,#31
        0x000048fc:    9025        %.      STR      r0,[sp,#0x94]
        0x000048fe:    bb39        9.      CBNZ     r1,0x4950 ; 0x4950
        0x00004900:    e7ff        ..      B        0x4902 ; 0x4902
        0x00004902:    985c        \.      LDR      r0,[sp,#0x170]
        0x00004904:    7801        .x      LDRB     r1,[r0,#0]
        0x00004906:    2003        .       MOVS     r0,#3
        0x00004908:    4001        .@      ANDS     r1,r1,r0
        0x0000490a:    2000        .       MOVS     r0,#0
        0x0000490c:    2902        .)      CMP      r1,#2
        0x0000490e:    9024        $.      STR      r0,[sp,#0x90]
        0x00004910:    d11b        ..      BNE      0x494a ; 0x494a
        0x00004912:    e7ff        ..      B        0x4914 ; 0x4914
        0x00004914:    985e        ^.      LDR      r0,[sp,#0x178]
        0x00004916:    7800        .x      LDRB     r0,[r0,#0]
        0x00004918:    0700        ..      LSLS     r0,r0,#28
        0x0000491a:    0f81        ..      LSRS     r1,r0,#30
        0x0000491c:    2000        .       MOVS     r0,#0
        0x0000491e:    2901        .)      CMP      r1,#1
        0x00004920:    9024        $.      STR      r0,[sp,#0x90]
        0x00004922:    d112        ..      BNE      0x494a ; 0x494a
        0x00004924:    e7ff        ..      B        0x4926 ; 0x4926
        0x00004926:    985e        ^.      LDR      r0,[sp,#0x178]
        0x00004928:    78c0        .x      LDRB     r0,[r0,#3]
        0x0000492a:    0700        ..      LSLS     r0,r0,#28
        0x0000492c:    0f81        ..      LSRS     r1,r0,#30
        0x0000492e:    2000        .       MOVS     r0,#0
        0x00004930:    2901        .)      CMP      r1,#1
        0x00004932:    9024        $.      STR      r0,[sp,#0x90]
        0x00004934:    d109        ..      BNE      0x494a ; 0x494a
        0x00004936:    e7ff        ..      B        0x4938 ; 0x4938
        0x00004938:    9860        `.      LDR      r0,[sp,#0x180]
        0x0000493a:    7800        .x      LDRB     r0,[r0,#0]
        0x0000493c:    2103        .!      MOVS     r1,#3
        0x0000493e:    4008        .@      ANDS     r0,r0,r1
        0x00004940:    1e80        ..      SUBS     r0,r0,#2
        0x00004942:    4241        AB      RSBS     r1,r0,#0
        0x00004944:    4148        HA      ADCS     r0,r0,r1
        0x00004946:    9024        $.      STR      r0,[sp,#0x90]
        0x00004948:    e7ff        ..      B        0x494a ; 0x494a
        0x0000494a:    9824        $.      LDR      r0,[sp,#0x90]
        0x0000494c:    9025        %.      STR      r0,[sp,#0x94]
        0x0000494e:    e7ff        ..      B        0x4950 ; 0x4950
        0x00004950:    9925        %.      LDR      r1,[sp,#0x94]
        0x00004952:    2001        .       MOVS     r0,#1
        0x00004954:    9022        ".      STR      r0,[sp,#0x88]
        0x00004956:    4001        .@      ANDS     r1,r1,r0
        0x00004958:    a862        b.      ADD      r0,sp,#0x188
        0x0000495a:    7001        .p      STRB     r1,[r0,#0]
        0x0000495c:    7800        .x      LDRB     r0,[r0,#0]
        0x0000495e:    07c1        ..      LSLS     r1,r0,#31
        0x00004960:    2002        .       MOVS     r0,#2
        0x00004962:    9023        #.      STR      r0,[sp,#0x8c]
        0x00004964:    b909        ..      CBNZ     r1,0x496a ; 0x496a
        0x00004966:    9822        ".      LDR      r0,[sp,#0x88]
        0x00004968:    9023        #.      STR      r0,[sp,#0x8c]
        0x0000496a:    9a23        #.      LDR      r2,[sp,#0x8c]
        0x0000496c:    995d        ].      LDR      r1,[sp,#0x174]
        0x0000496e:    78c8        .x      LDRB     r0,[r1,#3]
        0x00004970:    23fc        .#      MOVS     r3,#0xfc
        0x00004972:    4018        .@      ANDS     r0,r0,r3
        0x00004974:    1880        ..      ADDS     r0,r0,r2
        0x00004976:    70c8        .p      STRB     r0,[r1,#3]
        0x00004978:    985c        \.      LDR      r0,[sp,#0x170]
        0x0000497a:    7801        .x      LDRB     r1,[r0,#0]
        0x0000497c:    2003        .       MOVS     r0,#3
        0x0000497e:    4001        .@      ANDS     r1,r1,r0
        0x00004980:    2000        .       MOVS     r0,#0
        0x00004982:    2902        .)      CMP      r1,#2
        0x00004984:    9021        !.      STR      r0,[sp,#0x84]
        0x00004986:    d11a        ..      BNE      0x49be ; 0x49be
        0x00004988:    e7ff        ..      B        0x498a ; 0x498a
        0x0000498a:    985e        ^.      LDR      r0,[sp,#0x178]
        0x0000498c:    7880        .x      LDRB     r0,[r0,#2]
        0x0000498e:    0981        ..      LSRS     r1,r0,#6
        0x00004990:    2000        .       MOVS     r0,#0
        0x00004992:    2901        .)      CMP      r1,#1
        0x00004994:    9021        !.      STR      r0,[sp,#0x84]
        0x00004996:    d112        ..      BNE      0x49be ; 0x49be
        0x00004998:    e7ff        ..      B        0x499a ; 0x499a
        0x0000499a:    985e        ^.      LDR      r0,[sp,#0x178]
        0x0000499c:    78c1        .x      LDRB     r1,[r0,#3]
        0x0000499e:    2003        .       MOVS     r0,#3
        0x000049a0:    4001        .@      ANDS     r1,r1,r0
        0x000049a2:    2000        .       MOVS     r0,#0
        0x000049a4:    2902        .)      CMP      r1,#2
        0x000049a6:    9021        !.      STR      r0,[sp,#0x84]
        0x000049a8:    d109        ..      BNE      0x49be ; 0x49be
        0x000049aa:    e7ff        ..      B        0x49ac ; 0x49ac
        0x000049ac:    9860        `.      LDR      r0,[sp,#0x180]
        0x000049ae:    7800        .x      LDRB     r0,[r0,#0]
        0x000049b0:    0680        ..      LSLS     r0,r0,#26
        0x000049b2:    0f80        ..      LSRS     r0,r0,#30
        0x000049b4:    1e80        ..      SUBS     r0,r0,#2
        0x000049b6:    4241        AB      RSBS     r1,r0,#0
        0x000049b8:    4148        HA      ADCS     r0,r0,r1
        0x000049ba:    9021        !.      STR      r0,[sp,#0x84]
        0x000049bc:    e7ff        ..      B        0x49be ; 0x49be
        0x000049be:    9a21        !.      LDR      r2,[sp,#0x84]
        0x000049c0:    2001        .       MOVS     r0,#1
        0x000049c2:    4002        .@      ANDS     r2,r2,r0
        0x000049c4:    a962        b.      ADD      r1,sp,#0x188
        0x000049c6:    700a        .p      STRB     r2,[r1,#0]
        0x000049c8:    7809        .x      LDRB     r1,[r1,#0]
        0x000049ca:    07c9        ..      LSLS     r1,r1,#31
        0x000049cc:    9020         .      STR      r0,[sp,#0x80]
        0x000049ce:    bb39        9.      CBNZ     r1,0x4a20 ; 0x4a20
        0x000049d0:    e7ff        ..      B        0x49d2 ; 0x49d2
        0x000049d2:    985c        \.      LDR      r0,[sp,#0x170]
        0x000049d4:    7801        .x      LDRB     r1,[r0,#0]
        0x000049d6:    2003        .       MOVS     r0,#3
        0x000049d8:    4001        .@      ANDS     r1,r1,r0
        0x000049da:    2000        .       MOVS     r0,#0
        0x000049dc:    2902        .)      CMP      r1,#2
        0x000049de:    901f        ..      STR      r0,[sp,#0x7c]
        0x000049e0:    d11b        ..      BNE      0x4a1a ; 0x4a1a
        0x000049e2:    e7ff        ..      B        0x49e4 ; 0x49e4
        0x000049e4:    985e        ^.      LDR      r0,[sp,#0x178]
        0x000049e6:    7800        .x      LDRB     r0,[r0,#0]
        0x000049e8:    0700        ..      LSLS     r0,r0,#28
        0x000049ea:    0f81        ..      LSRS     r1,r0,#30
        0x000049ec:    2000        .       MOVS     r0,#0
        0x000049ee:    2901        .)      CMP      r1,#1
        0x000049f0:    901f        ..      STR      r0,[sp,#0x7c]
        0x000049f2:    d112        ..      BNE      0x4a1a ; 0x4a1a
        0x000049f4:    e7ff        ..      B        0x49f6 ; 0x49f6
        0x000049f6:    985e        ^.      LDR      r0,[sp,#0x178]
        0x000049f8:    78c1        .x      LDRB     r1,[r0,#3]
        0x000049fa:    2003        .       MOVS     r0,#3
        0x000049fc:    4001        .@      ANDS     r1,r1,r0
        0x000049fe:    2000        .       MOVS     r0,#0
        0x00004a00:    2902        .)      CMP      r1,#2
        0x00004a02:    901f        ..      STR      r0,[sp,#0x7c]
        0x00004a04:    d109        ..      BNE      0x4a1a ; 0x4a1a
        0x00004a06:    e7ff        ..      B        0x4a08 ; 0x4a08
        0x00004a08:    9860        `.      LDR      r0,[sp,#0x180]
        0x00004a0a:    7800        .x      LDRB     r0,[r0,#0]
        0x00004a0c:    2103        .!      MOVS     r1,#3
        0x00004a0e:    4008        .@      ANDS     r0,r0,r1
        0x00004a10:    1e80        ..      SUBS     r0,r0,#2
        0x00004a12:    4241        AB      RSBS     r1,r0,#0
        0x00004a14:    4148        HA      ADCS     r0,r0,r1
        0x00004a16:    901f        ..      STR      r0,[sp,#0x7c]
        0x00004a18:    e7ff        ..      B        0x4a1a ; 0x4a1a
        0x00004a1a:    981f        ..      LDR      r0,[sp,#0x7c]
        0x00004a1c:    9020         .      STR      r0,[sp,#0x80]
        0x00004a1e:    e7ff        ..      B        0x4a20 ; 0x4a20
        0x00004a20:    9920         .      LDR      r1,[sp,#0x80]
        0x00004a22:    2001        .       MOVS     r0,#1
        0x00004a24:    4001        .@      ANDS     r1,r1,r0
        0x00004a26:    a862        b.      ADD      r0,sp,#0x188
        0x00004a28:    7001        .p      STRB     r1,[r0,#0]
        0x00004a2a:    7800        .x      LDRB     r0,[r0,#0]
        0x00004a2c:    07c1        ..      LSLS     r1,r0,#31
        0x00004a2e:    2008        .       MOVS     r0,#8
        0x00004a30:    2204        ."      MOVS     r2,#4
        0x00004a32:    921d        ..      STR      r2,[sp,#0x74]
        0x00004a34:    901e        ..      STR      r0,[sp,#0x78]
        0x00004a36:    b909        ..      CBNZ     r1,0x4a3c ; 0x4a3c
        0x00004a38:    981d        ..      LDR      r0,[sp,#0x74]
        0x00004a3a:    901e        ..      STR      r0,[sp,#0x78]
        0x00004a3c:    9a1e        ..      LDR      r2,[sp,#0x78]
        0x00004a3e:    995d        ].      LDR      r1,[sp,#0x174]
        0x00004a40:    78c8        .x      LDRB     r0,[r1,#3]
        0x00004a42:    23f3        .#      MOVS     r3,#0xf3
        0x00004a44:    4018        .@      ANDS     r0,r0,r3
        0x00004a46:    1880        ..      ADDS     r0,r0,r2
        0x00004a48:    70c8        .p      STRB     r0,[r1,#3]
        0x00004a4a:    985c        \.      LDR      r0,[sp,#0x170]
        0x00004a4c:    7840        @x      LDRB     r0,[r0,#1]
        0x00004a4e:    0981        ..      LSRS     r1,r0,#6
        0x00004a50:    2000        .       MOVS     r0,#0
        0x00004a52:    2902        .)      CMP      r1,#2
        0x00004a54:    901c        ..      STR      r0,[sp,#0x70]
        0x00004a56:    d119        ..      BNE      0x4a8c ; 0x4a8c
        0x00004a58:    e7ff        ..      B        0x4a5a ; 0x4a5a
        0x00004a5a:    985c        \.      LDR      r0,[sp,#0x170]
        0x00004a5c:    7881        .x      LDRB     r1,[r0,#2]
        0x00004a5e:    2003        .       MOVS     r0,#3
        0x00004a60:    4001        .@      ANDS     r1,r1,r0
        0x00004a62:    2000        .       MOVS     r0,#0
        0x00004a64:    2901        .)      CMP      r1,#1
        0x00004a66:    901c        ..      STR      r0,[sp,#0x70]
        0x00004a68:    d110        ..      BNE      0x4a8c ; 0x4a8c
        0x00004a6a:    e7ff        ..      B        0x4a6c ; 0x4a6c
        0x00004a6c:    985e        ^.      LDR      r0,[sp,#0x178]
        0x00004a6e:    7880        .x      LDRB     r0,[r0,#2]
        0x00004a70:    0981        ..      LSRS     r1,r0,#6
        0x00004a72:    2000        .       MOVS     r0,#0
        0x00004a74:    2901        .)      CMP      r1,#1
        0x00004a76:    901c        ..      STR      r0,[sp,#0x70]
        0x00004a78:    d108        ..      BNE      0x4a8c ; 0x4a8c
        0x00004a7a:    e7ff        ..      B        0x4a7c ; 0x4a7c
        0x00004a7c:    985e        ^.      LDR      r0,[sp,#0x178]
        0x00004a7e:    78c0        .x      LDRB     r0,[r0,#3]
        0x00004a80:    0980        ..      LSRS     r0,r0,#6
        0x00004a82:    1e80        ..      SUBS     r0,r0,#2
        0x00004a84:    4241        AB      RSBS     r1,r0,#0
        0x00004a86:    4148        HA      ADCS     r0,r0,r1
        0x00004a88:    901c        ..      STR      r0,[sp,#0x70]
        0x00004a8a:    e7ff        ..      B        0x4a8c ; 0x4a8c
        0x00004a8c:    9a1c        ..      LDR      r2,[sp,#0x70]
        0x00004a8e:    2001        .       MOVS     r0,#1
        0x00004a90:    4002        .@      ANDS     r2,r2,r0
        0x00004a92:    a962        b.      ADD      r1,sp,#0x188
        0x00004a94:    700a        .p      STRB     r2,[r1,#0]
        0x00004a96:    7809        .x      LDRB     r1,[r1,#0]
        0x00004a98:    07c9        ..      LSLS     r1,r1,#31
        0x00004a9a:    901b        ..      STR      r0,[sp,#0x6c]
        0x00004a9c:    b9a1        ..      CBNZ     r1,0x4ac8 ; 0x4ac8
        0x00004a9e:    e7ff        ..      B        0x4aa0 ; 0x4aa0
        0x00004aa0:    985e        ^.      LDR      r0,[sp,#0x178]
        0x00004aa2:    7880        .x      LDRB     r0,[r0,#2]
        0x00004aa4:    0981        ..      LSRS     r1,r0,#6
        0x00004aa6:    2000        .       MOVS     r0,#0
        0x00004aa8:    2901        .)      CMP      r1,#1
        0x00004aaa:    901a        ..      STR      r0,[sp,#0x68]
        0x00004aac:    d109        ..      BNE      0x4ac2 ; 0x4ac2
        0x00004aae:    e7ff        ..      B        0x4ab0 ; 0x4ab0
        0x00004ab0:    985e        ^.      LDR      r0,[sp,#0x178]
        0x00004ab2:    78c0        .x      LDRB     r0,[r0,#3]
        0x00004ab4:    0680        ..      LSLS     r0,r0,#26
        0x00004ab6:    0f80        ..      LSRS     r0,r0,#30
        0x00004ab8:    1e80        ..      SUBS     r0,r0,#2
        0x00004aba:    4241        AB      RSBS     r1,r0,#0
        0x00004abc:    4148        HA      ADCS     r0,r0,r1
        0x00004abe:    901a        ..      STR      r0,[sp,#0x68]
        0x00004ac0:    e7ff        ..      B        0x4ac2 ; 0x4ac2
        0x00004ac2:    981a        ..      LDR      r0,[sp,#0x68]
        0x00004ac4:    901b        ..      STR      r0,[sp,#0x6c]
        0x00004ac6:    e7ff        ..      B        0x4ac8 ; 0x4ac8
        0x00004ac8:    991b        ..      LDR      r1,[sp,#0x6c]
        0x00004aca:    2001        .       MOVS     r0,#1
        0x00004acc:    4001        .@      ANDS     r1,r1,r0
        0x00004ace:    a862        b.      ADD      r0,sp,#0x188
        0x00004ad0:    7001        .p      STRB     r1,[r0,#0]
        0x00004ad2:    7800        .x      LDRB     r0,[r0,#0]
        0x00004ad4:    07c1        ..      LSLS     r1,r0,#31
        0x00004ad6:    2020                MOVS     r0,#0x20
        0x00004ad8:    2210        ."      MOVS     r2,#0x10
        0x00004ada:    9218        ..      STR      r2,[sp,#0x60]
        0x00004adc:    9019        ..      STR      r0,[sp,#0x64]
        0x00004ade:    b909        ..      CBNZ     r1,0x4ae4 ; 0x4ae4
        0x00004ae0:    9818        ..      LDR      r0,[sp,#0x60]
        0x00004ae2:    9019        ..      STR      r0,[sp,#0x64]
        0x00004ae4:    9a19        ..      LDR      r2,[sp,#0x64]
        0x00004ae6:    995d        ].      LDR      r1,[sp,#0x174]
        0x00004ae8:    78c8        .x      LDRB     r0,[r1,#3]
        0x00004aea:    23cf        .#      MOVS     r3,#0xcf
        0x00004aec:    4018        .@      ANDS     r0,r0,r3
        0x00004aee:    1880        ..      ADDS     r0,r0,r2
        0x00004af0:    70c8        .p      STRB     r0,[r1,#3]
        0x00004af2:    985c        \.      LDR      r0,[sp,#0x170]
        0x00004af4:    7881        .x      LDRB     r1,[r0,#2]
        0x00004af6:    2003        .       MOVS     r0,#3
        0x00004af8:    4001        .@      ANDS     r1,r1,r0
        0x00004afa:    2000        .       MOVS     r0,#0
        0x00004afc:    2902        .)      CMP      r1,#2
        0x00004afe:    9017        ..      STR      r0,[sp,#0x5c]
        0x00004b00:    d112        ..      BNE      0x4b28 ; 0x4b28
        0x00004b02:    e7ff        ..      B        0x4b04 ; 0x4b04
        0x00004b04:    985e        ^.      LDR      r0,[sp,#0x178]
        0x00004b06:    78c0        .x      LDRB     r0,[r0,#3]
        0x00004b08:    0680        ..      LSLS     r0,r0,#26
        0x00004b0a:    0f81        ..      LSRS     r1,r0,#30
        0x00004b0c:    2000        .       MOVS     r0,#0
        0x00004b0e:    2901        .)      CMP      r1,#1
        0x00004b10:    9017        ..      STR      r0,[sp,#0x5c]
        0x00004b12:    d109        ..      BNE      0x4b28 ; 0x4b28
        0x00004b14:    e7ff        ..      B        0x4b16 ; 0x4b16
        0x00004b16:    9860        `.      LDR      r0,[sp,#0x180]
        0x00004b18:    7800        .x      LDRB     r0,[r0,#0]
        0x00004b1a:    0680        ..      LSLS     r0,r0,#26
        0x00004b1c:    0f80        ..      LSRS     r0,r0,#30
        0x00004b1e:    1e80        ..      SUBS     r0,r0,#2
        0x00004b20:    4241        AB      RSBS     r1,r0,#0
        0x00004b22:    4148        HA      ADCS     r0,r0,r1
        0x00004b24:    9017        ..      STR      r0,[sp,#0x5c]
        0x00004b26:    e7ff        ..      B        0x4b28 ; 0x4b28
        0x00004b28:    9a17        ..      LDR      r2,[sp,#0x5c]
        0x00004b2a:    2001        .       MOVS     r0,#1
        0x00004b2c:    4002        .@      ANDS     r2,r2,r0
        0x00004b2e:    a962        b.      ADD      r1,sp,#0x188
        0x00004b30:    700a        .p      STRB     r2,[r1,#0]
        0x00004b32:    7809        .x      LDRB     r1,[r1,#0]
        0x00004b34:    07c9        ..      LSLS     r1,r1,#31
        0x00004b36:    9016        ..      STR      r0,[sp,#0x58]
        0x00004b38:    b999        ..      CBNZ     r1,0x4b62 ; 0x4b62
        0x00004b3a:    e7ff        ..      B        0x4b3c ; 0x4b3c
        0x00004b3c:    985c        \.      LDR      r0,[sp,#0x170]
        0x00004b3e:    7840        @x      LDRB     r0,[r0,#1]
        0x00004b40:    0981        ..      LSRS     r1,r0,#6
        0x00004b42:    2000        .       MOVS     r0,#0
        0x00004b44:    2901        .)      CMP      r1,#1
        0x00004b46:    9015        ..      STR      r0,[sp,#0x54]
        0x00004b48:    d108        ..      BNE      0x4b5c ; 0x4b5c
        0x00004b4a:    e7ff        ..      B        0x4b4c ; 0x4b4c
        0x00004b4c:    985e        ^.      LDR      r0,[sp,#0x178]
        0x00004b4e:    78c0        .x      LDRB     r0,[r0,#3]
        0x00004b50:    0980        ..      LSRS     r0,r0,#6
        0x00004b52:    1e80        ..      SUBS     r0,r0,#2
        0x00004b54:    4241        AB      RSBS     r1,r0,#0
        0x00004b56:    4148        HA      ADCS     r0,r0,r1
        0x00004b58:    9015        ..      STR      r0,[sp,#0x54]
        0x00004b5a:    e7ff        ..      B        0x4b5c ; 0x4b5c
        0x00004b5c:    9815        ..      LDR      r0,[sp,#0x54]
        0x00004b5e:    9016        ..      STR      r0,[sp,#0x58]
        0x00004b60:    e7ff        ..      B        0x4b62 ; 0x4b62
        0x00004b62:    9916        ..      LDR      r1,[sp,#0x58]
        0x00004b64:    2001        .       MOVS     r0,#1
        0x00004b66:    9012        ..      STR      r0,[sp,#0x48]
        0x00004b68:    4001        .@      ANDS     r1,r1,r0
        0x00004b6a:    a862        b.      ADD      r0,sp,#0x188
        0x00004b6c:    7001        .p      STRB     r1,[r0,#0]
        0x00004b6e:    7800        .x      LDRB     r0,[r0,#0]
        0x00004b70:    07c1        ..      LSLS     r1,r0,#31
        0x00004b72:    2080        .       MOVS     r0,#0x80
        0x00004b74:    2240        @"      MOVS     r2,#0x40
        0x00004b76:    9213        ..      STR      r2,[sp,#0x4c]
        0x00004b78:    9014        ..      STR      r0,[sp,#0x50]
        0x00004b7a:    b909        ..      CBNZ     r1,0x4b80 ; 0x4b80
        0x00004b7c:    9813        ..      LDR      r0,[sp,#0x4c]
        0x00004b7e:    9014        ..      STR      r0,[sp,#0x50]
        0x00004b80:    9812        ..      LDR      r0,[sp,#0x48]
        0x00004b82:    9b14        ..      LDR      r3,[sp,#0x50]
        0x00004b84:    9a5d        ].      LDR      r2,[sp,#0x174]
        0x00004b86:    78d1        .x      LDRB     r1,[r2,#3]
        0x00004b88:    243f        ?$      MOVS     r4,#0x3f
        0x00004b8a:    4021        !@      ANDS     r1,r1,r4
        0x00004b8c:    18c9        ..      ADDS     r1,r1,r3
        0x00004b8e:    70d1        .p      STRB     r1,[r2,#3]
        0x00004b90:    995e        ^.      LDR      r1,[sp,#0x178]
        0x00004b92:    7889        .x      LDRB     r1,[r1,#2]
        0x00004b94:    0689        ..      LSLS     r1,r1,#26
        0x00004b96:    0f89        ..      LSRS     r1,r1,#30
        0x00004b98:    9110        ..      STR      r1,[sp,#0x40]
        0x00004b9a:    2902        .)      CMP      r1,#2
        0x00004b9c:    9011        ..      STR      r0,[sp,#0x44]
        0x00004b9e:    d101        ..      BNE      0x4ba4 ; 0x4ba4
        0x00004ba0:    9810        ..      LDR      r0,[sp,#0x40]
        0x00004ba2:    9011        ..      STR      r0,[sp,#0x44]
        0x00004ba4:    9a11        ..      LDR      r2,[sp,#0x44]
        0x00004ba6:    995d        ].      LDR      r1,[sp,#0x174]
        0x00004ba8:    7908        .y      LDRB     r0,[r1,#4]
        0x00004baa:    0092        ..      LSLS     r2,r2,#2
        0x00004bac:    23f3        .#      MOVS     r3,#0xf3
        0x00004bae:    4018        .@      ANDS     r0,r0,r3
        0x00004bb0:    1880        ..      ADDS     r0,r0,r2
        0x00004bb2:    7108        .q      STRB     r0,[r1,#4]
        0x00004bb4:    9860        `.      LDR      r0,[sp,#0x180]
        0x00004bb6:    7800        .x      LDRB     r0,[r0,#0]
        0x00004bb8:    0680        ..      LSLS     r0,r0,#26
        0x00004bba:    0f81        ..      LSRS     r1,r0,#30
        0x00004bbc:    2002        .       MOVS     r0,#2
        0x00004bbe:    2901        .)      CMP      r1,#1
        0x00004bc0:    900f        ..      STR      r0,[sp,#0x3c]
        0x00004bc2:    d001        ..      BEQ      0x4bc8 ; 0x4bc8
        0x00004bc4:    9812        ..      LDR      r0,[sp,#0x48]
        0x00004bc6:    900f        ..      STR      r0,[sp,#0x3c]
        0x00004bc8:    9a0f        ..      LDR      r2,[sp,#0x3c]
        0x00004bca:    995d        ].      LDR      r1,[sp,#0x174]
        0x00004bcc:    7908        .y      LDRB     r0,[r1,#4]
        0x00004bce:    0112        ..      LSLS     r2,r2,#4
        0x00004bd0:    23cf        .#      MOVS     r3,#0xcf
        0x00004bd2:    4018        .@      ANDS     r0,r0,r3
        0x00004bd4:    1880        ..      ADDS     r0,r0,r2
        0x00004bd6:    7108        .q      STRB     r0,[r1,#4]
        0x00004bd8:    985b        [.      LDR      r0,[sp,#0x16c]
        0x00004bda:    7800        .x      LDRB     r0,[r0,#0]
        0x00004bdc:    0680        ..      LSLS     r0,r0,#26
        0x00004bde:    0f81        ..      LSRS     r1,r0,#30
        0x00004be0:    2000        .       MOVS     r0,#0
        0x00004be2:    2902        .)      CMP      r1,#2
        0x00004be4:    900e        ..      STR      r0,[sp,#0x38]
        0x00004be6:    d109        ..      BNE      0x4bfc ; 0x4bfc
        0x00004be8:    e7ff        ..      B        0x4bea ; 0x4bea
        0x00004bea:    985b        [.      LDR      r0,[sp,#0x16c]
        0x00004bec:    7800        .x      LDRB     r0,[r0,#0]
        0x00004bee:    0700        ..      LSLS     r0,r0,#28
        0x00004bf0:    0f80        ..      LSRS     r0,r0,#30
        0x00004bf2:    1e80        ..      SUBS     r0,r0,#2
        0x00004bf4:    4241        AB      RSBS     r1,r0,#0
        0x00004bf6:    4148        HA      ADCS     r0,r0,r1
        0x00004bf8:    900e        ..      STR      r0,[sp,#0x38]
        0x00004bfa:    e7ff        ..      B        0x4bfc ; 0x4bfc
        0x00004bfc:    980e        ..      LDR      r0,[sp,#0x38]
        0x00004bfe:    07c1        ..      LSLS     r1,r0,#31
        0x00004c00:    2002        .       MOVS     r0,#2
        0x00004c02:    900b        ..      STR      r0,[sp,#0x2c]
        0x00004c04:    2201        ."      MOVS     r2,#1
        0x00004c06:    920c        ..      STR      r2,[sp,#0x30]
        0x00004c08:    900d        ..      STR      r0,[sp,#0x34]
        0x00004c0a:    b909        ..      CBNZ     r1,0x4c10 ; 0x4c10
        0x00004c0c:    980c        ..      LDR      r0,[sp,#0x30]
        0x00004c0e:    900d        ..      STR      r0,[sp,#0x34]
        0x00004c10:    980b        ..      LDR      r0,[sp,#0x2c]
        0x00004c12:    9b0d        ..      LDR      r3,[sp,#0x34]
        0x00004c14:    9a5d        ].      LDR      r2,[sp,#0x174]
        0x00004c16:    7951        Qy      LDRB     r1,[r2,#5]
        0x00004c18:    24fc        .$      MOVS     r4,#0xfc
        0x00004c1a:    4021        !@      ANDS     r1,r1,r4
        0x00004c1c:    18c9        ..      ADDS     r1,r1,r3
        0x00004c1e:    7151        Qq      STRB     r1,[r2,#5]
        0x00004c20:    9960        `.      LDR      r1,[sp,#0x180]
        0x00004c22:    7809        .x      LDRB     r1,[r1,#0]
        0x00004c24:    2203        ."      MOVS     r2,#3
        0x00004c26:    9209        ..      STR      r2,[sp,#0x24]
        0x00004c28:    4011        .@      ANDS     r1,r1,r2
        0x00004c2a:    2901        .)      CMP      r1,#1
        0x00004c2c:    900a        ..      STR      r0,[sp,#0x28]
        0x00004c2e:    d001        ..      BEQ      0x4c34 ; 0x4c34
        0x00004c30:    980c        ..      LDR      r0,[sp,#0x30]
        0x00004c32:    900a        ..      STR      r0,[sp,#0x28]
        0x00004c34:    9909        ..      LDR      r1,[sp,#0x24]
        0x00004c36:    9b0a        ..      LDR      r3,[sp,#0x28]
        0x00004c38:    9a5d        ].      LDR      r2,[sp,#0x174]
        0x00004c3a:    7910        .y      LDRB     r0,[r2,#4]
        0x00004c3c:    019b        ..      LSLS     r3,r3,#6
        0x00004c3e:    243f        ?$      MOVS     r4,#0x3f
        0x00004c40:    4020         @      ANDS     r0,r0,r4
        0x00004c42:    18c0        ..      ADDS     r0,r0,r3
        0x00004c44:    7110        .q      STRB     r0,[r2,#4]
        0x00004c46:    985e        ^.      LDR      r0,[sp,#0x178]
        0x00004c48:    7880        .x      LDRB     r0,[r0,#2]
        0x00004c4a:    0680        ..      LSLS     r0,r0,#26
        0x00004c4c:    0f80        ..      LSRS     r0,r0,#30
        0x00004c4e:    1e83        ..      SUBS     r3,r0,#2
        0x00004c50:    4258        XB      RSBS     r0,r3,#0
        0x00004c52:    4143        CA      ADCS     r3,r3,r0
        0x00004c54:    9a5f        _.      LDR      r2,[sp,#0x17c]
        0x00004c56:    7810        .x      LDRB     r0,[r2,#0]
        0x00004c58:    24fe        .$      MOVS     r4,#0xfe
        0x00004c5a:    4020         @      ANDS     r0,r0,r4
        0x00004c5c:    18c0        ..      ADDS     r0,r0,r3
        0x00004c5e:    7010        .p      STRB     r0,[r2,#0]
        0x00004c60:    985c        \.      LDR      r0,[sp,#0x170]
        0x00004c62:    7800        .x      LDRB     r0,[r0,#0]
        0x00004c64:    4008        .@      ANDS     r0,r0,r1
        0x00004c66:    2801        .(      CMP      r0,#1
        0x00004c68:    d109        ..      BNE      0x4c7e ; 0x4c7e
        0x00004c6a:    e7ff        ..      B        0x4c6c ; 0x4c6c
        0x00004c6c:    9860        `.      LDR      r0,[sp,#0x180]
        0x00004c6e:    7801        .x      LDRB     r1,[r0,#0]
        0x00004c70:    2003        .       MOVS     r0,#3
        0x00004c72:    4001        .@      ANDS     r1,r1,r0
        0x00004c74:    2001        .       MOVS     r0,#1
        0x00004c76:    2902        .)      CMP      r1,#2
        0x00004c78:    9008        ..      STR      r0,[sp,#0x20]
        0x00004c7a:    d015        ..      BEQ      0x4ca8 ; 0x4ca8
        0x00004c7c:    e7ff        ..      B        0x4c7e ; 0x4c7e
        0x00004c7e:    985c        \.      LDR      r0,[sp,#0x170]
        0x00004c80:    7800        .x      LDRB     r0,[r0,#0]
        0x00004c82:    0700        ..      LSLS     r0,r0,#28
        0x00004c84:    0f81        ..      LSRS     r1,r0,#30
        0x00004c86:    2000        .       MOVS     r0,#0
        0x00004c88:    2901        .)      CMP      r1,#1
        0x00004c8a:    9007        ..      STR      r0,[sp,#0x1c]
        0x00004c8c:    d109        ..      BNE      0x4ca2 ; 0x4ca2
        0x00004c8e:    e7ff        ..      B        0x4c90 ; 0x4c90
        0x00004c90:    985c        \.      LDR      r0,[sp,#0x170]
        0x00004c92:    7800        .x      LDRB     r0,[r0,#0]
        0x00004c94:    2103        .!      MOVS     r1,#3
        0x00004c96:    4008        .@      ANDS     r0,r0,r1
        0x00004c98:    1e40        @.      SUBS     r0,r0,#1
        0x00004c9a:    4241        AB      RSBS     r1,r0,#0
        0x00004c9c:    4148        HA      ADCS     r0,r0,r1
        0x00004c9e:    9007        ..      STR      r0,[sp,#0x1c]
        0x00004ca0:    e7ff        ..      B        0x4ca2 ; 0x4ca2
        0x00004ca2:    9807        ..      LDR      r0,[sp,#0x1c]
        0x00004ca4:    9008        ..      STR      r0,[sp,#0x20]
        0x00004ca6:    e7ff        ..      B        0x4ca8 ; 0x4ca8
        0x00004ca8:    9a08        ..      LDR      r2,[sp,#0x20]
        0x00004caa:    995f        _.      LDR      r1,[sp,#0x17c]
        0x00004cac:    7808        .x      LDRB     r0,[r1,#0]
        0x00004cae:    07d2        ..      LSLS     r2,r2,#31
        0x00004cb0:    0f92        ..      LSRS     r2,r2,#30
        0x00004cb2:    23fd        .#      MOVS     r3,#0xfd
        0x00004cb4:    4018        .@      ANDS     r0,r0,r3
        0x00004cb6:    1880        ..      ADDS     r0,r0,r2
        0x00004cb8:    7008        .p      STRB     r0,[r1,#0]
        0x00004cba:    985c        \.      LDR      r0,[sp,#0x170]
        0x00004cbc:    7800        .x      LDRB     r0,[r0,#0]
        0x00004cbe:    2103        .!      MOVS     r1,#3
        0x00004cc0:    4008        .@      ANDS     r0,r0,r1
        0x00004cc2:    2801        .(      CMP      r0,#1
        0x00004cc4:    d109        ..      BNE      0x4cda ; 0x4cda
        0x00004cc6:    e7ff        ..      B        0x4cc8 ; 0x4cc8
        0x00004cc8:    9860        `.      LDR      r0,[sp,#0x180]
        0x00004cca:    7801        .x      LDRB     r1,[r0,#0]
        0x00004ccc:    2003        .       MOVS     r0,#3
        0x00004cce:    4001        .@      ANDS     r1,r1,r0
        0x00004cd0:    2001        .       MOVS     r0,#1
        0x00004cd2:    2902        .)      CMP      r1,#2
        0x00004cd4:    9006        ..      STR      r0,[sp,#0x18]
        0x00004cd6:    d015        ..      BEQ      0x4d04 ; 0x4d04
        0x00004cd8:    e7ff        ..      B        0x4cda ; 0x4cda
        0x00004cda:    985c        \.      LDR      r0,[sp,#0x170]
        0x00004cdc:    7800        .x      LDRB     r0,[r0,#0]
        0x00004cde:    0700        ..      LSLS     r0,r0,#28
        0x00004ce0:    0f81        ..      LSRS     r1,r0,#30
        0x00004ce2:    2000        .       MOVS     r0,#0
        0x00004ce4:    2901        .)      CMP      r1,#1
        0x00004ce6:    9005        ..      STR      r0,[sp,#0x14]
        0x00004ce8:    d109        ..      BNE      0x4cfe ; 0x4cfe
        0x00004cea:    e7ff        ..      B        0x4cec ; 0x4cec
        0x00004cec:    985c        \.      LDR      r0,[sp,#0x170]
        0x00004cee:    7800        .x      LDRB     r0,[r0,#0]
        0x00004cf0:    2103        .!      MOVS     r1,#3
        0x00004cf2:    4008        .@      ANDS     r0,r0,r1
        0x00004cf4:    1e40        @.      SUBS     r0,r0,#1
        0x00004cf6:    4241        AB      RSBS     r1,r0,#0
        0x00004cf8:    4148        HA      ADCS     r0,r0,r1
        0x00004cfa:    9005        ..      STR      r0,[sp,#0x14]
        0x00004cfc:    e7ff        ..      B        0x4cfe ; 0x4cfe
        0x00004cfe:    9805        ..      LDR      r0,[sp,#0x14]
        0x00004d00:    9006        ..      STR      r0,[sp,#0x18]
        0x00004d02:    e7ff        ..      B        0x4d04 ; 0x4d04
        0x00004d04:    9a06        ..      LDR      r2,[sp,#0x18]
        0x00004d06:    995f        _.      LDR      r1,[sp,#0x17c]
        0x00004d08:    7808        .x      LDRB     r0,[r1,#0]
        0x00004d0a:    07d2        ..      LSLS     r2,r2,#31
        0x00004d0c:    0f52        R.      LSRS     r2,r2,#29
        0x00004d0e:    23fb        .#      MOVS     r3,#0xfb
        0x00004d10:    4018        .@      ANDS     r0,r0,r3
        0x00004d12:    1880        ..      ADDS     r0,r0,r2
        0x00004d14:    7008        .p      STRB     r0,[r1,#0]
        0x00004d16:    985c        \.      LDR      r0,[sp,#0x170]
        0x00004d18:    7801        .x      LDRB     r1,[r0,#0]
        0x00004d1a:    2003        .       MOVS     r0,#3
        0x00004d1c:    4001        .@      ANDS     r1,r1,r0
        0x00004d1e:    2000        .       MOVS     r0,#0
        0x00004d20:    2901        .)      CMP      r1,#1
        0x00004d22:    9004        ..      STR      r0,[sp,#0x10]
        0x00004d24:    d109        ..      BNE      0x4d3a ; 0x4d3a
        0x00004d26:    e7ff        ..      B        0x4d28 ; 0x4d28
        0x00004d28:    9860        `.      LDR      r0,[sp,#0x180]
        0x00004d2a:    7800        .x      LDRB     r0,[r0,#0]
        0x00004d2c:    0680        ..      LSLS     r0,r0,#26
        0x00004d2e:    0f80        ..      LSRS     r0,r0,#30
        0x00004d30:    1e80        ..      SUBS     r0,r0,#2
        0x00004d32:    4241        AB      RSBS     r1,r0,#0
        0x00004d34:    4148        HA      ADCS     r0,r0,r1
        0x00004d36:    9004        ..      STR      r0,[sp,#0x10]
        0x00004d38:    e7ff        ..      B        0x4d3a ; 0x4d3a
        0x00004d3a:    9a04        ..      LDR      r2,[sp,#0x10]
        0x00004d3c:    995f        _.      LDR      r1,[sp,#0x17c]
        0x00004d3e:    7808        .x      LDRB     r0,[r1,#0]
        0x00004d40:    07d2        ..      LSLS     r2,r2,#31
        0x00004d42:    0e92        ..      LSRS     r2,r2,#26
        0x00004d44:    24df        .$      MOVS     r4,#0xdf
        0x00004d46:    4020         @      ANDS     r0,r0,r4
        0x00004d48:    1880        ..      ADDS     r0,r0,r2
        0x00004d4a:    7008        .p      STRB     r0,[r1,#0]
        0x00004d4c:    985b        [.      LDR      r0,[sp,#0x16c]
        0x00004d4e:    7801        .x      LDRB     r1,[r0,#0]
        0x00004d50:    2003        .       MOVS     r0,#3
        0x00004d52:    4001        .@      ANDS     r1,r1,r0
        0x00004d54:    1e4b        K.      SUBS     r3,r1,#1
        0x00004d56:    4259        YB      RSBS     r1,r3,#0
        0x00004d58:    414b        KA      ADCS     r3,r3,r1
        0x00004d5a:    9a5f        _.      LDR      r2,[sp,#0x17c]
        0x00004d5c:    7811        .x      LDRB     r1,[r2,#0]
        0x00004d5e:    019b        ..      LSLS     r3,r3,#6
        0x00004d60:    25bf        .%      MOVS     r5,#0xbf
        0x00004d62:    4029        )@      ANDS     r1,r1,r5
        0x00004d64:    18c9        ..      ADDS     r1,r1,r3
        0x00004d66:    7011        .p      STRB     r1,[r2,#0]
        0x00004d68:    995c        \.      LDR      r1,[sp,#0x170]
        0x00004d6a:    78c9        .x      LDRB     r1,[r1,#3]
        0x00004d6c:    0989        ..      LSRS     r1,r1,#6
        0x00004d6e:    1e8b        ..      SUBS     r3,r1,#2
        0x00004d70:    4259        YB      RSBS     r1,r3,#0
        0x00004d72:    414b        KA      ADCS     r3,r3,r1
        0x00004d74:    9a5f        _.      LDR      r2,[sp,#0x17c]
        0x00004d76:    7851        Qx      LDRB     r1,[r2,#1]
        0x00004d78:    00db        ..      LSLS     r3,r3,#3
        0x00004d7a:    25f7        .%      MOVS     r5,#0xf7
        0x00004d7c:    4029        )@      ANDS     r1,r1,r5
        0x00004d7e:    18c9        ..      ADDS     r1,r1,r3
        0x00004d80:    7051        Qp      STRB     r1,[r2,#1]
        0x00004d82:    9959        Y.      LDR      r1,[sp,#0x164]
        0x00004d84:    7849        Ix      LDRB     r1,[r1,#1]
        0x00004d86:    4001        .@      ANDS     r1,r1,r0
        0x00004d88:    1e4b        K.      SUBS     r3,r1,#1
        0x00004d8a:    4259        YB      RSBS     r1,r3,#0
        0x00004d8c:    414b        KA      ADCS     r3,r3,r1
        0x00004d8e:    9a5f        _.      LDR      r2,[sp,#0x17c]
        0x00004d90:    7851        Qx      LDRB     r1,[r2,#1]
        0x00004d92:    011b        ..      LSLS     r3,r3,#4
        0x00004d94:    25ef        .%      MOVS     r5,#0xef
        0x00004d96:    4029        )@      ANDS     r1,r1,r5
        0x00004d98:    18c9        ..      ADDS     r1,r1,r3
        0x00004d9a:    7051        Qp      STRB     r1,[r2,#1]
        0x00004d9c:    995c        \.      LDR      r1,[sp,#0x170]
        0x00004d9e:    7849        Ix      LDRB     r1,[r1,#1]
        0x00004da0:    4001        .@      ANDS     r1,r1,r0
        0x00004da2:    1e4b        K.      SUBS     r3,r1,#1
        0x00004da4:    4259        YB      RSBS     r1,r3,#0
        0x00004da6:    414b        KA      ADCS     r3,r3,r1
        0x00004da8:    9a5f        _.      LDR      r2,[sp,#0x17c]
        0x00004daa:    7851        Qx      LDRB     r1,[r2,#1]
        0x00004dac:    015b        [.      LSLS     r3,r3,#5
        0x00004dae:    4021        !@      ANDS     r1,r1,r4
        0x00004db0:    18c9        ..      ADDS     r1,r1,r3
        0x00004db2:    7051        Qp      STRB     r1,[r2,#1]
        0x00004db4:    995c        \.      LDR      r1,[sp,#0x170]
        0x00004db6:    7809        .x      LDRB     r1,[r1,#0]
        0x00004db8:    4001        .@      ANDS     r1,r1,r0
        0x00004dba:    2000        .       MOVS     r0,#0
        0x00004dbc:    2902        .)      CMP      r1,#2
        0x00004dbe:    9003        ..      STR      r0,[sp,#0xc]
        0x00004dc0:    d146        F.      BNE      0x4e50 ; 0x4e50
        0x00004dc2:    e7ff        ..      B        0x4dc4 ; 0x4dc4
        0x00004dc4:    985c        \.      LDR      r0,[sp,#0x170]
        0x00004dc6:    7800        .x      LDRB     r0,[r0,#0]
        0x00004dc8:    0680        ..      LSLS     r0,r0,#26
        0x00004dca:    0f81        ..      LSRS     r1,r0,#30
        0x00004dcc:    2000        .       MOVS     r0,#0
        0x00004dce:    2902        .)      CMP      r1,#2
        0x00004dd0:    9003        ..      STR      r0,[sp,#0xc]
        0x00004dd2:    d13d        =.      BNE      0x4e50 ; 0x4e50
        0x00004dd4:    e7ff        ..      B        0x4dd6 ; 0x4dd6
        0x00004dd6:    985c        \.      LDR      r0,[sp,#0x170]
        0x00004dd8:    7800        .x      LDRB     r0,[r0,#0]
        0x00004dda:    0981        ..      LSRS     r1,r0,#6
        0x00004ddc:    2000        .       MOVS     r0,#0
        0x00004dde:    2902        .)      CMP      r1,#2
        0x00004de0:    9003        ..      STR      r0,[sp,#0xc]
        0x00004de2:    d135        5.      BNE      0x4e50 ; 0x4e50
        0x00004de4:    e7ff        ..      B        0x4de6 ; 0x4de6
        0x00004de6:    985c        \.      LDR      r0,[sp,#0x170]
        0x00004de8:    7840        @x      LDRB     r0,[r0,#1]
        0x00004dea:    0981        ..      LSRS     r1,r0,#6
        0x00004dec:    2000        .       MOVS     r0,#0
        0x00004dee:    2902        .)      CMP      r1,#2
        0x00004df0:    9003        ..      STR      r0,[sp,#0xc]
        0x00004df2:    d12d        -.      BNE      0x4e50 ; 0x4e50
        0x00004df4:    e7ff        ..      B        0x4df6 ; 0x4df6
        0x00004df6:    985c        \.      LDR      r0,[sp,#0x170]
        0x00004df8:    7881        .x      LDRB     r1,[r0,#2]
        0x00004dfa:    2003        .       MOVS     r0,#3
        0x00004dfc:    4001        .@      ANDS     r1,r1,r0
        0x00004dfe:    2000        .       MOVS     r0,#0
        0x00004e00:    2902        .)      CMP      r1,#2
        0x00004e02:    9003        ..      STR      r0,[sp,#0xc]
        0x00004e04:    d124        $.      BNE      0x4e50 ; 0x4e50
        0x00004e06:    e7ff        ..      B        0x4e08 ; 0x4e08
        0x00004e08:    985c        \.      LDR      r0,[sp,#0x170]
        0x00004e0a:    7841        Ax      LDRB     r1,[r0,#1]
        0x00004e0c:    2003        .       MOVS     r0,#3
        0x00004e0e:    4001        .@      ANDS     r1,r1,r0
        0x00004e10:    2000        .       MOVS     r0,#0
        0x00004e12:    2901        .)      CMP      r1,#1
        0x00004e14:    9003        ..      STR      r0,[sp,#0xc]
        0x00004e16:    d11b        ..      BNE      0x4e50 ; 0x4e50
        0x00004e18:    e7ff        ..      B        0x4e1a ; 0x4e1a
        0x00004e1a:    9860        `.      LDR      r0,[sp,#0x180]
        0x00004e1c:    7800        .x      LDRB     r0,[r0,#0]
        0x00004e1e:    0680        ..      LSLS     r0,r0,#26
        0x00004e20:    0f81        ..      LSRS     r1,r0,#30
        0x00004e22:    2000        .       MOVS     r0,#0
        0x00004e24:    2901        .)      CMP      r1,#1
        0x00004e26:    9003        ..      STR      r0,[sp,#0xc]
        0x00004e28:    d112        ..      BNE      0x4e50 ; 0x4e50
        0x00004e2a:    e7ff        ..      B        0x4e2c ; 0x4e2c
        0x00004e2c:    985c        \.      LDR      r0,[sp,#0x170]
        0x00004e2e:    7800        .x      LDRB     r0,[r0,#0]
        0x00004e30:    0700        ..      LSLS     r0,r0,#28
        0x00004e32:    0f81        ..      LSRS     r1,r0,#30
        0x00004e34:    2000        .       MOVS     r0,#0
        0x00004e36:    2902        .)      CMP      r1,#2
        0x00004e38:    9003        ..      STR      r0,[sp,#0xc]
        0x00004e3a:    d109        ..      BNE      0x4e50 ; 0x4e50
        0x00004e3c:    e7ff        ..      B        0x4e3e ; 0x4e3e
        0x00004e3e:    9860        `.      LDR      r0,[sp,#0x180]
        0x00004e40:    7800        .x      LDRB     r0,[r0,#0]
        0x00004e42:    2103        .!      MOVS     r1,#3
        0x00004e44:    4008        .@      ANDS     r0,r0,r1
        0x00004e46:    1e40        @.      SUBS     r0,r0,#1
        0x00004e48:    4241        AB      RSBS     r1,r0,#0
        0x00004e4a:    4148        HA      ADCS     r0,r0,r1
        0x00004e4c:    9003        ..      STR      r0,[sp,#0xc]
        0x00004e4e:    e7ff        ..      B        0x4e50 ; 0x4e50
        0x00004e50:    9a03        ..      LDR      r2,[sp,#0xc]
        0x00004e52:    995f        _.      LDR      r1,[sp,#0x17c]
        0x00004e54:    7848        Hx      LDRB     r0,[r1,#1]
        0x00004e56:    07d2        ..      LSLS     r2,r2,#31
        0x00004e58:    0e52        R.      LSRS     r2,r2,#25
        0x00004e5a:    23bf        .#      MOVS     r3,#0xbf
        0x00004e5c:    4018        .@      ANDS     r0,r0,r3
        0x00004e5e:    1880        ..      ADDS     r0,r0,r2
        0x00004e60:    7048        Hp      STRB     r0,[r1,#1]
        0x00004e62:    985c        \.      LDR      r0,[sp,#0x170]
        0x00004e64:    7900        .y      LDRB     r0,[r0,#4]
        0x00004e66:    0680        ..      LSLS     r0,r0,#26
        0x00004e68:    0f81        ..      LSRS     r1,r0,#30
        0x00004e6a:    2000        .       MOVS     r0,#0
        0x00004e6c:    2902        .)      CMP      r1,#2
        0x00004e6e:    9002        ..      STR      r0,[sp,#8]
        0x00004e70:    d109        ..      BNE      0x4e86 ; 0x4e86
        0x00004e72:    e7ff        ..      B        0x4e74 ; 0x4e74
        0x00004e74:    985c        \.      LDR      r0,[sp,#0x170]
        0x00004e76:    7900        .y      LDRB     r0,[r0,#4]
        0x00004e78:    2103        .!      MOVS     r1,#3
        0x00004e7a:    4008        .@      ANDS     r0,r0,r1
        0x00004e7c:    1e40        @.      SUBS     r0,r0,#1
        0x00004e7e:    4241        AB      RSBS     r1,r0,#0
        0x00004e80:    4148        HA      ADCS     r0,r0,r1
        0x00004e82:    9002        ..      STR      r0,[sp,#8]
        0x00004e84:    e7ff        ..      B        0x4e86 ; 0x4e86
        0x00004e86:    9a02        ..      LDR      r2,[sp,#8]
        0x00004e88:    995f        _.      LDR      r1,[sp,#0x17c]
        0x00004e8a:    7888        .x      LDRB     r0,[r1,#2]
        0x00004e8c:    07d2        ..      LSLS     r2,r2,#31
        0x00004e8e:    0f92        ..      LSRS     r2,r2,#30
        0x00004e90:    23fd        .#      MOVS     r3,#0xfd
        0x00004e92:    4018        .@      ANDS     r0,r0,r3
        0x00004e94:    1880        ..      ADDS     r0,r0,r2
        0x00004e96:    7088        .p      STRB     r0,[r1,#2]
        0x00004e98:    985c        \.      LDR      r0,[sp,#0x170]
        0x00004e9a:    7900        .y      LDRB     r0,[r0,#4]
        0x00004e9c:    2103        .!      MOVS     r1,#3
        0x00004e9e:    4008        .@      ANDS     r0,r0,r1
        0x00004ea0:    1e82        ..      SUBS     r2,r0,#2
        0x00004ea2:    4250        PB      RSBS     r0,r2,#0
        0x00004ea4:    4142        BA      ADCS     r2,r2,r0
        0x00004ea6:    995f        _.      LDR      r1,[sp,#0x17c]
        0x00004ea8:    7888        .x      LDRB     r0,[r1,#2]
        0x00004eaa:    0092        ..      LSLS     r2,r2,#2
        0x00004eac:    23fb        .#      MOVS     r3,#0xfb
        0x00004eae:    4018        .@      ANDS     r0,r0,r3
        0x00004eb0:    1880        ..      ADDS     r0,r0,r2
        0x00004eb2:    7088        .p      STRB     r0,[r1,#2]
        0x00004eb4:    995f        _.      LDR      r1,[sp,#0x17c]
        0x00004eb6:    7888        .x      LDRB     r0,[r1,#2]
        0x00004eb8:    22ef        ."      MOVS     r2,#0xef
        0x00004eba:    4010        .@      ANDS     r0,r0,r2
        0x00004ebc:    7088        .p      STRB     r0,[r1,#2]
        0x00004ebe:    985c        \.      LDR      r0,[sp,#0x170]
        0x00004ec0:    78c0        .x      LDRB     r0,[r0,#3]
        0x00004ec2:    0981        ..      LSRS     r1,r0,#6
        0x00004ec4:    2000        .       MOVS     r0,#0
        0x00004ec6:    2902        .)      CMP      r1,#2
        0x00004ec8:    9001        ..      STR      r0,[sp,#4]
        0x00004eca:    d109        ..      BNE      0x4ee0 ; 0x4ee0
        0x00004ecc:    e7ff        ..      B        0x4ece ; 0x4ece
        0x00004ece:    985c        \.      LDR      r0,[sp,#0x170]
        0x00004ed0:    7900        .y      LDRB     r0,[r0,#4]
        0x00004ed2:    0700        ..      LSLS     r0,r0,#28
        0x00004ed4:    0f80        ..      LSRS     r0,r0,#30
        0x00004ed6:    1e80        ..      SUBS     r0,r0,#2
        0x00004ed8:    4241        AB      RSBS     r1,r0,#0
        0x00004eda:    4148        HA      ADCS     r0,r0,r1
        0x00004edc:    9001        ..      STR      r0,[sp,#4]
        0x00004ede:    e7ff        ..      B        0x4ee0 ; 0x4ee0
        0x00004ee0:    9a01        ..      LDR      r2,[sp,#4]
        0x00004ee2:    995f        _.      LDR      r1,[sp,#0x17c]
        0x00004ee4:    7888        .x      LDRB     r0,[r1,#2]
        0x00004ee6:    07d2        ..      LSLS     r2,r2,#31
        0x00004ee8:    0e52        R.      LSRS     r2,r2,#25
        0x00004eea:    23bf        .#      MOVS     r3,#0xbf
        0x00004eec:    4018        .@      ANDS     r0,r0,r3
        0x00004eee:    1880        ..      ADDS     r0,r0,r2
        0x00004ef0:    7088        .p      STRB     r0,[r1,#2]
        0x00004ef2:    985c        \.      LDR      r0,[sp,#0x170]
        0x00004ef4:    7840        @x      LDRB     r0,[r0,#1]
        0x00004ef6:    2103        .!      MOVS     r1,#3
        0x00004ef8:    4008        .@      ANDS     r0,r0,r1
        0x00004efa:    1e43        C.      SUBS     r3,r0,#1
        0x00004efc:    4258        XB      RSBS     r0,r3,#0
        0x00004efe:    4143        CA      ADCS     r3,r3,r0
        0x00004f00:    9a5f        _.      LDR      r2,[sp,#0x17c]
        0x00004f02:    78d0        .x      LDRB     r0,[r2,#3]
        0x00004f04:    005b        [.      LSLS     r3,r3,#1
        0x00004f06:    24fd        .$      MOVS     r4,#0xfd
        0x00004f08:    4020         @      ANDS     r0,r0,r4
        0x00004f0a:    18c0        ..      ADDS     r0,r0,r3
        0x00004f0c:    70d0        .p      STRB     r0,[r2,#3]
        0x00004f0e:    985c        \.      LDR      r0,[sp,#0x170]
        0x00004f10:    7840        @x      LDRB     r0,[r0,#1]
        0x00004f12:    4008        .@      ANDS     r0,r0,r1
        0x00004f14:    1e83        ..      SUBS     r3,r0,#2
        0x00004f16:    4258        XB      RSBS     r0,r3,#0
        0x00004f18:    4143        CA      ADCS     r3,r3,r0
        0x00004f1a:    9a5f        _.      LDR      r2,[sp,#0x17c]
        0x00004f1c:    78d0        .x      LDRB     r0,[r2,#3]
        0x00004f1e:    009b        ..      LSLS     r3,r3,#2
        0x00004f20:    24fb        .$      MOVS     r4,#0xfb
        0x00004f22:    4020         @      ANDS     r0,r0,r4
        0x00004f24:    18c0        ..      ADDS     r0,r0,r3
        0x00004f26:    70d0        .p      STRB     r0,[r2,#3]
        0x00004f28:    985c        \.      LDR      r0,[sp,#0x170]
        0x00004f2a:    7800        .x      LDRB     r0,[r0,#0]
        0x00004f2c:    4008        .@      ANDS     r0,r0,r1
        0x00004f2e:    1e83        ..      SUBS     r3,r0,#2
        0x00004f30:    4258        XB      RSBS     r0,r3,#0
        0x00004f32:    4143        CA      ADCS     r3,r3,r0
        0x00004f34:    9a5f        _.      LDR      r2,[sp,#0x17c]
        0x00004f36:    78d0        .x      LDRB     r0,[r2,#3]
        0x00004f38:    00db        ..      LSLS     r3,r3,#3
        0x00004f3a:    24f7        .$      MOVS     r4,#0xf7
        0x00004f3c:    4020         @      ANDS     r0,r0,r4
        0x00004f3e:    18c0        ..      ADDS     r0,r0,r3
        0x00004f40:    70d0        .p      STRB     r0,[r2,#3]
        0x00004f42:    985c        \.      LDR      r0,[sp,#0x170]
        0x00004f44:    7800        .x      LDRB     r0,[r0,#0]
        0x00004f46:    4008        .@      ANDS     r0,r0,r1
        0x00004f48:    1e42        B.      SUBS     r2,r0,#1
        0x00004f4a:    4250        PB      RSBS     r0,r2,#0
        0x00004f4c:    4142        BA      ADCS     r2,r2,r0
        0x00004f4e:    995f        _.      LDR      r1,[sp,#0x17c]
        0x00004f50:    78c8        .x      LDRB     r0,[r1,#3]
        0x00004f52:    0112        ..      LSLS     r2,r2,#4
        0x00004f54:    23ef        .#      MOVS     r3,#0xef
        0x00004f56:    4018        .@      ANDS     r0,r0,r3
        0x00004f58:    1880        ..      ADDS     r0,r0,r2
        0x00004f5a:    70c8        .p      STRB     r0,[r1,#3]
        0x00004f5c:    985b        [.      LDR      r0,[sp,#0x16c]
        0x00004f5e:    7880        .x      LDRB     r0,[r0,#2]
        0x00004f60:    0981        ..      LSRS     r1,r0,#6
        0x00004f62:    2000        .       MOVS     r0,#0
        0x00004f64:    2902        .)      CMP      r1,#2
        0x00004f66:    9000        ..      STR      r0,[sp,#0]
        0x00004f68:    d108        ..      BNE      0x4f7c ; 0x4f7c
        0x00004f6a:    e7ff        ..      B        0x4f6c ; 0x4f6c
        0x00004f6c:    985b        [.      LDR      r0,[sp,#0x16c]
        0x00004f6e:    78c0        .x      LDRB     r0,[r0,#3]
        0x00004f70:    0980        ..      LSRS     r0,r0,#6
        0x00004f72:    1e80        ..      SUBS     r0,r0,#2
        0x00004f74:    4241        AB      RSBS     r1,r0,#0
        0x00004f76:    4148        HA      ADCS     r0,r0,r1
        0x00004f78:    9000        ..      STR      r0,[sp,#0]
        0x00004f7a:    e7ff        ..      B        0x4f7c ; 0x4f7c
        0x00004f7c:    9a00        ..      LDR      r2,[sp,#0]
        0x00004f7e:    995f        _.      LDR      r1,[sp,#0x17c]
        0x00004f80:    78c8        .x      LDRB     r0,[r1,#3]
        0x00004f82:    07d2        ..      LSLS     r2,r2,#31
        0x00004f84:    0e92        ..      LSRS     r2,r2,#26
        0x00004f86:    23df        .#      MOVS     r3,#0xdf
        0x00004f88:    4018        .@      ANDS     r0,r0,r3
        0x00004f8a:    1880        ..      ADDS     r0,r0,r2
        0x00004f8c:    70c8        .p      STRB     r0,[r1,#3]
        0x00004f8e:    4903        .I      LDR      r1,[pc,#12] ; [0x4f9c] = 0x20000273
        0x00004f90:    2001        .       MOVS     r0,#1
        0x00004f92:    7008        .p      STRB     r0,[r1,#0]
        0x00004f94:    e000        ..      B        0x4f98 ; 0x4f98
        0x00004f96:    e7ff        ..      B        0x4f98 ; 0x4f98
        0x00004f98:    b063        c.      ADD      sp,sp,#0x18c
        0x00004f9a:    bdf0        ..      POP      {r4-r7,pc}
    $d
    __arm_cp.0_9
        0x00004f9c:    20000273    s..     DCD    536871539
    $t
    interlock_TCF_SM
        0x00004fa0:    b085        ..      SUB      sp,sp,#0x14
        0x00004fa2:    48a7        .H      LDR      r0,[pc,#668] ; [0x5240] = 0x200002a4
        0x00004fa4:    9004        ..      STR      r0,[sp,#0x10]
        0x00004fa6:    48a7        .H      LDR      r0,[pc,#668] ; [0x5244] = 0x2000028e
        0x00004fa8:    9003        ..      STR      r0,[sp,#0xc]
        0x00004faa:    48a7        .H      LDR      r0,[pc,#668] ; [0x5248] = 0x2000029f
        0x00004fac:    9002        ..      STR      r0,[sp,#8]
        0x00004fae:    48a7        .H      LDR      r0,[pc,#668] ; [0x524c] = 0x20000298
        0x00004fb0:    9001        ..      STR      r0,[sp,#4]
        0x00004fb2:    48a7        .H      LDR      r0,[pc,#668] ; [0x5250] = 0x20000275
        0x00004fb4:    7800        .x      LDRB     r0,[r0,#0]
        0x00004fb6:    9000        ..      STR      r0,[sp,#0]
        0x00004fb8:    2804        .(      CMP      r0,#4
        0x00004fba:    d900        ..      BLS      0x4fbe ; interlock_TCF_SM + 30
        0x00004fbc:    e13d        =.      B        0x523a ; interlock_TCF_SM + 666
        0x00004fbe:    9900        ..      LDR      r1,[sp,#0]
        0x00004fc0:    008a        ..      LSLS     r2,r1,#2
        0x00004fc2:    a001        ..      ADR      r0,{pc}+6 ; 0x4fc8
        0x00004fc4:    1880        ..      ADDS     r0,r0,r2
        0x00004fc6:    4687        .F      MOV      pc,r0
        0x00004fc8:    f000b808    ....    B.W      0x4fdc ; interlock_TCF_SM + 60
        0x00004fcc:    f000b851    ..Q.    B.W      0x5072 ; interlock_TCF_SM + 210
        0x00004fd0:    f000b86c    ..l.    B.W      0x50ac ; interlock_TCF_SM + 268
        0x00004fd4:    f000b8ac    ....    B.W      0x5130 ; interlock_TCF_SM + 400
        0x00004fd8:    f000b911    ....    B.W      0x51fe ; interlock_TCF_SM + 606
        0x00004fdc:    489f        .H      LDR      r0,[pc,#636] ; [0x525c] = 0x2000025c
        0x00004fde:    8800        ..      LDRH     r0,[r0,#0]
        0x00004fe0:    b350        P.      CBZ      r0,0x5038 ; interlock_TCF_SM + 152
        0x00004fe2:    e7ff        ..      B        0x4fe4 ; interlock_TCF_SM + 68
        0x00004fe4:    489b        .H      LDR      r0,[pc,#620] ; [0x5254] = 0x2000026a
        0x00004fe6:    8800        ..      LDRH     r0,[r0,#0]
        0x00004fe8:    bb28        (.      CBNZ     r0,0x5036 ; interlock_TCF_SM + 150
        0x00004fea:    e7ff        ..      B        0x4fec ; interlock_TCF_SM + 76
        0x00004fec:    9903        ..      LDR      r1,[sp,#0xc]
        0x00004fee:    7808        .x      LDRB     r0,[r1,#0]
        0x00004ff0:    09c2        ..      LSRS     r2,r0,#7
        0x00004ff2:    4253        SB      RSBS     r3,r2,#0
        0x00004ff4:    415a        ZA      ADCS     r2,r2,r3
        0x00004ff6:    01d2        ..      LSLS     r2,r2,#7
        0x00004ff8:    237f        .#      MOVS     r3,#0x7f
        0x00004ffa:    4018        .@      ANDS     r0,r0,r3
        0x00004ffc:    1880        ..      ADDS     r0,r0,r2
        0x00004ffe:    7008        .p      STRB     r0,[r1,#0]
        0x00005000:    9903        ..      LDR      r1,[sp,#0xc]
        0x00005002:    7848        Hx      LDRB     r0,[r1,#1]
        0x00005004:    2301        .#      MOVS     r3,#1
        0x00005006:    4602        .F      MOV      r2,r0
        0x00005008:    401a        .@      ANDS     r2,r2,r3
        0x0000500a:    4253        SB      RSBS     r3,r2,#0
        0x0000500c:    415a        ZA      ADCS     r2,r2,r3
        0x0000500e:    23fe        .#      MOVS     r3,#0xfe
        0x00005010:    4018        .@      ANDS     r0,r0,r3
        0x00005012:    1880        ..      ADDS     r0,r0,r2
        0x00005014:    7048        Hp      STRB     r0,[r1,#1]
        0x00005016:    9903        ..      LDR      r1,[sp,#0xc]
        0x00005018:    7848        Hx      LDRB     r0,[r1,#1]
        0x0000501a:    0782        ..      LSLS     r2,r0,#30
        0x0000501c:    0fd2        ..      LSRS     r2,r2,#31
        0x0000501e:    4253        SB      RSBS     r3,r2,#0
        0x00005020:    415a        ZA      ADCS     r2,r2,r3
        0x00005022:    0052        R.      LSLS     r2,r2,#1
        0x00005024:    23fd        .#      MOVS     r3,#0xfd
        0x00005026:    4018        .@      ANDS     r0,r0,r3
        0x00005028:    1880        ..      ADDS     r0,r0,r2
        0x0000502a:    7048        Hp      STRB     r0,[r1,#1]
        0x0000502c:    4989        .I      LDR      r1,[pc,#548] ; [0x5254] = 0x2000026a
        0x0000502e:    f24030e8    @..0    MOVW     r0,#0x3e8
        0x00005032:    8008        ..      STRH     r0,[r1,#0]
        0x00005034:    e7ff        ..      B        0x5036 ; interlock_TCF_SM + 150
        0x00005036:    e01b        ..      B        0x5070 ; interlock_TCF_SM + 208
        0x00005038:    9804        ..      LDR      r0,[sp,#0x10]
        0x0000503a:    7800        .x      LDRB     r0,[r0,#0]
        0x0000503c:    0680        ..      LSLS     r0,r0,#26
        0x0000503e:    0f80        ..      LSRS     r0,r0,#30
        0x00005040:    2801        .(      CMP      r0,#1
        0x00005042:    d113        ..      BNE      0x506c ; interlock_TCF_SM + 204
        0x00005044:    e7ff        ..      B        0x5046 ; interlock_TCF_SM + 166
        0x00005046:    9903        ..      LDR      r1,[sp,#0xc]
        0x00005048:    7808        .x      LDRB     r0,[r1,#0]
        0x0000504a:    227f        ."      MOVS     r2,#0x7f
        0x0000504c:    4010        .@      ANDS     r0,r0,r2
        0x0000504e:    7008        .p      STRB     r0,[r1,#0]
        0x00005050:    9903        ..      LDR      r1,[sp,#0xc]
        0x00005052:    7848        Hx      LDRB     r0,[r1,#1]
        0x00005054:    22fe        ."      MOVS     r2,#0xfe
        0x00005056:    4010        .@      ANDS     r0,r0,r2
        0x00005058:    7048        Hp      STRB     r0,[r1,#1]
        0x0000505a:    9903        ..      LDR      r1,[sp,#0xc]
        0x0000505c:    7848        Hx      LDRB     r0,[r1,#1]
        0x0000505e:    22fd        ."      MOVS     r2,#0xfd
        0x00005060:    4010        .@      ANDS     r0,r0,r2
        0x00005062:    7048        Hp      STRB     r0,[r1,#1]
        0x00005064:    497a        zI      LDR      r1,[pc,#488] ; [0x5250] = 0x20000275
        0x00005066:    2001        .       MOVS     r0,#1
        0x00005068:    7008        .p      STRB     r0,[r1,#0]
        0x0000506a:    e000        ..      B        0x506e ; interlock_TCF_SM + 206
        0x0000506c:    e7ff        ..      B        0x506e ; interlock_TCF_SM + 206
        0x0000506e:    e7ff        ..      B        0x5070 ; interlock_TCF_SM + 208
        0x00005070:    e0e4        ..      B        0x523c ; interlock_TCF_SM + 668
        0x00005072:    9804        ..      LDR      r0,[sp,#0x10]
        0x00005074:    7800        .x      LDRB     r0,[r0,#0]
        0x00005076:    0680        ..      LSLS     r0,r0,#26
        0x00005078:    0f80        ..      LSRS     r0,r0,#30
        0x0000507a:    2802        .(      CMP      r0,#2
        0x0000507c:    d115        ..      BNE      0x50aa ; interlock_TCF_SM + 266
        0x0000507e:    e7ff        ..      B        0x5080 ; interlock_TCF_SM + 224
        0x00005080:    9802        ..      LDR      r0,[sp,#8]
        0x00005082:    7800        .x      LDRB     r0,[r0,#0]
        0x00005084:    2103        .!      MOVS     r1,#3
        0x00005086:    4008        .@      ANDS     r0,r0,r1
        0x00005088:    2802        .(      CMP      r0,#2
        0x0000508a:    d10e        ..      BNE      0x50aa ; interlock_TCF_SM + 266
        0x0000508c:    e7ff        ..      B        0x508e ; interlock_TCF_SM + 238
        0x0000508e:    9903        ..      LDR      r1,[sp,#0xc]
        0x00005090:    7808        .x      LDRB     r0,[r1,#0]
        0x00005092:    2280        ."      MOVS     r2,#0x80
        0x00005094:    4310        .C      ORRS     r0,r0,r2
        0x00005096:    7008        .p      STRB     r0,[r1,#0]
        0x00005098:    9903        ..      LDR      r1,[sp,#0xc]
        0x0000509a:    7848        Hx      LDRB     r0,[r1,#1]
        0x0000509c:    2201        ."      MOVS     r2,#1
        0x0000509e:    4310        .C      ORRS     r0,r0,r2
        0x000050a0:    7048        Hp      STRB     r0,[r1,#1]
        0x000050a2:    496b        kI      LDR      r1,[pc,#428] ; [0x5250] = 0x20000275
        0x000050a4:    2002        .       MOVS     r0,#2
        0x000050a6:    7008        .p      STRB     r0,[r1,#0]
        0x000050a8:    e7ff        ..      B        0x50aa ; interlock_TCF_SM + 266
        0x000050aa:    e0c7        ..      B        0x523c ; interlock_TCF_SM + 668
        0x000050ac:    9804        ..      LDR      r0,[sp,#0x10]
        0x000050ae:    7800        .x      LDRB     r0,[r0,#0]
        0x000050b0:    0680        ..      LSLS     r0,r0,#26
        0x000050b2:    0f80        ..      LSRS     r0,r0,#30
        0x000050b4:    2802        .(      CMP      r0,#2
        0x000050b6:    d115        ..      BNE      0x50e4 ; interlock_TCF_SM + 324
        0x000050b8:    e7ff        ..      B        0x50ba ; interlock_TCF_SM + 282
        0x000050ba:    9802        ..      LDR      r0,[sp,#8]
        0x000050bc:    7800        .x      LDRB     r0,[r0,#0]
        0x000050be:    2103        .!      MOVS     r1,#3
        0x000050c0:    4008        .@      ANDS     r0,r0,r1
        0x000050c2:    2801        .(      CMP      r0,#1
        0x000050c4:    d10e        ..      BNE      0x50e4 ; interlock_TCF_SM + 324
        0x000050c6:    e7ff        ..      B        0x50c8 ; interlock_TCF_SM + 296
        0x000050c8:    9903        ..      LDR      r1,[sp,#0xc]
        0x000050ca:    7808        .x      LDRB     r0,[r1,#0]
        0x000050cc:    227f        ."      MOVS     r2,#0x7f
        0x000050ce:    4010        .@      ANDS     r0,r0,r2
        0x000050d0:    7008        .p      STRB     r0,[r1,#0]
        0x000050d2:    9903        ..      LDR      r1,[sp,#0xc]
        0x000050d4:    7848        Hx      LDRB     r0,[r1,#1]
        0x000050d6:    22fe        ."      MOVS     r2,#0xfe
        0x000050d8:    4010        .@      ANDS     r0,r0,r2
        0x000050da:    7048        Hp      STRB     r0,[r1,#1]
        0x000050dc:    495c        \I      LDR      r1,[pc,#368] ; [0x5250] = 0x20000275
        0x000050de:    2003        .       MOVS     r0,#3
        0x000050e0:    7008        .p      STRB     r0,[r1,#0]
        0x000050e2:    e7ff        ..      B        0x50e4 ; interlock_TCF_SM + 324
        0x000050e4:    9802        ..      LDR      r0,[sp,#8]
        0x000050e6:    78c0        .x      LDRB     r0,[r0,#3]
        0x000050e8:    0700        ..      LSLS     r0,r0,#28
        0x000050ea:    0f80        ..      LSRS     r0,r0,#30
        0x000050ec:    2802        .(      CMP      r0,#2
        0x000050ee:    d10a        ..      BNE      0x5106 ; interlock_TCF_SM + 358
        0x000050f0:    e7ff        ..      B        0x50f2 ; interlock_TCF_SM + 338
        0x000050f2:    9802        ..      LDR      r0,[sp,#8]
        0x000050f4:    7880        .x      LDRB     r0,[r0,#2]
        0x000050f6:    0980        ..      LSRS     r0,r0,#6
        0x000050f8:    2802        .(      CMP      r0,#2
        0x000050fa:    d104        ..      BNE      0x5106 ; interlock_TCF_SM + 358
        0x000050fc:    e7ff        ..      B        0x50fe ; interlock_TCF_SM + 350
        0x000050fe:    4956        VI      LDR      r1,[pc,#344] ; [0x5258] = 0x20000274
        0x00005100:    2001        .       MOVS     r0,#1
        0x00005102:    7008        .p      STRB     r0,[r1,#0]
        0x00005104:    e7ff        ..      B        0x5106 ; interlock_TCF_SM + 358
        0x00005106:    9801        ..      LDR      r0,[sp,#4]
        0x00005108:    78c0        .x      LDRB     r0,[r0,#3]
        0x0000510a:    0680        ..      LSLS     r0,r0,#26
        0x0000510c:    0f80        ..      LSRS     r0,r0,#30
        0x0000510e:    2802        .(      CMP      r0,#2
        0x00005110:    d10d        ..      BNE      0x512e ; interlock_TCF_SM + 398
        0x00005112:    e7ff        ..      B        0x5114 ; interlock_TCF_SM + 372
        0x00005114:    4850        PH      LDR      r0,[pc,#320] ; [0x5258] = 0x20000274
        0x00005116:    7800        .x      LDRB     r0,[r0,#0]
        0x00005118:    b148        H.      CBZ      r0,0x512e ; interlock_TCF_SM + 398
        0x0000511a:    e7ff        ..      B        0x511c ; interlock_TCF_SM + 380
        0x0000511c:    494f        OI      LDR      r1,[pc,#316] ; [0x525c] = 0x2000025c
        0x0000511e:    2078        x       MOVS     r0,#0x78
        0x00005120:    8008        ..      STRH     r0,[r1,#0]
        0x00005122:    494d        MI      LDR      r1,[pc,#308] ; [0x5258] = 0x20000274
        0x00005124:    2000        .       MOVS     r0,#0
        0x00005126:    7008        .p      STRB     r0,[r1,#0]
        0x00005128:    4949        II      LDR      r1,[pc,#292] ; [0x5250] = 0x20000275
        0x0000512a:    7008        .p      STRB     r0,[r1,#0]
        0x0000512c:    e7ff        ..      B        0x512e ; interlock_TCF_SM + 398
        0x0000512e:    e085        ..      B        0x523c ; interlock_TCF_SM + 668
        0x00005130:    9804        ..      LDR      r0,[sp,#0x10]
        0x00005132:    7800        .x      LDRB     r0,[r0,#0]
        0x00005134:    0680        ..      LSLS     r0,r0,#26
        0x00005136:    0f80        ..      LSRS     r0,r0,#30
        0x00005138:    2802        .(      CMP      r0,#2
        0x0000513a:    d14b        K.      BNE      0x51d4 ; interlock_TCF_SM + 564
        0x0000513c:    e7ff        ..      B        0x513e ; interlock_TCF_SM + 414
        0x0000513e:    9802        ..      LDR      r0,[sp,#8]
        0x00005140:    7800        .x      LDRB     r0,[r0,#0]
        0x00005142:    2103        .!      MOVS     r1,#3
        0x00005144:    4008        .@      ANDS     r0,r0,r1
        0x00005146:    2802        .(      CMP      r0,#2
        0x00005148:    d144        D.      BNE      0x51d4 ; interlock_TCF_SM + 564
        0x0000514a:    e7ff        ..      B        0x514c ; interlock_TCF_SM + 428
        0x0000514c:    4841        AH      LDR      r0,[pc,#260] ; [0x5254] = 0x2000026a
        0x0000514e:    8800        ..      LDRH     r0,[r0,#0]
        0x00005150:    b9d0        ..      CBNZ     r0,0x5188 ; interlock_TCF_SM + 488
        0x00005152:    e7ff        ..      B        0x5154 ; interlock_TCF_SM + 436
        0x00005154:    9903        ..      LDR      r1,[sp,#0xc]
        0x00005156:    7808        .x      LDRB     r0,[r1,#0]
        0x00005158:    09c2        ..      LSRS     r2,r0,#7
        0x0000515a:    4253        SB      RSBS     r3,r2,#0
        0x0000515c:    415a        ZA      ADCS     r2,r2,r3
        0x0000515e:    01d2        ..      LSLS     r2,r2,#7
        0x00005160:    237f        .#      MOVS     r3,#0x7f
        0x00005162:    4018        .@      ANDS     r0,r0,r3
        0x00005164:    1880        ..      ADDS     r0,r0,r2
        0x00005166:    7008        .p      STRB     r0,[r1,#0]
        0x00005168:    9903        ..      LDR      r1,[sp,#0xc]
        0x0000516a:    7848        Hx      LDRB     r0,[r1,#1]
        0x0000516c:    2301        .#      MOVS     r3,#1
        0x0000516e:    4602        .F      MOV      r2,r0
        0x00005170:    401a        .@      ANDS     r2,r2,r3
        0x00005172:    4253        SB      RSBS     r3,r2,#0
        0x00005174:    415a        ZA      ADCS     r2,r2,r3
        0x00005176:    23fe        .#      MOVS     r3,#0xfe
        0x00005178:    4018        .@      ANDS     r0,r0,r3
        0x0000517a:    1880        ..      ADDS     r0,r0,r2
        0x0000517c:    7048        Hp      STRB     r0,[r1,#1]
        0x0000517e:    49f3        .I      LDR      r1,[pc,#972] ; [0x554c] = 0x2000026a
        0x00005180:    f24030e8    @..0    MOVW     r0,#0x3e8
        0x00005184:    8008        ..      STRH     r0,[r1,#0]
        0x00005186:    e7ff        ..      B        0x5188 ; interlock_TCF_SM + 488
        0x00005188:    9802        ..      LDR      r0,[sp,#8]
        0x0000518a:    78c0        .x      LDRB     r0,[r0,#3]
        0x0000518c:    0700        ..      LSLS     r0,r0,#28
        0x0000518e:    0f80        ..      LSRS     r0,r0,#30
        0x00005190:    2802        .(      CMP      r0,#2
        0x00005192:    d10a        ..      BNE      0x51aa ; interlock_TCF_SM + 522
        0x00005194:    e7ff        ..      B        0x5196 ; interlock_TCF_SM + 502
        0x00005196:    9802        ..      LDR      r0,[sp,#8]
        0x00005198:    7880        .x      LDRB     r0,[r0,#2]
        0x0000519a:    0980        ..      LSRS     r0,r0,#6
        0x0000519c:    2802        .(      CMP      r0,#2
        0x0000519e:    d104        ..      BNE      0x51aa ; interlock_TCF_SM + 522
        0x000051a0:    e7ff        ..      B        0x51a2 ; interlock_TCF_SM + 514
        0x000051a2:    492d        -I      LDR      r1,[pc,#180] ; [0x5258] = 0x20000274
        0x000051a4:    2001        .       MOVS     r0,#1
        0x000051a6:    7008        .p      STRB     r0,[r1,#0]
        0x000051a8:    e7ff        ..      B        0x51aa ; interlock_TCF_SM + 522
        0x000051aa:    9801        ..      LDR      r0,[sp,#4]
        0x000051ac:    78c0        .x      LDRB     r0,[r0,#3]
        0x000051ae:    0680        ..      LSLS     r0,r0,#26
        0x000051b0:    0f80        ..      LSRS     r0,r0,#30
        0x000051b2:    2802        .(      CMP      r0,#2
        0x000051b4:    d10d        ..      BNE      0x51d2 ; interlock_TCF_SM + 562
        0x000051b6:    e7ff        ..      B        0x51b8 ; interlock_TCF_SM + 536
        0x000051b8:    4827        'H      LDR      r0,[pc,#156] ; [0x5258] = 0x20000274
        0x000051ba:    7800        .x      LDRB     r0,[r0,#0]
        0x000051bc:    b148        H.      CBZ      r0,0x51d2 ; interlock_TCF_SM + 562
        0x000051be:    e7ff        ..      B        0x51c0 ; interlock_TCF_SM + 544
        0x000051c0:    49e4        .I      LDR      r1,[pc,#912] ; [0x5554] = 0x2000025c
        0x000051c2:    2078        x       MOVS     r0,#0x78
        0x000051c4:    8008        ..      STRH     r0,[r1,#0]
        0x000051c6:    4924        $I      LDR      r1,[pc,#144] ; [0x5258] = 0x20000274
        0x000051c8:    2000        .       MOVS     r0,#0
        0x000051ca:    7008        .p      STRB     r0,[r1,#0]
        0x000051cc:    4920         I      LDR      r1,[pc,#128] ; [0x5250] = 0x20000275
        0x000051ce:    7008        .p      STRB     r0,[r1,#0]
        0x000051d0:    e7ff        ..      B        0x51d2 ; interlock_TCF_SM + 562
        0x000051d2:    e013        ..      B        0x51fc ; interlock_TCF_SM + 604
        0x000051d4:    9804        ..      LDR      r0,[sp,#0x10]
        0x000051d6:    7800        .x      LDRB     r0,[r0,#0]
        0x000051d8:    0680        ..      LSLS     r0,r0,#26
        0x000051da:    0f80        ..      LSRS     r0,r0,#30
        0x000051dc:    2801        .(      CMP      r0,#1
        0x000051de:    d10b        ..      BNE      0x51f8 ; interlock_TCF_SM + 600
        0x000051e0:    e7ff        ..      B        0x51e2 ; interlock_TCF_SM + 578
        0x000051e2:    9802        ..      LDR      r0,[sp,#8]
        0x000051e4:    7800        .x      LDRB     r0,[r0,#0]
        0x000051e6:    2103        .!      MOVS     r1,#3
        0x000051e8:    4008        .@      ANDS     r0,r0,r1
        0x000051ea:    2802        .(      CMP      r0,#2
        0x000051ec:    d104        ..      BNE      0x51f8 ; interlock_TCF_SM + 600
        0x000051ee:    e7ff        ..      B        0x51f0 ; interlock_TCF_SM + 592
        0x000051f0:    4917        .I      LDR      r1,[pc,#92] ; [0x5250] = 0x20000275
        0x000051f2:    2004        .       MOVS     r0,#4
        0x000051f4:    7008        .p      STRB     r0,[r1,#0]
        0x000051f6:    e000        ..      B        0x51fa ; interlock_TCF_SM + 602
        0x000051f8:    e7ff        ..      B        0x51fa ; interlock_TCF_SM + 602
        0x000051fa:    e7ff        ..      B        0x51fc ; interlock_TCF_SM + 604
        0x000051fc:    e01e        ..      B        0x523c ; interlock_TCF_SM + 668
        0x000051fe:    9804        ..      LDR      r0,[sp,#0x10]
        0x00005200:    7800        .x      LDRB     r0,[r0,#0]
        0x00005202:    0680        ..      LSLS     r0,r0,#26
        0x00005204:    0f80        ..      LSRS     r0,r0,#30
        0x00005206:    2801        .(      CMP      r0,#1
        0x00005208:    d115        ..      BNE      0x5236 ; interlock_TCF_SM + 662
        0x0000520a:    e7ff        ..      B        0x520c ; interlock_TCF_SM + 620
        0x0000520c:    9802        ..      LDR      r0,[sp,#8]
        0x0000520e:    7800        .x      LDRB     r0,[r0,#0]
        0x00005210:    2103        .!      MOVS     r1,#3
        0x00005212:    4008        .@      ANDS     r0,r0,r1
        0x00005214:    2802        .(      CMP      r0,#2
        0x00005216:    d10e        ..      BNE      0x5236 ; interlock_TCF_SM + 662
        0x00005218:    e7ff        ..      B        0x521a ; interlock_TCF_SM + 634
        0x0000521a:    9903        ..      LDR      r1,[sp,#0xc]
        0x0000521c:    7808        .x      LDRB     r0,[r1,#0]
        0x0000521e:    227f        ."      MOVS     r2,#0x7f
        0x00005220:    4010        .@      ANDS     r0,r0,r2
        0x00005222:    7008        .p      STRB     r0,[r1,#0]
        0x00005224:    9903        ..      LDR      r1,[sp,#0xc]
        0x00005226:    7848        Hx      LDRB     r0,[r1,#1]
        0x00005228:    22fe        ."      MOVS     r2,#0xfe
        0x0000522a:    4010        .@      ANDS     r0,r0,r2
        0x0000522c:    7048        Hp      STRB     r0,[r1,#1]
        0x0000522e:    4908        .I      LDR      r1,[pc,#32] ; [0x5250] = 0x20000275
        0x00005230:    2000        .       MOVS     r0,#0
        0x00005232:    7008        .p      STRB     r0,[r1,#0]
        0x00005234:    e000        ..      B        0x5238 ; interlock_TCF_SM + 664
        0x00005236:    e7ff        ..      B        0x5238 ; interlock_TCF_SM + 664
        0x00005238:    e000        ..      B        0x523c ; interlock_TCF_SM + 668
        0x0000523a:    e7ff        ..      B        0x523c ; interlock_TCF_SM + 668
        0x0000523c:    b005        ..      ADD      sp,sp,#0x14
        0x0000523e:    4770        pG      BX       lr
    $d
    __arm_cp.2_0
        0x00005240:    200002a4    ...     DCD    536871588
    __arm_cp.2_1
        0x00005244:    2000028e    ...     DCD    536871566
    __arm_cp.2_2
        0x00005248:    2000029f    ...     DCD    536871583
    __arm_cp.2_3
        0x0000524c:    20000298    ...     DCD    536871576
    __arm_cp.2_4
        0x00005250:    20000275    u..     DCD    536871541
    __arm_cp.2_5
        0x00005254:    2000026a    j..     DCD    536871530
    __arm_cp.2_6
        0x00005258:    20000274    t..     DCD    536871540
    __arm_cp.2_7
        0x0000525c:    2000025c    \..     DCD    536871516
    $t
    interlock_TCF_SM_DL
        0x00005260:    b088        ..      SUB      sp,sp,#0x20
        0x00005262:    48b2        .H      LDR      r0,[pc,#712] ; [0x552c] = 0x200002a8
        0x00005264:    9007        ..      STR      r0,[sp,#0x1c]
        0x00005266:    48b2        .H      LDR      r0,[pc,#712] ; [0x5530] = 0x200002a4
        0x00005268:    9006        ..      STR      r0,[sp,#0x18]
        0x0000526a:    48b2        .H      LDR      r0,[pc,#712] ; [0x5534] = 0x2000028e
        0x0000526c:    9005        ..      STR      r0,[sp,#0x14]
        0x0000526e:    48b2        .H      LDR      r0,[pc,#712] ; [0x5538] = 0x2000027c
        0x00005270:    9004        ..      STR      r0,[sp,#0x10]
        0x00005272:    48b2        .H      LDR      r0,[pc,#712] ; [0x553c] = 0x20000288
        0x00005274:    9003        ..      STR      r0,[sp,#0xc]
        0x00005276:    48b2        .H      LDR      r0,[pc,#712] ; [0x5540] = 0x2000029f
        0x00005278:    9002        ..      STR      r0,[sp,#8]
        0x0000527a:    48b2        .H      LDR      r0,[pc,#712] ; [0x5544] = 0x20000298
        0x0000527c:    9001        ..      STR      r0,[sp,#4]
        0x0000527e:    48b2        .H      LDR      r0,[pc,#712] ; [0x5548] = 0x20000277
        0x00005280:    7800        .x      LDRB     r0,[r0,#0]
        0x00005282:    9000        ..      STR      r0,[sp,#0]
        0x00005284:    2804        .(      CMP      r0,#4
        0x00005286:    d900        ..      BLS      0x528a ; interlock_TCF_SM_DL + 42
        0x00005288:    e14d        M.      B        0x5526 ; interlock_TCF_SM_DL + 710
        0x0000528a:    9900        ..      LDR      r1,[sp,#0]
        0x0000528c:    008a        ..      LSLS     r2,r1,#2
        0x0000528e:    a001        ..      ADR      r0,{pc}+6 ; 0x5294
        0x00005290:    1880        ..      ADDS     r0,r0,r2
        0x00005292:    4687        .F      MOV      pc,r0
        0x00005294:    f000b808    ....    B.W      0x52a8 ; interlock_TCF_SM_DL + 72
        0x00005298:    f000b851    ..Q.    B.W      0x533e ; interlock_TCF_SM_DL + 222
        0x0000529c:    f000b872    ..r.    B.W      0x5384 ; interlock_TCF_SM_DL + 292
        0x000052a0:    f000b8b2    ....    B.W      0x5408 ; interlock_TCF_SM_DL + 424
        0x000052a4:    f000b91d    ....    B.W      0x54e2 ; interlock_TCF_SM_DL + 642
        0x000052a8:    48aa        .H      LDR      r0,[pc,#680] ; [0x5554] = 0x2000025c
        0x000052aa:    8800        ..      LDRH     r0,[r0,#0]
        0x000052ac:    b350        P.      CBZ      r0,0x5304 ; interlock_TCF_SM_DL + 164
        0x000052ae:    e7ff        ..      B        0x52b0 ; interlock_TCF_SM_DL + 80
        0x000052b0:    48a6        .H      LDR      r0,[pc,#664] ; [0x554c] = 0x2000026a
        0x000052b2:    8800        ..      LDRH     r0,[r0,#0]
        0x000052b4:    bb28        (.      CBNZ     r0,0x5302 ; interlock_TCF_SM_DL + 162
        0x000052b6:    e7ff        ..      B        0x52b8 ; interlock_TCF_SM_DL + 88
        0x000052b8:    9905        ..      LDR      r1,[sp,#0x14]
        0x000052ba:    7808        .x      LDRB     r0,[r1,#0]
        0x000052bc:    09c2        ..      LSRS     r2,r0,#7
        0x000052be:    4253        SB      RSBS     r3,r2,#0
        0x000052c0:    415a        ZA      ADCS     r2,r2,r3
        0x000052c2:    01d2        ..      LSLS     r2,r2,#7
        0x000052c4:    237f        .#      MOVS     r3,#0x7f
        0x000052c6:    4018        .@      ANDS     r0,r0,r3
        0x000052c8:    1880        ..      ADDS     r0,r0,r2
        0x000052ca:    7008        .p      STRB     r0,[r1,#0]
        0x000052cc:    9905        ..      LDR      r1,[sp,#0x14]
        0x000052ce:    7848        Hx      LDRB     r0,[r1,#1]
        0x000052d0:    2301        .#      MOVS     r3,#1
        0x000052d2:    4602        .F      MOV      r2,r0
        0x000052d4:    401a        .@      ANDS     r2,r2,r3
        0x000052d6:    4253        SB      RSBS     r3,r2,#0
        0x000052d8:    415a        ZA      ADCS     r2,r2,r3
        0x000052da:    23fe        .#      MOVS     r3,#0xfe
        0x000052dc:    4018        .@      ANDS     r0,r0,r3
        0x000052de:    1880        ..      ADDS     r0,r0,r2
        0x000052e0:    7048        Hp      STRB     r0,[r1,#1]
        0x000052e2:    9905        ..      LDR      r1,[sp,#0x14]
        0x000052e4:    7848        Hx      LDRB     r0,[r1,#1]
        0x000052e6:    0782        ..      LSLS     r2,r0,#30
        0x000052e8:    0fd2        ..      LSRS     r2,r2,#31
        0x000052ea:    4253        SB      RSBS     r3,r2,#0
        0x000052ec:    415a        ZA      ADCS     r2,r2,r3
        0x000052ee:    0052        R.      LSLS     r2,r2,#1
        0x000052f0:    23fd        .#      MOVS     r3,#0xfd
        0x000052f2:    4018        .@      ANDS     r0,r0,r3
        0x000052f4:    1880        ..      ADDS     r0,r0,r2
        0x000052f6:    7048        Hp      STRB     r0,[r1,#1]
        0x000052f8:    4994        .I      LDR      r1,[pc,#592] ; [0x554c] = 0x2000026a
        0x000052fa:    f24030e8    @..0    MOVW     r0,#0x3e8
        0x000052fe:    8008        ..      STRH     r0,[r1,#0]
        0x00005300:    e7ff        ..      B        0x5302 ; interlock_TCF_SM_DL + 162
        0x00005302:    e01b        ..      B        0x533c ; interlock_TCF_SM_DL + 220
        0x00005304:    9806        ..      LDR      r0,[sp,#0x18]
        0x00005306:    7800        .x      LDRB     r0,[r0,#0]
        0x00005308:    0680        ..      LSLS     r0,r0,#26
        0x0000530a:    0f80        ..      LSRS     r0,r0,#30
        0x0000530c:    2801        .(      CMP      r0,#1
        0x0000530e:    d113        ..      BNE      0x5338 ; interlock_TCF_SM_DL + 216
        0x00005310:    e7ff        ..      B        0x5312 ; interlock_TCF_SM_DL + 178
        0x00005312:    9905        ..      LDR      r1,[sp,#0x14]
        0x00005314:    7808        .x      LDRB     r0,[r1,#0]
        0x00005316:    227f        ."      MOVS     r2,#0x7f
        0x00005318:    4010        .@      ANDS     r0,r0,r2
        0x0000531a:    7008        .p      STRB     r0,[r1,#0]
        0x0000531c:    9905        ..      LDR      r1,[sp,#0x14]
        0x0000531e:    7848        Hx      LDRB     r0,[r1,#1]
        0x00005320:    22fe        ."      MOVS     r2,#0xfe
        0x00005322:    4010        .@      ANDS     r0,r0,r2
        0x00005324:    7048        Hp      STRB     r0,[r1,#1]
        0x00005326:    9905        ..      LDR      r1,[sp,#0x14]
        0x00005328:    7848        Hx      LDRB     r0,[r1,#1]
        0x0000532a:    22fd        ."      MOVS     r2,#0xfd
        0x0000532c:    4010        .@      ANDS     r0,r0,r2
        0x0000532e:    7048        Hp      STRB     r0,[r1,#1]
        0x00005330:    4985        .I      LDR      r1,[pc,#532] ; [0x5548] = 0x20000277
        0x00005332:    2001        .       MOVS     r0,#1
        0x00005334:    7008        .p      STRB     r0,[r1,#0]
        0x00005336:    e000        ..      B        0x533a ; interlock_TCF_SM_DL + 218
        0x00005338:    e7ff        ..      B        0x533a ; interlock_TCF_SM_DL + 218
        0x0000533a:    e7ff        ..      B        0x533c ; interlock_TCF_SM_DL + 220
        0x0000533c:    e0f4        ..      B        0x5528 ; interlock_TCF_SM_DL + 712
        0x0000533e:    9806        ..      LDR      r0,[sp,#0x18]
        0x00005340:    7800        .x      LDRB     r0,[r0,#0]
        0x00005342:    0680        ..      LSLS     r0,r0,#26
        0x00005344:    0f80        ..      LSRS     r0,r0,#30
        0x00005346:    2802        .(      CMP      r0,#2
        0x00005348:    d11b        ..      BNE      0x5382 ; interlock_TCF_SM_DL + 290
        0x0000534a:    e7ff        ..      B        0x534c ; interlock_TCF_SM_DL + 236
        0x0000534c:    9802        ..      LDR      r0,[sp,#8]
        0x0000534e:    7800        .x      LDRB     r0,[r0,#0]
        0x00005350:    2103        .!      MOVS     r1,#3
        0x00005352:    4008        .@      ANDS     r0,r0,r1
        0x00005354:    2802        .(      CMP      r0,#2
        0x00005356:    d114        ..      BNE      0x5382 ; interlock_TCF_SM_DL + 290
        0x00005358:    e7ff        ..      B        0x535a ; interlock_TCF_SM_DL + 250
        0x0000535a:    9905        ..      LDR      r1,[sp,#0x14]
        0x0000535c:    7808        .x      LDRB     r0,[r1,#0]
        0x0000535e:    2280        ."      MOVS     r2,#0x80
        0x00005360:    4310        .C      ORRS     r0,r0,r2
        0x00005362:    7008        .p      STRB     r0,[r1,#0]
        0x00005364:    9905        ..      LDR      r1,[sp,#0x14]
        0x00005366:    7848        Hx      LDRB     r0,[r1,#1]
        0x00005368:    2201        ."      MOVS     r2,#1
        0x0000536a:    4310        .C      ORRS     r0,r0,r2
        0x0000536c:    7048        Hp      STRB     r0,[r1,#1]
        0x0000536e:    4976        vI      LDR      r1,[pc,#472] ; [0x5548] = 0x20000277
        0x00005370:    2002        .       MOVS     r0,#2
        0x00005372:    7008        .p      STRB     r0,[r1,#0]
        0x00005374:    9905        ..      LDR      r1,[sp,#0x14]
        0x00005376:    7908        .y      LDRB     r0,[r1,#4]
        0x00005378:    22cf        ."      MOVS     r2,#0xcf
        0x0000537a:    4010        .@      ANDS     r0,r0,r2
        0x0000537c:    3010        .0      ADDS     r0,r0,#0x10
        0x0000537e:    7108        .q      STRB     r0,[r1,#4]
        0x00005380:    e7ff        ..      B        0x5382 ; interlock_TCF_SM_DL + 290
        0x00005382:    e0d1        ..      B        0x5528 ; interlock_TCF_SM_DL + 712
        0x00005384:    9806        ..      LDR      r0,[sp,#0x18]
        0x00005386:    7800        .x      LDRB     r0,[r0,#0]
        0x00005388:    0680        ..      LSLS     r0,r0,#26
        0x0000538a:    0f80        ..      LSRS     r0,r0,#30
        0x0000538c:    2802        .(      CMP      r0,#2
        0x0000538e:    d115        ..      BNE      0x53bc ; interlock_TCF_SM_DL + 348
        0x00005390:    e7ff        ..      B        0x5392 ; interlock_TCF_SM_DL + 306
        0x00005392:    9802        ..      LDR      r0,[sp,#8]
        0x00005394:    7800        .x      LDRB     r0,[r0,#0]
        0x00005396:    2103        .!      MOVS     r1,#3
        0x00005398:    4008        .@      ANDS     r0,r0,r1
        0x0000539a:    2801        .(      CMP      r0,#1
        0x0000539c:    d10e        ..      BNE      0x53bc ; interlock_TCF_SM_DL + 348
        0x0000539e:    e7ff        ..      B        0x53a0 ; interlock_TCF_SM_DL + 320
        0x000053a0:    9905        ..      LDR      r1,[sp,#0x14]
        0x000053a2:    7808        .x      LDRB     r0,[r1,#0]
        0x000053a4:    227f        ."      MOVS     r2,#0x7f
        0x000053a6:    4010        .@      ANDS     r0,r0,r2
        0x000053a8:    7008        .p      STRB     r0,[r1,#0]
        0x000053aa:    9905        ..      LDR      r1,[sp,#0x14]
        0x000053ac:    7848        Hx      LDRB     r0,[r1,#1]
        0x000053ae:    22fe        ."      MOVS     r2,#0xfe
        0x000053b0:    4010        .@      ANDS     r0,r0,r2
        0x000053b2:    7048        Hp      STRB     r0,[r1,#1]
        0x000053b4:    4964        dI      LDR      r1,[pc,#400] ; [0x5548] = 0x20000277
        0x000053b6:    2003        .       MOVS     r0,#3
        0x000053b8:    7008        .p      STRB     r0,[r1,#0]
        0x000053ba:    e7ff        ..      B        0x53bc ; interlock_TCF_SM_DL + 348
        0x000053bc:    9802        ..      LDR      r0,[sp,#8]
        0x000053be:    78c0        .x      LDRB     r0,[r0,#3]
        0x000053c0:    0700        ..      LSLS     r0,r0,#28
        0x000053c2:    0f80        ..      LSRS     r0,r0,#30
        0x000053c4:    2802        .(      CMP      r0,#2
        0x000053c6:    d10a        ..      BNE      0x53de ; interlock_TCF_SM_DL + 382
        0x000053c8:    e7ff        ..      B        0x53ca ; interlock_TCF_SM_DL + 362
        0x000053ca:    9802        ..      LDR      r0,[sp,#8]
        0x000053cc:    7880        .x      LDRB     r0,[r0,#2]
        0x000053ce:    0980        ..      LSRS     r0,r0,#6
        0x000053d0:    2802        .(      CMP      r0,#2
        0x000053d2:    d104        ..      BNE      0x53de ; interlock_TCF_SM_DL + 382
        0x000053d4:    e7ff        ..      B        0x53d6 ; interlock_TCF_SM_DL + 374
        0x000053d6:    495e        ^I      LDR      r1,[pc,#376] ; [0x5550] = 0x20000276
        0x000053d8:    2001        .       MOVS     r0,#1
        0x000053da:    7008        .p      STRB     r0,[r1,#0]
        0x000053dc:    e7ff        ..      B        0x53de ; interlock_TCF_SM_DL + 382
        0x000053de:    9801        ..      LDR      r0,[sp,#4]
        0x000053e0:    78c0        .x      LDRB     r0,[r0,#3]
        0x000053e2:    0680        ..      LSLS     r0,r0,#26
        0x000053e4:    0f80        ..      LSRS     r0,r0,#30
        0x000053e6:    2802        .(      CMP      r0,#2
        0x000053e8:    d10d        ..      BNE      0x5406 ; interlock_TCF_SM_DL + 422
        0x000053ea:    e7ff        ..      B        0x53ec ; interlock_TCF_SM_DL + 396
        0x000053ec:    4858        XH      LDR      r0,[pc,#352] ; [0x5550] = 0x20000276
        0x000053ee:    7800        .x      LDRB     r0,[r0,#0]
        0x000053f0:    b148        H.      CBZ      r0,0x5406 ; interlock_TCF_SM_DL + 422
        0x000053f2:    e7ff        ..      B        0x53f4 ; interlock_TCF_SM_DL + 404
        0x000053f4:    4957        WI      LDR      r1,[pc,#348] ; [0x5554] = 0x2000025c
        0x000053f6:    2078        x       MOVS     r0,#0x78
        0x000053f8:    8008        ..      STRH     r0,[r1,#0]
        0x000053fa:    4955        UI      LDR      r1,[pc,#340] ; [0x5550] = 0x20000276
        0x000053fc:    2000        .       MOVS     r0,#0
        0x000053fe:    7008        .p      STRB     r0,[r1,#0]
        0x00005400:    4951        QI      LDR      r1,[pc,#324] ; [0x5548] = 0x20000277
        0x00005402:    7008        .p      STRB     r0,[r1,#0]
        0x00005404:    e7ff        ..      B        0x5406 ; interlock_TCF_SM_DL + 422
        0x00005406:    e08f        ..      B        0x5528 ; interlock_TCF_SM_DL + 712
        0x00005408:    9806        ..      LDR      r0,[sp,#0x18]
        0x0000540a:    7800        .x      LDRB     r0,[r0,#0]
        0x0000540c:    0680        ..      LSLS     r0,r0,#26
        0x0000540e:    0f80        ..      LSRS     r0,r0,#30
        0x00005410:    2802        .(      CMP      r0,#2
        0x00005412:    d151        Q.      BNE      0x54b8 ; interlock_TCF_SM_DL + 600
        0x00005414:    e7ff        ..      B        0x5416 ; interlock_TCF_SM_DL + 438
        0x00005416:    9802        ..      LDR      r0,[sp,#8]
        0x00005418:    7800        .x      LDRB     r0,[r0,#0]
        0x0000541a:    2103        .!      MOVS     r1,#3
        0x0000541c:    4008        .@      ANDS     r0,r0,r1
        0x0000541e:    2802        .(      CMP      r0,#2
        0x00005420:    d14a        J.      BNE      0x54b8 ; interlock_TCF_SM_DL + 600
        0x00005422:    e7ff        ..      B        0x5424 ; interlock_TCF_SM_DL + 452
        0x00005424:    4849        IH      LDR      r0,[pc,#292] ; [0x554c] = 0x2000026a
        0x00005426:    8800        ..      LDRH     r0,[r0,#0]
        0x00005428:    b9d0        ..      CBNZ     r0,0x5460 ; interlock_TCF_SM_DL + 512
        0x0000542a:    e7ff        ..      B        0x542c ; interlock_TCF_SM_DL + 460
        0x0000542c:    9905        ..      LDR      r1,[sp,#0x14]
        0x0000542e:    7808        .x      LDRB     r0,[r1,#0]
        0x00005430:    09c2        ..      LSRS     r2,r0,#7
        0x00005432:    4253        SB      RSBS     r3,r2,#0
        0x00005434:    415a        ZA      ADCS     r2,r2,r3
        0x00005436:    01d2        ..      LSLS     r2,r2,#7
        0x00005438:    237f        .#      MOVS     r3,#0x7f
        0x0000543a:    4018        .@      ANDS     r0,r0,r3
        0x0000543c:    1880        ..      ADDS     r0,r0,r2
        0x0000543e:    7008        .p      STRB     r0,[r1,#0]
        0x00005440:    9905        ..      LDR      r1,[sp,#0x14]
        0x00005442:    7848        Hx      LDRB     r0,[r1,#1]
        0x00005444:    2301        .#      MOVS     r3,#1
        0x00005446:    4602        .F      MOV      r2,r0
        0x00005448:    401a        .@      ANDS     r2,r2,r3
        0x0000544a:    4253        SB      RSBS     r3,r2,#0
        0x0000544c:    415a        ZA      ADCS     r2,r2,r3
        0x0000544e:    23fe        .#      MOVS     r3,#0xfe
        0x00005450:    4018        .@      ANDS     r0,r0,r3
        0x00005452:    1880        ..      ADDS     r0,r0,r2
        0x00005454:    7048        Hp      STRB     r0,[r1,#1]
        0x00005456:    493d        =I      LDR      r1,[pc,#244] ; [0x554c] = 0x2000026a
        0x00005458:    f24030e8    @..0    MOVW     r0,#0x3e8
        0x0000545c:    8008        ..      STRH     r0,[r1,#0]
        0x0000545e:    e7ff        ..      B        0x5460 ; interlock_TCF_SM_DL + 512
        0x00005460:    9802        ..      LDR      r0,[sp,#8]
        0x00005462:    78c0        .x      LDRB     r0,[r0,#3]
        0x00005464:    0700        ..      LSLS     r0,r0,#28
        0x00005466:    0f80        ..      LSRS     r0,r0,#30
        0x00005468:    2802        .(      CMP      r0,#2
        0x0000546a:    d10a        ..      BNE      0x5482 ; interlock_TCF_SM_DL + 546
        0x0000546c:    e7ff        ..      B        0x546e ; interlock_TCF_SM_DL + 526
        0x0000546e:    9802        ..      LDR      r0,[sp,#8]
        0x00005470:    7880        .x      LDRB     r0,[r0,#2]
        0x00005472:    0980        ..      LSRS     r0,r0,#6
        0x00005474:    2802        .(      CMP      r0,#2
        0x00005476:    d104        ..      BNE      0x5482 ; interlock_TCF_SM_DL + 546
        0x00005478:    e7ff        ..      B        0x547a ; interlock_TCF_SM_DL + 538
        0x0000547a:    4935        5I      LDR      r1,[pc,#212] ; [0x5550] = 0x20000276
        0x0000547c:    2001        .       MOVS     r0,#1
        0x0000547e:    7008        .p      STRB     r0,[r1,#0]
        0x00005480:    e7ff        ..      B        0x5482 ; interlock_TCF_SM_DL + 546
        0x00005482:    9801        ..      LDR      r0,[sp,#4]
        0x00005484:    78c0        .x      LDRB     r0,[r0,#3]
        0x00005486:    0680        ..      LSLS     r0,r0,#26
        0x00005488:    0f80        ..      LSRS     r0,r0,#30
        0x0000548a:    2802        .(      CMP      r0,#2
        0x0000548c:    d10d        ..      BNE      0x54aa ; interlock_TCF_SM_DL + 586
        0x0000548e:    e7ff        ..      B        0x5490 ; interlock_TCF_SM_DL + 560
        0x00005490:    482f        /H      LDR      r0,[pc,#188] ; [0x5550] = 0x20000276
        0x00005492:    7800        .x      LDRB     r0,[r0,#0]
        0x00005494:    b148        H.      CBZ      r0,0x54aa ; interlock_TCF_SM_DL + 586
        0x00005496:    e7ff        ..      B        0x5498 ; interlock_TCF_SM_DL + 568
        0x00005498:    492e        .I      LDR      r1,[pc,#184] ; [0x5554] = 0x2000025c
        0x0000549a:    2078        x       MOVS     r0,#0x78
        0x0000549c:    8008        ..      STRH     r0,[r1,#0]
        0x0000549e:    492c        ,I      LDR      r1,[pc,#176] ; [0x5550] = 0x20000276
        0x000054a0:    2000        .       MOVS     r0,#0
        0x000054a2:    7008        .p      STRB     r0,[r1,#0]
        0x000054a4:    4928        (I      LDR      r1,[pc,#160] ; [0x5548] = 0x20000277
        0x000054a6:    7008        .p      STRB     r0,[r1,#0]
        0x000054a8:    e7ff        ..      B        0x54aa ; interlock_TCF_SM_DL + 586
        0x000054aa:    9905        ..      LDR      r1,[sp,#0x14]
        0x000054ac:    7908        .y      LDRB     r0,[r1,#4]
        0x000054ae:    22cf        ."      MOVS     r2,#0xcf
        0x000054b0:    4010        .@      ANDS     r0,r0,r2
        0x000054b2:    3020         0      ADDS     r0,r0,#0x20
        0x000054b4:    7108        .q      STRB     r0,[r1,#4]
        0x000054b6:    e013        ..      B        0x54e0 ; interlock_TCF_SM_DL + 640
        0x000054b8:    9806        ..      LDR      r0,[sp,#0x18]
        0x000054ba:    7800        .x      LDRB     r0,[r0,#0]
        0x000054bc:    0680        ..      LSLS     r0,r0,#26
        0x000054be:    0f80        ..      LSRS     r0,r0,#30
        0x000054c0:    2801        .(      CMP      r0,#1
        0x000054c2:    d10b        ..      BNE      0x54dc ; interlock_TCF_SM_DL + 636
        0x000054c4:    e7ff        ..      B        0x54c6 ; interlock_TCF_SM_DL + 614
        0x000054c6:    9802        ..      LDR      r0,[sp,#8]
        0x000054c8:    7800        .x      LDRB     r0,[r0,#0]
        0x000054ca:    2103        .!      MOVS     r1,#3
        0x000054cc:    4008        .@      ANDS     r0,r0,r1
        0x000054ce:    2802        .(      CMP      r0,#2
        0x000054d0:    d104        ..      BNE      0x54dc ; interlock_TCF_SM_DL + 636
        0x000054d2:    e7ff        ..      B        0x54d4 ; interlock_TCF_SM_DL + 628
        0x000054d4:    491c        .I      LDR      r1,[pc,#112] ; [0x5548] = 0x20000277
        0x000054d6:    2004        .       MOVS     r0,#4
        0x000054d8:    7008        .p      STRB     r0,[r1,#0]
        0x000054da:    e000        ..      B        0x54de ; interlock_TCF_SM_DL + 638
        0x000054dc:    e7ff        ..      B        0x54de ; interlock_TCF_SM_DL + 638
        0x000054de:    e7ff        ..      B        0x54e0 ; interlock_TCF_SM_DL + 640
        0x000054e0:    e022        ".      B        0x5528 ; interlock_TCF_SM_DL + 712
        0x000054e2:    9806        ..      LDR      r0,[sp,#0x18]
        0x000054e4:    7800        .x      LDRB     r0,[r0,#0]
        0x000054e6:    0680        ..      LSLS     r0,r0,#26
        0x000054e8:    0f80        ..      LSRS     r0,r0,#30
        0x000054ea:    2801        .(      CMP      r0,#1
        0x000054ec:    d11a        ..      BNE      0x5524 ; interlock_TCF_SM_DL + 708
        0x000054ee:    e7ff        ..      B        0x54f0 ; interlock_TCF_SM_DL + 656
        0x000054f0:    9802        ..      LDR      r0,[sp,#8]
        0x000054f2:    7800        .x      LDRB     r0,[r0,#0]
        0x000054f4:    2103        .!      MOVS     r1,#3
        0x000054f6:    4008        .@      ANDS     r0,r0,r1
        0x000054f8:    2802        .(      CMP      r0,#2
        0x000054fa:    d113        ..      BNE      0x5524 ; interlock_TCF_SM_DL + 708
        0x000054fc:    e7ff        ..      B        0x54fe ; interlock_TCF_SM_DL + 670
        0x000054fe:    9905        ..      LDR      r1,[sp,#0x14]
        0x00005500:    7808        .x      LDRB     r0,[r1,#0]
        0x00005502:    227f        ."      MOVS     r2,#0x7f
        0x00005504:    4010        .@      ANDS     r0,r0,r2
        0x00005506:    7008        .p      STRB     r0,[r1,#0]
        0x00005508:    9905        ..      LDR      r1,[sp,#0x14]
        0x0000550a:    7848        Hx      LDRB     r0,[r1,#1]
        0x0000550c:    22fe        ."      MOVS     r2,#0xfe
        0x0000550e:    4010        .@      ANDS     r0,r0,r2
        0x00005510:    7048        Hp      STRB     r0,[r1,#1]
        0x00005512:    490d        .I      LDR      r1,[pc,#52] ; [0x5548] = 0x20000277
        0x00005514:    2000        .       MOVS     r0,#0
        0x00005516:    7008        .p      STRB     r0,[r1,#0]
        0x00005518:    9905        ..      LDR      r1,[sp,#0x14]
        0x0000551a:    7908        .y      LDRB     r0,[r1,#4]
        0x0000551c:    2230        0"      MOVS     r2,#0x30
        0x0000551e:    4310        .C      ORRS     r0,r0,r2
        0x00005520:    7108        .q      STRB     r0,[r1,#4]
        0x00005522:    e7ff        ..      B        0x5524 ; interlock_TCF_SM_DL + 708
        0x00005524:    e000        ..      B        0x5528 ; interlock_TCF_SM_DL + 712
        0x00005526:    e7ff        ..      B        0x5528 ; interlock_TCF_SM_DL + 712
        0x00005528:    b008        ..      ADD      sp,sp,#0x20
        0x0000552a:    4770        pG      BX       lr
    $d
    __arm_cp.2_0
        0x0000552c:    200002a8    ...     DCD    536871592
    __arm_cp.2_1
        0x00005530:    200002a4    ...     DCD    536871588
    __arm_cp.2_2
        0x00005534:    2000028e    ...     DCD    536871566
    __arm_cp.2_3
        0x00005538:    2000027c    |..     DCD    536871548
    __arm_cp.2_4
        0x0000553c:    20000288    ...     DCD    536871560
    __arm_cp.2_5
        0x00005540:    2000029f    ...     DCD    536871583
    __arm_cp.2_6
        0x00005544:    20000298    ...     DCD    536871576
    __arm_cp.2_7
        0x00005548:    20000277    w..     DCD    536871543
    __arm_cp.2_8
        0x0000554c:    2000026a    j..     DCD    536871530
    __arm_cp.2_9
        0x00005550:    20000276    v..     DCD    536871542
    __arm_cp.2_10
        0x00005554:    2000025c    \..     DCD    536871516
    $t
    interlock_TGT_SM
        0x00005558:    b086        ..      SUB      sp,sp,#0x18
        0x0000555a:    48f4        .H      LDR      r0,[pc,#976] ; [0x592c] = 0x200002a4
        0x0000555c:    9005        ..      STR      r0,[sp,#0x14]
        0x0000555e:    48f4        .H      LDR      r0,[pc,#976] ; [0x5930] = 0x2000028e
        0x00005560:    9004        ..      STR      r0,[sp,#0x10]
        0x00005562:    48f4        .H      LDR      r0,[pc,#976] ; [0x5934] = 0x2000029f
        0x00005564:    9003        ..      STR      r0,[sp,#0xc]
        0x00005566:    48f4        .H      LDR      r0,[pc,#976] ; [0x5938] = 0x20000298
        0x00005568:    9002        ..      STR      r0,[sp,#8]
        0x0000556a:    48f4        .H      LDR      r0,[pc,#976] ; [0x593c] = 0x20000279
        0x0000556c:    7800        .x      LDRB     r0,[r0,#0]
        0x0000556e:    b100        ..      CBZ      r0,0x5572 ; interlock_TGT_SM + 26
        0x00005570:    e14c        L.      B        0x580c ; interlock_TGT_SM + 692
        0x00005572:    48f3        .H      LDR      r0,[pc,#972] ; [0x5940] = 0x20000278
        0x00005574:    7800        .x      LDRB     r0,[r0,#0]
        0x00005576:    9001        ..      STR      r0,[sp,#4]
        0x00005578:    2804        .(      CMP      r0,#4
        0x0000557a:    d900        ..      BLS      0x557e ; interlock_TGT_SM + 38
        0x0000557c:    e144        D.      B        0x5808 ; interlock_TGT_SM + 688
        0x0000557e:    9901        ..      LDR      r1,[sp,#4]
        0x00005580:    008a        ..      LSLS     r2,r1,#2
        0x00005582:    a001        ..      ADR      r0,{pc}+6 ; 0x5588
        0x00005584:    1880        ..      ADDS     r0,r0,r2
        0x00005586:    4687        .F      MOV      pc,r0
        0x00005588:    f000b808    ....    B.W      0x559c ; interlock_TGT_SM + 68
        0x0000558c:    f000b842    ..B.    B.W      0x5614 ; interlock_TGT_SM + 188
        0x00005590:    f000b85e    ..^.    B.W      0x5650 ; interlock_TGT_SM + 248
        0x00005594:    f000b8a6    ....    B.W      0x56e4 ; interlock_TGT_SM + 396
        0x00005598:    f000b913    ....    B.W      0x57c2 ; interlock_TGT_SM + 618
        0x0000559c:    48ea        .H      LDR      r0,[pc,#936] ; [0x5948] = 0x2000025c
        0x0000559e:    8800        ..      LDRH     r0,[r0,#0]
        0x000055a0:    b300        ..      CBZ      r0,0x55e4 ; interlock_TGT_SM + 140
        0x000055a2:    e7ff        ..      B        0x55a4 ; interlock_TGT_SM + 76
        0x000055a4:    48e7        .H      LDR      r0,[pc,#924] ; [0x5944] = 0x2000026c
        0x000055a6:    8800        ..      LDRH     r0,[r0,#0]
        0x000055a8:    b9d8        ..      CBNZ     r0,0x55e2 ; interlock_TGT_SM + 138
        0x000055aa:    e7ff        ..      B        0x55ac ; interlock_TGT_SM + 84
        0x000055ac:    9904        ..      LDR      r1,[sp,#0x10]
        0x000055ae:    7808        .x      LDRB     r0,[r1,#0]
        0x000055b0:    0702        ..      LSLS     r2,r0,#28
        0x000055b2:    0fd2        ..      LSRS     r2,r2,#31
        0x000055b4:    4253        SB      RSBS     r3,r2,#0
        0x000055b6:    415a        ZA      ADCS     r2,r2,r3
        0x000055b8:    00d2        ..      LSLS     r2,r2,#3
        0x000055ba:    23f7        .#      MOVS     r3,#0xf7
        0x000055bc:    4018        .@      ANDS     r0,r0,r3
        0x000055be:    1880        ..      ADDS     r0,r0,r2
        0x000055c0:    7008        .p      STRB     r0,[r1,#0]
        0x000055c2:    9904        ..      LDR      r1,[sp,#0x10]
        0x000055c4:    7808        .x      LDRB     r0,[r1,#0]
        0x000055c6:    06c2        ..      LSLS     r2,r0,#27
        0x000055c8:    0fd2        ..      LSRS     r2,r2,#31
        0x000055ca:    4253        SB      RSBS     r3,r2,#0
        0x000055cc:    415a        ZA      ADCS     r2,r2,r3
        0x000055ce:    0112        ..      LSLS     r2,r2,#4
        0x000055d0:    23ef        .#      MOVS     r3,#0xef
        0x000055d2:    4018        .@      ANDS     r0,r0,r3
        0x000055d4:    1880        ..      ADDS     r0,r0,r2
        0x000055d6:    7008        .p      STRB     r0,[r1,#0]
        0x000055d8:    49da        .I      LDR      r1,[pc,#872] ; [0x5944] = 0x2000026c
        0x000055da:    f24030e8    @..0    MOVW     r0,#0x3e8
        0x000055de:    8008        ..      STRH     r0,[r1,#0]
        0x000055e0:    e7ff        ..      B        0x55e2 ; interlock_TGT_SM + 138
        0x000055e2:    e016        ..      B        0x5612 ; interlock_TGT_SM + 186
        0x000055e4:    9805        ..      LDR      r0,[sp,#0x14]
        0x000055e6:    7800        .x      LDRB     r0,[r0,#0]
        0x000055e8:    2103        .!      MOVS     r1,#3
        0x000055ea:    4008        .@      ANDS     r0,r0,r1
        0x000055ec:    2801        .(      CMP      r0,#1
        0x000055ee:    d10e        ..      BNE      0x560e ; interlock_TGT_SM + 182
        0x000055f0:    e7ff        ..      B        0x55f2 ; interlock_TGT_SM + 154
        0x000055f2:    9904        ..      LDR      r1,[sp,#0x10]
        0x000055f4:    7808        .x      LDRB     r0,[r1,#0]
        0x000055f6:    22f7        ."      MOVS     r2,#0xf7
        0x000055f8:    4010        .@      ANDS     r0,r0,r2
        0x000055fa:    7008        .p      STRB     r0,[r1,#0]
        0x000055fc:    9904        ..      LDR      r1,[sp,#0x10]
        0x000055fe:    7808        .x      LDRB     r0,[r1,#0]
        0x00005600:    22ef        ."      MOVS     r2,#0xef
        0x00005602:    4010        .@      ANDS     r0,r0,r2
        0x00005604:    7008        .p      STRB     r0,[r1,#0]
        0x00005606:    49ce        .I      LDR      r1,[pc,#824] ; [0x5940] = 0x20000278
        0x00005608:    2001        .       MOVS     r0,#1
        0x0000560a:    7008        .p      STRB     r0,[r1,#0]
        0x0000560c:    e000        ..      B        0x5610 ; interlock_TGT_SM + 184
        0x0000560e:    e7ff        ..      B        0x5610 ; interlock_TGT_SM + 184
        0x00005610:    e7ff        ..      B        0x5612 ; interlock_TGT_SM + 186
        0x00005612:    e0fa        ..      B        0x580a ; interlock_TGT_SM + 690
        0x00005614:    9805        ..      LDR      r0,[sp,#0x14]
        0x00005616:    7800        .x      LDRB     r0,[r0,#0]
        0x00005618:    2103        .!      MOVS     r1,#3
        0x0000561a:    4008        .@      ANDS     r0,r0,r1
        0x0000561c:    2802        .(      CMP      r0,#2
        0x0000561e:    d115        ..      BNE      0x564c ; interlock_TGT_SM + 244
        0x00005620:    e7ff        ..      B        0x5622 ; interlock_TGT_SM + 202
        0x00005622:    9803        ..      LDR      r0,[sp,#0xc]
        0x00005624:    7800        .x      LDRB     r0,[r0,#0]
        0x00005626:    2103        .!      MOVS     r1,#3
        0x00005628:    4008        .@      ANDS     r0,r0,r1
        0x0000562a:    2802        .(      CMP      r0,#2
        0x0000562c:    d10e        ..      BNE      0x564c ; interlock_TGT_SM + 244
        0x0000562e:    e7ff        ..      B        0x5630 ; interlock_TGT_SM + 216
        0x00005630:    9904        ..      LDR      r1,[sp,#0x10]
        0x00005632:    7808        .x      LDRB     r0,[r1,#0]
        0x00005634:    2208        ."      MOVS     r2,#8
        0x00005636:    4310        .C      ORRS     r0,r0,r2
        0x00005638:    7008        .p      STRB     r0,[r1,#0]
        0x0000563a:    9904        ..      LDR      r1,[sp,#0x10]
        0x0000563c:    7808        .x      LDRB     r0,[r1,#0]
        0x0000563e:    2210        ."      MOVS     r2,#0x10
        0x00005640:    4310        .C      ORRS     r0,r0,r2
        0x00005642:    7008        .p      STRB     r0,[r1,#0]
        0x00005644:    49be        .I      LDR      r1,[pc,#760] ; [0x5940] = 0x20000278
        0x00005646:    2002        .       MOVS     r0,#2
        0x00005648:    7008        .p      STRB     r0,[r1,#0]
        0x0000564a:    e000        ..      B        0x564e ; interlock_TGT_SM + 246
        0x0000564c:    e7ff        ..      B        0x564e ; interlock_TGT_SM + 246
        0x0000564e:    e0dc        ..      B        0x580a ; interlock_TGT_SM + 690
        0x00005650:    9805        ..      LDR      r0,[sp,#0x14]
        0x00005652:    7800        .x      LDRB     r0,[r0,#0]
        0x00005654:    2103        .!      MOVS     r1,#3
        0x00005656:    4008        .@      ANDS     r0,r0,r1
        0x00005658:    2802        .(      CMP      r0,#2
        0x0000565a:    d115        ..      BNE      0x5688 ; interlock_TGT_SM + 304
        0x0000565c:    e7ff        ..      B        0x565e ; interlock_TGT_SM + 262
        0x0000565e:    9803        ..      LDR      r0,[sp,#0xc]
        0x00005660:    7800        .x      LDRB     r0,[r0,#0]
        0x00005662:    2103        .!      MOVS     r1,#3
        0x00005664:    4008        .@      ANDS     r0,r0,r1
        0x00005666:    2801        .(      CMP      r0,#1
        0x00005668:    d10e        ..      BNE      0x5688 ; interlock_TGT_SM + 304
        0x0000566a:    e7ff        ..      B        0x566c ; interlock_TGT_SM + 276
        0x0000566c:    9904        ..      LDR      r1,[sp,#0x10]
        0x0000566e:    7808        .x      LDRB     r0,[r1,#0]
        0x00005670:    22f7        ."      MOVS     r2,#0xf7
        0x00005672:    4010        .@      ANDS     r0,r0,r2
        0x00005674:    7008        .p      STRB     r0,[r1,#0]
        0x00005676:    9904        ..      LDR      r1,[sp,#0x10]
        0x00005678:    7808        .x      LDRB     r0,[r1,#0]
        0x0000567a:    22ef        ."      MOVS     r2,#0xef
        0x0000567c:    4010        .@      ANDS     r0,r0,r2
        0x0000567e:    7008        .p      STRB     r0,[r1,#0]
        0x00005680:    49af        .I      LDR      r1,[pc,#700] ; [0x5940] = 0x20000278
        0x00005682:    2003        .       MOVS     r0,#3
        0x00005684:    7008        .p      STRB     r0,[r1,#0]
        0x00005686:    e02c        ,.      B        0x56e2 ; interlock_TGT_SM + 394
        0x00005688:    9802        ..      LDR      r0,[sp,#8]
        0x0000568a:    78c0        .x      LDRB     r0,[r0,#3]
        0x0000568c:    0700        ..      LSLS     r0,r0,#28
        0x0000568e:    0f80        ..      LSRS     r0,r0,#30
        0x00005690:    2802        .(      CMP      r0,#2
        0x00005692:    d10c        ..      BNE      0x56ae ; interlock_TGT_SM + 342
        0x00005694:    e7ff        ..      B        0x5696 ; interlock_TGT_SM + 318
        0x00005696:    9802        ..      LDR      r0,[sp,#8]
        0x00005698:    7880        .x      LDRB     r0,[r0,#2]
        0x0000569a:    0980        ..      LSRS     r0,r0,#6
        0x0000569c:    2802        .(      CMP      r0,#2
        0x0000569e:    d106        ..      BNE      0x56ae ; interlock_TGT_SM + 342
        0x000056a0:    e7ff        ..      B        0x56a2 ; interlock_TGT_SM + 330
        0x000056a2:    9904        ..      LDR      r1,[sp,#0x10]
        0x000056a4:    7848        Hx      LDRB     r0,[r1,#1]
        0x000056a6:    2204        ."      MOVS     r2,#4
        0x000056a8:    4310        .C      ORRS     r0,r0,r2
        0x000056aa:    7048        Hp      STRB     r0,[r1,#1]
        0x000056ac:    e7ff        ..      B        0x56ae ; interlock_TGT_SM + 342
        0x000056ae:    9803        ..      LDR      r0,[sp,#0xc]
        0x000056b0:    78c0        .x      LDRB     r0,[r0,#3]
        0x000056b2:    0680        ..      LSLS     r0,r0,#26
        0x000056b4:    0f80        ..      LSRS     r0,r0,#30
        0x000056b6:    2802        .(      CMP      r0,#2
        0x000056b8:    d112        ..      BNE      0x56e0 ; interlock_TGT_SM + 392
        0x000056ba:    e7ff        ..      B        0x56bc ; interlock_TGT_SM + 356
        0x000056bc:    9804        ..      LDR      r0,[sp,#0x10]
        0x000056be:    7840        @x      LDRB     r0,[r0,#1]
        0x000056c0:    0740        @.      LSLS     r0,r0,#29
        0x000056c2:    0fc0        ..      LSRS     r0,r0,#31
        0x000056c4:    b160        `.      CBZ      r0,0x56e0 ; interlock_TGT_SM + 392
        0x000056c6:    e7ff        ..      B        0x56c8 ; interlock_TGT_SM + 368
        0x000056c8:    499f        .I      LDR      r1,[pc,#636] ; [0x5948] = 0x2000025c
        0x000056ca:    2078        x       MOVS     r0,#0x78
        0x000056cc:    8008        ..      STRH     r0,[r1,#0]
        0x000056ce:    9904        ..      LDR      r1,[sp,#0x10]
        0x000056d0:    7848        Hx      LDRB     r0,[r1,#1]
        0x000056d2:    22fb        ."      MOVS     r2,#0xfb
        0x000056d4:    4010        .@      ANDS     r0,r0,r2
        0x000056d6:    7048        Hp      STRB     r0,[r1,#1]
        0x000056d8:    4999        .I      LDR      r1,[pc,#612] ; [0x5940] = 0x20000278
        0x000056da:    2000        .       MOVS     r0,#0
        0x000056dc:    7008        .p      STRB     r0,[r1,#0]
        0x000056de:    e7ff        ..      B        0x56e0 ; interlock_TGT_SM + 392
        0x000056e0:    e7ff        ..      B        0x56e2 ; interlock_TGT_SM + 394
        0x000056e2:    e092        ..      B        0x580a ; interlock_TGT_SM + 690
        0x000056e4:    9805        ..      LDR      r0,[sp,#0x14]
        0x000056e6:    7800        .x      LDRB     r0,[r0,#0]
        0x000056e8:    2103        .!      MOVS     r1,#3
        0x000056ea:    4008        .@      ANDS     r0,r0,r1
        0x000056ec:    2802        .(      CMP      r0,#2
        0x000056ee:    d153        S.      BNE      0x5798 ; interlock_TGT_SM + 576
        0x000056f0:    e7ff        ..      B        0x56f2 ; interlock_TGT_SM + 410
        0x000056f2:    9803        ..      LDR      r0,[sp,#0xc]
        0x000056f4:    7800        .x      LDRB     r0,[r0,#0]
        0x000056f6:    2103        .!      MOVS     r1,#3
        0x000056f8:    4008        .@      ANDS     r0,r0,r1
        0x000056fa:    2802        .(      CMP      r0,#2
        0x000056fc:    d14c        L.      BNE      0x5798 ; interlock_TGT_SM + 576
        0x000056fe:    e7ff        ..      B        0x5700 ; interlock_TGT_SM + 424
        0x00005700:    4890        .H      LDR      r0,[pc,#576] ; [0x5944] = 0x2000026c
        0x00005702:    8800        ..      LDRH     r0,[r0,#0]
        0x00005704:    b9d8        ..      CBNZ     r0,0x573e ; interlock_TGT_SM + 486
        0x00005706:    e7ff        ..      B        0x5708 ; interlock_TGT_SM + 432
        0x00005708:    9904        ..      LDR      r1,[sp,#0x10]
        0x0000570a:    7808        .x      LDRB     r0,[r1,#0]
        0x0000570c:    0702        ..      LSLS     r2,r0,#28
        0x0000570e:    0fd2        ..      LSRS     r2,r2,#31
        0x00005710:    4253        SB      RSBS     r3,r2,#0
        0x00005712:    415a        ZA      ADCS     r2,r2,r3
        0x00005714:    00d2        ..      LSLS     r2,r2,#3
        0x00005716:    23f7        .#      MOVS     r3,#0xf7
        0x00005718:    4018        .@      ANDS     r0,r0,r3
        0x0000571a:    1880        ..      ADDS     r0,r0,r2
        0x0000571c:    7008        .p      STRB     r0,[r1,#0]
        0x0000571e:    9904        ..      LDR      r1,[sp,#0x10]
        0x00005720:    7808        .x      LDRB     r0,[r1,#0]
        0x00005722:    06c2        ..      LSLS     r2,r0,#27
        0x00005724:    0fd2        ..      LSRS     r2,r2,#31
        0x00005726:    4253        SB      RSBS     r3,r2,#0
        0x00005728:    415a        ZA      ADCS     r2,r2,r3
        0x0000572a:    0112        ..      LSLS     r2,r2,#4
        0x0000572c:    23ef        .#      MOVS     r3,#0xef
        0x0000572e:    4018        .@      ANDS     r0,r0,r3
        0x00005730:    1880        ..      ADDS     r0,r0,r2
        0x00005732:    7008        .p      STRB     r0,[r1,#0]
        0x00005734:    4983        .I      LDR      r1,[pc,#524] ; [0x5944] = 0x2000026c
        0x00005736:    f24030e8    @..0    MOVW     r0,#0x3e8
        0x0000573a:    8008        ..      STRH     r0,[r1,#0]
        0x0000573c:    e7ff        ..      B        0x573e ; interlock_TGT_SM + 486
        0x0000573e:    9802        ..      LDR      r0,[sp,#8]
        0x00005740:    78c0        .x      LDRB     r0,[r0,#3]
        0x00005742:    0700        ..      LSLS     r0,r0,#28
        0x00005744:    0f80        ..      LSRS     r0,r0,#30
        0x00005746:    2802        .(      CMP      r0,#2
        0x00005748:    d10c        ..      BNE      0x5764 ; interlock_TGT_SM + 524
        0x0000574a:    e7ff        ..      B        0x574c ; interlock_TGT_SM + 500
        0x0000574c:    9802        ..      LDR      r0,[sp,#8]
        0x0000574e:    7880        .x      LDRB     r0,[r0,#2]
        0x00005750:    0980        ..      LSRS     r0,r0,#6
        0x00005752:    2802        .(      CMP      r0,#2
        0x00005754:    d106        ..      BNE      0x5764 ; interlock_TGT_SM + 524
        0x00005756:    e7ff        ..      B        0x5758 ; interlock_TGT_SM + 512
        0x00005758:    9904        ..      LDR      r1,[sp,#0x10]
        0x0000575a:    7848        Hx      LDRB     r0,[r1,#1]
        0x0000575c:    2204        ."      MOVS     r2,#4
        0x0000575e:    4310        .C      ORRS     r0,r0,r2
        0x00005760:    7048        Hp      STRB     r0,[r1,#1]
        0x00005762:    e7ff        ..      B        0x5764 ; interlock_TGT_SM + 524
        0x00005764:    9803        ..      LDR      r0,[sp,#0xc]
        0x00005766:    78c0        .x      LDRB     r0,[r0,#3]
        0x00005768:    0680        ..      LSLS     r0,r0,#26
        0x0000576a:    0f80        ..      LSRS     r0,r0,#30
        0x0000576c:    2802        .(      CMP      r0,#2
        0x0000576e:    d112        ..      BNE      0x5796 ; interlock_TGT_SM + 574
        0x00005770:    e7ff        ..      B        0x5772 ; interlock_TGT_SM + 538
        0x00005772:    9804        ..      LDR      r0,[sp,#0x10]
        0x00005774:    7840        @x      LDRB     r0,[r0,#1]
        0x00005776:    0740        @.      LSLS     r0,r0,#29
        0x00005778:    0fc0        ..      LSRS     r0,r0,#31
        0x0000577a:    b160        `.      CBZ      r0,0x5796 ; interlock_TGT_SM + 574
        0x0000577c:    e7ff        ..      B        0x577e ; interlock_TGT_SM + 550
        0x0000577e:    4972        rI      LDR      r1,[pc,#456] ; [0x5948] = 0x2000025c
        0x00005780:    2078        x       MOVS     r0,#0x78
        0x00005782:    8008        ..      STRH     r0,[r1,#0]
        0x00005784:    9904        ..      LDR      r1,[sp,#0x10]
        0x00005786:    7848        Hx      LDRB     r0,[r1,#1]
        0x00005788:    22fb        ."      MOVS     r2,#0xfb
        0x0000578a:    4010        .@      ANDS     r0,r0,r2
        0x0000578c:    7048        Hp      STRB     r0,[r1,#1]
        0x0000578e:    496c        lI      LDR      r1,[pc,#432] ; [0x5940] = 0x20000278
        0x00005790:    2000        .       MOVS     r0,#0
        0x00005792:    7008        .p      STRB     r0,[r1,#0]
        0x00005794:    e7ff        ..      B        0x5796 ; interlock_TGT_SM + 574
        0x00005796:    e013        ..      B        0x57c0 ; interlock_TGT_SM + 616
        0x00005798:    9805        ..      LDR      r0,[sp,#0x14]
        0x0000579a:    7800        .x      LDRB     r0,[r0,#0]
        0x0000579c:    2103        .!      MOVS     r1,#3
        0x0000579e:    4008        .@      ANDS     r0,r0,r1
        0x000057a0:    2801        .(      CMP      r0,#1
        0x000057a2:    d10b        ..      BNE      0x57bc ; interlock_TGT_SM + 612
        0x000057a4:    e7ff        ..      B        0x57a6 ; interlock_TGT_SM + 590
        0x000057a6:    9803        ..      LDR      r0,[sp,#0xc]
        0x000057a8:    7800        .x      LDRB     r0,[r0,#0]
        0x000057aa:    2103        .!      MOVS     r1,#3
        0x000057ac:    4008        .@      ANDS     r0,r0,r1
        0x000057ae:    2802        .(      CMP      r0,#2
        0x000057b0:    d104        ..      BNE      0x57bc ; interlock_TGT_SM + 612
        0x000057b2:    e7ff        ..      B        0x57b4 ; interlock_TGT_SM + 604
        0x000057b4:    4962        bI      LDR      r1,[pc,#392] ; [0x5940] = 0x20000278
        0x000057b6:    2004        .       MOVS     r0,#4
        0x000057b8:    7008        .p      STRB     r0,[r1,#0]
        0x000057ba:    e000        ..      B        0x57be ; interlock_TGT_SM + 614
        0x000057bc:    e7ff        ..      B        0x57be ; interlock_TGT_SM + 614
        0x000057be:    e7ff        ..      B        0x57c0 ; interlock_TGT_SM + 616
        0x000057c0:    e023        #.      B        0x580a ; interlock_TGT_SM + 690
        0x000057c2:    9805        ..      LDR      r0,[sp,#0x14]
        0x000057c4:    7800        .x      LDRB     r0,[r0,#0]
        0x000057c6:    2103        .!      MOVS     r1,#3
        0x000057c8:    4008        .@      ANDS     r0,r0,r1
        0x000057ca:    2801        .(      CMP      r0,#1
        0x000057cc:    d11a        ..      BNE      0x5804 ; interlock_TGT_SM + 684
        0x000057ce:    e7ff        ..      B        0x57d0 ; interlock_TGT_SM + 632
        0x000057d0:    9803        ..      LDR      r0,[sp,#0xc]
        0x000057d2:    7800        .x      LDRB     r0,[r0,#0]
        0x000057d4:    2103        .!      MOVS     r1,#3
        0x000057d6:    4008        .@      ANDS     r0,r0,r1
        0x000057d8:    2802        .(      CMP      r0,#2
        0x000057da:    d113        ..      BNE      0x5804 ; interlock_TGT_SM + 684
        0x000057dc:    e7ff        ..      B        0x57de ; interlock_TGT_SM + 646
        0x000057de:    9904        ..      LDR      r1,[sp,#0x10]
        0x000057e0:    7808        .x      LDRB     r0,[r1,#0]
        0x000057e2:    22f7        ."      MOVS     r2,#0xf7
        0x000057e4:    4010        .@      ANDS     r0,r0,r2
        0x000057e6:    7008        .p      STRB     r0,[r1,#0]
        0x000057e8:    9904        ..      LDR      r1,[sp,#0x10]
        0x000057ea:    7808        .x      LDRB     r0,[r1,#0]
        0x000057ec:    22ef        ."      MOVS     r2,#0xef
        0x000057ee:    4010        .@      ANDS     r0,r0,r2
        0x000057f0:    7008        .p      STRB     r0,[r1,#0]
        0x000057f2:    9904        ..      LDR      r1,[sp,#0x10]
        0x000057f4:    7848        Hx      LDRB     r0,[r1,#1]
        0x000057f6:    22fb        ."      MOVS     r2,#0xfb
        0x000057f8:    4010        .@      ANDS     r0,r0,r2
        0x000057fa:    7048        Hp      STRB     r0,[r1,#1]
        0x000057fc:    4950        PI      LDR      r1,[pc,#320] ; [0x5940] = 0x20000278
        0x000057fe:    2000        .       MOVS     r0,#0
        0x00005800:    7008        .p      STRB     r0,[r1,#0]
        0x00005802:    e000        ..      B        0x5806 ; interlock_TGT_SM + 686
        0x00005804:    e7ff        ..      B        0x5806 ; interlock_TGT_SM + 686
        0x00005806:    e000        ..      B        0x580a ; interlock_TGT_SM + 690
        0x00005808:    e7ff        ..      B        0x580a ; interlock_TGT_SM + 690
        0x0000580a:    e7ff        ..      B        0x580c ; interlock_TGT_SM + 692
        0x0000580c:    484b        KH      LDR      r0,[pc,#300] ; [0x593c] = 0x20000279
        0x0000580e:    7800        .x      LDRB     r0,[r0,#0]
        0x00005810:    9000        ..      STR      r0,[sp,#0]
        0x00005812:    b140        @.      CBZ      r0,0x5826 ; interlock_TGT_SM + 718
        0x00005814:    e7ff        ..      B        0x5816 ; interlock_TGT_SM + 702
        0x00005816:    9800        ..      LDR      r0,[sp,#0]
        0x00005818:    2801        .(      CMP      r0,#1
        0x0000581a:    d022        ".      BEQ      0x5862 ; interlock_TGT_SM + 778
        0x0000581c:    e7ff        ..      B        0x581e ; interlock_TGT_SM + 710
        0x0000581e:    9800        ..      LDR      r0,[sp,#0]
        0x00005820:    2802        .(      CMP      r0,#2
        0x00005822:    d03c        <.      BEQ      0x589e ; interlock_TGT_SM + 838
        0x00005824:    e07f        ..      B        0x5926 ; interlock_TGT_SM + 974
        0x00005826:    9803        ..      LDR      r0,[sp,#0xc]
        0x00005828:    7800        .x      LDRB     r0,[r0,#0]
        0x0000582a:    0700        ..      LSLS     r0,r0,#28
        0x0000582c:    0f80        ..      LSRS     r0,r0,#30
        0x0000582e:    2801        .(      CMP      r0,#1
        0x00005830:    d115        ..      BNE      0x585e ; interlock_TGT_SM + 774
        0x00005832:    e7ff        ..      B        0x5834 ; interlock_TGT_SM + 732
        0x00005834:    9803        ..      LDR      r0,[sp,#0xc]
        0x00005836:    7800        .x      LDRB     r0,[r0,#0]
        0x00005838:    2103        .!      MOVS     r1,#3
        0x0000583a:    4008        .@      ANDS     r0,r0,r1
        0x0000583c:    2802        .(      CMP      r0,#2
        0x0000583e:    d10e        ..      BNE      0x585e ; interlock_TGT_SM + 774
        0x00005840:    e7ff        ..      B        0x5842 ; interlock_TGT_SM + 746
        0x00005842:    9904        ..      LDR      r1,[sp,#0x10]
        0x00005844:    7808        .x      LDRB     r0,[r1,#0]
        0x00005846:    22f7        ."      MOVS     r2,#0xf7
        0x00005848:    4010        .@      ANDS     r0,r0,r2
        0x0000584a:    7008        .p      STRB     r0,[r1,#0]
        0x0000584c:    9904        ..      LDR      r1,[sp,#0x10]
        0x0000584e:    7808        .x      LDRB     r0,[r1,#0]
        0x00005850:    22ef        ."      MOVS     r2,#0xef
        0x00005852:    4010        .@      ANDS     r0,r0,r2
        0x00005854:    7008        .p      STRB     r0,[r1,#0]
        0x00005856:    4939        9I      LDR      r1,[pc,#228] ; [0x593c] = 0x20000279
        0x00005858:    2001        .       MOVS     r0,#1
        0x0000585a:    7008        .p      STRB     r0,[r1,#0]
        0x0000585c:    e000        ..      B        0x5860 ; interlock_TGT_SM + 776
        0x0000585e:    e7ff        ..      B        0x5860 ; interlock_TGT_SM + 776
        0x00005860:    e062        b.      B        0x5928 ; interlock_TGT_SM + 976
        0x00005862:    9803        ..      LDR      r0,[sp,#0xc]
        0x00005864:    7800        .x      LDRB     r0,[r0,#0]
        0x00005866:    0700        ..      LSLS     r0,r0,#28
        0x00005868:    0f80        ..      LSRS     r0,r0,#30
        0x0000586a:    2801        .(      CMP      r0,#1
        0x0000586c:    d115        ..      BNE      0x589a ; interlock_TGT_SM + 834
        0x0000586e:    e7ff        ..      B        0x5870 ; interlock_TGT_SM + 792
        0x00005870:    9803        ..      LDR      r0,[sp,#0xc]
        0x00005872:    7800        .x      LDRB     r0,[r0,#0]
        0x00005874:    2103        .!      MOVS     r1,#3
        0x00005876:    4008        .@      ANDS     r0,r0,r1
        0x00005878:    2801        .(      CMP      r0,#1
        0x0000587a:    d10e        ..      BNE      0x589a ; interlock_TGT_SM + 834
        0x0000587c:    e7ff        ..      B        0x587e ; interlock_TGT_SM + 806
        0x0000587e:    9904        ..      LDR      r1,[sp,#0x10]
        0x00005880:    7808        .x      LDRB     r0,[r1,#0]
        0x00005882:    22f7        ."      MOVS     r2,#0xf7
        0x00005884:    4010        .@      ANDS     r0,r0,r2
        0x00005886:    7008        .p      STRB     r0,[r1,#0]
        0x00005888:    9904        ..      LDR      r1,[sp,#0x10]
        0x0000588a:    7808        .x      LDRB     r0,[r1,#0]
        0x0000588c:    22ef        ."      MOVS     r2,#0xef
        0x0000588e:    4010        .@      ANDS     r0,r0,r2
        0x00005890:    7008        .p      STRB     r0,[r1,#0]
        0x00005892:    492a        *I      LDR      r1,[pc,#168] ; [0x593c] = 0x20000279
        0x00005894:    2002        .       MOVS     r0,#2
        0x00005896:    7008        .p      STRB     r0,[r1,#0]
        0x00005898:    e000        ..      B        0x589c ; interlock_TGT_SM + 836
        0x0000589a:    e7ff        ..      B        0x589c ; interlock_TGT_SM + 836
        0x0000589c:    e044        D.      B        0x5928 ; interlock_TGT_SM + 976
        0x0000589e:    9803        ..      LDR      r0,[sp,#0xc]
        0x000058a0:    7800        .x      LDRB     r0,[r0,#0]
        0x000058a2:    0700        ..      LSLS     r0,r0,#28
        0x000058a4:    0f80        ..      LSRS     r0,r0,#30
        0x000058a6:    2801        .(      CMP      r0,#1
        0x000058a8:    d128        (.      BNE      0x58fc ; interlock_TGT_SM + 932
        0x000058aa:    e7ff        ..      B        0x58ac ; interlock_TGT_SM + 852
        0x000058ac:    9803        ..      LDR      r0,[sp,#0xc]
        0x000058ae:    7800        .x      LDRB     r0,[r0,#0]
        0x000058b0:    2103        .!      MOVS     r1,#3
        0x000058b2:    4008        .@      ANDS     r0,r0,r1
        0x000058b4:    2802        .(      CMP      r0,#2
        0x000058b6:    d121        !.      BNE      0x58fc ; interlock_TGT_SM + 932
        0x000058b8:    e7ff        ..      B        0x58ba ; interlock_TGT_SM + 866
        0x000058ba:    48e6        .H      LDR      r0,[pc,#920] ; [0x5c54] = 0x2000026c
        0x000058bc:    8800        ..      LDRH     r0,[r0,#0]
        0x000058be:    b9d8        ..      CBNZ     r0,0x58f8 ; interlock_TGT_SM + 928
        0x000058c0:    e7ff        ..      B        0x58c2 ; interlock_TGT_SM + 874
        0x000058c2:    9904        ..      LDR      r1,[sp,#0x10]
        0x000058c4:    7808        .x      LDRB     r0,[r1,#0]
        0x000058c6:    0702        ..      LSLS     r2,r0,#28
        0x000058c8:    0fd2        ..      LSRS     r2,r2,#31
        0x000058ca:    4253        SB      RSBS     r3,r2,#0
        0x000058cc:    415a        ZA      ADCS     r2,r2,r3
        0x000058ce:    00d2        ..      LSLS     r2,r2,#3
        0x000058d0:    23f7        .#      MOVS     r3,#0xf7
        0x000058d2:    4018        .@      ANDS     r0,r0,r3
        0x000058d4:    1880        ..      ADDS     r0,r0,r2
        0x000058d6:    7008        .p      STRB     r0,[r1,#0]
        0x000058d8:    9904        ..      LDR      r1,[sp,#0x10]
        0x000058da:    7808        .x      LDRB     r0,[r1,#0]
        0x000058dc:    06c2        ..      LSLS     r2,r0,#27
        0x000058de:    0fd2        ..      LSRS     r2,r2,#31
        0x000058e0:    4253        SB      RSBS     r3,r2,#0
        0x000058e2:    415a        ZA      ADCS     r2,r2,r3
        0x000058e4:    0112        ..      LSLS     r2,r2,#4
        0x000058e6:    23ef        .#      MOVS     r3,#0xef
        0x000058e8:    4018        .@      ANDS     r0,r0,r3
        0x000058ea:    1880        ..      ADDS     r0,r0,r2
        0x000058ec:    7008        .p      STRB     r0,[r1,#0]
        0x000058ee:    49d9        .I      LDR      r1,[pc,#868] ; [0x5c54] = 0x2000026c
        0x000058f0:    f24030e8    @..0    MOVW     r0,#0x3e8
        0x000058f4:    8008        ..      STRH     r0,[r1,#0]
        0x000058f6:    e000        ..      B        0x58fa ; interlock_TGT_SM + 930
        0x000058f8:    e7ff        ..      B        0x58fa ; interlock_TGT_SM + 930
        0x000058fa:    e013        ..      B        0x5924 ; interlock_TGT_SM + 972
        0x000058fc:    9803        ..      LDR      r0,[sp,#0xc]
        0x000058fe:    7800        .x      LDRB     r0,[r0,#0]
        0x00005900:    0700        ..      LSLS     r0,r0,#28
        0x00005902:    0f80        ..      LSRS     r0,r0,#30
        0x00005904:    2802        .(      CMP      r0,#2
        0x00005906:    d10b        ..      BNE      0x5920 ; interlock_TGT_SM + 968
        0x00005908:    e7ff        ..      B        0x590a ; interlock_TGT_SM + 946
        0x0000590a:    9803        ..      LDR      r0,[sp,#0xc]
        0x0000590c:    7800        .x      LDRB     r0,[r0,#0]
        0x0000590e:    2103        .!      MOVS     r1,#3
        0x00005910:    4008        .@      ANDS     r0,r0,r1
        0x00005912:    2802        .(      CMP      r0,#2
        0x00005914:    d104        ..      BNE      0x5920 ; interlock_TGT_SM + 968
        0x00005916:    e7ff        ..      B        0x5918 ; interlock_TGT_SM + 960
        0x00005918:    4908        .I      LDR      r1,[pc,#32] ; [0x593c] = 0x20000279
        0x0000591a:    2000        .       MOVS     r0,#0
        0x0000591c:    7008        .p      STRB     r0,[r1,#0]
        0x0000591e:    e000        ..      B        0x5922 ; interlock_TGT_SM + 970
        0x00005920:    e7ff        ..      B        0x5922 ; interlock_TGT_SM + 970
        0x00005922:    e7ff        ..      B        0x5924 ; interlock_TGT_SM + 972
        0x00005924:    e000        ..      B        0x5928 ; interlock_TGT_SM + 976
        0x00005926:    e7ff        ..      B        0x5928 ; interlock_TGT_SM + 976
        0x00005928:    b006        ..      ADD      sp,sp,#0x18
        0x0000592a:    4770        pG      BX       lr
    $d
    __arm_cp.1_0
        0x0000592c:    200002a4    ...     DCD    536871588
    __arm_cp.1_1
        0x00005930:    2000028e    ...     DCD    536871566
    __arm_cp.1_2
        0x00005934:    2000029f    ...     DCD    536871583
    __arm_cp.1_3
        0x00005938:    20000298    ...     DCD    536871576
    __arm_cp.1_4
        0x0000593c:    20000279    y..     DCD    536871545
    __arm_cp.1_5
        0x00005940:    20000278    x..     DCD    536871544
    __arm_cp.1_6
        0x00005944:    2000026c    l..     DCD    536871532
    __arm_cp.1_7
        0x00005948:    2000025c    \..     DCD    536871516
    $t
    interlock_TGT_SM_DL
        0x0000594c:    b088        ..      SUB      sp,sp,#0x20
        0x0000594e:    48b8        .H      LDR      r0,[pc,#736] ; [0x5c30] = 0x200002a8
        0x00005950:    9007        ..      STR      r0,[sp,#0x1c]
        0x00005952:    48b8        .H      LDR      r0,[pc,#736] ; [0x5c34] = 0x200002a4
        0x00005954:    9006        ..      STR      r0,[sp,#0x18]
        0x00005956:    48b8        .H      LDR      r0,[pc,#736] ; [0x5c38] = 0x2000028e
        0x00005958:    9005        ..      STR      r0,[sp,#0x14]
        0x0000595a:    48b8        .H      LDR      r0,[pc,#736] ; [0x5c3c] = 0x2000027c
        0x0000595c:    9004        ..      STR      r0,[sp,#0x10]
        0x0000595e:    48b8        .H      LDR      r0,[pc,#736] ; [0x5c40] = 0x20000288
        0x00005960:    9003        ..      STR      r0,[sp,#0xc]
        0x00005962:    48b8        .H      LDR      r0,[pc,#736] ; [0x5c44] = 0x2000029f
        0x00005964:    9002        ..      STR      r0,[sp,#8]
        0x00005966:    48b8        .H      LDR      r0,[pc,#736] ; [0x5c48] = 0x20000298
        0x00005968:    9001        ..      STR      r0,[sp,#4]
        0x0000596a:    48b8        .H      LDR      r0,[pc,#736] ; [0x5c4c] = 0x2000027b
        0x0000596c:    7800        .x      LDRB     r0,[r0,#0]
        0x0000596e:    b100        ..      CBZ      r0,0x5972 ; interlock_TGT_SM_DL + 38
        0x00005970:    e15c        \.      B        0x5c2c ; interlock_TGT_SM_DL + 736
        0x00005972:    48b7        .H      LDR      r0,[pc,#732] ; [0x5c50] = 0x2000027a
        0x00005974:    7800        .x      LDRB     r0,[r0,#0]
        0x00005976:    9000        ..      STR      r0,[sp,#0]
        0x00005978:    2804        .(      CMP      r0,#4
        0x0000597a:    d900        ..      BLS      0x597e ; interlock_TGT_SM_DL + 50
        0x0000597c:    e154        T.      B        0x5c28 ; interlock_TGT_SM_DL + 732
        0x0000597e:    9900        ..      LDR      r1,[sp,#0]
        0x00005980:    008a        ..      LSLS     r2,r1,#2
        0x00005982:    a001        ..      ADR      r0,{pc}+6 ; 0x5988
        0x00005984:    1880        ..      ADDS     r0,r0,r2
        0x00005986:    4687        .F      MOV      pc,r0
        0x00005988:    f000b808    ....    B.W      0x599c ; interlock_TGT_SM_DL + 80
        0x0000598c:    f000b842    ..B.    B.W      0x5a14 ; interlock_TGT_SM_DL + 200
        0x00005990:    f000b863    ..c.    B.W      0x5a5a ; interlock_TGT_SM_DL + 270
        0x00005994:    f000b8ab    ....    B.W      0x5aee ; interlock_TGT_SM_DL + 418
        0x00005998:    f000b91e    ....    B.W      0x5bd8 ; interlock_TGT_SM_DL + 652
        0x0000599c:    48ae        .H      LDR      r0,[pc,#696] ; [0x5c58] = 0x2000025c
        0x0000599e:    8800        ..      LDRH     r0,[r0,#0]
        0x000059a0:    b300        ..      CBZ      r0,0x59e4 ; interlock_TGT_SM_DL + 152
        0x000059a2:    e7ff        ..      B        0x59a4 ; interlock_TGT_SM_DL + 88
        0x000059a4:    48ab        .H      LDR      r0,[pc,#684] ; [0x5c54] = 0x2000026c
        0x000059a6:    8800        ..      LDRH     r0,[r0,#0]
        0x000059a8:    b9d8        ..      CBNZ     r0,0x59e2 ; interlock_TGT_SM_DL + 150
        0x000059aa:    e7ff        ..      B        0x59ac ; interlock_TGT_SM_DL + 96
        0x000059ac:    9905        ..      LDR      r1,[sp,#0x14]
        0x000059ae:    7808        .x      LDRB     r0,[r1,#0]
        0x000059b0:    0702        ..      LSLS     r2,r0,#28
        0x000059b2:    0fd2        ..      LSRS     r2,r2,#31
        0x000059b4:    4253        SB      RSBS     r3,r2,#0
        0x000059b6:    415a        ZA      ADCS     r2,r2,r3
        0x000059b8:    00d2        ..      LSLS     r2,r2,#3
        0x000059ba:    23f7        .#      MOVS     r3,#0xf7
        0x000059bc:    4018        .@      ANDS     r0,r0,r3
        0x000059be:    1880        ..      ADDS     r0,r0,r2
        0x000059c0:    7008        .p      STRB     r0,[r1,#0]
        0x000059c2:    9905        ..      LDR      r1,[sp,#0x14]
        0x000059c4:    7808        .x      LDRB     r0,[r1,#0]
        0x000059c6:    06c2        ..      LSLS     r2,r0,#27
        0x000059c8:    0fd2        ..      LSRS     r2,r2,#31
        0x000059ca:    4253        SB      RSBS     r3,r2,#0
        0x000059cc:    415a        ZA      ADCS     r2,r2,r3
        0x000059ce:    0112        ..      LSLS     r2,r2,#4
        0x000059d0:    23ef        .#      MOVS     r3,#0xef
        0x000059d2:    4018        .@      ANDS     r0,r0,r3
        0x000059d4:    1880        ..      ADDS     r0,r0,r2
        0x000059d6:    7008        .p      STRB     r0,[r1,#0]
        0x000059d8:    499e        .I      LDR      r1,[pc,#632] ; [0x5c54] = 0x2000026c
        0x000059da:    f24030e8    @..0    MOVW     r0,#0x3e8
        0x000059de:    8008        ..      STRH     r0,[r1,#0]
        0x000059e0:    e7ff        ..      B        0x59e2 ; interlock_TGT_SM_DL + 150
        0x000059e2:    e016        ..      B        0x5a12 ; interlock_TGT_SM_DL + 198
        0x000059e4:    9806        ..      LDR      r0,[sp,#0x18]
        0x000059e6:    7800        .x      LDRB     r0,[r0,#0]
        0x000059e8:    2103        .!      MOVS     r1,#3
        0x000059ea:    4008        .@      ANDS     r0,r0,r1
        0x000059ec:    2801        .(      CMP      r0,#1
        0x000059ee:    d10e        ..      BNE      0x5a0e ; interlock_TGT_SM_DL + 194
        0x000059f0:    e7ff        ..      B        0x59f2 ; interlock_TGT_SM_DL + 166
        0x000059f2:    9905        ..      LDR      r1,[sp,#0x14]
        0x000059f4:    7808        .x      LDRB     r0,[r1,#0]
        0x000059f6:    22f7        ."      MOVS     r2,#0xf7
        0x000059f8:    4010        .@      ANDS     r0,r0,r2
        0x000059fa:    7008        .p      STRB     r0,[r1,#0]
        0x000059fc:    9905        ..      LDR      r1,[sp,#0x14]
        0x000059fe:    7808        .x      LDRB     r0,[r1,#0]
        0x00005a00:    22ef        ."      MOVS     r2,#0xef
        0x00005a02:    4010        .@      ANDS     r0,r0,r2
        0x00005a04:    7008        .p      STRB     r0,[r1,#0]
        0x00005a06:    4992        .I      LDR      r1,[pc,#584] ; [0x5c50] = 0x2000027a
        0x00005a08:    2001        .       MOVS     r0,#1
        0x00005a0a:    7008        .p      STRB     r0,[r1,#0]
        0x00005a0c:    e000        ..      B        0x5a10 ; interlock_TGT_SM_DL + 196
        0x00005a0e:    e7ff        ..      B        0x5a10 ; interlock_TGT_SM_DL + 196
        0x00005a10:    e7ff        ..      B        0x5a12 ; interlock_TGT_SM_DL + 198
        0x00005a12:    e10a        ..      B        0x5c2a ; interlock_TGT_SM_DL + 734
        0x00005a14:    9806        ..      LDR      r0,[sp,#0x18]
        0x00005a16:    7800        .x      LDRB     r0,[r0,#0]
        0x00005a18:    2103        .!      MOVS     r1,#3
        0x00005a1a:    4008        .@      ANDS     r0,r0,r1
        0x00005a1c:    2802        .(      CMP      r0,#2
        0x00005a1e:    d11b        ..      BNE      0x5a58 ; interlock_TGT_SM_DL + 268
        0x00005a20:    e7ff        ..      B        0x5a22 ; interlock_TGT_SM_DL + 214
        0x00005a22:    9802        ..      LDR      r0,[sp,#8]
        0x00005a24:    7800        .x      LDRB     r0,[r0,#0]
        0x00005a26:    0700        ..      LSLS     r0,r0,#28
        0x00005a28:    0f80        ..      LSRS     r0,r0,#30
        0x00005a2a:    2802        .(      CMP      r0,#2
        0x00005a2c:    d114        ..      BNE      0x5a58 ; interlock_TGT_SM_DL + 268
        0x00005a2e:    e7ff        ..      B        0x5a30 ; interlock_TGT_SM_DL + 228
        0x00005a30:    9905        ..      LDR      r1,[sp,#0x14]
        0x00005a32:    7808        .x      LDRB     r0,[r1,#0]
        0x00005a34:    2208        ."      MOVS     r2,#8
        0x00005a36:    4310        .C      ORRS     r0,r0,r2
        0x00005a38:    7008        .p      STRB     r0,[r1,#0]
        0x00005a3a:    9905        ..      LDR      r1,[sp,#0x14]
        0x00005a3c:    7808        .x      LDRB     r0,[r1,#0]
        0x00005a3e:    2210        ."      MOVS     r2,#0x10
        0x00005a40:    4310        .C      ORRS     r0,r0,r2
        0x00005a42:    7008        .p      STRB     r0,[r1,#0]
        0x00005a44:    9905        ..      LDR      r1,[sp,#0x14]
        0x00005a46:    7908        .y      LDRB     r0,[r1,#4]
        0x00005a48:    223f        ?"      MOVS     r2,#0x3f
        0x00005a4a:    4010        .@      ANDS     r0,r0,r2
        0x00005a4c:    3040        @0      ADDS     r0,r0,#0x40
        0x00005a4e:    7108        .q      STRB     r0,[r1,#4]
        0x00005a50:    497f        .I      LDR      r1,[pc,#508] ; [0x5c50] = 0x2000027a
        0x00005a52:    2002        .       MOVS     r0,#2
        0x00005a54:    7008        .p      STRB     r0,[r1,#0]
        0x00005a56:    e7ff        ..      B        0x5a58 ; interlock_TGT_SM_DL + 268
        0x00005a58:    e0e7        ..      B        0x5c2a ; interlock_TGT_SM_DL + 734
        0x00005a5a:    9806        ..      LDR      r0,[sp,#0x18]
        0x00005a5c:    7800        .x      LDRB     r0,[r0,#0]
        0x00005a5e:    2103        .!      MOVS     r1,#3
        0x00005a60:    4008        .@      ANDS     r0,r0,r1
        0x00005a62:    2802        .(      CMP      r0,#2
        0x00005a64:    d115        ..      BNE      0x5a92 ; interlock_TGT_SM_DL + 326
        0x00005a66:    e7ff        ..      B        0x5a68 ; interlock_TGT_SM_DL + 284
        0x00005a68:    9802        ..      LDR      r0,[sp,#8]
        0x00005a6a:    7800        .x      LDRB     r0,[r0,#0]
        0x00005a6c:    0700        ..      LSLS     r0,r0,#28
        0x00005a6e:    0f80        ..      LSRS     r0,r0,#30
        0x00005a70:    2801        .(      CMP      r0,#1
        0x00005a72:    d10e        ..      BNE      0x5a92 ; interlock_TGT_SM_DL + 326
        0x00005a74:    e7ff        ..      B        0x5a76 ; interlock_TGT_SM_DL + 298
        0x00005a76:    9905        ..      LDR      r1,[sp,#0x14]
        0x00005a78:    7808        .x      LDRB     r0,[r1,#0]
        0x00005a7a:    22f7        ."      MOVS     r2,#0xf7
        0x00005a7c:    4010        .@      ANDS     r0,r0,r2
        0x00005a7e:    7008        .p      STRB     r0,[r1,#0]
        0x00005a80:    9905        ..      LDR      r1,[sp,#0x14]
        0x00005a82:    7808        .x      LDRB     r0,[r1,#0]
        0x00005a84:    22ef        ."      MOVS     r2,#0xef
        0x00005a86:    4010        .@      ANDS     r0,r0,r2
        0x00005a88:    7008        .p      STRB     r0,[r1,#0]
        0x00005a8a:    4971        qI      LDR      r1,[pc,#452] ; [0x5c50] = 0x2000027a
        0x00005a8c:    2003        .       MOVS     r0,#3
        0x00005a8e:    7008        .p      STRB     r0,[r1,#0]
        0x00005a90:    e02c        ,.      B        0x5aec ; interlock_TGT_SM_DL + 416
        0x00005a92:    9801        ..      LDR      r0,[sp,#4]
        0x00005a94:    78c0        .x      LDRB     r0,[r0,#3]
        0x00005a96:    0700        ..      LSLS     r0,r0,#28
        0x00005a98:    0f80        ..      LSRS     r0,r0,#30
        0x00005a9a:    2802        .(      CMP      r0,#2
        0x00005a9c:    d10c        ..      BNE      0x5ab8 ; interlock_TGT_SM_DL + 364
        0x00005a9e:    e7ff        ..      B        0x5aa0 ; interlock_TGT_SM_DL + 340
        0x00005aa0:    9801        ..      LDR      r0,[sp,#4]
        0x00005aa2:    7880        .x      LDRB     r0,[r0,#2]
        0x00005aa4:    0980        ..      LSRS     r0,r0,#6
        0x00005aa6:    2802        .(      CMP      r0,#2
        0x00005aa8:    d106        ..      BNE      0x5ab8 ; interlock_TGT_SM_DL + 364
        0x00005aaa:    e7ff        ..      B        0x5aac ; interlock_TGT_SM_DL + 352
        0x00005aac:    9905        ..      LDR      r1,[sp,#0x14]
        0x00005aae:    7848        Hx      LDRB     r0,[r1,#1]
        0x00005ab0:    2204        ."      MOVS     r2,#4
        0x00005ab2:    4310        .C      ORRS     r0,r0,r2
        0x00005ab4:    7048        Hp      STRB     r0,[r1,#1]
        0x00005ab6:    e7ff        ..      B        0x5ab8 ; interlock_TGT_SM_DL + 364
        0x00005ab8:    9802        ..      LDR      r0,[sp,#8]
        0x00005aba:    78c0        .x      LDRB     r0,[r0,#3]
        0x00005abc:    0680        ..      LSLS     r0,r0,#26
        0x00005abe:    0f80        ..      LSRS     r0,r0,#30
        0x00005ac0:    2802        .(      CMP      r0,#2
        0x00005ac2:    d112        ..      BNE      0x5aea ; interlock_TGT_SM_DL + 414
        0x00005ac4:    e7ff        ..      B        0x5ac6 ; interlock_TGT_SM_DL + 378
        0x00005ac6:    9805        ..      LDR      r0,[sp,#0x14]
        0x00005ac8:    7840        @x      LDRB     r0,[r0,#1]
        0x00005aca:    0740        @.      LSLS     r0,r0,#29
        0x00005acc:    0fc0        ..      LSRS     r0,r0,#31
        0x00005ace:    b160        `.      CBZ      r0,0x5aea ; interlock_TGT_SM_DL + 414
        0x00005ad0:    e7ff        ..      B        0x5ad2 ; interlock_TGT_SM_DL + 390
        0x00005ad2:    4961        aI      LDR      r1,[pc,#388] ; [0x5c58] = 0x2000025c
        0x00005ad4:    2078        x       MOVS     r0,#0x78
        0x00005ad6:    8008        ..      STRH     r0,[r1,#0]
        0x00005ad8:    9905        ..      LDR      r1,[sp,#0x14]
        0x00005ada:    7848        Hx      LDRB     r0,[r1,#1]
        0x00005adc:    22fb        ."      MOVS     r2,#0xfb
        0x00005ade:    4010        .@      ANDS     r0,r0,r2
        0x00005ae0:    7048        Hp      STRB     r0,[r1,#1]
        0x00005ae2:    495b        [I      LDR      r1,[pc,#364] ; [0x5c50] = 0x2000027a
        0x00005ae4:    2000        .       MOVS     r0,#0
        0x00005ae6:    7008        .p      STRB     r0,[r1,#0]
        0x00005ae8:    e7ff        ..      B        0x5aea ; interlock_TGT_SM_DL + 414
        0x00005aea:    e7ff        ..      B        0x5aec ; interlock_TGT_SM_DL + 416
        0x00005aec:    e09d        ..      B        0x5c2a ; interlock_TGT_SM_DL + 734
        0x00005aee:    9806        ..      LDR      r0,[sp,#0x18]
        0x00005af0:    7800        .x      LDRB     r0,[r0,#0]
        0x00005af2:    2103        .!      MOVS     r1,#3
        0x00005af4:    4008        .@      ANDS     r0,r0,r1
        0x00005af6:    2802        .(      CMP      r0,#2
        0x00005af8:    d159        Y.      BNE      0x5bae ; interlock_TGT_SM_DL + 610
        0x00005afa:    e7ff        ..      B        0x5afc ; interlock_TGT_SM_DL + 432
        0x00005afc:    9802        ..      LDR      r0,[sp,#8]
        0x00005afe:    7800        .x      LDRB     r0,[r0,#0]
        0x00005b00:    0700        ..      LSLS     r0,r0,#28
        0x00005b02:    0f80        ..      LSRS     r0,r0,#30
        0x00005b04:    2802        .(      CMP      r0,#2
        0x00005b06:    d152        R.      BNE      0x5bae ; interlock_TGT_SM_DL + 610
        0x00005b08:    e7ff        ..      B        0x5b0a ; interlock_TGT_SM_DL + 446
        0x00005b0a:    4852        RH      LDR      r0,[pc,#328] ; [0x5c54] = 0x2000026c
        0x00005b0c:    8800        ..      LDRH     r0,[r0,#0]
        0x00005b0e:    b9d8        ..      CBNZ     r0,0x5b48 ; interlock_TGT_SM_DL + 508
        0x00005b10:    e7ff        ..      B        0x5b12 ; interlock_TGT_SM_DL + 454
        0x00005b12:    9905        ..      LDR      r1,[sp,#0x14]
        0x00005b14:    7808        .x      LDRB     r0,[r1,#0]
        0x00005b16:    0702        ..      LSLS     r2,r0,#28
        0x00005b18:    0fd2        ..      LSRS     r2,r2,#31
        0x00005b1a:    4253        SB      RSBS     r3,r2,#0
        0x00005b1c:    415a        ZA      ADCS     r2,r2,r3
        0x00005b1e:    00d2        ..      LSLS     r2,r2,#3
        0x00005b20:    23f7        .#      MOVS     r3,#0xf7
        0x00005b22:    4018        .@      ANDS     r0,r0,r3
        0x00005b24:    1880        ..      ADDS     r0,r0,r2
        0x00005b26:    7008        .p      STRB     r0,[r1,#0]
        0x00005b28:    9905        ..      LDR      r1,[sp,#0x14]
        0x00005b2a:    7808        .x      LDRB     r0,[r1,#0]
        0x00005b2c:    06c2        ..      LSLS     r2,r0,#27
        0x00005b2e:    0fd2        ..      LSRS     r2,r2,#31
        0x00005b30:    4253        SB      RSBS     r3,r2,#0
        0x00005b32:    415a        ZA      ADCS     r2,r2,r3
        0x00005b34:    0112        ..      LSLS     r2,r2,#4
        0x00005b36:    23ef        .#      MOVS     r3,#0xef
        0x00005b38:    4018        .@      ANDS     r0,r0,r3
        0x00005b3a:    1880        ..      ADDS     r0,r0,r2
        0x00005b3c:    7008        .p      STRB     r0,[r1,#0]
        0x00005b3e:    4945        EI      LDR      r1,[pc,#276] ; [0x5c54] = 0x2000026c
        0x00005b40:    f24030e8    @..0    MOVW     r0,#0x3e8
        0x00005b44:    8008        ..      STRH     r0,[r1,#0]
        0x00005b46:    e7ff        ..      B        0x5b48 ; interlock_TGT_SM_DL + 508
        0x00005b48:    9801        ..      LDR      r0,[sp,#4]
        0x00005b4a:    78c0        .x      LDRB     r0,[r0,#3]
        0x00005b4c:    0700        ..      LSLS     r0,r0,#28
        0x00005b4e:    0f80        ..      LSRS     r0,r0,#30
        0x00005b50:    2802        .(      CMP      r0,#2
        0x00005b52:    d10c        ..      BNE      0x5b6e ; interlock_TGT_SM_DL + 546
        0x00005b54:    e7ff        ..      B        0x5b56 ; interlock_TGT_SM_DL + 522
        0x00005b56:    9801        ..      LDR      r0,[sp,#4]
        0x00005b58:    7880        .x      LDRB     r0,[r0,#2]
        0x00005b5a:    0980        ..      LSRS     r0,r0,#6
        0x00005b5c:    2802        .(      CMP      r0,#2
        0x00005b5e:    d106        ..      BNE      0x5b6e ; interlock_TGT_SM_DL + 546
        0x00005b60:    e7ff        ..      B        0x5b62 ; interlock_TGT_SM_DL + 534
        0x00005b62:    9905        ..      LDR      r1,[sp,#0x14]
        0x00005b64:    7848        Hx      LDRB     r0,[r1,#1]
        0x00005b66:    2204        ."      MOVS     r2,#4
        0x00005b68:    4310        .C      ORRS     r0,r0,r2
        0x00005b6a:    7048        Hp      STRB     r0,[r1,#1]
        0x00005b6c:    e7ff        ..      B        0x5b6e ; interlock_TGT_SM_DL + 546
        0x00005b6e:    9802        ..      LDR      r0,[sp,#8]
        0x00005b70:    78c0        .x      LDRB     r0,[r0,#3]
        0x00005b72:    0680        ..      LSLS     r0,r0,#26
        0x00005b74:    0f80        ..      LSRS     r0,r0,#30
        0x00005b76:    2802        .(      CMP      r0,#2
        0x00005b78:    d112        ..      BNE      0x5ba0 ; interlock_TGT_SM_DL + 596
        0x00005b7a:    e7ff        ..      B        0x5b7c ; interlock_TGT_SM_DL + 560
        0x00005b7c:    9805        ..      LDR      r0,[sp,#0x14]
        0x00005b7e:    7840        @x      LDRB     r0,[r0,#1]
        0x00005b80:    0740        @.      LSLS     r0,r0,#29
        0x00005b82:    0fc0        ..      LSRS     r0,r0,#31
        0x00005b84:    b160        `.      CBZ      r0,0x5ba0 ; interlock_TGT_SM_DL + 596
        0x00005b86:    e7ff        ..      B        0x5b88 ; interlock_TGT_SM_DL + 572
        0x00005b88:    4933        3I      LDR      r1,[pc,#204] ; [0x5c58] = 0x2000025c
        0x00005b8a:    2078        x       MOVS     r0,#0x78
        0x00005b8c:    8008        ..      STRH     r0,[r1,#0]
        0x00005b8e:    9905        ..      LDR      r1,[sp,#0x14]
        0x00005b90:    7848        Hx      LDRB     r0,[r1,#1]
        0x00005b92:    22fb        ."      MOVS     r2,#0xfb
        0x00005b94:    4010        .@      ANDS     r0,r0,r2
        0x00005b96:    7048        Hp      STRB     r0,[r1,#1]
        0x00005b98:    492d        -I      LDR      r1,[pc,#180] ; [0x5c50] = 0x2000027a
        0x00005b9a:    2000        .       MOVS     r0,#0
        0x00005b9c:    7008        .p      STRB     r0,[r1,#0]
        0x00005b9e:    e7ff        ..      B        0x5ba0 ; interlock_TGT_SM_DL + 596
        0x00005ba0:    9905        ..      LDR      r1,[sp,#0x14]
        0x00005ba2:    7908        .y      LDRB     r0,[r1,#4]
        0x00005ba4:    223f        ?"      MOVS     r2,#0x3f
        0x00005ba6:    4010        .@      ANDS     r0,r0,r2
        0x00005ba8:    3080        .0      ADDS     r0,r0,#0x80
        0x00005baa:    7108        .q      STRB     r0,[r1,#4]
        0x00005bac:    e013        ..      B        0x5bd6 ; interlock_TGT_SM_DL + 650
        0x00005bae:    9806        ..      LDR      r0,[sp,#0x18]
        0x00005bb0:    7800        .x      LDRB     r0,[r0,#0]
        0x00005bb2:    2103        .!      MOVS     r1,#3
        0x00005bb4:    4008        .@      ANDS     r0,r0,r1
        0x00005bb6:    2801        .(      CMP      r0,#1
        0x00005bb8:    d10b        ..      BNE      0x5bd2 ; interlock_TGT_SM_DL + 646
        0x00005bba:    e7ff        ..      B        0x5bbc ; interlock_TGT_SM_DL + 624
        0x00005bbc:    9802        ..      LDR      r0,[sp,#8]
        0x00005bbe:    7800        .x      LDRB     r0,[r0,#0]
        0x00005bc0:    0700        ..      LSLS     r0,r0,#28
        0x00005bc2:    0f80        ..      LSRS     r0,r0,#30
        0x00005bc4:    2802        .(      CMP      r0,#2
        0x00005bc6:    d104        ..      BNE      0x5bd2 ; interlock_TGT_SM_DL + 646
        0x00005bc8:    e7ff        ..      B        0x5bca ; interlock_TGT_SM_DL + 638
        0x00005bca:    4921        !I      LDR      r1,[pc,#132] ; [0x5c50] = 0x2000027a
        0x00005bcc:    2004        .       MOVS     r0,#4
        0x00005bce:    7008        .p      STRB     r0,[r1,#0]
        0x00005bd0:    e000        ..      B        0x5bd4 ; interlock_TGT_SM_DL + 648
        0x00005bd2:    e7ff        ..      B        0x5bd4 ; interlock_TGT_SM_DL + 648
        0x00005bd4:    e7ff        ..      B        0x5bd6 ; interlock_TGT_SM_DL + 650
        0x00005bd6:    e028        (.      B        0x5c2a ; interlock_TGT_SM_DL + 734
        0x00005bd8:    9806        ..      LDR      r0,[sp,#0x18]
        0x00005bda:    7800        .x      LDRB     r0,[r0,#0]
        0x00005bdc:    2103        .!      MOVS     r1,#3
        0x00005bde:    4008        .@      ANDS     r0,r0,r1
        0x00005be0:    2801        .(      CMP      r0,#1
        0x00005be2:    d11f        ..      BNE      0x5c24 ; interlock_TGT_SM_DL + 728
        0x00005be4:    e7ff        ..      B        0x5be6 ; interlock_TGT_SM_DL + 666
        0x00005be6:    9802        ..      LDR      r0,[sp,#8]
        0x00005be8:    7800        .x      LDRB     r0,[r0,#0]
        0x00005bea:    0700        ..      LSLS     r0,r0,#28
        0x00005bec:    0f80        ..      LSRS     r0,r0,#30
        0x00005bee:    2802        .(      CMP      r0,#2
        0x00005bf0:    d118        ..      BNE      0x5c24 ; interlock_TGT_SM_DL + 728
        0x00005bf2:    e7ff        ..      B        0x5bf4 ; interlock_TGT_SM_DL + 680
        0x00005bf4:    9905        ..      LDR      r1,[sp,#0x14]
        0x00005bf6:    7808        .x      LDRB     r0,[r1,#0]
        0x00005bf8:    22f7        ."      MOVS     r2,#0xf7
        0x00005bfa:    4010        .@      ANDS     r0,r0,r2
        0x00005bfc:    7008        .p      STRB     r0,[r1,#0]
        0x00005bfe:    9905        ..      LDR      r1,[sp,#0x14]
        0x00005c00:    7808        .x      LDRB     r0,[r1,#0]
        0x00005c02:    22ef        ."      MOVS     r2,#0xef
        0x00005c04:    4010        .@      ANDS     r0,r0,r2
        0x00005c06:    7008        .p      STRB     r0,[r1,#0]
        0x00005c08:    9905        ..      LDR      r1,[sp,#0x14]
        0x00005c0a:    7848        Hx      LDRB     r0,[r1,#1]
        0x00005c0c:    22fb        ."      MOVS     r2,#0xfb
        0x00005c0e:    4010        .@      ANDS     r0,r0,r2
        0x00005c10:    7048        Hp      STRB     r0,[r1,#1]
        0x00005c12:    490f        .I      LDR      r1,[pc,#60] ; [0x5c50] = 0x2000027a
        0x00005c14:    2000        .       MOVS     r0,#0
        0x00005c16:    7008        .p      STRB     r0,[r1,#0]
        0x00005c18:    9905        ..      LDR      r1,[sp,#0x14]
        0x00005c1a:    7908        .y      LDRB     r0,[r1,#4]
        0x00005c1c:    22c0        ."      MOVS     r2,#0xc0
        0x00005c1e:    4310        .C      ORRS     r0,r0,r2
        0x00005c20:    7108        .q      STRB     r0,[r1,#4]
        0x00005c22:    e000        ..      B        0x5c26 ; interlock_TGT_SM_DL + 730
        0x00005c24:    e7ff        ..      B        0x5c26 ; interlock_TGT_SM_DL + 730
        0x00005c26:    e000        ..      B        0x5c2a ; interlock_TGT_SM_DL + 734
        0x00005c28:    e7ff        ..      B        0x5c2a ; interlock_TGT_SM_DL + 734
        0x00005c2a:    e7ff        ..      B        0x5c2c ; interlock_TGT_SM_DL + 736
        0x00005c2c:    b008        ..      ADD      sp,sp,#0x20
        0x00005c2e:    4770        pG      BX       lr
    $d
    __arm_cp.1_0
        0x00005c30:    200002a8    ...     DCD    536871592
    __arm_cp.1_1
        0x00005c34:    200002a4    ...     DCD    536871588
    __arm_cp.1_2
        0x00005c38:    2000028e    ...     DCD    536871566
    __arm_cp.1_3
        0x00005c3c:    2000027c    |..     DCD    536871548
    __arm_cp.1_4
        0x00005c40:    20000288    ...     DCD    536871560
    __arm_cp.1_5
        0x00005c44:    2000029f    ...     DCD    536871583
    __arm_cp.1_6
        0x00005c48:    20000298    ...     DCD    536871576
    __arm_cp.1_7
        0x00005c4c:    2000027b    {..     DCD    536871547
    __arm_cp.1_8
        0x00005c50:    2000027a    z..     DCD    536871546
    __arm_cp.1_9
        0x00005c54:    2000026c    l..     DCD    536871532
    __arm_cp.1_10
        0x00005c58:    2000025c    \..     DCD    536871516
    $t
    interlock_set_defaults
        0x00005c5c:    b5f0        ..      PUSH     {r4-r7,lr}
        0x00005c5e:    b0a2        ..      SUB      sp,sp,#0x88
        0x00005c60:    48b6        .H      LDR      r0,[pc,#728] ; [0x5f3c] = 0x200002a8
        0x00005c62:    9021        !.      STR      r0,[sp,#0x84]
        0x00005c64:    48b6        .H      LDR      r0,[pc,#728] ; [0x5f40] = 0x2000028e
        0x00005c66:    9020         .      STR      r0,[sp,#0x80]
        0x00005c68:    48b6        .H      LDR      r0,[pc,#728] ; [0x5f44] = 0x20000288
        0x00005c6a:    901f        ..      STR      r0,[sp,#0x7c]
        0x00005c6c:    9921        !.      LDR      r1,[sp,#0x84]
        0x00005c6e:    7808        .x      LDRB     r0,[r1,#0]
        0x00005c70:    22fc        ."      MOVS     r2,#0xfc
        0x00005c72:    4010        .@      ANDS     r0,r0,r2
        0x00005c74:    1c40        @.      ADDS     r0,r0,#1
        0x00005c76:    7008        .p      STRB     r0,[r1,#0]
        0x00005c78:    9921        !.      LDR      r1,[sp,#0x84]
        0x00005c7a:    7808        .x      LDRB     r0,[r1,#0]
        0x00005c7c:    25f3        .%      MOVS     r5,#0xf3
        0x00005c7e:    4028        (@      ANDS     r0,r0,r5
        0x00005c80:    3008        .0      ADDS     r0,r0,#8
        0x00005c82:    7008        .p      STRB     r0,[r1,#0]
        0x00005c84:    9921        !.      LDR      r1,[sp,#0x84]
        0x00005c86:    7808        .x      LDRB     r0,[r1,#0]
        0x00005c88:    24cf        .$      MOVS     r4,#0xcf
        0x00005c8a:    4020         @      ANDS     r0,r0,r4
        0x00005c8c:    3010        .0      ADDS     r0,r0,#0x10
        0x00005c8e:    7008        .p      STRB     r0,[r1,#0]
        0x00005c90:    9921        !.      LDR      r1,[sp,#0x84]
        0x00005c92:    7808        .x      LDRB     r0,[r1,#0]
        0x00005c94:    233f        ?#      MOVS     r3,#0x3f
        0x00005c96:    4018        .@      ANDS     r0,r0,r3
        0x00005c98:    3080        .0      ADDS     r0,r0,#0x80
        0x00005c9a:    7008        .p      STRB     r0,[r1,#0]
        0x00005c9c:    9921        !.      LDR      r1,[sp,#0x84]
        0x00005c9e:    7848        Hx      LDRB     r0,[r1,#1]
        0x00005ca0:    4010        .@      ANDS     r0,r0,r2
        0x00005ca2:    1c40        @.      ADDS     r0,r0,#1
        0x00005ca4:    7048        Hp      STRB     r0,[r1,#1]
        0x00005ca6:    9920         .      LDR      r1,[sp,#0x80]
        0x00005ca8:    7808        .x      LDRB     r0,[r1,#0]
        0x00005caa:    26fe        .&      MOVS     r6,#0xfe
        0x00005cac:    4030        0@      ANDS     r0,r0,r6
        0x00005cae:    7008        .p      STRB     r0,[r1,#0]
        0x00005cb0:    9920         .      LDR      r1,[sp,#0x80]
        0x00005cb2:    7808        .x      LDRB     r0,[r1,#0]
        0x00005cb4:    2602        .&      MOVS     r6,#2
        0x00005cb6:    961d        ..      STR      r6,[sp,#0x74]
        0x00005cb8:    4330        0C      ORRS     r0,r0,r6
        0x00005cba:    7008        .p      STRB     r0,[r1,#0]
        0x00005cbc:    9920         .      LDR      r1,[sp,#0x80]
        0x00005cbe:    7808        .x      LDRB     r0,[r1,#0]
        0x00005cc0:    2704        .'      MOVS     r7,#4
        0x00005cc2:    4338        8C      ORRS     r0,r0,r7
        0x00005cc4:    7008        .p      STRB     r0,[r1,#0]
        0x00005cc6:    9920         .      LDR      r1,[sp,#0x80]
        0x00005cc8:    7808        .x      LDRB     r0,[r1,#0]
        0x00005cca:    2608        .&      MOVS     r6,#8
        0x00005ccc:    4330        0C      ORRS     r0,r0,r6
        0x00005cce:    7008        .p      STRB     r0,[r1,#0]
        0x00005cd0:    9820         .      LDR      r0,[sp,#0x80]
        0x00005cd2:    9000        ..      STR      r0,[sp,#0]
        0x00005cd4:    7800        .x      LDRB     r0,[r0,#0]
        0x00005cd6:    2110        .!      MOVS     r1,#0x10
        0x00005cd8:    9114        ..      STR      r1,[sp,#0x50]
        0x00005cda:    4308        .C      ORRS     r0,r0,r1
        0x00005cdc:    9900        ..      LDR      r1,[sp,#0]
        0x00005cde:    7008        .p      STRB     r0,[r1,#0]
        0x00005ce0:    9820         .      LDR      r0,[sp,#0x80]
        0x00005ce2:    9001        ..      STR      r0,[sp,#4]
        0x00005ce4:    7800        .x      LDRB     r0,[r0,#0]
        0x00005ce6:    2120         !      MOVS     r1,#0x20
        0x00005ce8:    910e        ..      STR      r1,[sp,#0x38]
        0x00005cea:    4308        .C      ORRS     r0,r0,r1
        0x00005cec:    9901        ..      LDR      r1,[sp,#4]
        0x00005cee:    7008        .p      STRB     r0,[r1,#0]
        0x00005cf0:    9820         .      LDR      r0,[sp,#0x80]
        0x00005cf2:    9002        ..      STR      r0,[sp,#8]
        0x00005cf4:    7800        .x      LDRB     r0,[r0,#0]
        0x00005cf6:    2140        @!      MOVS     r1,#0x40
        0x00005cf8:    9117        ..      STR      r1,[sp,#0x5c]
        0x00005cfa:    4308        .C      ORRS     r0,r0,r1
        0x00005cfc:    9902        ..      LDR      r1,[sp,#8]
        0x00005cfe:    7008        .p      STRB     r0,[r1,#0]
        0x00005d00:    9820         .      LDR      r0,[sp,#0x80]
        0x00005d02:    9003        ..      STR      r0,[sp,#0xc]
        0x00005d04:    7800        .x      LDRB     r0,[r0,#0]
        0x00005d06:    2180        .!      MOVS     r1,#0x80
        0x00005d08:    9119        ..      STR      r1,[sp,#0x64]
        0x00005d0a:    4308        .C      ORRS     r0,r0,r1
        0x00005d0c:    9903        ..      LDR      r1,[sp,#0xc]
        0x00005d0e:    7008        .p      STRB     r0,[r1,#0]
        0x00005d10:    9820         .      LDR      r0,[sp,#0x80]
        0x00005d12:    9004        ..      STR      r0,[sp,#0x10]
        0x00005d14:    7840        @x      LDRB     r0,[r0,#1]
        0x00005d16:    2101        .!      MOVS     r1,#1
        0x00005d18:    911b        ..      STR      r1,[sp,#0x6c]
        0x00005d1a:    4308        .C      ORRS     r0,r0,r1
        0x00005d1c:    9904        ..      LDR      r1,[sp,#0x10]
        0x00005d1e:    7048        Hp      STRB     r0,[r1,#1]
        0x00005d20:    9820         .      LDR      r0,[sp,#0x80]
        0x00005d22:    9005        ..      STR      r0,[sp,#0x14]
        0x00005d24:    7840        @x      LDRB     r0,[r0,#1]
        0x00005d26:    21fd        .!      MOVS     r1,#0xfd
        0x00005d28:    4008        .@      ANDS     r0,r0,r1
        0x00005d2a:    9905        ..      LDR      r1,[sp,#0x14]
        0x00005d2c:    7048        Hp      STRB     r0,[r1,#1]
        0x00005d2e:    9820         .      LDR      r0,[sp,#0x80]
        0x00005d30:    9006        ..      STR      r0,[sp,#0x18]
        0x00005d32:    7840        @x      LDRB     r0,[r0,#1]
        0x00005d34:    21fb        .!      MOVS     r1,#0xfb
        0x00005d36:    4008        .@      ANDS     r0,r0,r1
        0x00005d38:    9906        ..      LDR      r1,[sp,#0x18]
        0x00005d3a:    7048        Hp      STRB     r0,[r1,#1]
        0x00005d3c:    9920         .      LDR      r1,[sp,#0x80]
        0x00005d3e:    7848        Hx      LDRB     r0,[r1,#1]
        0x00005d40:    4330        0C      ORRS     r0,r0,r6
        0x00005d42:    7048        Hp      STRB     r0,[r1,#1]
        0x00005d44:    9914        ..      LDR      r1,[sp,#0x50]
        0x00005d46:    9820         .      LDR      r0,[sp,#0x80]
        0x00005d48:    9007        ..      STR      r0,[sp,#0x1c]
        0x00005d4a:    7840        @x      LDRB     r0,[r0,#1]
        0x00005d4c:    4308        .C      ORRS     r0,r0,r1
        0x00005d4e:    9907        ..      LDR      r1,[sp,#0x1c]
        0x00005d50:    7048        Hp      STRB     r0,[r1,#1]
        0x00005d52:    990e        ..      LDR      r1,[sp,#0x38]
        0x00005d54:    9820         .      LDR      r0,[sp,#0x80]
        0x00005d56:    9008        ..      STR      r0,[sp,#0x20]
        0x00005d58:    7840        @x      LDRB     r0,[r0,#1]
        0x00005d5a:    4308        .C      ORRS     r0,r0,r1
        0x00005d5c:    9908        ..      LDR      r1,[sp,#0x20]
        0x00005d5e:    7048        Hp      STRB     r0,[r1,#1]
        0x00005d60:    9917        ..      LDR      r1,[sp,#0x5c]
        0x00005d62:    9820         .      LDR      r0,[sp,#0x80]
        0x00005d64:    9009        ..      STR      r0,[sp,#0x24]
        0x00005d66:    7840        @x      LDRB     r0,[r0,#1]
        0x00005d68:    4308        .C      ORRS     r0,r0,r1
        0x00005d6a:    9909        ..      LDR      r1,[sp,#0x24]
        0x00005d6c:    7048        Hp      STRB     r0,[r1,#1]
        0x00005d6e:    9919        ..      LDR      r1,[sp,#0x64]
        0x00005d70:    9820         .      LDR      r0,[sp,#0x80]
        0x00005d72:    900a        ..      STR      r0,[sp,#0x28]
        0x00005d74:    7840        @x      LDRB     r0,[r0,#1]
        0x00005d76:    4308        .C      ORRS     r0,r0,r1
        0x00005d78:    990a        ..      LDR      r1,[sp,#0x28]
        0x00005d7a:    7048        Hp      STRB     r0,[r1,#1]
        0x00005d7c:    991b        ..      LDR      r1,[sp,#0x6c]
        0x00005d7e:    9820         .      LDR      r0,[sp,#0x80]
        0x00005d80:    900b        ..      STR      r0,[sp,#0x2c]
        0x00005d82:    7880        .x      LDRB     r0,[r0,#2]
        0x00005d84:    4308        .C      ORRS     r0,r0,r1
        0x00005d86:    990b        ..      LDR      r1,[sp,#0x2c]
        0x00005d88:    7088        .p      STRB     r0,[r1,#2]
        0x00005d8a:    991d        ..      LDR      r1,[sp,#0x74]
        0x00005d8c:    9820         .      LDR      r0,[sp,#0x80]
        0x00005d8e:    900c        ..      STR      r0,[sp,#0x30]
        0x00005d90:    7880        .x      LDRB     r0,[r0,#2]
        0x00005d92:    4308        .C      ORRS     r0,r0,r1
        0x00005d94:    990c        ..      LDR      r1,[sp,#0x30]
        0x00005d96:    7088        .p      STRB     r0,[r1,#2]
        0x00005d98:    9920         .      LDR      r1,[sp,#0x80]
        0x00005d9a:    7888        .x      LDRB     r0,[r1,#2]
        0x00005d9c:    4338        8C      ORRS     r0,r0,r7
        0x00005d9e:    7088        .p      STRB     r0,[r1,#2]
        0x00005da0:    9920         .      LDR      r1,[sp,#0x80]
        0x00005da2:    7888        .x      LDRB     r0,[r1,#2]
        0x00005da4:    4330        0C      ORRS     r0,r0,r6
        0x00005da6:    7088        .p      STRB     r0,[r1,#2]
        0x00005da8:    9914        ..      LDR      r1,[sp,#0x50]
        0x00005daa:    9820         .      LDR      r0,[sp,#0x80]
        0x00005dac:    900d        ..      STR      r0,[sp,#0x34]
        0x00005dae:    7880        .x      LDRB     r0,[r0,#2]
        0x00005db0:    4308        .C      ORRS     r0,r0,r1
        0x00005db2:    990d        ..      LDR      r1,[sp,#0x34]
        0x00005db4:    7088        .p      STRB     r0,[r1,#2]
        0x00005db6:    990e        ..      LDR      r1,[sp,#0x38]
        0x00005db8:    9820         .      LDR      r0,[sp,#0x80]
        0x00005dba:    900f        ..      STR      r0,[sp,#0x3c]
        0x00005dbc:    7880        .x      LDRB     r0,[r0,#2]
        0x00005dbe:    4308        .C      ORRS     r0,r0,r1
        0x00005dc0:    990f        ..      LDR      r1,[sp,#0x3c]
        0x00005dc2:    7088        .p      STRB     r0,[r1,#2]
        0x00005dc4:    9820         .      LDR      r0,[sp,#0x80]
        0x00005dc6:    9010        ..      STR      r0,[sp,#0x40]
        0x00005dc8:    7880        .x      LDRB     r0,[r0,#2]
        0x00005dca:    21bf        .!      MOVS     r1,#0xbf
        0x00005dcc:    4008        .@      ANDS     r0,r0,r1
        0x00005dce:    9910        ..      LDR      r1,[sp,#0x40]
        0x00005dd0:    7088        .p      STRB     r0,[r1,#2]
        0x00005dd2:    9919        ..      LDR      r1,[sp,#0x64]
        0x00005dd4:    9820         .      LDR      r0,[sp,#0x80]
        0x00005dd6:    9011        ..      STR      r0,[sp,#0x44]
        0x00005dd8:    7880        .x      LDRB     r0,[r0,#2]
        0x00005dda:    4308        .C      ORRS     r0,r0,r1
        0x00005ddc:    9911        ..      LDR      r1,[sp,#0x44]
        0x00005dde:    7088        .p      STRB     r0,[r1,#2]
        0x00005de0:    991b        ..      LDR      r1,[sp,#0x6c]
        0x00005de2:    9820         .      LDR      r0,[sp,#0x80]
        0x00005de4:    9012        ..      STR      r0,[sp,#0x48]
        0x00005de6:    78c0        .x      LDRB     r0,[r0,#3]
        0x00005de8:    4308        .C      ORRS     r0,r0,r1
        0x00005dea:    9912        ..      LDR      r1,[sp,#0x48]
        0x00005dec:    70c8        .p      STRB     r0,[r1,#3]
        0x00005dee:    991d        ..      LDR      r1,[sp,#0x74]
        0x00005df0:    9820         .      LDR      r0,[sp,#0x80]
        0x00005df2:    9013        ..      STR      r0,[sp,#0x4c]
        0x00005df4:    78c0        .x      LDRB     r0,[r0,#3]
        0x00005df6:    4308        .C      ORRS     r0,r0,r1
        0x00005df8:    9913        ..      LDR      r1,[sp,#0x4c]
        0x00005dfa:    70c8        .p      STRB     r0,[r1,#3]
        0x00005dfc:    9920         .      LDR      r1,[sp,#0x80]
        0x00005dfe:    78c8        .x      LDRB     r0,[r1,#3]
        0x00005e00:    4338        8C      ORRS     r0,r0,r7
        0x00005e02:    70c8        .p      STRB     r0,[r1,#3]
        0x00005e04:    9920         .      LDR      r1,[sp,#0x80]
        0x00005e06:    78c8        .x      LDRB     r0,[r1,#3]
        0x00005e08:    4330        0C      ORRS     r0,r0,r6
        0x00005e0a:    70c8        .p      STRB     r0,[r1,#3]
        0x00005e0c:    9914        ..      LDR      r1,[sp,#0x50]
        0x00005e0e:    9820         .      LDR      r0,[sp,#0x80]
        0x00005e10:    9015        ..      STR      r0,[sp,#0x54]
        0x00005e12:    78c0        .x      LDRB     r0,[r0,#3]
        0x00005e14:    4308        .C      ORRS     r0,r0,r1
        0x00005e16:    9915        ..      LDR      r1,[sp,#0x54]
        0x00005e18:    70c8        .p      STRB     r0,[r1,#3]
        0x00005e1a:    9820         .      LDR      r0,[sp,#0x80]
        0x00005e1c:    9016        ..      STR      r0,[sp,#0x58]
        0x00005e1e:    78c0        .x      LDRB     r0,[r0,#3]
        0x00005e20:    21df        .!      MOVS     r1,#0xdf
        0x00005e22:    4008        .@      ANDS     r0,r0,r1
        0x00005e24:    9916        ..      LDR      r1,[sp,#0x58]
        0x00005e26:    70c8        .p      STRB     r0,[r1,#3]
        0x00005e28:    9917        ..      LDR      r1,[sp,#0x5c]
        0x00005e2a:    9820         .      LDR      r0,[sp,#0x80]
        0x00005e2c:    9018        ..      STR      r0,[sp,#0x60]
        0x00005e2e:    78c0        .x      LDRB     r0,[r0,#3]
        0x00005e30:    4308        .C      ORRS     r0,r0,r1
        0x00005e32:    9918        ..      LDR      r1,[sp,#0x60]
        0x00005e34:    70c8        .p      STRB     r0,[r1,#3]
        0x00005e36:    9919        ..      LDR      r1,[sp,#0x64]
        0x00005e38:    9820         .      LDR      r0,[sp,#0x80]
        0x00005e3a:    901a        ..      STR      r0,[sp,#0x68]
        0x00005e3c:    78c0        .x      LDRB     r0,[r0,#3]
        0x00005e3e:    4308        .C      ORRS     r0,r0,r1
        0x00005e40:    991a        ..      LDR      r1,[sp,#0x68]
        0x00005e42:    70c8        .p      STRB     r0,[r1,#3]
        0x00005e44:    991b        ..      LDR      r1,[sp,#0x6c]
        0x00005e46:    9820         .      LDR      r0,[sp,#0x80]
        0x00005e48:    901c        ..      STR      r0,[sp,#0x70]
        0x00005e4a:    7900        .y      LDRB     r0,[r0,#4]
        0x00005e4c:    4308        .C      ORRS     r0,r0,r1
        0x00005e4e:    991c        ..      LDR      r1,[sp,#0x70]
        0x00005e50:    7108        .q      STRB     r0,[r1,#4]
        0x00005e52:    991d        ..      LDR      r1,[sp,#0x74]
        0x00005e54:    9820         .      LDR      r0,[sp,#0x80]
        0x00005e56:    901e        ..      STR      r0,[sp,#0x78]
        0x00005e58:    7900        .y      LDRB     r0,[r0,#4]
        0x00005e5a:    4308        .C      ORRS     r0,r0,r1
        0x00005e5c:    991e        ..      LDR      r1,[sp,#0x78]
        0x00005e5e:    7108        .q      STRB     r0,[r1,#4]
        0x00005e60:    9920         .      LDR      r1,[sp,#0x80]
        0x00005e62:    7908        .y      LDRB     r0,[r1,#4]
        0x00005e64:    4338        8C      ORRS     r0,r0,r7
        0x00005e66:    7108        .q      STRB     r0,[r1,#4]
        0x00005e68:    9920         .      LDR      r1,[sp,#0x80]
        0x00005e6a:    7908        .y      LDRB     r0,[r1,#4]
        0x00005e6c:    4330        0C      ORRS     r0,r0,r6
        0x00005e6e:    7108        .q      STRB     r0,[r1,#4]
        0x00005e70:    9920         .      LDR      r1,[sp,#0x80]
        0x00005e72:    7908        .y      LDRB     r0,[r1,#4]
        0x00005e74:    4020         @      ANDS     r0,r0,r4
        0x00005e76:    3010        .0      ADDS     r0,r0,#0x10
        0x00005e78:    7108        .q      STRB     r0,[r1,#4]
        0x00005e7a:    9920         .      LDR      r1,[sp,#0x80]
        0x00005e7c:    7908        .y      LDRB     r0,[r1,#4]
        0x00005e7e:    4018        .@      ANDS     r0,r0,r3
        0x00005e80:    3040        @0      ADDS     r0,r0,#0x40
        0x00005e82:    7108        .q      STRB     r0,[r1,#4]
        0x00005e84:    991f        ..      LDR      r1,[sp,#0x7c]
        0x00005e86:    7808        .x      LDRB     r0,[r1,#0]
        0x00005e88:    4010        .@      ANDS     r0,r0,r2
        0x00005e8a:    7008        .p      STRB     r0,[r1,#0]
        0x00005e8c:    991f        ..      LDR      r1,[sp,#0x7c]
        0x00005e8e:    7808        .x      LDRB     r0,[r1,#0]
        0x00005e90:    4028        (@      ANDS     r0,r0,r5
        0x00005e92:    7008        .p      STRB     r0,[r1,#0]
        0x00005e94:    991f        ..      LDR      r1,[sp,#0x7c]
        0x00005e96:    7808        .x      LDRB     r0,[r1,#0]
        0x00005e98:    4020         @      ANDS     r0,r0,r4
        0x00005e9a:    7008        .p      STRB     r0,[r1,#0]
        0x00005e9c:    991f        ..      LDR      r1,[sp,#0x7c]
        0x00005e9e:    7808        .x      LDRB     r0,[r1,#0]
        0x00005ea0:    4018        .@      ANDS     r0,r0,r3
        0x00005ea2:    7008        .p      STRB     r0,[r1,#0]
        0x00005ea4:    991f        ..      LDR      r1,[sp,#0x7c]
        0x00005ea6:    7848        Hx      LDRB     r0,[r1,#1]
        0x00005ea8:    4010        .@      ANDS     r0,r0,r2
        0x00005eaa:    7048        Hp      STRB     r0,[r1,#1]
        0x00005eac:    991f        ..      LDR      r1,[sp,#0x7c]
        0x00005eae:    7848        Hx      LDRB     r0,[r1,#1]
        0x00005eb0:    4028        (@      ANDS     r0,r0,r5
        0x00005eb2:    7048        Hp      STRB     r0,[r1,#1]
        0x00005eb4:    991f        ..      LDR      r1,[sp,#0x7c]
        0x00005eb6:    7848        Hx      LDRB     r0,[r1,#1]
        0x00005eb8:    4020         @      ANDS     r0,r0,r4
        0x00005eba:    7048        Hp      STRB     r0,[r1,#1]
        0x00005ebc:    991f        ..      LDR      r1,[sp,#0x7c]
        0x00005ebe:    7848        Hx      LDRB     r0,[r1,#1]
        0x00005ec0:    4018        .@      ANDS     r0,r0,r3
        0x00005ec2:    7048        Hp      STRB     r0,[r1,#1]
        0x00005ec4:    991f        ..      LDR      r1,[sp,#0x7c]
        0x00005ec6:    7888        .x      LDRB     r0,[r1,#2]
        0x00005ec8:    4010        .@      ANDS     r0,r0,r2
        0x00005eca:    7088        .p      STRB     r0,[r1,#2]
        0x00005ecc:    991f        ..      LDR      r1,[sp,#0x7c]
        0x00005ece:    7888        .x      LDRB     r0,[r1,#2]
        0x00005ed0:    4028        (@      ANDS     r0,r0,r5
        0x00005ed2:    7088        .p      STRB     r0,[r1,#2]
        0x00005ed4:    991f        ..      LDR      r1,[sp,#0x7c]
        0x00005ed6:    7888        .x      LDRB     r0,[r1,#2]
        0x00005ed8:    4020         @      ANDS     r0,r0,r4
        0x00005eda:    7088        .p      STRB     r0,[r1,#2]
        0x00005edc:    991f        ..      LDR      r1,[sp,#0x7c]
        0x00005ede:    7888        .x      LDRB     r0,[r1,#2]
        0x00005ee0:    4018        .@      ANDS     r0,r0,r3
        0x00005ee2:    7088        .p      STRB     r0,[r1,#2]
        0x00005ee4:    991f        ..      LDR      r1,[sp,#0x7c]
        0x00005ee6:    78c8        .x      LDRB     r0,[r1,#3]
        0x00005ee8:    4010        .@      ANDS     r0,r0,r2
        0x00005eea:    70c8        .p      STRB     r0,[r1,#3]
        0x00005eec:    991f        ..      LDR      r1,[sp,#0x7c]
        0x00005eee:    78c8        .x      LDRB     r0,[r1,#3]
        0x00005ef0:    4028        (@      ANDS     r0,r0,r5
        0x00005ef2:    70c8        .p      STRB     r0,[r1,#3]
        0x00005ef4:    991f        ..      LDR      r1,[sp,#0x7c]
        0x00005ef6:    78c8        .x      LDRB     r0,[r1,#3]
        0x00005ef8:    4020         @      ANDS     r0,r0,r4
        0x00005efa:    70c8        .p      STRB     r0,[r1,#3]
        0x00005efc:    991f        ..      LDR      r1,[sp,#0x7c]
        0x00005efe:    78c8        .x      LDRB     r0,[r1,#3]
        0x00005f00:    4018        .@      ANDS     r0,r0,r3
        0x00005f02:    70c8        .p      STRB     r0,[r1,#3]
        0x00005f04:    991f        ..      LDR      r1,[sp,#0x7c]
        0x00005f06:    7908        .y      LDRB     r0,[r1,#4]
        0x00005f08:    4010        .@      ANDS     r0,r0,r2
        0x00005f0a:    7108        .q      STRB     r0,[r1,#4]
        0x00005f0c:    991f        ..      LDR      r1,[sp,#0x7c]
        0x00005f0e:    7908        .y      LDRB     r0,[r1,#4]
        0x00005f10:    4028        (@      ANDS     r0,r0,r5
        0x00005f12:    7108        .q      STRB     r0,[r1,#4]
        0x00005f14:    991f        ..      LDR      r1,[sp,#0x7c]
        0x00005f16:    7908        .y      LDRB     r0,[r1,#4]
        0x00005f18:    4020         @      ANDS     r0,r0,r4
        0x00005f1a:    7108        .q      STRB     r0,[r1,#4]
        0x00005f1c:    991f        ..      LDR      r1,[sp,#0x7c]
        0x00005f1e:    7908        .y      LDRB     r0,[r1,#4]
        0x00005f20:    4018        .@      ANDS     r0,r0,r3
        0x00005f22:    7108        .q      STRB     r0,[r1,#4]
        0x00005f24:    991f        ..      LDR      r1,[sp,#0x7c]
        0x00005f26:    7948        Hy      LDRB     r0,[r1,#5]
        0x00005f28:    4010        .@      ANDS     r0,r0,r2
        0x00005f2a:    7148        Hq      STRB     r0,[r1,#5]
        0x00005f2c:    991f        ..      LDR      r1,[sp,#0x7c]
        0x00005f2e:    7948        Hy      LDRB     r0,[r1,#5]
        0x00005f30:    2203        ."      MOVS     r2,#3
        0x00005f32:    4010        .@      ANDS     r0,r0,r2
        0x00005f34:    7148        Hq      STRB     r0,[r1,#5]
        0x00005f36:    b022        ".      ADD      sp,sp,#0x88
        0x00005f38:    bdf0        ..      POP      {r4-r7,pc}
        0x00005f3a:    46c0        .F      MOV      r8,r8
    $d
    __arm_cp.1_0
        0x00005f3c:    200002a8    ...     DCD    536871592
    __arm_cp.1_1
        0x00005f40:    2000028e    ...     DCD    536871566
    __arm_cp.1_2
        0x00005f44:    20000288    ...     DCD    536871560
    $t
    main
        0x00005f48:    b580        ..      PUSH     {r7,lr}
        0x00005f4a:    b082        ..      SUB      sp,sp,#8
        0x00005f4c:    2000        .       MOVS     r0,#0
        0x00005f4e:    9001        ..      STR      r0,[sp,#4]
        0x00005f50:    f7fbf990    ....    BL       SYS_UnlockReg ; 0x1274
        0x00005f54:    f7fbfbba    ....    BL       bsp_ctor ; 0x16cc
        0x00005f58:    e7ff        ..      B        0x5f5a ; main + 18
        0x00005f5a:    f7fbfe4b    ..K.    BL       cpu_sm ; 0x1bf4
        0x00005f5e:    e7fc        ..      B        0x5f5a ; main + 18
    set_ctrl_defaults
        0x00005f60:    4914        .I      LDR      r1,[pc,#80] ; [0x5fb4] = 0x20000164
        0x00005f62:    7808        .x      LDRB     r0,[r1,#0]
        0x00005f64:    22fe        ."      MOVS     r2,#0xfe
        0x00005f66:    4010        .@      ANDS     r0,r0,r2
        0x00005f68:    7008        .p      STRB     r0,[r1,#0]
        0x00005f6a:    7808        .x      LDRB     r0,[r1,#0]
        0x00005f6c:    23fd        .#      MOVS     r3,#0xfd
        0x00005f6e:    4018        .@      ANDS     r0,r0,r3
        0x00005f70:    7008        .p      STRB     r0,[r1,#0]
        0x00005f72:    7808        .x      LDRB     r0,[r1,#0]
        0x00005f74:    23fb        .#      MOVS     r3,#0xfb
        0x00005f76:    4018        .@      ANDS     r0,r0,r3
        0x00005f78:    7008        .p      STRB     r0,[r1,#0]
        0x00005f7a:    7808        .x      LDRB     r0,[r1,#0]
        0x00005f7c:    23f7        .#      MOVS     r3,#0xf7
        0x00005f7e:    4018        .@      ANDS     r0,r0,r3
        0x00005f80:    7008        .p      STRB     r0,[r1,#0]
        0x00005f82:    7808        .x      LDRB     r0,[r1,#0]
        0x00005f84:    23cf        .#      MOVS     r3,#0xcf
        0x00005f86:    4018        .@      ANDS     r0,r0,r3
        0x00005f88:    7008        .p      STRB     r0,[r1,#0]
        0x00005f8a:    7808        .x      LDRB     r0,[r1,#0]
        0x00005f8c:    23bf        .#      MOVS     r3,#0xbf
        0x00005f8e:    4018        .@      ANDS     r0,r0,r3
        0x00005f90:    7008        .p      STRB     r0,[r1,#0]
        0x00005f92:    7808        .x      LDRB     r0,[r1,#0]
        0x00005f94:    237f        .#      MOVS     r3,#0x7f
        0x00005f96:    4018        .@      ANDS     r0,r0,r3
        0x00005f98:    7008        .p      STRB     r0,[r1,#0]
        0x00005f9a:    7848        Hx      LDRB     r0,[r1,#1]
        0x00005f9c:    4010        .@      ANDS     r0,r0,r2
        0x00005f9e:    7048        Hp      STRB     r0,[r1,#1]
        0x00005fa0:    7848        Hx      LDRB     r0,[r1,#1]
        0x00005fa2:    2207        ."      MOVS     r2,#7
        0x00005fa4:    4010        .@      ANDS     r0,r0,r2
        0x00005fa6:    7048        Hp      STRB     r0,[r1,#1]
        0x00005fa8:    7848        Hx      LDRB     r0,[r1,#1]
        0x00005faa:    2206        ."      MOVS     r2,#6
        0x00005fac:    4310        .C      ORRS     r0,r0,r2
        0x00005fae:    7048        Hp      STRB     r0,[r1,#1]
        0x00005fb0:    4770        pG      BX       lr
        0x00005fb2:    46c0        .F      MOV      r8,r8
    $d
    __arm_cp.1_0
        0x00005fb4:    20000164    d..     DCD    536871268
    $t
    spi_agent_sm
        0x00005fb8:    b580        ..      PUSH     {r7,lr}
        0x00005fba:    b086        ..      SUB      sp,sp,#0x18
        0x00005fbc:    9005        ..      STR      r0,[sp,#0x14]
        0x00005fbe:    9805        ..      LDR      r0,[sp,#0x14]
        0x00005fc0:    6980        .i      LDR      r0,[r0,#0x18]
        0x00005fc2:    9004        ..      STR      r0,[sp,#0x10]
        0x00005fc4:    9805        ..      LDR      r0,[sp,#0x14]
        0x00005fc6:    6940        @i      LDR      r0,[r0,#0x14]
        0x00005fc8:    9002        ..      STR      r0,[sp,#8]
        0x00005fca:    2805        .(      CMP      r0,#5
        0x00005fcc:    d871        q.      BHI      0x60b2 ; spi_agent_sm + 250
        0x00005fce:    9902        ..      LDR      r1,[sp,#8]
        0x00005fd0:    008a        ..      LSLS     r2,r1,#2
        0x00005fd2:    a001        ..      ADR      r0,{pc}+6 ; 0x5fd8
        0x00005fd4:    1880        ..      ADDS     r0,r0,r2
        0x00005fd6:    4687        .F      MOV      pc,r0
        0x00005fd8:    f000b80a    ....    B.W      0x5ff0 ; spi_agent_sm + 56
        0x00005fdc:    f000b869    ..i.    B.W      0x60b2 ; spi_agent_sm + 250
        0x00005fe0:    f000b867    ..g.    B.W      0x60b2 ; spi_agent_sm + 250
        0x00005fe4:    f000b864    ..d.    B.W      0x60b0 ; spi_agent_sm + 248
        0x00005fe8:    f000b812    ....    B.W      0x6010 ; spi_agent_sm + 88
        0x00005fec:    f000b83e    ..>.    B.W      0x606c ; spi_agent_sm + 180
        0x00005ff0:    9804        ..      LDR      r0,[sp,#0x10]
        0x00005ff2:    6940        @i      LDR      r0,[r0,#0x14]
        0x00005ff4:    0740        @.      LSLS     r0,r0,#29
        0x00005ff6:    2800        .(      CMP      r0,#0
        0x00005ff8:    d508        ..      BPL      0x600c ; spi_agent_sm + 84
        0x00005ffa:    e7ff        ..      B        0x5ffc ; spi_agent_sm + 68
        0x00005ffc:    9a04        ..      LDR      r2,[sp,#0x10]
        0x00005ffe:    6951        Qi      LDR      r1,[r2,#0x14]
        0x00006000:    2004        .       MOVS     r0,#4
        0x00006002:    4301        .C      ORRS     r1,r1,r0
        0x00006004:    6151        Qa      STR      r1,[r2,#0x14]
        0x00006006:    9905        ..      LDR      r1,[sp,#0x14]
        0x00006008:    6148        Ha      STR      r0,[r1,#0x14]
        0x0000600a:    e000        ..      B        0x600e ; spi_agent_sm + 86
        0x0000600c:    e052        R.      B        0x60b4 ; spi_agent_sm + 252
        0x0000600e:    e7ff        ..      B        0x6010 ; spi_agent_sm + 88
        0x00006010:    e7ff        ..      B        0x6012 ; spi_agent_sm + 90
        0x00006012:    9804        ..      LDR      r0,[sp,#0x10]
        0x00006014:    6940        @i      LDR      r0,[r0,#0x14]
        0x00006016:    f2401100    @...    MOVW     r1,#0x100
        0x0000601a:    4008        .@      ANDS     r0,r0,r1
        0x0000601c:    0a00        ..      LSRS     r0,r0,#8
        0x0000601e:    b958        X.      CBNZ     r0,0x6038 ; spi_agent_sm + 128
        0x00006020:    e7ff        ..      B        0x6022 ; spi_agent_sm + 106
        0x00006022:    9805        ..      LDR      r0,[sp,#0x14]
        0x00006024:    6980        .i      LDR      r0,[r0,#0x18]
        0x00006026:    6b00        .k      LDR      r0,[r0,#0x30]
        0x00006028:    a903        ..      ADD      r1,sp,#0xc
        0x0000602a:    7008        .p      STRB     r0,[r1,#0]
        0x0000602c:    9805        ..      LDR      r0,[sp,#0x14]
        0x0000602e:    6840        @h      LDR      r0,[r0,#4]
        0x00006030:    7809        .x      LDRB     r1,[r1,#0]
        0x00006032:    f7fbff47    ..G.    BL       fifo_write ; 0x1ec4
        0x00006036:    e7ec        ..      B        0x6012 ; spi_agent_sm + 90
        0x00006038:    9804        ..      LDR      r0,[sp,#0x10]
        0x0000603a:    6940        @i      LDR      r0,[r0,#0x14]
        0x0000603c:    0700        ..      LSLS     r0,r0,#28
        0x0000603e:    2800        .(      CMP      r0,#0
        0x00006040:    d512        ..      BPL      0x6068 ; spi_agent_sm + 176
        0x00006042:    e7ff        ..      B        0x6044 ; spi_agent_sm + 140
        0x00006044:    9904        ..      LDR      r1,[sp,#0x10]
        0x00006046:    6948        Hi      LDR      r0,[r1,#0x14]
        0x00006048:    2208        ."      MOVS     r2,#8
        0x0000604a:    4310        .C      ORRS     r0,r0,r2
        0x0000604c:    6148        Ha      STR      r0,[r1,#0x14]
        0x0000604e:    9805        ..      LDR      r0,[sp,#0x14]
        0x00006050:    68c0        .h      LDR      r0,[r0,#0xc]
        0x00006052:    4780        .G      BLX      r0
        0x00006054:    9904        ..      LDR      r1,[sp,#0x10]
        0x00006056:    6908        .i      LDR      r0,[r1,#0x10]
        0x00006058:    f2403200    @..2    MOVW     r2,#0x300
        0x0000605c:    4310        .C      ORRS     r0,r0,r2
        0x0000605e:    6108        .a      STR      r0,[r1,#0x10]
        0x00006060:    9905        ..      LDR      r1,[sp,#0x14]
        0x00006062:    2005        .       MOVS     r0,#5
        0x00006064:    6148        Ha      STR      r0,[r1,#0x14]
        0x00006066:    e000        ..      B        0x606a ; spi_agent_sm + 178
        0x00006068:    e024        $.      B        0x60b4 ; spi_agent_sm + 252
        0x0000606a:    e7ff        ..      B        0x606c ; spi_agent_sm + 180
        0x0000606c:    e7ff        ..      B        0x606e ; spi_agent_sm + 182
        0x0000606e:    9805        ..      LDR      r0,[sp,#0x14]
        0x00006070:    6800        .h      LDR      r0,[r0,#0]
        0x00006072:    7a00        .z      LDRB     r0,[r0,#8]
        0x00006074:    07c0        ..      LSLS     r0,r0,#31
        0x00006076:    b9b8        ..      CBNZ     r0,0x60a8 ; spi_agent_sm + 240
        0x00006078:    e7ff        ..      B        0x607a ; spi_agent_sm + 194
        0x0000607a:    9805        ..      LDR      r0,[sp,#0x14]
        0x0000607c:    6980        .i      LDR      r0,[r0,#0x18]
        0x0000607e:    6940        @i      LDR      r0,[r0,#0x14]
        0x00006080:    2101        .!      MOVS     r1,#1
        0x00006082:    0449        I.      LSLS     r1,r1,#17
        0x00006084:    4008        .@      ANDS     r0,r0,r1
        0x00006086:    0c40        @.      LSRS     r0,r0,#17
        0x00006088:    b960        `.      CBNZ     r0,0x60a4 ; spi_agent_sm + 236
        0x0000608a:    e7ff        ..      B        0x608c ; spi_agent_sm + 212
        0x0000608c:    9805        ..      LDR      r0,[sp,#0x14]
        0x0000608e:    6800        .h      LDR      r0,[r0,#0]
        0x00006090:    a903        ..      ADD      r1,sp,#0xc
        0x00006092:    9101        ..      STR      r1,[sp,#4]
        0x00006094:    f7fbfed1    ....    BL       fifo_read ; 0x1e3a
        0x00006098:    9801        ..      LDR      r0,[sp,#4]
        0x0000609a:    7800        .x      LDRB     r0,[r0,#0]
        0x0000609c:    9905        ..      LDR      r1,[sp,#0x14]
        0x0000609e:    6989        .i      LDR      r1,[r1,#0x18]
        0x000060a0:    6208        .b      STR      r0,[r1,#0x20]
        0x000060a2:    e000        ..      B        0x60a6 ; spi_agent_sm + 238
        0x000060a4:    e006        ..      B        0x60b4 ; spi_agent_sm + 252
        0x000060a6:    e7e2        ..      B        0x606e ; spi_agent_sm + 182
        0x000060a8:    9905        ..      LDR      r1,[sp,#0x14]
        0x000060aa:    2000        .       MOVS     r0,#0
        0x000060ac:    6148        Ha      STR      r0,[r1,#0x14]
        0x000060ae:    e001        ..      B        0x60b4 ; spi_agent_sm + 252
        0x000060b0:    e000        ..      B        0x60b4 ; spi_agent_sm + 252
        0x000060b2:    e7ff        ..      B        0x60b4 ; spi_agent_sm + 252
        0x000060b4:    b006        ..      ADD      sp,sp,#0x18
        0x000060b6:    bd80        ..      POP      {r7,pc}
    spi_ctor
        0x000060b8:    b510        ..      PUSH     {r4,lr}
        0x000060ba:    b08a        ..      SUB      sp,sp,#0x28
        0x000060bc:    9009        ..      STR      r0,[sp,#0x24]
        0x000060be:    9809        ..      LDR      r0,[sp,#0x24]
        0x000060c0:    7a40        @z      LDRB     r0,[r0,#9]
        0x000060c2:    9006        ..      STR      r0,[sp,#0x18]
        0x000060c4:    2801        .(      CMP      r0,#1
        0x000060c6:    d031        1.      BEQ      0x612c ; spi_ctor + 116
        0x000060c8:    e7ff        ..      B        0x60ca ; spi_ctor + 18
        0x000060ca:    9806        ..      LDR      r0,[sp,#0x18]
        0x000060cc:    2802        .(      CMP      r0,#2
        0x000060ce:    d162        b.      BNE      0x6196 ; spi_ctor + 222
        0x000060d0:    e7ff        ..      B        0x60d2 ; spi_ctor + 26
        0x000060d2:    4857        WH      LDR      r0,[pc,#348] ; [0x6230] = 0x40063000
        0x000060d4:    9008        ..      STR      r0,[sp,#0x20]
        0x000060d6:    4857        WH      LDR      r0,[pc,#348] ; [0x6234] = 0x66a0000f
        0x000060d8:    9005        ..      STR      r0,[sp,#0x14]
        0x000060da:    f6400100    @...    MOVW     r1,#0x800
        0x000060de:    2200        ."      MOVS     r2,#0
        0x000060e0:    f7fafd60    ..`.    BL       CLK_SetModuleClock ; 0xba4
        0x000060e4:    9805        ..      LDR      r0,[sp,#0x14]
        0x000060e6:    f7fafb63    ..c.    BL       CLK_EnableModuleClock ; 0x7b0
        0x000060ea:    4953        SI      LDR      r1,[pc,#332] ; [0x6238] = 0x40000034
        0x000060ec:    6808        .h      LDR      r0,[r1,#0]
        0x000060ee:    b280        ..      UXTH     r0,r0
        0x000060f0:    6008        .`      STR      r0,[r1,#0]
        0x000060f2:    6808        .h      LDR      r0,[r1,#0]
        0x000060f4:    4a51        QJ      LDR      r2,[pc,#324] ; [0x623c] = 0x55550000
        0x000060f6:    4310        .C      ORRS     r0,r0,r2
        0x000060f8:    6008        .`      STR      r0,[r1,#0]
        0x000060fa:    494a        JI      LDR      r1,[pc,#296] ; [0x6224] = 0x40004024
        0x000060fc:    6808        .h      LDR      r0,[r1,#0]
        0x000060fe:    f2420200    B...    MOVW     r2,#0x2000
        0x00006102:    4310        .C      ORRS     r0,r0,r2
        0x00006104:    6008        .`      STR      r0,[r1,#0]
        0x00006106:    9809        ..      LDR      r0,[sp,#0x24]
        0x00006108:    7a80        .z      LDRB     r0,[r0,#0xa]
        0x0000610a:    2801        .(      CMP      r0,#1
        0x0000610c:    d10a        ..      BNE      0x6124 ; spi_ctor + 108
        0x0000610e:    e7ff        ..      B        0x6110 ; spi_ctor + 88
        0x00006110:    4845        EH      LDR      r0,[pc,#276] ; [0x6228] = 0x40004080
        0x00006112:    2120         !      MOVS     r1,#0x20
        0x00006114:    2201        ."      MOVS     r2,#1
        0x00006116:    9204        ..      STR      r2,[sp,#0x10]
        0x00006118:    f7fafe38    ..8.    BL       GPIO_SetMode ; 0xd8c
        0x0000611c:    9804        ..      LDR      r0,[sp,#0x10]
        0x0000611e:    4948        HI      LDR      r1,[pc,#288] ; [0x6240] = 0x40004894
        0x00006120:    6008        .`      STR      r0,[r1,#0]
        0x00006122:    e7ff        ..      B        0x6124 ; spi_ctor + 108
        0x00006124:    a907        ..      ADD      r1,sp,#0x1c
        0x00006126:    2034        4       MOVS     r0,#0x34
        0x00006128:    7008        .p      STRB     r0,[r1,#0]
        0x0000612a:    e037        7.      B        0x619c ; spi_ctor + 228
        0x0000612c:    4838        8H      LDR      r0,[pc,#224] ; [0x6210] = 0x40062000
        0x0000612e:    9008        ..      STR      r0,[sp,#0x20]
        0x00006130:    4838        8H      LDR      r0,[pc,#224] ; [0x6214] = 0x6660000e
        0x00006132:    9002        ..      STR      r0,[sp,#8]
        0x00006134:    2180        .!      MOVS     r1,#0x80
        0x00006136:    9103        ..      STR      r1,[sp,#0xc]
        0x00006138:    2200        ."      MOVS     r2,#0
        0x0000613a:    f7fafd33    ..3.    BL       CLK_SetModuleClock ; 0xba4
        0x0000613e:    9802        ..      LDR      r0,[sp,#8]
        0x00006140:    f7fafb36    ..6.    BL       CLK_EnableModuleClock ; 0x7b0
        0x00006144:    9a03        ..      LDR      r2,[sp,#0xc]
        0x00006146:    4934        4I      LDR      r1,[pc,#208] ; [0x6218] = 0x40000030
        0x00006148:    6808        .h      LDR      r0,[r1,#0]
        0x0000614a:    4c34        4L      LDR      r4,[pc,#208] ; [0x621c] = 0xffffff
        0x0000614c:    4020         @      ANDS     r0,r0,r4
        0x0000614e:    6008        .`      STR      r0,[r1,#0]
        0x00006150:    6808        .h      LDR      r0,[r1,#0]
        0x00006152:    2311        .#      MOVS     r3,#0x11
        0x00006154:    069b        ..      LSLS     r3,r3,#26
        0x00006156:    4318        .C      ORRS     r0,r0,r3
        0x00006158:    6008        .`      STR      r0,[r1,#0]
        0x0000615a:    4931        1I      LDR      r1,[pc,#196] ; [0x6220] = 0x40000040
        0x0000615c:    6808        .h      LDR      r0,[r1,#0]
        0x0000615e:    4020         @      ANDS     r0,r0,r4
        0x00006160:    6008        .`      STR      r0,[r1,#0]
        0x00006162:    6808        .h      LDR      r0,[r1,#0]
        0x00006164:    4318        .C      ORRS     r0,r0,r3
        0x00006166:    6008        .`      STR      r0,[r1,#0]
        0x00006168:    492e        .I      LDR      r1,[pc,#184] ; [0x6224] = 0x40004024
        0x0000616a:    6808        .h      LDR      r0,[r1,#0]
        0x0000616c:    4310        .C      ORRS     r0,r0,r2
        0x0000616e:    6008        .`      STR      r0,[r1,#0]
        0x00006170:    9809        ..      LDR      r0,[sp,#0x24]
        0x00006172:    7a80        .z      LDRB     r0,[r0,#0xa]
        0x00006174:    2801        .(      CMP      r0,#1
        0x00006176:    d10a        ..      BNE      0x618e ; spi_ctor + 214
        0x00006178:    e7ff        ..      B        0x617a ; spi_ctor + 194
        0x0000617a:    482b        +H      LDR      r0,[pc,#172] ; [0x6228] = 0x40004080
        0x0000617c:    2110        .!      MOVS     r1,#0x10
        0x0000617e:    2201        ."      MOVS     r2,#1
        0x00006180:    9201        ..      STR      r2,[sp,#4]
        0x00006182:    f7fafe03    ....    BL       GPIO_SetMode ; 0xd8c
        0x00006186:    9801        ..      LDR      r0,[sp,#4]
        0x00006188:    4928        (I      LDR      r1,[pc,#160] ; [0x622c] = 0x40004890
        0x0000618a:    6008        .`      STR      r0,[r1,#0]
        0x0000618c:    e7ff        ..      B        0x618e ; spi_ctor + 214
        0x0000618e:    a907        ..      ADD      r1,sp,#0x1c
        0x00006190:    2033        3       MOVS     r0,#0x33
        0x00006192:    7008        .p      STRB     r0,[r1,#0]
        0x00006194:    e002        ..      B        0x619c ; spi_ctor + 228
        0x00006196:    2000        .       MOVS     r0,#0
        0x00006198:    9008        ..      STR      r0,[sp,#0x20]
        0x0000619a:    e7ff        ..      B        0x619c ; spi_ctor + 228
        0x0000619c:    9809        ..      LDR      r0,[sp,#0x24]
        0x0000619e:    7a00        .z      LDRB     r0,[r0,#8]
        0x000061a0:    2801        .(      CMP      r0,#1
        0x000061a2:    d105        ..      BNE      0x61b0 ; spi_ctor + 248
        0x000061a4:    e7ff        ..      B        0x61a6 ; spi_ctor + 238
        0x000061a6:    a807        ..      ADD      r0,sp,#0x1c
        0x000061a8:    7800        .x      LDRB     r0,[r0,#0]
        0x000061aa:    f7fbfa79    ..y.    BL       __NVIC_EnableIRQ ; 0x16a0
        0x000061ae:    e004        ..      B        0x61ba ; spi_ctor + 258
        0x000061b0:    a807        ..      ADD      r0,sp,#0x1c
        0x000061b2:    7800        .x      LDRB     r0,[r0,#0]
        0x000061b4:    f7fbfa46    ..F.    BL       __NVIC_DisableIRQ ; 0x1644
        0x000061b8:    e7ff        ..      B        0x61ba ; spi_ctor + 258
        0x000061ba:    9808        ..      LDR      r0,[sp,#0x20]
        0x000061bc:    b320         .      CBZ      r0,0x6208 ; spi_ctor + 336
        0x000061be:    e7ff        ..      B        0x61c0 ; spi_ctor + 264
        0x000061c0:    9808        ..      LDR      r0,[sp,#0x20]
        0x000061c2:    2204        ."      MOVS     r2,#4
        0x000061c4:    4611        .F      MOV      r1,r2
        0x000061c6:    f7fbf841    ..A.    BL       SPI_SetFIFO ; 0x124c
        0x000061ca:    9809        ..      LDR      r0,[sp,#0x24]
        0x000061cc:    7a80        .z      LDRB     r0,[r0,#0xa]
        0x000061ce:    2801        .(      CMP      r0,#1
        0x000061d0:    d10c        ..      BNE      0x61ec ; spi_ctor + 308
        0x000061d2:    e7ff        ..      B        0x61d4 ; spi_ctor + 284
        0x000061d4:    9808        ..      LDR      r0,[sp,#0x20]
        0x000061d6:    491b        .I      LDR      r1,[pc,#108] ; [0x6244] = 0xb71b00
        0x000061d8:    9100        ..      STR      r1,[sp,#0]
        0x000061da:    2100        .!      MOVS     r1,#0
        0x000061dc:    2204        ."      MOVS     r2,#4
        0x000061de:    2308        .#      MOVS     r3,#8
        0x000061e0:    f7fafe6a    ..j.    BL       SPI_Open ; 0xeb8
        0x000061e4:    9808        ..      LDR      r0,[sp,#0x20]
        0x000061e6:    f7fafe5e    ..^.    BL       SPI_DisableAutoSS ; 0xea6
        0x000061ea:    e009        ..      B        0x6200 ; spi_ctor + 328
        0x000061ec:    9808        ..      LDR      r0,[sp,#0x20]
        0x000061ee:    4915        .I      LDR      r1,[pc,#84] ; [0x6244] = 0xb71b00
        0x000061f0:    9100        ..      STR      r1,[sp,#0]
        0x000061f2:    2101        .!      MOVS     r1,#1
        0x000061f4:    0489        ..      LSLS     r1,r1,#18
        0x000061f6:    2204        ."      MOVS     r2,#4
        0x000061f8:    2308        .#      MOVS     r3,#8
        0x000061fa:    f7fafe5d    ..].    BL       SPI_Open ; 0xeb8
        0x000061fe:    e7ff        ..      B        0x6200 ; spi_ctor + 328
        0x00006200:    9808        ..      LDR      r0,[sp,#0x20]
        0x00006202:    9909        ..      LDR      r1,[sp,#0x24]
        0x00006204:    6188        .a      STR      r0,[r1,#0x18]
        0x00006206:    e000        ..      B        0x620a ; spi_ctor + 338
        0x00006208:    e7ff        ..      B        0x620a ; spi_ctor + 338
        0x0000620a:    b00a        ..      ADD      sp,sp,#0x28
        0x0000620c:    bd10        ..      POP      {r4,pc}
        0x0000620e:    46c0        .F      MOV      r8,r8
    $d
    __arm_cp.0_0
        0x00006210:    40062000    . .@    DCD    1074143232
    __arm_cp.0_1
        0x00006214:    6660000e    ..`f    DCD    1717567502
    __arm_cp.0_2
        0x00006218:    40000030    0..@    DCD    1073741872
    __arm_cp.0_3
        0x0000621c:    00ffffff    ....    DCD    16777215
    __arm_cp.0_4
        0x00006220:    40000040    @..@    DCD    1073741888
    __arm_cp.0_5
        0x00006224:    40004024    $@.@    DCD    1073758244
    __arm_cp.0_6
        0x00006228:    40004080    .@.@    DCD    1073758336
    __arm_cp.0_7
        0x0000622c:    40004890    .H.@    DCD    1073760400
    __arm_cp.0_8
        0x00006230:    40063000    .0.@    DCD    1074147328
    __arm_cp.0_9
        0x00006234:    66a0000f    ...f    DCD    1721761807
    __arm_cp.0_10
        0x00006238:    40000034    4..@    DCD    1073741876
    __arm_cp.0_11
        0x0000623c:    55550000    ..UU    DCD    1431633920
    __arm_cp.0_12
        0x00006240:    40004894    .H.@    DCD    1073760404
    __arm_cp.0_13
        0x00006244:    00b71b00    ....    DCD    12000000
    $t
    spi_read_cb
        0x00006248:    b5b0        ..      PUSH     {r4,r5,r7,lr}
        0x0000624a:    b0be        ..      SUB      sp,sp,#0xf8
        0x0000624c:    a93a        :.      ADD      r1,sp,#0xe8
        0x0000624e:    2000        .       MOVS     r0,#0
        0x00006250:    7008        .p      STRB     r0,[r1,#0]
        0x00006252:    48fd        .H      LDR      r0,[pc,#1012] ; [0x6648] = 0x2000000c
        0x00006254:    6841        Ah      LDR      r1,[r0,#4]
        0x00006256:    9135        5.      STR      r1,[sp,#0xd4]
        0x00006258:    6800        .h      LDR      r0,[r0,#0]
        0x0000625a:    9034        4.      STR      r0,[sp,#0xd0]
        0x0000625c:    9834        4.      LDR      r0,[sp,#0xd0]
        0x0000625e:    f7fbfe1d    ....    BL       fifo_reset ; 0x1e9c
        0x00006262:    e7ff        ..      B        0x6264 ; spi_read_cb + 28
        0x00006264:    9835        5.      LDR      r0,[sp,#0xd4]
        0x00006266:    7a00        .z      LDRB     r0,[r0,#8]
        0x00006268:    07c0        ..      LSLS     r0,r0,#31
        0x0000626a:    b108        ..      CBZ      r0,0x6270 ; spi_read_cb + 40
        0x0000626c:    f000fc07    ....    BL       0x6a7e ; 0x6a7e
        0x00006270:    9835        5.      LDR      r0,[sp,#0xd4]
        0x00006272:    a93d        =.      ADD      r1,sp,#0xf4
        0x00006274:    9132        2.      STR      r1,[sp,#0xc8]
        0x00006276:    f7fbfde0    ....    BL       fifo_read ; 0x1e3a
        0x0000627a:    9832        2.      LDR      r0,[sp,#0xc8]
        0x0000627c:    9a3d        =.      LDR      r2,[sp,#0xf4]
        0x0000627e:    993a        :.      LDR      r1,[sp,#0xe8]
        0x00006280:    1889        ..      ADDS     r1,r1,r2
        0x00006282:    aa3a        :.      ADD      r2,sp,#0xe8
        0x00006284:    7011        .p      STRB     r1,[r2,#0]
        0x00006286:    7800        .x      LDRB     r0,[r0,#0]
        0x00006288:    28b1        .(      CMP      r0,#0xb1
        0x0000628a:    d029        ).      BEQ      0x62e0 ; spi_read_cb + 152
        0x0000628c:    e7ff        ..      B        0x628e ; spi_read_cb + 70
        0x0000628e:    a83d        =.      ADD      r0,sp,#0xf4
        0x00006290:    7800        .x      LDRB     r0,[r0,#0]
        0x00006292:    28a5        .(      CMP      r0,#0xa5
        0x00006294:    d024        $.      BEQ      0x62e0 ; spi_read_cb + 152
        0x00006296:    e7ff        ..      B        0x6298 ; spi_read_cb + 80
        0x00006298:    a83d        =.      ADD      r0,sp,#0xf4
        0x0000629a:    7800        .x      LDRB     r0,[r0,#0]
        0x0000629c:    28b4        .(      CMP      r0,#0xb4
        0x0000629e:    d01f        ..      BEQ      0x62e0 ; spi_read_cb + 152
        0x000062a0:    e7ff        ..      B        0x62a2 ; spi_read_cb + 90
        0x000062a2:    9835        5.      LDR      r0,[sp,#0xd4]
        0x000062a4:    a939        9.      ADD      r1,sp,#0xe4
        0x000062a6:    9131        1.      STR      r1,[sp,#0xc4]
        0x000062a8:    f7fbfdc7    ....    BL       fifo_read ; 0x1e3a
        0x000062ac:    9835        5.      LDR      r0,[sp,#0xd4]
        0x000062ae:    a938        8.      ADD      r1,sp,#0xe0
        0x000062b0:    9130        0.      STR      r1,[sp,#0xc0]
        0x000062b2:    f7fbfdc2    ....    BL       fifo_read ; 0x1e3a
        0x000062b6:    9a30        0.      LDR      r2,[sp,#0xc0]
        0x000062b8:    9931        1.      LDR      r1,[sp,#0xc4]
        0x000062ba:    9838        8.      LDR      r0,[sp,#0xe0]
        0x000062bc:    43c0        .C      MVNS     r0,r0
        0x000062be:    7010        .p      STRB     r0,[r2,#0]
        0x000062c0:    a83a        :.      ADD      r0,sp,#0xe8
        0x000062c2:    7800        .x      LDRB     r0,[r0,#0]
        0x000062c4:    7809        .x      LDRB     r1,[r1,#0]
        0x000062c6:    4288        .B      CMP      r0,r1
        0x000062c8:    d107        ..      BNE      0x62da ; spi_read_cb + 146
        0x000062ca:    e7ff        ..      B        0x62cc ; spi_read_cb + 132
        0x000062cc:    a83a        :.      ADD      r0,sp,#0xe8
        0x000062ce:    7800        .x      LDRB     r0,[r0,#0]
        0x000062d0:    a938        8.      ADD      r1,sp,#0xe0
        0x000062d2:    7809        .x      LDRB     r1,[r1,#0]
        0x000062d4:    4288        .B      CMP      r0,r1
        0x000062d6:    d001        ..      BEQ      0x62dc ; spi_read_cb + 148
        0x000062d8:    e7ff        ..      B        0x62da ; spi_read_cb + 146
        0x000062da:    e3d0        ..      B        0x6a7e ; 0x6a7e
        0x000062dc:    e7ff        ..      B        0x62de ; spi_read_cb + 150
        0x000062de:    e000        ..      B        0x62e2 ; spi_read_cb + 154
        0x000062e0:    e7ff        ..      B        0x62e2 ; spi_read_cb + 154
        0x000062e2:    a83d        =.      ADD      r0,sp,#0xf4
        0x000062e4:    7800        .x      LDRB     r0,[r0,#0]
        0x000062e6:    28a1        .(      CMP      r0,#0xa1
        0x000062e8:    d11b        ..      BNE      0x6322 ; spi_read_cb + 218
        0x000062ea:    e7ff        ..      B        0x62ec ; spi_read_cb + 164
        0x000062ec:    48d7        .H      LDR      r0,[pc,#860] ; [0x664c] = 0x20000160
        0x000062ee:    6800        .h      LDR      r0,[r0,#0]
        0x000062f0:    49d7        .I      LDR      r1,[pc,#860] ; [0x6650] = 0x20000168
        0x000062f2:    912e        ..      STR      r1,[sp,#0xb8]
        0x000062f4:    7008        .p      STRB     r0,[r1,#0]
        0x000062f6:    9834        4.      LDR      r0,[sp,#0xd0]
        0x000062f8:    7809        .x      LDRB     r1,[r1,#0]
        0x000062fa:    f7fbfde3    ....    BL       fifo_write ; 0x1ec4
        0x000062fe:    982e        ..      LDR      r0,[sp,#0xb8]
        0x00006300:    7800        .x      LDRB     r0,[r0,#0]
        0x00006302:    a93a        :.      ADD      r1,sp,#0xe8
        0x00006304:    912f        /.      STR      r1,[sp,#0xbc]
        0x00006306:    7008        .p      STRB     r0,[r1,#0]
        0x00006308:    9834        4.      LDR      r0,[sp,#0xd0]
        0x0000630a:    7809        .x      LDRB     r1,[r1,#0]
        0x0000630c:    f7fbfdda    ....    BL       fifo_write ; 0x1ec4
        0x00006310:    992f        /.      LDR      r1,[sp,#0xbc]
        0x00006312:    983a        :.      LDR      r0,[sp,#0xe8]
        0x00006314:    43c0        .C      MVNS     r0,r0
        0x00006316:    7008        .p      STRB     r0,[r1,#0]
        0x00006318:    9834        4.      LDR      r0,[sp,#0xd0]
        0x0000631a:    7809        .x      LDRB     r1,[r1,#0]
        0x0000631c:    f7fbfdd2    ....    BL       fifo_write ; 0x1ec4
        0x00006320:    e3ab        ..      B        0x6a7a ; 0x6a7a
        0x00006322:    a83d        =.      ADD      r0,sp,#0xf4
        0x00006324:    7800        .x      LDRB     r0,[r0,#0]
        0x00006326:    28a7        .(      CMP      r0,#0xa7
        0x00006328:    d140        @.      BNE      0x63ac ; spi_read_cb + 356
        0x0000632a:    e7ff        ..      B        0x632c ; spi_read_cb + 228
        0x0000632c:    a93a        :.      ADD      r1,sp,#0xe8
        0x0000632e:    2000        .       MOVS     r0,#0
        0x00006330:    7008        .p      STRB     r0,[r1,#0]
        0x00006332:    a93b        ;.      ADD      r1,sp,#0xec
        0x00006334:    7008        .p      STRB     r0,[r1,#0]
        0x00006336:    e7ff        ..      B        0x6338 ; spi_read_cb + 240
        0x00006338:    a83b        ;.      ADD      r0,sp,#0xec
        0x0000633a:    7800        .x      LDRB     r0,[r0,#0]
        0x0000633c:    2803        .(      CMP      r0,#3
        0x0000633e:    d818        ..      BHI      0x6372 ; spi_read_cb + 298
        0x00006340:    e7ff        ..      B        0x6342 ; spi_read_cb + 250
        0x00006342:    48c3        .H      LDR      r0,[pc,#780] ; [0x6650] = 0x20000168
        0x00006344:    21c0        .!      MOVS     r1,#0xc0
        0x00006346:    5840        @X      LDR      r0,[r0,r1]
        0x00006348:    a93b        ;.      ADD      r1,sp,#0xec
        0x0000634a:    7809        .x      LDRB     r1,[r1,#0]
        0x0000634c:    00c9        ..      LSLS     r1,r1,#3
        0x0000634e:    40c8        .@      LSRS     r0,r0,r1
        0x00006350:    a933        3.      ADD      r1,sp,#0xcc
        0x00006352:    7008        .p      STRB     r0,[r1,#0]
        0x00006354:    9834        4.      LDR      r0,[sp,#0xd0]
        0x00006356:    7809        .x      LDRB     r1,[r1,#0]
        0x00006358:    f7fbfdb4    ....    BL       fifo_write ; 0x1ec4
        0x0000635c:    9933        3.      LDR      r1,[sp,#0xcc]
        0x0000635e:    983a        :.      LDR      r0,[sp,#0xe8]
        0x00006360:    1840        @.      ADDS     r0,r0,r1
        0x00006362:    a93a        :.      ADD      r1,sp,#0xe8
        0x00006364:    7008        .p      STRB     r0,[r1,#0]
        0x00006366:    e7ff        ..      B        0x6368 ; spi_read_cb + 288
        0x00006368:    983b        ;.      LDR      r0,[sp,#0xec]
        0x0000636a:    1c40        @.      ADDS     r0,r0,#1
        0x0000636c:    a93b        ;.      ADD      r1,sp,#0xec
        0x0000636e:    7008        .p      STRB     r0,[r1,#0]
        0x00006370:    e7e2        ..      B        0x6338 ; spi_read_cb + 240
        0x00006372:    9834        4.      LDR      r0,[sp,#0xd0]
        0x00006374:    49b6        .I      LDR      r1,[pc,#728] ; [0x6650] = 0x20000168
        0x00006376:    912c        ,.      STR      r1,[sp,#0xb0]
        0x00006378:    22bf        ."      MOVS     r2,#0xbf
        0x0000637a:    922b        +.      STR      r2,[sp,#0xac]
        0x0000637c:    5c89        .\      LDRB     r1,[r1,r2]
        0x0000637e:    f7fbfda1    ....    BL       fifo_write ; 0x1ec4
        0x00006382:    992b        +.      LDR      r1,[sp,#0xac]
        0x00006384:    982c        ,.      LDR      r0,[sp,#0xb0]
        0x00006386:    5c41        A\      LDRB     r1,[r0,r1]
        0x00006388:    983a        :.      LDR      r0,[sp,#0xe8]
        0x0000638a:    1840        @.      ADDS     r0,r0,r1
        0x0000638c:    a93a        :.      ADD      r1,sp,#0xe8
        0x0000638e:    912d        -.      STR      r1,[sp,#0xb4]
        0x00006390:    7008        .p      STRB     r0,[r1,#0]
        0x00006392:    9834        4.      LDR      r0,[sp,#0xd0]
        0x00006394:    7809        .x      LDRB     r1,[r1,#0]
        0x00006396:    f7fbfd95    ....    BL       fifo_write ; 0x1ec4
        0x0000639a:    992d        -.      LDR      r1,[sp,#0xb4]
        0x0000639c:    983a        :.      LDR      r0,[sp,#0xe8]
        0x0000639e:    43c0        .C      MVNS     r0,r0
        0x000063a0:    7008        .p      STRB     r0,[r1,#0]
        0x000063a2:    9834        4.      LDR      r0,[sp,#0xd0]
        0x000063a4:    7809        .x      LDRB     r1,[r1,#0]
        0x000063a6:    f7fbfd8d    ....    BL       fifo_write ; 0x1ec4
        0x000063aa:    e365        e.      B        0x6a78 ; 0x6a78
        0x000063ac:    a83d        =.      ADD      r0,sp,#0xf4
        0x000063ae:    7800        .x      LDRB     r0,[r0,#0]
        0x000063b0:    28a2        .(      CMP      r0,#0xa2
        0x000063b2:    d132        2.      BNE      0x641a ; spi_read_cb + 466
        0x000063b4:    e7ff        ..      B        0x63b6 ; spi_read_cb + 366
        0x000063b6:    a93a        :.      ADD      r1,sp,#0xe8
        0x000063b8:    2000        .       MOVS     r0,#0
        0x000063ba:    7008        .p      STRB     r0,[r1,#0]
        0x000063bc:    a93b        ;.      ADD      r1,sp,#0xec
        0x000063be:    7008        .p      STRB     r0,[r1,#0]
        0x000063c0:    e7ff        ..      B        0x63c2 ; spi_read_cb + 378
        0x000063c2:    a83b        ;.      ADD      r0,sp,#0xec
        0x000063c4:    7800        .x      LDRB     r0,[r0,#0]
        0x000063c6:    2804        .(      CMP      r0,#4
        0x000063c8:    d818        ..      BHI      0x63fc ; spi_read_cb + 436
        0x000063ca:    e7ff        ..      B        0x63cc ; spi_read_cb + 388
        0x000063cc:    9834        4.      LDR      r0,[sp,#0xd0]
        0x000063ce:    a93b        ;.      ADD      r1,sp,#0xec
        0x000063d0:    9129        ).      STR      r1,[sp,#0xa4]
        0x000063d2:    780a        .x      LDRB     r2,[r1,#0]
        0x000063d4:    499e        .I      LDR      r1,[pc,#632] ; [0x6650] = 0x20000168
        0x000063d6:    1d89        ..      ADDS     r1,r1,#6
        0x000063d8:    912a        *.      STR      r1,[sp,#0xa8]
        0x000063da:    5c89        .\      LDRB     r1,[r1,r2]
        0x000063dc:    f7fbfd72    ..r.    BL       fifo_write ; 0x1ec4
        0x000063e0:    9929        ).      LDR      r1,[sp,#0xa4]
        0x000063e2:    982a        *.      LDR      r0,[sp,#0xa8]
        0x000063e4:    7809        .x      LDRB     r1,[r1,#0]
        0x000063e6:    5c41        A\      LDRB     r1,[r0,r1]
        0x000063e8:    983a        :.      LDR      r0,[sp,#0xe8]
        0x000063ea:    1840        @.      ADDS     r0,r0,r1
        0x000063ec:    a93a        :.      ADD      r1,sp,#0xe8
        0x000063ee:    7008        .p      STRB     r0,[r1,#0]
        0x000063f0:    e7ff        ..      B        0x63f2 ; spi_read_cb + 426
        0x000063f2:    983b        ;.      LDR      r0,[sp,#0xec]
        0x000063f4:    1c40        @.      ADDS     r0,r0,#1
        0x000063f6:    a93b        ;.      ADD      r1,sp,#0xec
        0x000063f8:    7008        .p      STRB     r0,[r1,#0]
        0x000063fa:    e7e2        ..      B        0x63c2 ; spi_read_cb + 378
        0x000063fc:    9834        4.      LDR      r0,[sp,#0xd0]
        0x000063fe:    a93a        :.      ADD      r1,sp,#0xe8
        0x00006400:    9128        (.      STR      r1,[sp,#0xa0]
        0x00006402:    7809        .x      LDRB     r1,[r1,#0]
        0x00006404:    f7fbfd5e    ..^.    BL       fifo_write ; 0x1ec4
        0x00006408:    9928        (.      LDR      r1,[sp,#0xa0]
        0x0000640a:    983a        :.      LDR      r0,[sp,#0xe8]
        0x0000640c:    43c0        .C      MVNS     r0,r0
        0x0000640e:    7008        .p      STRB     r0,[r1,#0]
        0x00006410:    9834        4.      LDR      r0,[sp,#0xd0]
        0x00006412:    7809        .x      LDRB     r1,[r1,#0]
        0x00006414:    f7fbfd56    ..V.    BL       fifo_write ; 0x1ec4
        0x00006418:    e32d        -.      B        0x6a76 ; 0x6a76
        0x0000641a:    a83d        =.      ADD      r0,sp,#0xf4
        0x0000641c:    7800        .x      LDRB     r0,[r0,#0]
        0x0000641e:    28a8        .(      CMP      r0,#0xa8
        0x00006420:    d132        2.      BNE      0x6488 ; spi_read_cb + 576
        0x00006422:    e7ff        ..      B        0x6424 ; spi_read_cb + 476
        0x00006424:    a93a        :.      ADD      r1,sp,#0xe8
        0x00006426:    2000        .       MOVS     r0,#0
        0x00006428:    7008        .p      STRB     r0,[r1,#0]
        0x0000642a:    a93b        ;.      ADD      r1,sp,#0xec
        0x0000642c:    7008        .p      STRB     r0,[r1,#0]
        0x0000642e:    e7ff        ..      B        0x6430 ; spi_read_cb + 488
        0x00006430:    a83b        ;.      ADD      r0,sp,#0xec
        0x00006432:    7800        .x      LDRB     r0,[r0,#0]
        0x00006434:    2804        .(      CMP      r0,#4
        0x00006436:    d818        ..      BHI      0x646a ; spi_read_cb + 546
        0x00006438:    e7ff        ..      B        0x643a ; spi_read_cb + 498
        0x0000643a:    9834        4.      LDR      r0,[sp,#0xd0]
        0x0000643c:    a93b        ;.      ADD      r1,sp,#0xec
        0x0000643e:    9126        &.      STR      r1,[sp,#0x98]
        0x00006440:    780a        .x      LDRB     r2,[r1,#0]
        0x00006442:    4983        .I      LDR      r1,[pc,#524] ; [0x6650] = 0x20000168
        0x00006444:    310b        .1      ADDS     r1,r1,#0xb
        0x00006446:    9127        '.      STR      r1,[sp,#0x9c]
        0x00006448:    5c89        .\      LDRB     r1,[r1,r2]
        0x0000644a:    f7fbfd3b    ..;.    BL       fifo_write ; 0x1ec4
        0x0000644e:    9926        &.      LDR      r1,[sp,#0x98]
        0x00006450:    9827        '.      LDR      r0,[sp,#0x9c]
        0x00006452:    7809        .x      LDRB     r1,[r1,#0]
        0x00006454:    5c41        A\      LDRB     r1,[r0,r1]
        0x00006456:    983a        :.      LDR      r0,[sp,#0xe8]
        0x00006458:    1840        @.      ADDS     r0,r0,r1
        0x0000645a:    a93a        :.      ADD      r1,sp,#0xe8
        0x0000645c:    7008        .p      STRB     r0,[r1,#0]
        0x0000645e:    e7ff        ..      B        0x6460 ; spi_read_cb + 536
        0x00006460:    983b        ;.      LDR      r0,[sp,#0xec]
        0x00006462:    1c40        @.      ADDS     r0,r0,#1
        0x00006464:    a93b        ;.      ADD      r1,sp,#0xec
        0x00006466:    7008        .p      STRB     r0,[r1,#0]
        0x00006468:    e7e2        ..      B        0x6430 ; spi_read_cb + 488
        0x0000646a:    9834        4.      LDR      r0,[sp,#0xd0]
        0x0000646c:    a93a        :.      ADD      r1,sp,#0xe8
        0x0000646e:    9125        %.      STR      r1,[sp,#0x94]
        0x00006470:    7809        .x      LDRB     r1,[r1,#0]
        0x00006472:    f7fbfd27    ..'.    BL       fifo_write ; 0x1ec4
        0x00006476:    9925        %.      LDR      r1,[sp,#0x94]
        0x00006478:    983a        :.      LDR      r0,[sp,#0xe8]
        0x0000647a:    43c0        .C      MVNS     r0,r0
        0x0000647c:    7008        .p      STRB     r0,[r1,#0]
        0x0000647e:    9834        4.      LDR      r0,[sp,#0xd0]
        0x00006480:    7809        .x      LDRB     r1,[r1,#0]
        0x00006482:    f7fbfd1f    ....    BL       fifo_write ; 0x1ec4
        0x00006486:    e2f5        ..      B        0x6a74 ; 0x6a74
        0x00006488:    a83d        =.      ADD      r0,sp,#0xf4
        0x0000648a:    7800        .x      LDRB     r0,[r0,#0]
        0x0000648c:    28aa        .(      CMP      r0,#0xaa
        0x0000648e:    d132        2.      BNE      0x64f6 ; spi_read_cb + 686
        0x00006490:    e7ff        ..      B        0x6492 ; spi_read_cb + 586
        0x00006492:    a93a        :.      ADD      r1,sp,#0xe8
        0x00006494:    2000        .       MOVS     r0,#0
        0x00006496:    7008        .p      STRB     r0,[r1,#0]
        0x00006498:    a93b        ;.      ADD      r1,sp,#0xec
        0x0000649a:    7008        .p      STRB     r0,[r1,#0]
        0x0000649c:    e7ff        ..      B        0x649e ; spi_read_cb + 598
        0x0000649e:    a83b        ;.      ADD      r0,sp,#0xec
        0x000064a0:    7800        .x      LDRB     r0,[r0,#0]
        0x000064a2:    2805        .(      CMP      r0,#5
        0x000064a4:    d818        ..      BHI      0x64d8 ; spi_read_cb + 656
        0x000064a6:    e7ff        ..      B        0x64a8 ; spi_read_cb + 608
        0x000064a8:    9834        4.      LDR      r0,[sp,#0xd0]
        0x000064aa:    a93b        ;.      ADD      r1,sp,#0xec
        0x000064ac:    9123        #.      STR      r1,[sp,#0x8c]
        0x000064ae:    780a        .x      LDRB     r2,[r1,#0]
        0x000064b0:    4967        gI      LDR      r1,[pc,#412] ; [0x6650] = 0x20000168
        0x000064b2:    3110        .1      ADDS     r1,r1,#0x10
        0x000064b4:    9124        $.      STR      r1,[sp,#0x90]
        0x000064b6:    5c89        .\      LDRB     r1,[r1,r2]
        0x000064b8:    f7fbfd04    ....    BL       fifo_write ; 0x1ec4
        0x000064bc:    9923        #.      LDR      r1,[sp,#0x8c]
        0x000064be:    9824        $.      LDR      r0,[sp,#0x90]
        0x000064c0:    7809        .x      LDRB     r1,[r1,#0]
        0x000064c2:    5c41        A\      LDRB     r1,[r0,r1]
        0x000064c4:    983a        :.      LDR      r0,[sp,#0xe8]
        0x000064c6:    1840        @.      ADDS     r0,r0,r1
        0x000064c8:    a93a        :.      ADD      r1,sp,#0xe8
        0x000064ca:    7008        .p      STRB     r0,[r1,#0]
        0x000064cc:    e7ff        ..      B        0x64ce ; spi_read_cb + 646
        0x000064ce:    983b        ;.      LDR      r0,[sp,#0xec]
        0x000064d0:    1c40        @.      ADDS     r0,r0,#1
        0x000064d2:    a93b        ;.      ADD      r1,sp,#0xec
        0x000064d4:    7008        .p      STRB     r0,[r1,#0]
        0x000064d6:    e7e2        ..      B        0x649e ; spi_read_cb + 598
        0x000064d8:    9834        4.      LDR      r0,[sp,#0xd0]
        0x000064da:    a93a        :.      ADD      r1,sp,#0xe8
        0x000064dc:    9122        ".      STR      r1,[sp,#0x88]
        0x000064de:    7809        .x      LDRB     r1,[r1,#0]
        0x000064e0:    f7fbfcf0    ....    BL       fifo_write ; 0x1ec4
        0x000064e4:    9922        ".      LDR      r1,[sp,#0x88]
        0x000064e6:    983a        :.      LDR      r0,[sp,#0xe8]
        0x000064e8:    43c0        .C      MVNS     r0,r0
        0x000064ea:    7008        .p      STRB     r0,[r1,#0]
        0x000064ec:    9834        4.      LDR      r0,[sp,#0xd0]
        0x000064ee:    7809        .x      LDRB     r1,[r1,#0]
        0x000064f0:    f7fbfce8    ....    BL       fifo_write ; 0x1ec4
        0x000064f4:    e2bd        ..      B        0x6a72 ; 0x6a72
        0x000064f6:    a83d        =.      ADD      r0,sp,#0xf4
        0x000064f8:    7800        .x      LDRB     r0,[r0,#0]
        0x000064fa:    28ab        .(      CMP      r0,#0xab
        0x000064fc:    d132        2.      BNE      0x6564 ; spi_read_cb + 796
        0x000064fe:    e7ff        ..      B        0x6500 ; spi_read_cb + 696
        0x00006500:    a93a        :.      ADD      r1,sp,#0xe8
        0x00006502:    2000        .       MOVS     r0,#0
        0x00006504:    7008        .p      STRB     r0,[r1,#0]
        0x00006506:    a93b        ;.      ADD      r1,sp,#0xec
        0x00006508:    7008        .p      STRB     r0,[r1,#0]
        0x0000650a:    e7ff        ..      B        0x650c ; spi_read_cb + 708
        0x0000650c:    a83b        ;.      ADD      r0,sp,#0xec
        0x0000650e:    7800        .x      LDRB     r0,[r0,#0]
        0x00006510:    2801        .(      CMP      r0,#1
        0x00006512:    d818        ..      BHI      0x6546 ; spi_read_cb + 766
        0x00006514:    e7ff        ..      B        0x6516 ; spi_read_cb + 718
        0x00006516:    9834        4.      LDR      r0,[sp,#0xd0]
        0x00006518:    a93b        ;.      ADD      r1,sp,#0xec
        0x0000651a:    9120         .      STR      r1,[sp,#0x80]
        0x0000651c:    780a        .x      LDRB     r2,[r1,#0]
        0x0000651e:    494c        LI      LDR      r1,[pc,#304] ; [0x6650] = 0x20000168
        0x00006520:    3116        .1      ADDS     r1,r1,#0x16
        0x00006522:    9121        !.      STR      r1,[sp,#0x84]
        0x00006524:    5c89        .\      LDRB     r1,[r1,r2]
        0x00006526:    f7fbfccd    ....    BL       fifo_write ; 0x1ec4
        0x0000652a:    9920         .      LDR      r1,[sp,#0x80]
        0x0000652c:    9821        !.      LDR      r0,[sp,#0x84]
        0x0000652e:    7809        .x      LDRB     r1,[r1,#0]
        0x00006530:    5c41        A\      LDRB     r1,[r0,r1]
        0x00006532:    983a        :.      LDR      r0,[sp,#0xe8]
        0x00006534:    1840        @.      ADDS     r0,r0,r1
        0x00006536:    a93a        :.      ADD      r1,sp,#0xe8
        0x00006538:    7008        .p      STRB     r0,[r1,#0]
        0x0000653a:    e7ff        ..      B        0x653c ; spi_read_cb + 756
        0x0000653c:    983b        ;.      LDR      r0,[sp,#0xec]
        0x0000653e:    1c40        @.      ADDS     r0,r0,#1
        0x00006540:    a93b        ;.      ADD      r1,sp,#0xec
        0x00006542:    7008        .p      STRB     r0,[r1,#0]
        0x00006544:    e7e2        ..      B        0x650c ; spi_read_cb + 708
        0x00006546:    9834        4.      LDR      r0,[sp,#0xd0]
        0x00006548:    a93a        :.      ADD      r1,sp,#0xe8
        0x0000654a:    911f        ..      STR      r1,[sp,#0x7c]
        0x0000654c:    7809        .x      LDRB     r1,[r1,#0]
        0x0000654e:    f7fbfcb9    ....    BL       fifo_write ; 0x1ec4
        0x00006552:    991f        ..      LDR      r1,[sp,#0x7c]
        0x00006554:    983a        :.      LDR      r0,[sp,#0xe8]
        0x00006556:    43c0        .C      MVNS     r0,r0
        0x00006558:    7008        .p      STRB     r0,[r1,#0]
        0x0000655a:    9834        4.      LDR      r0,[sp,#0xd0]
        0x0000655c:    7809        .x      LDRB     r1,[r1,#0]
        0x0000655e:    f7fbfcb1    ....    BL       fifo_write ; 0x1ec4
        0x00006562:    e285        ..      B        0x6a70 ; 0x6a70
        0x00006564:    a83d        =.      ADD      r0,sp,#0xf4
        0x00006566:    7800        .x      LDRB     r0,[r0,#0]
        0x00006568:    28a4        .(      CMP      r0,#0xa4
        0x0000656a:    d131        1.      BNE      0x65d0 ; spi_read_cb + 904
        0x0000656c:    e7ff        ..      B        0x656e ; spi_read_cb + 806
        0x0000656e:    a93a        :.      ADD      r1,sp,#0xe8
        0x00006570:    2000        .       MOVS     r0,#0
        0x00006572:    7008        .p      STRB     r0,[r1,#0]
        0x00006574:    a93b        ;.      ADD      r1,sp,#0xec
        0x00006576:    7008        .p      STRB     r0,[r1,#0]
        0x00006578:    e7ff        ..      B        0x657a ; spi_read_cb + 818
        0x0000657a:    a83b        ;.      ADD      r0,sp,#0xec
        0x0000657c:    7800        .x      LDRB     r0,[r0,#0]
        0x0000657e:    2801        .(      CMP      r0,#1
        0x00006580:    d817        ..      BHI      0x65b2 ; spi_read_cb + 874
        0x00006582:    e7ff        ..      B        0x6584 ; spi_read_cb + 828
        0x00006584:    9834        4.      LDR      r0,[sp,#0xd0]
        0x00006586:    a93b        ;.      ADD      r1,sp,#0xec
        0x00006588:    911d        ..      STR      r1,[sp,#0x74]
        0x0000658a:    780a        .x      LDRB     r2,[r1,#0]
        0x0000658c:    4931        1I      LDR      r1,[pc,#196] ; [0x6654] = 0x200002a8
        0x0000658e:    911e        ..      STR      r1,[sp,#0x78]
        0x00006590:    5c89        .\      LDRB     r1,[r1,r2]
        0x00006592:    f7fbfc97    ....    BL       fifo_write ; 0x1ec4
        0x00006596:    991d        ..      LDR      r1,[sp,#0x74]
        0x00006598:    981e        ..      LDR      r0,[sp,#0x78]
        0x0000659a:    7809        .x      LDRB     r1,[r1,#0]
        0x0000659c:    5c41        A\      LDRB     r1,[r0,r1]
        0x0000659e:    983a        :.      LDR      r0,[sp,#0xe8]
        0x000065a0:    1840        @.      ADDS     r0,r0,r1
        0x000065a2:    a93a        :.      ADD      r1,sp,#0xe8
        0x000065a4:    7008        .p      STRB     r0,[r1,#0]
        0x000065a6:    e7ff        ..      B        0x65a8 ; spi_read_cb + 864
        0x000065a8:    983b        ;.      LDR      r0,[sp,#0xec]
        0x000065aa:    1c40        @.      ADDS     r0,r0,#1
        0x000065ac:    a93b        ;.      ADD      r1,sp,#0xec
        0x000065ae:    7008        .p      STRB     r0,[r1,#0]
        0x000065b0:    e7e3        ..      B        0x657a ; spi_read_cb + 818
        0x000065b2:    9834        4.      LDR      r0,[sp,#0xd0]
        0x000065b4:    a93a        :.      ADD      r1,sp,#0xe8
        0x000065b6:    911c        ..      STR      r1,[sp,#0x70]
        0x000065b8:    7809        .x      LDRB     r1,[r1,#0]
        0x000065ba:    f7fbfc83    ....    BL       fifo_write ; 0x1ec4
        0x000065be:    991c        ..      LDR      r1,[sp,#0x70]
        0x000065c0:    983a        :.      LDR      r0,[sp,#0xe8]
        0x000065c2:    43c0        .C      MVNS     r0,r0
        0x000065c4:    7008        .p      STRB     r0,[r1,#0]
        0x000065c6:    9834        4.      LDR      r0,[sp,#0xd0]
        0x000065c8:    7809        .x      LDRB     r1,[r1,#0]
        0x000065ca:    f7fbfc7b    ..{.    BL       fifo_write ; 0x1ec4
        0x000065ce:    e24e        N.      B        0x6a6e ; 0x6a6e
        0x000065d0:    a83d        =.      ADD      r0,sp,#0xf4
        0x000065d2:    7800        .x      LDRB     r0,[r0,#0]
        0x000065d4:    28a9        .(      CMP      r0,#0xa9
        0x000065d6:    d131        1.      BNE      0x663c ; spi_read_cb + 1012
        0x000065d8:    e7ff        ..      B        0x65da ; spi_read_cb + 914
        0x000065da:    a93a        :.      ADD      r1,sp,#0xe8
        0x000065dc:    2000        .       MOVS     r0,#0
        0x000065de:    7008        .p      STRB     r0,[r1,#0]
        0x000065e0:    a93b        ;.      ADD      r1,sp,#0xec
        0x000065e2:    7008        .p      STRB     r0,[r1,#0]
        0x000065e4:    e7ff        ..      B        0x65e6 ; spi_read_cb + 926
        0x000065e6:    a83b        ;.      ADD      r0,sp,#0xec
        0x000065e8:    7800        .x      LDRB     r0,[r0,#0]
        0x000065ea:    2805        .(      CMP      r0,#5
        0x000065ec:    d817        ..      BHI      0x661e ; spi_read_cb + 982
        0x000065ee:    e7ff        ..      B        0x65f0 ; spi_read_cb + 936
        0x000065f0:    9834        4.      LDR      r0,[sp,#0xd0]
        0x000065f2:    a93b        ;.      ADD      r1,sp,#0xec
        0x000065f4:    911a        ..      STR      r1,[sp,#0x68]
        0x000065f6:    780a        .x      LDRB     r2,[r1,#0]
        0x000065f8:    4917        .I      LDR      r1,[pc,#92] ; [0x6658] = 0x20000288
        0x000065fa:    911b        ..      STR      r1,[sp,#0x6c]
        0x000065fc:    5c89        .\      LDRB     r1,[r1,r2]
        0x000065fe:    f7fbfc61    ..a.    BL       fifo_write ; 0x1ec4
        0x00006602:    991a        ..      LDR      r1,[sp,#0x68]
        0x00006604:    981b        ..      LDR      r0,[sp,#0x6c]
        0x00006606:    7809        .x      LDRB     r1,[r1,#0]
        0x00006608:    5c41        A\      LDRB     r1,[r0,r1]
        0x0000660a:    983a        :.      LDR      r0,[sp,#0xe8]
        0x0000660c:    1840        @.      ADDS     r0,r0,r1
        0x0000660e:    a93a        :.      ADD      r1,sp,#0xe8
        0x00006610:    7008        .p      STRB     r0,[r1,#0]
        0x00006612:    e7ff        ..      B        0x6614 ; spi_read_cb + 972
        0x00006614:    983b        ;.      LDR      r0,[sp,#0xec]
        0x00006616:    1c40        @.      ADDS     r0,r0,#1
        0x00006618:    a93b        ;.      ADD      r1,sp,#0xec
        0x0000661a:    7008        .p      STRB     r0,[r1,#0]
        0x0000661c:    e7e3        ..      B        0x65e6 ; spi_read_cb + 926
        0x0000661e:    9834        4.      LDR      r0,[sp,#0xd0]
        0x00006620:    a93a        :.      ADD      r1,sp,#0xe8
        0x00006622:    9119        ..      STR      r1,[sp,#0x64]
        0x00006624:    7809        .x      LDRB     r1,[r1,#0]
        0x00006626:    f7fbfc4d    ..M.    BL       fifo_write ; 0x1ec4
        0x0000662a:    9919        ..      LDR      r1,[sp,#0x64]
        0x0000662c:    983a        :.      LDR      r0,[sp,#0xe8]
        0x0000662e:    43c0        .C      MVNS     r0,r0
        0x00006630:    7008        .p      STRB     r0,[r1,#0]
        0x00006632:    9834        4.      LDR      r0,[sp,#0xd0]
        0x00006634:    7809        .x      LDRB     r1,[r1,#0]
        0x00006636:    f7fbfc45    ..E.    BL       fifo_write ; 0x1ec4
        0x0000663a:    e217        ..      B        0x6a6c ; 0x6a6c
        0x0000663c:    a83d        =.      ADD      r0,sp,#0xf4
        0x0000663e:    7800        .x      LDRB     r0,[r0,#0]
        0x00006640:    28ac        .(      CMP      r0,#0xac
        0x00006642:    d13d        =.      BNE      0x66c0 ; 0x66c0
        0x00006644:    e00a        ..      B        0x665c ; 0x665c
        0x00006646:    46c0        .F      MOV      r8,r8
    $d
    __arm_cp.5_6
        0x00006648:    2000000c    ...     DCD    536870924
    __arm_cp.5_7
        0x0000664c:    20000160    `..     DCD    536871264
        0x00006650:    20000168    h..     DCD    536871272
    __arm_cp.5_9
        0x00006654:    200002a8    ...     DCD    536871592
    __arm_cp.5_10
        0x00006658:    20000288    ...     DCD    536871560
    $t
        0x0000665c:    a93a        :.      ADD      r1,sp,#0xe8
        0x0000665e:    2000        .       MOVS     r0,#0
        0x00006660:    7008        .p      STRB     r0,[r1,#0]
        0x00006662:    a93b        ;.      ADD      r1,sp,#0xec
        0x00006664:    7008        .p      STRB     r0,[r1,#0]
        0x00006666:    e7ff        ..      B        0x6668 ; 0x6668
        0x00006668:    a83b        ;.      ADD      r0,sp,#0xec
        0x0000666a:    7800        .x      LDRB     r0,[r0,#0]
        0x0000666c:    2804        .(      CMP      r0,#4
        0x0000666e:    d818        ..      BHI      0x66a2 ; 0x66a2
        0x00006670:    e7ff        ..      B        0x6672 ; 0x6672
        0x00006672:    9834        4.      LDR      r0,[sp,#0xd0]
        0x00006674:    a93b        ;.      ADD      r1,sp,#0xec
        0x00006676:    9117        ..      STR      r1,[sp,#0x5c]
        0x00006678:    780a        .x      LDRB     r2,[r1,#0]
        0x0000667a:    49f8        .I      LDR      r1,[pc,#992] ; [0x6a5c] = 0x20000168
        0x0000667c:    31c4        .1      ADDS     r1,r1,#0xc4
        0x0000667e:    9118        ..      STR      r1,[sp,#0x60]
        0x00006680:    5c89        .\      LDRB     r1,[r1,r2]
        0x00006682:    f7fbfc1f    ....    BL       fifo_write ; 0x1ec4
        0x00006686:    9917        ..      LDR      r1,[sp,#0x5c]
        0x00006688:    9818        ..      LDR      r0,[sp,#0x60]
        0x0000668a:    7809        .x      LDRB     r1,[r1,#0]
        0x0000668c:    5c41        A\      LDRB     r1,[r0,r1]
        0x0000668e:    983a        :.      LDR      r0,[sp,#0xe8]
        0x00006690:    1840        @.      ADDS     r0,r0,r1
        0x00006692:    a93a        :.      ADD      r1,sp,#0xe8
        0x00006694:    7008        .p      STRB     r0,[r1,#0]
        0x00006696:    e7ff        ..      B        0x6698 ; 0x6698
        0x00006698:    983b        ;.      LDR      r0,[sp,#0xec]
        0x0000669a:    1c40        @.      ADDS     r0,r0,#1
        0x0000669c:    a93b        ;.      ADD      r1,sp,#0xec
        0x0000669e:    7008        .p      STRB     r0,[r1,#0]
        0x000066a0:    e7e2        ..      B        0x6668 ; 0x6668
        0x000066a2:    9834        4.      LDR      r0,[sp,#0xd0]
        0x000066a4:    a93a        :.      ADD      r1,sp,#0xe8
        0x000066a6:    9116        ..      STR      r1,[sp,#0x58]
        0x000066a8:    7809        .x      LDRB     r1,[r1,#0]
        0x000066aa:    f7fbfc0b    ....    BL       fifo_write ; 0x1ec4
        0x000066ae:    9916        ..      LDR      r1,[sp,#0x58]
        0x000066b0:    983a        :.      LDR      r0,[sp,#0xe8]
        0x000066b2:    43c0        .C      MVNS     r0,r0
        0x000066b4:    7008        .p      STRB     r0,[r1,#0]
        0x000066b6:    9834        4.      LDR      r0,[sp,#0xd0]
        0x000066b8:    7809        .x      LDRB     r1,[r1,#0]
        0x000066ba:    f7fbfc03    ....    BL       fifo_write ; 0x1ec4
        0x000066be:    e1d4        ..      B        0x6a6a ; 0x6a6a
        0x000066c0:    a83d        =.      ADD      r0,sp,#0xf4
        0x000066c2:    7800        .x      LDRB     r0,[r0,#0]
        0x000066c4:    28ad        .(      CMP      r0,#0xad
        0x000066c6:    d11c        ..      BNE      0x6702 ; 0x6702
        0x000066c8:    e7ff        ..      B        0x66ca ; 0x66ca
        0x000066ca:    9834        4.      LDR      r0,[sp,#0xd0]
        0x000066cc:    49f0        .I      LDR      r1,[pc,#960] ; [0x6a90] = 0x20000164
        0x000066ce:    9114        ..      STR      r1,[sp,#0x50]
        0x000066d0:    7809        .x      LDRB     r1,[r1,#0]
        0x000066d2:    0689        ..      LSLS     r1,r1,#26
        0x000066d4:    0f89        ..      LSRS     r1,r1,#30
        0x000066d6:    f7fbfbf5    ....    BL       fifo_write ; 0x1ec4
        0x000066da:    9814        ..      LDR      r0,[sp,#0x50]
        0x000066dc:    7800        .x      LDRB     r0,[r0,#0]
        0x000066de:    0680        ..      LSLS     r0,r0,#26
        0x000066e0:    0f80        ..      LSRS     r0,r0,#30
        0x000066e2:    a93a        :.      ADD      r1,sp,#0xe8
        0x000066e4:    9115        ..      STR      r1,[sp,#0x54]
        0x000066e6:    7008        .p      STRB     r0,[r1,#0]
        0x000066e8:    9834        4.      LDR      r0,[sp,#0xd0]
        0x000066ea:    7809        .x      LDRB     r1,[r1,#0]
        0x000066ec:    f7fbfbea    ....    BL       fifo_write ; 0x1ec4
        0x000066f0:    9915        ..      LDR      r1,[sp,#0x54]
        0x000066f2:    983a        :.      LDR      r0,[sp,#0xe8]
        0x000066f4:    43c0        .C      MVNS     r0,r0
        0x000066f6:    7008        .p      STRB     r0,[r1,#0]
        0x000066f8:    9834        4.      LDR      r0,[sp,#0xd0]
        0x000066fa:    7809        .x      LDRB     r1,[r1,#0]
        0x000066fc:    f7fbfbe2    ....    BL       fifo_write ; 0x1ec4
        0x00006700:    e1b2        ..      B        0x6a68 ; 0x6a68
        0x00006702:    a83d        =.      ADD      r0,sp,#0xf4
        0x00006704:    7800        .x      LDRB     r0,[r0,#0]
        0x00006706:    28b4        .(      CMP      r0,#0xb4
        0x00006708:    d168        h.      BNE      0x67dc ; 0x67dc
        0x0000670a:    e7ff        ..      B        0x670c ; 0x670c
        0x0000670c:    a93b        ;.      ADD      r1,sp,#0xec
        0x0000670e:    2000        .       MOVS     r0,#0
        0x00006710:    7008        .p      STRB     r0,[r1,#0]
        0x00006712:    e7ff        ..      B        0x6714 ; 0x6714
        0x00006714:    a83b        ;.      ADD      r0,sp,#0xec
        0x00006716:    7800        .x      LDRB     r0,[r0,#0]
        0x00006718:    2801        .(      CMP      r0,#1
        0x0000671a:    d817        ..      BHI      0x674c ; 0x674c
        0x0000671c:    e7ff        ..      B        0x671e ; 0x671e
        0x0000671e:    9835        5.      LDR      r0,[sp,#0xd4]
        0x00006720:    a93b        ;.      ADD      r1,sp,#0xec
        0x00006722:    9112        ..      STR      r1,[sp,#0x48]
        0x00006724:    780a        .x      LDRB     r2,[r1,#0]
        0x00006726:    a936        6.      ADD      r1,sp,#0xd8
        0x00006728:    9113        ..      STR      r1,[sp,#0x4c]
        0x0000672a:    1889        ..      ADDS     r1,r1,r2
        0x0000672c:    f7fbfb85    ....    BL       fifo_read ; 0x1e3a
        0x00006730:    9912        ..      LDR      r1,[sp,#0x48]
        0x00006732:    9813        ..      LDR      r0,[sp,#0x4c]
        0x00006734:    7809        .x      LDRB     r1,[r1,#0]
        0x00006736:    5c41        A\      LDRB     r1,[r0,r1]
        0x00006738:    983a        :.      LDR      r0,[sp,#0xe8]
        0x0000673a:    1840        @.      ADDS     r0,r0,r1
        0x0000673c:    a93a        :.      ADD      r1,sp,#0xe8
        0x0000673e:    7008        .p      STRB     r0,[r1,#0]
        0x00006740:    e7ff        ..      B        0x6742 ; 0x6742
        0x00006742:    983b        ;.      LDR      r0,[sp,#0xec]
        0x00006744:    1c40        @.      ADDS     r0,r0,#1
        0x00006746:    a93b        ;.      ADD      r1,sp,#0xec
        0x00006748:    7008        .p      STRB     r0,[r1,#0]
        0x0000674a:    e7e3        ..      B        0x6714 ; 0x6714
        0x0000674c:    9835        5.      LDR      r0,[sp,#0xd4]
        0x0000674e:    a939        9.      ADD      r1,sp,#0xe4
        0x00006750:    9111        ..      STR      r1,[sp,#0x44]
        0x00006752:    f7fbfb72    ..r.    BL       fifo_read ; 0x1e3a
        0x00006756:    9835        5.      LDR      r0,[sp,#0xd4]
        0x00006758:    a938        8.      ADD      r1,sp,#0xe0
        0x0000675a:    9110        ..      STR      r1,[sp,#0x40]
        0x0000675c:    f7fbfb6d    ..m.    BL       fifo_read ; 0x1e3a
        0x00006760:    9a10        ..      LDR      r2,[sp,#0x40]
        0x00006762:    9911        ..      LDR      r1,[sp,#0x44]
        0x00006764:    9838        8.      LDR      r0,[sp,#0xe0]
        0x00006766:    43c0        .C      MVNS     r0,r0
        0x00006768:    7010        .p      STRB     r0,[r2,#0]
        0x0000676a:    a83a        :.      ADD      r0,sp,#0xe8
        0x0000676c:    7800        .x      LDRB     r0,[r0,#0]
        0x0000676e:    7809        .x      LDRB     r1,[r1,#0]
        0x00006770:    4288        .B      CMP      r0,r1
        0x00006772:    d131        1.      BNE      0x67d8 ; 0x67d8
        0x00006774:    e7ff        ..      B        0x6776 ; 0x6776
        0x00006776:    a83a        :.      ADD      r0,sp,#0xe8
        0x00006778:    7800        .x      LDRB     r0,[r0,#0]
        0x0000677a:    a938        8.      ADD      r1,sp,#0xe0
        0x0000677c:    7809        .x      LDRB     r1,[r1,#0]
        0x0000677e:    4288        .B      CMP      r0,r1
        0x00006780:    d12a        *.      BNE      0x67d8 ; 0x67d8
        0x00006782:    e7ff        ..      B        0x6784 ; 0x6784
        0x00006784:    9834        4.      LDR      r0,[sp,#0xd0]
        0x00006786:    21aa        .!      MOVS     r1,#0xaa
        0x00006788:    910e        ..      STR      r1,[sp,#0x38]
        0x0000678a:    f7fbfb9b    ....    BL       fifo_write ; 0x1ec4
        0x0000678e:    980e        ..      LDR      r0,[sp,#0x38]
        0x00006790:    a93a        :.      ADD      r1,sp,#0xe8
        0x00006792:    910f        ..      STR      r1,[sp,#0x3c]
        0x00006794:    7008        .p      STRB     r0,[r1,#0]
        0x00006796:    9834        4.      LDR      r0,[sp,#0xd0]
        0x00006798:    7809        .x      LDRB     r1,[r1,#0]
        0x0000679a:    f7fbfb93    ....    BL       fifo_write ; 0x1ec4
        0x0000679e:    990f        ..      LDR      r1,[sp,#0x3c]
        0x000067a0:    9834        4.      LDR      r0,[sp,#0xd0]
        0x000067a2:    7809        .x      LDRB     r1,[r1,#0]
        0x000067a4:    22ff        ."      MOVS     r2,#0xff
        0x000067a6:    4051        Q@      EORS     r1,r1,r2
        0x000067a8:    f7fbfb8c    ....    BL       fifo_write ; 0x1ec4
        0x000067ac:    a93b        ;.      ADD      r1,sp,#0xec
        0x000067ae:    2000        .       MOVS     r0,#0
        0x000067b0:    7008        .p      STRB     r0,[r1,#0]
        0x000067b2:    e7ff        ..      B        0x67b4 ; 0x67b4
        0x000067b4:    a83b        ;.      ADD      r0,sp,#0xec
        0x000067b6:    7800        .x      LDRB     r0,[r0,#0]
        0x000067b8:    2801        .(      CMP      r0,#1
        0x000067ba:    d80c        ..      BHI      0x67d6 ; 0x67d6
        0x000067bc:    e7ff        ..      B        0x67be ; 0x67be
        0x000067be:    a83b        ;.      ADD      r0,sp,#0xec
        0x000067c0:    7802        .x      LDRB     r2,[r0,#0]
        0x000067c2:    a836        6.      ADD      r0,sp,#0xd8
        0x000067c4:    5c80        .\      LDRB     r0,[r0,r2]
        0x000067c6:    49b2        .I      LDR      r1,[pc,#712] ; [0x6a90] = 0x20000164
        0x000067c8:    5488        .T      STRB     r0,[r1,r2]
        0x000067ca:    e7ff        ..      B        0x67cc ; 0x67cc
        0x000067cc:    983b        ;.      LDR      r0,[sp,#0xec]
        0x000067ce:    1c40        @.      ADDS     r0,r0,#1
        0x000067d0:    a93b        ;.      ADD      r1,sp,#0xec
        0x000067d2:    7008        .p      STRB     r0,[r1,#0]
        0x000067d4:    e7ee        ..      B        0x67b4 ; 0x67b4
        0x000067d6:    e000        ..      B        0x67da ; 0x67da
        0x000067d8:    e7ff        ..      B        0x67da ; 0x67da
        0x000067da:    e144        D.      B        0x6a66 ; 0x6a66
        0x000067dc:    a83d        =.      ADD      r0,sp,#0xf4
        0x000067de:    7800        .x      LDRB     r0,[r0,#0]
        0x000067e0:    28a5        .(      CMP      r0,#0xa5
        0x000067e2:    d16e        n.      BNE      0x68c2 ; 0x68c2
        0x000067e4:    e7ff        ..      B        0x67e6 ; 0x67e6
        0x000067e6:    9835        5.      LDR      r0,[sp,#0xd4]
        0x000067e8:    a93c        <.      ADD      r1,sp,#0xf0
        0x000067ea:    910d        ..      STR      r1,[sp,#0x34]
        0x000067ec:    f7fbfb25    ..%.    BL       fifo_read ; 0x1e3a
        0x000067f0:    980d        ..      LDR      r0,[sp,#0x34]
        0x000067f2:    9a3c        <.      LDR      r2,[sp,#0xf0]
        0x000067f4:    993a        :.      LDR      r1,[sp,#0xe8]
        0x000067f6:    1889        ..      ADDS     r1,r1,r2
        0x000067f8:    aa3a        :.      ADD      r2,sp,#0xe8
        0x000067fa:    7011        .p      STRB     r1,[r2,#0]
        0x000067fc:    7800        .x      LDRB     r0,[r0,#0]
        0x000067fe:    2800        .(      CMP      r0,#0
        0x00006800:    d15d        ].      BNE      0x68be ; 0x68be
        0x00006802:    e7ff        ..      B        0x6804 ; 0x6804
        0x00006804:    9835        5.      LDR      r0,[sp,#0xd4]
        0x00006806:    a93d        =.      ADD      r1,sp,#0xf4
        0x00006808:    f7fbfb17    ....    BL       fifo_read ; 0x1e3a
        0x0000680c:    993d        =.      LDR      r1,[sp,#0xf4]
        0x0000680e:    983a        :.      LDR      r0,[sp,#0xe8]
        0x00006810:    1840        @.      ADDS     r0,r0,r1
        0x00006812:    a93a        :.      ADD      r1,sp,#0xe8
        0x00006814:    910b        ..      STR      r1,[sp,#0x2c]
        0x00006816:    7008        .p      STRB     r0,[r1,#0]
        0x00006818:    9835        5.      LDR      r0,[sp,#0xd4]
        0x0000681a:    a939        9.      ADD      r1,sp,#0xe4
        0x0000681c:    910c        ..      STR      r1,[sp,#0x30]
        0x0000681e:    f7fbfb0c    ....    BL       fifo_read ; 0x1e3a
        0x00006822:    9835        5.      LDR      r0,[sp,#0xd4]
        0x00006824:    a938        8.      ADD      r1,sp,#0xe0
        0x00006826:    f7fbfb08    ....    BL       fifo_read ; 0x1e3a
        0x0000682a:    980b        ..      LDR      r0,[sp,#0x2c]
        0x0000682c:    990c        ..      LDR      r1,[sp,#0x30]
        0x0000682e:    7800        .x      LDRB     r0,[r0,#0]
        0x00006830:    7809        .x      LDRB     r1,[r1,#0]
        0x00006832:    4288        .B      CMP      r0,r1
        0x00006834:    d108        ..      BNE      0x6848 ; 0x6848
        0x00006836:    e7ff        ..      B        0x6838 ; 0x6838
        0x00006838:    a83a        :.      ADD      r0,sp,#0xe8
        0x0000683a:    7800        .x      LDRB     r0,[r0,#0]
        0x0000683c:    a938        8.      ADD      r1,sp,#0xe0
        0x0000683e:    7809        .x      LDRB     r1,[r1,#0]
        0x00006840:    43c9        .C      MVNS     r1,r1
        0x00006842:    4288        .B      CMP      r0,r1
        0x00006844:    d001        ..      BEQ      0x684a ; 0x684a
        0x00006846:    e7ff        ..      B        0x6848 ; 0x6848
        0x00006848:    e119        ..      B        0x6a7e ; 0x6a7e
        0x0000684a:    e7ff        ..      B        0x684c ; 0x684c
        0x0000684c:    a83d        =.      ADD      r0,sp,#0xf4
        0x0000684e:    7800        .x      LDRB     r0,[r0,#0]
        0x00006850:    07c0        ..      LSLS     r0,r0,#31
        0x00006852:    b968        h.      CBNZ     r0,0x6870 ; 0x6870
        0x00006854:    e7ff        ..      B        0x6856 ; 0x6856
        0x00006856:    a83d        =.      ADD      r0,sp,#0xf4
        0x00006858:    7800        .x      LDRB     r0,[r0,#0]
        0x0000685a:    21fe        .!      MOVS     r1,#0xfe
        0x0000685c:    4008        .@      ANDS     r0,r0,r1
        0x0000685e:    0081        ..      LSLS     r1,r0,#2
        0x00006860:    488a        .H      LDR      r0,[pc,#552] ; [0x6a8c] = 0x20000168
        0x00006862:    1840        @.      ADDS     r0,r0,r1
        0x00006864:    7ec0        .~      LDRB     r0,[r0,#0x1b]
        0x00006866:    2101        .!      MOVS     r1,#1
        0x00006868:    4008        .@      ANDS     r0,r0,r1
        0x0000686a:    a93b        ;.      ADD      r1,sp,#0xec
        0x0000686c:    7008        .p      STRB     r0,[r1,#0]
        0x0000686e:    e00c        ..      B        0x688a ; 0x688a
        0x00006870:    a83d        =.      ADD      r0,sp,#0xf4
        0x00006872:    7800        .x      LDRB     r0,[r0,#0]
        0x00006874:    21fe        .!      MOVS     r1,#0xfe
        0x00006876:    4008        .@      ANDS     r0,r0,r1
        0x00006878:    0081        ..      LSLS     r1,r0,#2
        0x0000687a:    4884        .H      LDR      r0,[pc,#528] ; [0x6a8c] = 0x20000168
        0x0000687c:    1840        @.      ADDS     r0,r0,r1
        0x0000687e:    7ec0        .~      LDRB     r0,[r0,#0x1b]
        0x00006880:    2102        .!      MOVS     r1,#2
        0x00006882:    4008        .@      ANDS     r0,r0,r1
        0x00006884:    a93b        ;.      ADD      r1,sp,#0xec
        0x00006886:    7008        .p      STRB     r0,[r1,#0]
        0x00006888:    e7ff        ..      B        0x688a ; 0x688a
        0x0000688a:    a83b        ;.      ADD      r0,sp,#0xec
        0x0000688c:    7800        .x      LDRB     r0,[r0,#0]
        0x0000688e:    1e41        A.      SUBS     r1,r0,#1
        0x00006890:    4188        .A      SBCS     r0,r0,r1
        0x00006892:    a93d        =.      ADD      r1,sp,#0xf4
        0x00006894:    7008        .p      STRB     r0,[r1,#0]
        0x00006896:    9834        4.      LDR      r0,[sp,#0xd0]
        0x00006898:    7809        .x      LDRB     r1,[r1,#0]
        0x0000689a:    f7fbfb13    ....    BL       fifo_write ; 0x1ec4
        0x0000689e:    983d        =.      LDR      r0,[sp,#0xf4]
        0x000068a0:    a93a        :.      ADD      r1,sp,#0xe8
        0x000068a2:    910a        ..      STR      r1,[sp,#0x28]
        0x000068a4:    7008        .p      STRB     r0,[r1,#0]
        0x000068a6:    9834        4.      LDR      r0,[sp,#0xd0]
        0x000068a8:    7809        .x      LDRB     r1,[r1,#0]
        0x000068aa:    f7fbfb0b    ....    BL       fifo_write ; 0x1ec4
        0x000068ae:    990a        ..      LDR      r1,[sp,#0x28]
        0x000068b0:    9834        4.      LDR      r0,[sp,#0xd0]
        0x000068b2:    7809        .x      LDRB     r1,[r1,#0]
        0x000068b4:    22ff        ."      MOVS     r2,#0xff
        0x000068b6:    4051        Q@      EORS     r1,r1,r2
        0x000068b8:    f7fbfb04    ....    BL       fifo_write ; 0x1ec4
        0x000068bc:    e000        ..      B        0x68c0 ; 0x68c0
        0x000068be:    e7ff        ..      B        0x68c0 ; 0x68c0
        0x000068c0:    e0d0        ..      B        0x6a64 ; 0x6a64
        0x000068c2:    a83d        =.      ADD      r0,sp,#0xf4
        0x000068c4:    7800        .x      LDRB     r0,[r0,#0]
        0x000068c6:    28b1        .(      CMP      r0,#0xb1
        0x000068c8:    d000        ..      BEQ      0x68cc ; 0x68cc
        0x000068ca:    e0c9        ..      B        0x6a60 ; 0x6a60
        0x000068cc:    9835        5.      LDR      r0,[sp,#0xd4]
        0x000068ce:    a93d        =.      ADD      r1,sp,#0xf4
        0x000068d0:    9109        ..      STR      r1,[sp,#0x24]
        0x000068d2:    f7fbfab2    ....    BL       fifo_read ; 0x1e3a
        0x000068d6:    9809        ..      LDR      r0,[sp,#0x24]
        0x000068d8:    9a3d        =.      LDR      r2,[sp,#0xf4]
        0x000068da:    993a        :.      LDR      r1,[sp,#0xe8]
        0x000068dc:    1889        ..      ADDS     r1,r1,r2
        0x000068de:    aa3a        :.      ADD      r2,sp,#0xe8
        0x000068e0:    7011        .p      STRB     r1,[r2,#0]
        0x000068e2:    7800        .x      LDRB     r0,[r0,#0]
        0x000068e4:    2800        .(      CMP      r0,#0
        0x000068e6:    d177        w.      BNE      0x69d8 ; 0x69d8
        0x000068e8:    e7ff        ..      B        0x68ea ; 0x68ea
        0x000068ea:    9835        5.      LDR      r0,[sp,#0xd4]
        0x000068ec:    a93d        =.      ADD      r1,sp,#0xf4
        0x000068ee:    f7fbfaa4    ....    BL       fifo_read ; 0x1e3a
        0x000068f2:    993d        =.      LDR      r1,[sp,#0xf4]
        0x000068f4:    983a        :.      LDR      r0,[sp,#0xe8]
        0x000068f6:    1840        @.      ADDS     r0,r0,r1
        0x000068f8:    a93a        :.      ADD      r1,sp,#0xe8
        0x000068fa:    9107        ..      STR      r1,[sp,#0x1c]
        0x000068fc:    7008        .p      STRB     r0,[r1,#0]
        0x000068fe:    9835        5.      LDR      r0,[sp,#0xd4]
        0x00006900:    a93b        ;.      ADD      r1,sp,#0xec
        0x00006902:    f7fbfa9a    ....    BL       fifo_read ; 0x1e3a
        0x00006906:    9907        ..      LDR      r1,[sp,#0x1c]
        0x00006908:    9a3b        ;.      LDR      r2,[sp,#0xec]
        0x0000690a:    983a        :.      LDR      r0,[sp,#0xe8]
        0x0000690c:    1880        ..      ADDS     r0,r0,r2
        0x0000690e:    7008        .p      STRB     r0,[r1,#0]
        0x00006910:    9835        5.      LDR      r0,[sp,#0xd4]
        0x00006912:    a939        9.      ADD      r1,sp,#0xe4
        0x00006914:    9108        ..      STR      r1,[sp,#0x20]
        0x00006916:    f7fbfa90    ....    BL       fifo_read ; 0x1e3a
        0x0000691a:    9835        5.      LDR      r0,[sp,#0xd4]
        0x0000691c:    a938        8.      ADD      r1,sp,#0xe0
        0x0000691e:    f7fbfa8c    ....    BL       fifo_read ; 0x1e3a
        0x00006922:    9807        ..      LDR      r0,[sp,#0x1c]
        0x00006924:    9908        ..      LDR      r1,[sp,#0x20]
        0x00006926:    7800        .x      LDRB     r0,[r0,#0]
        0x00006928:    7809        .x      LDRB     r1,[r1,#0]
        0x0000692a:    4288        .B      CMP      r0,r1
        0x0000692c:    d108        ..      BNE      0x6940 ; 0x6940
        0x0000692e:    e7ff        ..      B        0x6930 ; 0x6930
        0x00006930:    a83a        :.      ADD      r0,sp,#0xe8
        0x00006932:    7800        .x      LDRB     r0,[r0,#0]
        0x00006934:    a938        8.      ADD      r1,sp,#0xe0
        0x00006936:    7809        .x      LDRB     r1,[r1,#0]
        0x00006938:    43c9        .C      MVNS     r1,r1
        0x0000693a:    4288        .B      CMP      r0,r1
        0x0000693c:    d001        ..      BEQ      0x6942 ; 0x6942
        0x0000693e:    e7ff        ..      B        0x6940 ; 0x6940
        0x00006940:    e09d        ..      B        0x6a7e ; 0x6a7e
        0x00006942:    e7ff        ..      B        0x6944 ; 0x6944
        0x00006944:    a83d        =.      ADD      r0,sp,#0xf4
        0x00006946:    7800        .x      LDRB     r0,[r0,#0]
        0x00006948:    07c0        ..      LSLS     r0,r0,#31
        0x0000694a:    b9b8        ..      CBNZ     r0,0x697c ; 0x697c
        0x0000694c:    e7ff        ..      B        0x694e ; 0x694e
        0x0000694e:    a93d        =.      ADD      r1,sp,#0xf4
        0x00006950:    7808        .x      LDRB     r0,[r1,#0]
        0x00006952:    23fe        .#      MOVS     r3,#0xfe
        0x00006954:    4018        .@      ANDS     r0,r0,r3
        0x00006956:    0082        ..      LSLS     r2,r0,#2
        0x00006958:    484c        LH      LDR      r0,[pc,#304] ; [0x6a8c] = 0x20000168
        0x0000695a:    3018        .0      ADDS     r0,r0,#0x18
        0x0000695c:    1884        ..      ADDS     r4,r0,r2
        0x0000695e:    78e2        .x      LDRB     r2,[r4,#3]
        0x00006960:    401a        .@      ANDS     r2,r2,r3
        0x00006962:    70e2        .p      STRB     r2,[r4,#3]
        0x00006964:    aa3b        ;.      ADD      r2,sp,#0xec
        0x00006966:    7812        .x      LDRB     r2,[r2,#0]
        0x00006968:    1e54        T.      SUBS     r4,r2,#1
        0x0000696a:    41a2        .A      SBCS     r2,r2,r4
        0x0000696c:    7809        .x      LDRB     r1,[r1,#0]
        0x0000696e:    4019        .@      ANDS     r1,r1,r3
        0x00006970:    0089        ..      LSLS     r1,r1,#2
        0x00006972:    1841        A.      ADDS     r1,r0,r1
        0x00006974:    78c8        .x      LDRB     r0,[r1,#3]
        0x00006976:    4310        .C      ORRS     r0,r0,r2
        0x00006978:    70c8        .p      STRB     r0,[r1,#3]
        0x0000697a:    e018        ..      B        0x69ae ; 0x69ae
        0x0000697c:    a93d        =.      ADD      r1,sp,#0xf4
        0x0000697e:    7808        .x      LDRB     r0,[r1,#0]
        0x00006980:    23fe        .#      MOVS     r3,#0xfe
        0x00006982:    4018        .@      ANDS     r0,r0,r3
        0x00006984:    0082        ..      LSLS     r2,r0,#2
        0x00006986:    48f8        .H      LDR      r0,[pc,#992] ; [0x6d68] = 0x20000168
        0x00006988:    3018        .0      ADDS     r0,r0,#0x18
        0x0000698a:    1884        ..      ADDS     r4,r0,r2
        0x0000698c:    78e2        .x      LDRB     r2,[r4,#3]
        0x0000698e:    25fd        .%      MOVS     r5,#0xfd
        0x00006990:    402a        *@      ANDS     r2,r2,r5
        0x00006992:    70e2        .p      STRB     r2,[r4,#3]
        0x00006994:    aa3b        ;.      ADD      r2,sp,#0xec
        0x00006996:    7812        .x      LDRB     r2,[r2,#0]
        0x00006998:    1e54        T.      SUBS     r4,r2,#1
        0x0000699a:    41a2        .A      SBCS     r2,r2,r4
        0x0000699c:    0052        R.      LSLS     r2,r2,#1
        0x0000699e:    7809        .x      LDRB     r1,[r1,#0]
        0x000069a0:    4019        .@      ANDS     r1,r1,r3
        0x000069a2:    0089        ..      LSLS     r1,r1,#2
        0x000069a4:    1841        A.      ADDS     r1,r0,r1
        0x000069a6:    78c8        .x      LDRB     r0,[r1,#3]
        0x000069a8:    4310        .C      ORRS     r0,r0,r2
        0x000069aa:    70c8        .p      STRB     r0,[r1,#3]
        0x000069ac:    e7ff        ..      B        0x69ae ; 0x69ae
        0x000069ae:    9834        4.      LDR      r0,[sp,#0xd0]
        0x000069b0:    21aa        .!      MOVS     r1,#0xaa
        0x000069b2:    9105        ..      STR      r1,[sp,#0x14]
        0x000069b4:    f7fbfa86    ....    BL       fifo_write ; 0x1ec4
        0x000069b8:    9805        ..      LDR      r0,[sp,#0x14]
        0x000069ba:    a93a        :.      ADD      r1,sp,#0xe8
        0x000069bc:    9106        ..      STR      r1,[sp,#0x18]
        0x000069be:    7008        .p      STRB     r0,[r1,#0]
        0x000069c0:    9834        4.      LDR      r0,[sp,#0xd0]
        0x000069c2:    7809        .x      LDRB     r1,[r1,#0]
        0x000069c4:    f7fbfa7e    ..~.    BL       fifo_write ; 0x1ec4
        0x000069c8:    9906        ..      LDR      r1,[sp,#0x18]
        0x000069ca:    9834        4.      LDR      r0,[sp,#0xd0]
        0x000069cc:    7809        .x      LDRB     r1,[r1,#0]
        0x000069ce:    22ff        ."      MOVS     r2,#0xff
        0x000069d0:    4051        Q@      EORS     r1,r1,r2
        0x000069d2:    f7fbfa77    ..w.    BL       fifo_write ; 0x1ec4
        0x000069d6:    e03f        ?.      B        0x6a58 ; 0x6a58
        0x000069d8:    a83d        =.      ADD      r0,sp,#0xf4
        0x000069da:    7800        .x      LDRB     r0,[r0,#0]
        0x000069dc:    2801        .(      CMP      r0,#1
        0x000069de:    d139        9.      BNE      0x6a54 ; 0x6a54
        0x000069e0:    e7ff        ..      B        0x69e2 ; 0x69e2
        0x000069e2:    9835        5.      LDR      r0,[sp,#0xd4]
        0x000069e4:    a93b        ;.      ADD      r1,sp,#0xec
        0x000069e6:    f7fbfa28    ..(.    BL       fifo_read ; 0x1e3a
        0x000069ea:    993b        ;.      LDR      r1,[sp,#0xec]
        0x000069ec:    983a        :.      LDR      r0,[sp,#0xe8]
        0x000069ee:    1840        @.      ADDS     r0,r0,r1
        0x000069f0:    a93a        :.      ADD      r1,sp,#0xe8
        0x000069f2:    9103        ..      STR      r1,[sp,#0xc]
        0x000069f4:    7008        .p      STRB     r0,[r1,#0]
        0x000069f6:    9835        5.      LDR      r0,[sp,#0xd4]
        0x000069f8:    a939        9.      ADD      r1,sp,#0xe4
        0x000069fa:    9104        ..      STR      r1,[sp,#0x10]
        0x000069fc:    f7fbfa1d    ....    BL       fifo_read ; 0x1e3a
        0x00006a00:    9835        5.      LDR      r0,[sp,#0xd4]
        0x00006a02:    a938        8.      ADD      r1,sp,#0xe0
        0x00006a04:    f7fbfa19    ....    BL       fifo_read ; 0x1e3a
        0x00006a08:    9803        ..      LDR      r0,[sp,#0xc]
        0x00006a0a:    9904        ..      LDR      r1,[sp,#0x10]
        0x00006a0c:    7800        .x      LDRB     r0,[r0,#0]
        0x00006a0e:    7809        .x      LDRB     r1,[r1,#0]
        0x00006a10:    4288        .B      CMP      r0,r1
        0x00006a12:    d108        ..      BNE      0x6a26 ; 0x6a26
        0x00006a14:    e7ff        ..      B        0x6a16 ; 0x6a16
        0x00006a16:    a83a        :.      ADD      r0,sp,#0xe8
        0x00006a18:    7800        .x      LDRB     r0,[r0,#0]
        0x00006a1a:    a938        8.      ADD      r1,sp,#0xe0
        0x00006a1c:    7809        .x      LDRB     r1,[r1,#0]
        0x00006a1e:    43c9        .C      MVNS     r1,r1
        0x00006a20:    4288        .B      CMP      r0,r1
        0x00006a22:    d001        ..      BEQ      0x6a28 ; 0x6a28
        0x00006a24:    e7ff        ..      B        0x6a26 ; 0x6a26
        0x00006a26:    e02e        ..      B        0x6a86 ; 0x6a86
        0x00006a28:    e7ff        ..      B        0x6a2a ; 0x6a2a
        0x00006a2a:    9834        4.      LDR      r0,[sp,#0xd0]
        0x00006a2c:    21aa        .!      MOVS     r1,#0xaa
        0x00006a2e:    9101        ..      STR      r1,[sp,#4]
        0x00006a30:    f7fbfa48    ..H.    BL       fifo_write ; 0x1ec4
        0x00006a34:    9801        ..      LDR      r0,[sp,#4]
        0x00006a36:    a93a        :.      ADD      r1,sp,#0xe8
        0x00006a38:    9102        ..      STR      r1,[sp,#8]
        0x00006a3a:    7008        .p      STRB     r0,[r1,#0]
        0x00006a3c:    9834        4.      LDR      r0,[sp,#0xd0]
        0x00006a3e:    7809        .x      LDRB     r1,[r1,#0]
        0x00006a40:    f7fbfa40    ..@.    BL       fifo_write ; 0x1ec4
        0x00006a44:    9902        ..      LDR      r1,[sp,#8]
        0x00006a46:    9834        4.      LDR      r0,[sp,#0xd0]
        0x00006a48:    7809        .x      LDRB     r1,[r1,#0]
        0x00006a4a:    22ff        ."      MOVS     r2,#0xff
        0x00006a4c:    4051        Q@      EORS     r1,r1,r2
        0x00006a4e:    f7fbfa39    ..9.    BL       fifo_write ; 0x1ec4
        0x00006a52:    e000        ..      B        0x6a56 ; 0x6a56
        0x00006a54:    e7ff        ..      B        0x6a56 ; 0x6a56
        0x00006a56:    e7ff        ..      B        0x6a58 ; 0x6a58
        0x00006a58:    e003        ..      B        0x6a62 ; 0x6a62
        0x00006a5a:    46c0        .F      MOV      r8,r8
    $d
        0x00006a5c:    20000168    h..     DCD    536871272
    $t
        0x00006a60:    e7ff        ..      B        0x6a62 ; 0x6a62
        0x00006a62:    e7ff        ..      B        0x6a64 ; 0x6a64
        0x00006a64:    e7ff        ..      B        0x6a66 ; 0x6a66
        0x00006a66:    e7ff        ..      B        0x6a68 ; 0x6a68
        0x00006a68:    e7ff        ..      B        0x6a6a ; 0x6a6a
        0x00006a6a:    e7ff        ..      B        0x6a6c ; 0x6a6c
        0x00006a6c:    e7ff        ..      B        0x6a6e ; 0x6a6e
        0x00006a6e:    e7ff        ..      B        0x6a70 ; 0x6a70
        0x00006a70:    e7ff        ..      B        0x6a72 ; 0x6a72
        0x00006a72:    e7ff        ..      B        0x6a74 ; 0x6a74
        0x00006a74:    e7ff        ..      B        0x6a76 ; 0x6a76
        0x00006a76:    e7ff        ..      B        0x6a78 ; 0x6a78
        0x00006a78:    e7ff        ..      B        0x6a7a ; 0x6a7a
        0x00006a7a:    f7fffbf3    ....    BL       0x6264 ; spi_read_cb + 28
        0x00006a7e:    9835        5.      LDR      r0,[sp,#0xd4]
        0x00006a80:    f7fbfa0c    ....    BL       fifo_reset ; 0x1e9c
        0x00006a84:    e7ff        ..      B        0x6a86 ; 0x6a86
        0x00006a86:    b03e        >.      ADD      sp,sp,#0xf8
        0x00006a88:    bdb0        ..      POP      {r4,r5,r7,pc}
        0x00006a8a:    46c0        .F      MOV      r8,r8
    $d
    __arm_cp.5_1
        0x00006a8c:    20000168    h..     DCD    536871272
    __arm_cp.5_2
        0x00006a90:    20000164    d..     DCD    536871268
    $t
    sysClock_Init
        0x00006a94:    b580        ..      PUSH     {r7,lr}
        0x00006a96:    2004        .       MOVS     r0,#4
        0x00006a98:    f7f9fea6    ....    BL       CLK_EnableXtalRC ; 0x7e8
        0x00006a9c:    2010        .       MOVS     r0,#0x10
        0x00006a9e:    f7faf8d3    ....    BL       CLK_WaitClockReady ; 0xc48
        0x00006aa2:    2007        .       MOVS     r0,#7
        0x00006aa4:    2100        .!      MOVS     r1,#0
        0x00006aa6:    f7faf835    ..5.    BL       CLK_SetHCLK ; 0xb14
        0x00006aaa:    f7fafc2d    ..-.    BL       SystemCoreClockUpdate ; 0x1308
        0x00006aae:    bd80        ..      POP      {r7,pc}
    sysTimer_Init
        0x00006ab0:    b580        ..      PUSH     {r7,lr}
        0x00006ab2:    b082        ..      SUB      sp,sp,#8
        0x00006ab4:    490e        .I      LDR      r1,[pc,#56] ; [0x6af0] = 0x40000208
        0x00006ab6:    6808        .h      LDR      r0,[r1,#0]
        0x00006ab8:    2220         "      MOVS     r2,#0x20
        0x00006aba:    4310        .C      ORRS     r0,r0,r2
        0x00006abc:    6008        .`      STR      r0,[r1,#0]
        0x00006abe:    490d        .I      LDR      r1,[pc,#52] ; [0x6af4] = 0x40000214
        0x00006ac0:    6808        .h      LDR      r0,[r1,#0]
        0x00006ac2:    2207        ."      MOVS     r2,#7
        0x00006ac4:    0512        ..      LSLS     r2,r2,#20
        0x00006ac6:    4310        .C      ORRS     r0,r0,r2
        0x00006ac8:    6008        .`      STR      r0,[r1,#0]
        0x00006aca:    2001        .       MOVS     r0,#1
        0x00006acc:    06c1        ..      LSLS     r1,r0,#27
        0x00006ace:    480a        .H      LDR      r0,[pc,#40] ; [0x6af8] = 0x40051100
        0x00006ad0:    9001        ..      STR      r0,[sp,#4]
        0x00006ad2:    f24032e8    @..2    MOVW     r2,#0x3e8
        0x00006ad6:    f7fafcbf    ....    BL       TIMER_Open ; 0x1458
        0x00006ada:    9801        ..      LDR      r0,[sp,#4]
        0x00006adc:    f7fafc41    ..A.    BL       TIMER_EnableInt ; 0x1362
        0x00006ae0:    9801        ..      LDR      r0,[sp,#4]
        0x00006ae2:    f7fafcf2    ....    BL       TIMER_Start ; 0x14ca
        0x00006ae6:    2023        #       MOVS     r0,#0x23
        0x00006ae8:    f7fafdc6    ....    BL       __NVIC_EnableIRQ ; 0x1678
        0x00006aec:    b002        ..      ADD      sp,sp,#8
        0x00006aee:    bd80        ..      POP      {r7,pc}
    $d
    __arm_cp.3_0
        0x00006af0:    40000208    ...@    DCD    1073742344
    __arm_cp.3_1
        0x00006af4:    40000214    ...@    DCD    1073742356
    __arm_cp.3_2
        0x00006af8:    40051100    ...@    DCD    1074073856
    $t
    vi_process
        0x00006afc:    b5f0        ..      PUSH     {r4-r7,lr}
        0x00006afe:    b087        ..      SUB      sp,sp,#0x1c
        0x00006b00:    4895        .H      LDR      r0,[pc,#596] ; [0x6d58] = 0x2000029d
        0x00006b02:    7800        .x      LDRB     r0,[r0,#0]
        0x00006b04:    9002        ..      STR      r0,[sp,#8]
        0x00006b06:    2804        .(      CMP      r0,#4
        0x00006b08:    d900        ..      BLS      0x6b0c ; vi_process + 16
        0x00006b0a:    e122        ".      B        0x6d52 ; vi_process + 598
        0x00006b0c:    9902        ..      LDR      r1,[sp,#8]
        0x00006b0e:    008a        ..      LSLS     r2,r1,#2
        0x00006b10:    a001        ..      ADR      r0,{pc}+8 ; 0x6b18
        0x00006b12:    1880        ..      ADDS     r0,r0,r2
        0x00006b14:    4687        .F      MOV      pc,r0
        0x00006b16:    46c0        .F      MOV      r8,r8
        0x00006b18:    f000b808    ....    B.W      0x6b2c ; vi_process + 48
        0x00006b1c:    f000b817    ....    B.W      0x6b4e ; vi_process + 82
        0x00006b20:    f000b81c    ....    B.W      0x6b5c ; vi_process + 96
        0x00006b24:    f000b821    ..!.    B.W      0x6b6a ; vi_process + 110
        0x00006b28:    f000b826    ..&.    B.W      0x6b78 ; vi_process + 124
        0x00006b2c:    488f        .H      LDR      r0,[pc,#572] ; [0x6d6c] = 0x2000002c
        0x00006b2e:    8800        ..      LDRH     r0,[r0,#0]
        0x00006b30:    b128        (.      CBZ      r0,0x6b3e ; vi_process + 66
        0x00006b32:    e7ff        ..      B        0x6b34 ; vi_process + 56
        0x00006b34:    498d        .I      LDR      r1,[pc,#564] ; [0x6d6c] = 0x2000002c
        0x00006b36:    8808        ..      LDRH     r0,[r1,#0]
        0x00006b38:    1e40        @.      SUBS     r0,r0,#1
        0x00006b3a:    8008        ..      STRH     r0,[r1,#0]
        0x00006b3c:    e003        ..      B        0x6b46 ; vi_process + 74
        0x00006b3e:    4986        .I      LDR      r1,[pc,#536] ; [0x6d58] = 0x2000029d
        0x00006b40:    2001        .       MOVS     r0,#1
        0x00006b42:    7008        .p      STRB     r0,[r1,#0]
        0x00006b44:    e7ff        ..      B        0x6b46 ; vi_process + 74
        0x00006b46:    498a        .I      LDR      r1,[pc,#552] ; [0x6d70] = 0x40004810
        0x00006b48:    2000        .       MOVS     r0,#0
        0x00006b4a:    6008        .`      STR      r0,[r1,#0]
        0x00006b4c:    e102        ..      B        0x6d54 ; vi_process + 600
        0x00006b4e:    4988        .I      LDR      r1,[pc,#544] ; [0x6d70] = 0x40004810
        0x00006b50:    2001        .       MOVS     r0,#1
        0x00006b52:    6008        .`      STR      r0,[r1,#0]
        0x00006b54:    4980        .I      LDR      r1,[pc,#512] ; [0x6d58] = 0x2000029d
        0x00006b56:    2002        .       MOVS     r0,#2
        0x00006b58:    7008        .p      STRB     r0,[r1,#0]
        0x00006b5a:    e0fb        ..      B        0x6d54 ; vi_process + 600
        0x00006b5c:    4980        .I      LDR      r1,[pc,#512] ; [0x6d60] = 0x2000029e
        0x00006b5e:    2000        .       MOVS     r0,#0
        0x00006b60:    7008        .p      STRB     r0,[r1,#0]
        0x00006b62:    497d        }I      LDR      r1,[pc,#500] ; [0x6d58] = 0x2000029d
        0x00006b64:    2003        .       MOVS     r0,#3
        0x00006b66:    7008        .p      STRB     r0,[r1,#0]
        0x00006b68:    e0f4        ..      B        0x6d54 ; vi_process + 600
        0x00006b6a:    497c        |I      LDR      r1,[pc,#496] ; [0x6d5c] = 0x40004808
        0x00006b6c:    2001        .       MOVS     r0,#1
        0x00006b6e:    6008        .`      STR      r0,[r1,#0]
        0x00006b70:    4979        yI      LDR      r1,[pc,#484] ; [0x6d58] = 0x2000029d
        0x00006b72:    2004        .       MOVS     r0,#4
        0x00006b74:    7008        .p      STRB     r0,[r1,#0]
        0x00006b76:    e0ed        ..      B        0x6d54 ; vi_process + 600
        0x00006b78:    4978        xI      LDR      r1,[pc,#480] ; [0x6d5c] = 0x40004808
        0x00006b7a:    2000        .       MOVS     r0,#0
        0x00006b7c:    6008        .`      STR      r0,[r1,#0]
        0x00006b7e:    4878        xH      LDR      r0,[pc,#480] ; [0x6d60] = 0x2000029e
        0x00006b80:    7801        .x      LDRB     r1,[r0,#0]
        0x00006b82:    0849        I.      LSRS     r1,r1,#1
        0x00006b84:    aa06        ..      ADD      r2,sp,#0x18
        0x00006b86:    7011        .p      STRB     r1,[r2,#0]
        0x00006b88:    4976        vI      LDR      r1,[pc,#472] ; [0x6d64] = 0x4000480c
        0x00006b8a:    6809        .h      LDR      r1,[r1,#0]
        0x00006b8c:    aa05        ..      ADD      r2,sp,#0x14
        0x00006b8e:    7011        .p      STRB     r1,[r2,#0]
        0x00006b90:    7800        .x      LDRB     r0,[r0,#0]
        0x00006b92:    07c0        ..      LSLS     r0,r0,#31
        0x00006b94:    b9c8        ..      CBNZ     r0,0x6bca ; vi_process + 206
        0x00006b96:    e7ff        ..      B        0x6b98 ; vi_process + 156
        0x00006b98:    a805        ..      ADD      r0,sp,#0x14
        0x00006b9a:    7800        .x      LDRB     r0,[r0,#0]
        0x00006b9c:    b150        P.      CBZ      r0,0x6bb4 ; vi_process + 184
        0x00006b9e:    e7ff        ..      B        0x6ba0 ; vi_process + 164
        0x00006ba0:    a806        ..      ADD      r0,sp,#0x18
        0x00006ba2:    7800        .x      LDRB     r0,[r0,#0]
        0x00006ba4:    00c1        ..      LSLS     r1,r0,#3
        0x00006ba6:    4870        pH      LDR      r0,[pc,#448] ; [0x6d68] = 0x20000168
        0x00006ba8:    1841        A.      ADDS     r1,r0,r1
        0x00006baa:    7e48        H~      LDRB     r0,[r1,#0x19]
        0x00006bac:    2201        ."      MOVS     r2,#1
        0x00006bae:    4310        .C      ORRS     r0,r0,r2
        0x00006bb0:    7648        Hv      STRB     r0,[r1,#0x19]
        0x00006bb2:    e009        ..      B        0x6bc8 ; vi_process + 204
        0x00006bb4:    a806        ..      ADD      r0,sp,#0x18
        0x00006bb6:    7800        .x      LDRB     r0,[r0,#0]
        0x00006bb8:    00c1        ..      LSLS     r1,r0,#3
        0x00006bba:    486b        kH      LDR      r0,[pc,#428] ; [0x6d68] = 0x20000168
        0x00006bbc:    1841        A.      ADDS     r1,r0,r1
        0x00006bbe:    7e48        H~      LDRB     r0,[r1,#0x19]
        0x00006bc0:    22fe        ."      MOVS     r2,#0xfe
        0x00006bc2:    4010        .@      ANDS     r0,r0,r2
        0x00006bc4:    7648        Hv      STRB     r0,[r1,#0x19]
        0x00006bc6:    e7ff        ..      B        0x6bc8 ; vi_process + 204
        0x00006bc8:    e018        ..      B        0x6bfc ; vi_process + 256
        0x00006bca:    a805        ..      ADD      r0,sp,#0x14
        0x00006bcc:    7800        .x      LDRB     r0,[r0,#0]
        0x00006bce:    b150        P.      CBZ      r0,0x6be6 ; vi_process + 234
        0x00006bd0:    e7ff        ..      B        0x6bd2 ; vi_process + 214
        0x00006bd2:    a806        ..      ADD      r0,sp,#0x18
        0x00006bd4:    7800        .x      LDRB     r0,[r0,#0]
        0x00006bd6:    00c1        ..      LSLS     r1,r0,#3
        0x00006bd8:    4863        cH      LDR      r0,[pc,#396] ; [0x6d68] = 0x20000168
        0x00006bda:    1841        A.      ADDS     r1,r0,r1
        0x00006bdc:    7e48        H~      LDRB     r0,[r1,#0x19]
        0x00006bde:    2202        ."      MOVS     r2,#2
        0x00006be0:    4310        .C      ORRS     r0,r0,r2
        0x00006be2:    7648        Hv      STRB     r0,[r1,#0x19]
        0x00006be4:    e009        ..      B        0x6bfa ; vi_process + 254
        0x00006be6:    a806        ..      ADD      r0,sp,#0x18
        0x00006be8:    7800        .x      LDRB     r0,[r0,#0]
        0x00006bea:    00c1        ..      LSLS     r1,r0,#3
        0x00006bec:    485e        ^H      LDR      r0,[pc,#376] ; [0x6d68] = 0x20000168
        0x00006bee:    1841        A.      ADDS     r1,r0,r1
        0x00006bf0:    7e48        H~      LDRB     r0,[r1,#0x19]
        0x00006bf2:    22fd        ."      MOVS     r2,#0xfd
        0x00006bf4:    4010        .@      ANDS     r0,r0,r2
        0x00006bf6:    7648        Hv      STRB     r0,[r1,#0x19]
        0x00006bf8:    e7ff        ..      B        0x6bfa ; vi_process + 254
        0x00006bfa:    e7ff        ..      B        0x6bfc ; vi_process + 256
        0x00006bfc:    4858        XH      LDR      r0,[pc,#352] ; [0x6d60] = 0x2000029e
        0x00006bfe:    7800        .x      LDRB     r0,[r0,#0]
        0x00006c00:    07c0        ..      LSLS     r0,r0,#31
        0x00006c02:    b900        ..      CBNZ     r0,0x6c06 ; vi_process + 266
        0x00006c04:    e091        ..      B        0x6d2a ; vi_process + 558
        0x00006c06:    4856        VH      LDR      r0,[pc,#344] ; [0x6d60] = 0x2000029e
        0x00006c08:    7801        .x      LDRB     r1,[r0,#0]
        0x00006c0a:    08c9        ..      LSRS     r1,r1,#3
        0x00006c0c:    aa04        ..      ADD      r2,sp,#0x10
        0x00006c0e:    7011        .p      STRB     r1,[r2,#0]
        0x00006c10:    7800        .x      LDRB     r0,[r0,#0]
        0x00006c12:    0840        @.      LSRS     r0,r0,#1
        0x00006c14:    a903        ..      ADD      r1,sp,#0xc
        0x00006c16:    7008        .p      STRB     r0,[r1,#0]
        0x00006c18:    7808        .x      LDRB     r0,[r1,#0]
        0x00006c1a:    2203        ."      MOVS     r2,#3
        0x00006c1c:    4010        .@      ANDS     r0,r0,r2
        0x00006c1e:    7008        .p      STRB     r0,[r1,#0]
        0x00006c20:    9803        ..      LDR      r0,[sp,#0xc]
        0x00006c22:    0040        @.      LSLS     r0,r0,#1
        0x00006c24:    7008        .p      STRB     r0,[r1,#0]
        0x00006c26:    aa06        ..      ADD      r2,sp,#0x18
        0x00006c28:    7810        .x      LDRB     r0,[r2,#0]
        0x00006c2a:    494f        OI      LDR      r1,[pc,#316] ; [0x6d68] = 0x20000168
        0x00006c2c:    3118        .1      ADDS     r1,r1,#0x18
        0x00006c2e:    00c0        ..      LSLS     r0,r0,#3
        0x00006c30:    5c08        .\      LDRB     r0,[r1,r0]
        0x00006c32:    7812        .x      LDRB     r2,[r2,#0]
        0x00006c34:    00d2        ..      LSLS     r2,r2,#3
        0x00006c36:    1889        ..      ADDS     r1,r1,r2
        0x00006c38:    7849        Ix      LDRB     r1,[r1,#1]
        0x00006c3a:    4288        .B      CMP      r0,r1
        0x00006c3c:    d030        0.      BEQ      0x6ca0 ; vi_process + 420
        0x00006c3e:    e7ff        ..      B        0x6c40 ; vi_process + 324
        0x00006c40:    a906        ..      ADD      r1,sp,#0x18
        0x00006c42:    780a        .x      LDRB     r2,[r1,#0]
        0x00006c44:    4848        HH      LDR      r0,[pc,#288] ; [0x6d68] = 0x20000168
        0x00006c46:    3018        .0      ADDS     r0,r0,#0x18
        0x00006c48:    00d2        ..      LSLS     r2,r2,#3
        0x00006c4a:    1883        ..      ADDS     r3,r0,r2
        0x00006c4c:    2202        ."      MOVS     r2,#2
        0x00006c4e:    809a        ..      STRH     r2,[r3,#4]
        0x00006c50:    780a        .x      LDRB     r2,[r1,#0]
        0x00006c52:    00d2        ..      LSLS     r2,r2,#3
        0x00006c54:    1882        ..      ADDS     r2,r0,r2
        0x00006c56:    7852        Rx      LDRB     r2,[r2,#1]
        0x00006c58:    780b        .x      LDRB     r3,[r1,#0]
        0x00006c5a:    00db        ..      LSLS     r3,r3,#3
        0x00006c5c:    54c2        .T      STRB     r2,[r0,r3]
        0x00006c5e:    780a        .x      LDRB     r2,[r1,#0]
        0x00006c60:    00d2        ..      LSLS     r2,r2,#3
        0x00006c62:    1883        ..      ADDS     r3,r0,r2
        0x00006c64:    88da        ..      LDRH     r2,[r3,#6]
        0x00006c66:    1c52        R.      ADDS     r2,r2,#1
        0x00006c68:    80da        ..      STRH     r2,[r3,#6]
        0x00006c6a:    7809        .x      LDRB     r1,[r1,#0]
        0x00006c6c:    00c9        ..      LSLS     r1,r1,#3
        0x00006c6e:    1840        @.      ADDS     r0,r0,r1
        0x00006c70:    88c0        ..      LDRH     r0,[r0,#6]
        0x00006c72:    2803        .(      CMP      r0,#3
        0x00006c74:    d313        ..      BCC      0x6c9e ; vi_process + 418
        0x00006c76:    e7ff        ..      B        0x6c78 ; vi_process + 380
        0x00006c78:    aa03        ..      ADD      r2,sp,#0xc
        0x00006c7a:    7810        .x      LDRB     r0,[r2,#0]
        0x00006c7c:    2303        .#      MOVS     r3,#3
        0x00006c7e:    461e        .F      MOV      r6,r3
        0x00006c80:    4086        .@      LSLS     r6,r6,r0
        0x00006c82:    a804        ..      ADD      r0,sp,#0x10
        0x00006c84:    7805        .x      LDRB     r5,[r0,#0]
        0x00006c86:    4938        8I      LDR      r1,[pc,#224] ; [0x6d68] = 0x20000168
        0x00006c88:    31c4        .1      ADDS     r1,r1,#0xc4
        0x00006c8a:    5d4c        L]      LDRB     r4,[r1,r5]
        0x00006c8c:    43b4        .C      BICS     r4,r4,r6
        0x00006c8e:    554c        LU      STRB     r4,[r1,r5]
        0x00006c90:    7812        .x      LDRB     r2,[r2,#0]
        0x00006c92:    4093        .@      LSLS     r3,r3,r2
        0x00006c94:    7802        .x      LDRB     r2,[r0,#0]
        0x00006c96:    5c88        .\      LDRB     r0,[r1,r2]
        0x00006c98:    4318        .C      ORRS     r0,r0,r3
        0x00006c9a:    5488        .T      STRB     r0,[r1,r2]
        0x00006c9c:    e7ff        ..      B        0x6c9e ; vi_process + 418
        0x00006c9e:    e043        C.      B        0x6d28 ; vi_process + 556
        0x00006ca0:    a806        ..      ADD      r0,sp,#0x18
        0x00006ca2:    7800        .x      LDRB     r0,[r0,#0]
        0x00006ca4:    00c1        ..      LSLS     r1,r0,#3
        0x00006ca6:    4830        0H      LDR      r0,[pc,#192] ; [0x6d68] = 0x20000168
        0x00006ca8:    1840        @.      ADDS     r0,r0,r1
        0x00006caa:    8b80        ..      LDRH     r0,[r0,#0x1c]
        0x00006cac:    b148        H.      CBZ      r0,0x6cc2 ; vi_process + 454
        0x00006cae:    e7ff        ..      B        0x6cb0 ; vi_process + 436
        0x00006cb0:    a806        ..      ADD      r0,sp,#0x18
        0x00006cb2:    7800        .x      LDRB     r0,[r0,#0]
        0x00006cb4:    00c1        ..      LSLS     r1,r0,#3
        0x00006cb6:    482c        ,H      LDR      r0,[pc,#176] ; [0x6d68] = 0x20000168
        0x00006cb8:    1841        A.      ADDS     r1,r0,r1
        0x00006cba:    8b88        ..      LDRH     r0,[r1,#0x1c]
        0x00006cbc:    1e40        @.      SUBS     r0,r0,#1
        0x00006cbe:    8388        ..      STRH     r0,[r1,#0x1c]
        0x00006cc0:    e031        1.      B        0x6d26 ; vi_process + 554
        0x00006cc2:    ac06        ..      ADD      r4,sp,#0x18
        0x00006cc4:    7820         x      LDRB     r0,[r4,#0]
        0x00006cc6:    4928        (I      LDR      r1,[pc,#160] ; [0x6d68] = 0x20000168
        0x00006cc8:    460b        .F      MOV      r3,r1
        0x00006cca:    3318        .3      ADDS     r3,r3,#0x18
        0x00006ccc:    00c0        ..      LSLS     r0,r0,#3
        0x00006cce:    5c18        .\      LDRB     r0,[r3,r0]
        0x00006cd0:    7822        "x      LDRB     r2,[r4,#0]
        0x00006cd2:    00d2        ..      LSLS     r2,r2,#3
        0x00006cd4:    189a        ..      ADDS     r2,r3,r2
        0x00006cd6:    7090        .p      STRB     r0,[r2,#2]
        0x00006cd8:    7820         x      LDRB     r0,[r4,#0]
        0x00006cda:    00c0        ..      LSLS     r0,r0,#3
        0x00006cdc:    181a        ..      ADDS     r2,r3,r0
        0x00006cde:    2000        .       MOVS     r0,#0
        0x00006ce0:    80d0        ..      STRH     r0,[r2,#6]
        0x00006ce2:    aa03        ..      ADD      r2,sp,#0xc
        0x00006ce4:    7815        .x      LDRB     r5,[r2,#0]
        0x00006ce6:    2703        .'      MOVS     r7,#3
        0x00006ce8:    4638        8F      MOV      r0,r7
        0x00006cea:    40a8        .@      LSLS     r0,r0,r5
        0x00006cec:    ad04        ..      ADD      r5,sp,#0x10
        0x00006cee:    9501        ..      STR      r5,[sp,#4]
        0x00006cf0:    782d        -x      LDRB     r5,[r5,#0]
        0x00006cf2:    194e        N.      ADDS     r6,r1,r5
        0x00006cf4:    25c4        .%      MOVS     r5,#0xc4
        0x00006cf6:    9500        ..      STR      r5,[sp,#0]
        0x00006cf8:    5d75        u]      LDRB     r5,[r6,r5]
        0x00006cfa:    4385        .C      BICS     r5,r5,r0
        0x00006cfc:    9800        ..      LDR      r0,[sp,#0]
        0x00006cfe:    5435        5T      STRB     r5,[r6,r0]
        0x00006d00:    9801        ..      LDR      r0,[sp,#4]
        0x00006d02:    7815        .x      LDRB     r5,[r2,#0]
        0x00006d04:    40af        .@      LSLS     r7,r7,r5
        0x00006d06:    7806        .x      LDRB     r6,[r0,#0]
        0x00006d08:    1d89        ..      ADDS     r1,r1,#6
        0x00006d0a:    5d8d        .]      LDRB     r5,[r1,r6]
        0x00006d0c:    43bd        .C      BICS     r5,r5,r7
        0x00006d0e:    558d        .U      STRB     r5,[r1,r6]
        0x00006d10:    7824        $x      LDRB     r4,[r4,#0]
        0x00006d12:    00e4        ..      LSLS     r4,r4,#3
        0x00006d14:    191b        ..      ADDS     r3,r3,r4
        0x00006d16:    789b        .x      LDRB     r3,[r3,#2]
        0x00006d18:    7812        .x      LDRB     r2,[r2,#0]
        0x00006d1a:    4093        .@      LSLS     r3,r3,r2
        0x00006d1c:    7802        .x      LDRB     r2,[r0,#0]
        0x00006d1e:    5c88        .\      LDRB     r0,[r1,r2]
        0x00006d20:    4318        .C      ORRS     r0,r0,r3
        0x00006d22:    5488        .T      STRB     r0,[r1,r2]
        0x00006d24:    e7ff        ..      B        0x6d26 ; vi_process + 554
        0x00006d26:    e7ff        ..      B        0x6d28 ; vi_process + 556
        0x00006d28:    e7ff        ..      B        0x6d2a ; vi_process + 558
        0x00006d2a:    480d        .H      LDR      r0,[pc,#52] ; [0x6d60] = 0x2000029e
        0x00006d2c:    7801        .x      LDRB     r1,[r0,#0]
        0x00006d2e:    1c49        I.      ADDS     r1,r1,#1
        0x00006d30:    7001        .p      STRB     r1,[r0,#0]
        0x00006d32:    7800        .x      LDRB     r0,[r0,#0]
        0x00006d34:    2828        ((      CMP      r0,#0x28
        0x00006d36:    d107        ..      BNE      0x6d48 ; vi_process + 588
        0x00006d38:    e7ff        ..      B        0x6d3a ; vi_process + 574
        0x00006d3a:    4907        .I      LDR      r1,[pc,#28] ; [0x6d58] = 0x2000029d
        0x00006d3c:    2000        .       MOVS     r0,#0
        0x00006d3e:    7008        .p      STRB     r0,[r1,#0]
        0x00006d40:    490a        .I      LDR      r1,[pc,#40] ; [0x6d6c] = 0x2000002c
        0x00006d42:    2032        2       MOVS     r0,#0x32
        0x00006d44:    8008        ..      STRH     r0,[r1,#0]
        0x00006d46:    e003        ..      B        0x6d50 ; vi_process + 596
        0x00006d48:    4903        .I      LDR      r1,[pc,#12] ; [0x6d58] = 0x2000029d
        0x00006d4a:    2003        .       MOVS     r0,#3
        0x00006d4c:    7008        .p      STRB     r0,[r1,#0]
        0x00006d4e:    e7ff        ..      B        0x6d50 ; vi_process + 596
        0x00006d50:    e000        ..      B        0x6d54 ; vi_process + 600
        0x00006d52:    e7ff        ..      B        0x6d54 ; vi_process + 600
        0x00006d54:    b007        ..      ADD      sp,sp,#0x1c
        0x00006d56:    bdf0        ..      POP      {r4-r7,pc}
    $d
    __arm_cp.4_0
        0x00006d58:    2000029d    ...     DCD    536871581
    __arm_cp.4_1
        0x00006d5c:    40004808    .H.@    DCD    1073760264
    __arm_cp.4_2
        0x00006d60:    2000029e    ...     DCD    536871582
    __arm_cp.4_3
        0x00006d64:    4000480c    .H.@    DCD    1073760268
    __arm_cp.4_4
        0x00006d68:    20000168    h..     DCD    536871272
    __arm_cp.4_5
        0x00006d6c:    2000002c    ,..     DCD    536870956
    __arm_cp.4_6
        0x00006d70:    40004810    .H.@    DCD    1073760272
    $t
    wait_ms
        0x00006d74:    b081        ..      SUB      sp,sp,#4
        0x00006d76:    9000        ..      STR      r0,[sp,#0]
        0x00006d78:    9800        ..      LDR      r0,[sp,#0]
        0x00006d7a:    3009        .0      ADDS     r0,r0,#9
        0x00006d7c:    210a        .!      MOVS     r1,#0xa
        0x00006d7e:    fbb0f0f1    ....    UDIV     r0,r0,r1
        0x00006d82:    4905        .I      LDR      r1,[pc,#20] ; [0x6d98] = 0x200002ac
        0x00006d84:    6008        .`      STR      r0,[r1,#0]
        0x00006d86:    e7ff        ..      B        0x6d88 ; wait_ms + 20
        0x00006d88:    4803        .H      LDR      r0,[pc,#12] ; [0x6d98] = 0x200002ac
        0x00006d8a:    6800        .h      LDR      r0,[r0,#0]
        0x00006d8c:    b108        ..      CBZ      r0,0x6d92 ; wait_ms + 30
        0x00006d8e:    e7ff        ..      B        0x6d90 ; wait_ms + 28
        0x00006d90:    e7fa        ..      B        0x6d88 ; wait_ms + 20
        0x00006d92:    b001        ..      ADD      sp,sp,#4
        0x00006d94:    4770        pG      BX       lr
        0x00006d96:    46c0        .F      MOV      r8,r8
    $d
    __arm_cp.0_0
        0x00006d98:    200002ac    ...     DCD    536871596
    $t
    i.__0printf
    __0printf
    __1printf
    __2printf
    __c89printf
    printf
        0x00006d9c:    b40f        ..      PUSH     {r0-r3}
        0x00006d9e:    b510        ..      PUSH     {r4,lr}
        0x00006da0:    a903        ..      ADD      r1,sp,#0xc
        0x00006da2:    4b04        .K      LDR      r3,[pc,#16] ; [0x6db4] = 0x1f2b
        0x00006da4:    4a04        .J      LDR      r2,[pc,#16] ; [0x6db8] = 0x20000038
        0x00006da6:    9802        ..      LDR      r0,[sp,#8]
        0x00006da8:    f000f8e8    ....    BL       _printf_core ; 0x6f7c
        0x00006dac:    bc10        ..      POP      {r4}
        0x00006dae:    bc08        ..      POP      {r3}
        0x00006db0:    b004        ..      ADD      sp,sp,#0x10
        0x00006db2:    4718        .G      BX       r3
    $d
        0x00006db4:    00001f2b    +...    DCD    7979
        0x00006db8:    20000038    8..     DCD    536870968
    $t
    i.__ARM_clz
    __ARM_clz
        0x00006dbc:    2120         !      MOVS     r1,#0x20
        0x00006dbe:    0c02        ..      LSRS     r2,r0,#16
        0x00006dc0:    d001        ..      BEQ      0x6dc6 ; __ARM_clz + 10
        0x00006dc2:    2110        .!      MOVS     r1,#0x10
        0x00006dc4:    4610        .F      MOV      r0,r2
        0x00006dc6:    0a02        ..      LSRS     r2,r0,#8
        0x00006dc8:    d001        ..      BEQ      0x6dce ; __ARM_clz + 18
        0x00006dca:    4610        .F      MOV      r0,r2
        0x00006dcc:    3908        .9      SUBS     r1,r1,#8
        0x00006dce:    0902        ..      LSRS     r2,r0,#4
        0x00006dd0:    d001        ..      BEQ      0x6dd6 ; __ARM_clz + 26
        0x00006dd2:    4610        .F      MOV      r0,r2
        0x00006dd4:    1f09        ..      SUBS     r1,r1,#4
        0x00006dd6:    0882        ..      LSRS     r2,r0,#2
        0x00006dd8:    d001        ..      BEQ      0x6dde ; __ARM_clz + 34
        0x00006dda:    4610        .F      MOV      r0,r2
        0x00006ddc:    1e89        ..      SUBS     r1,r1,#2
        0x00006dde:    0842        B.      LSRS     r2,r0,#1
        0x00006de0:    d001        ..      BEQ      0x6de6 ; __ARM_clz + 42
        0x00006de2:    1e88        ..      SUBS     r0,r1,#2
        0x00006de4:    4770        pG      BX       lr
        0x00006de6:    1a08        ..      SUBS     r0,r1,r0
        0x00006de8:    4770        pG      BX       lr
    i.__scatterload_copy
    __scatterload_copy
        0x00006dea:    e002        ..      B        0x6df2 ; __scatterload_copy + 8
        0x00006dec:    c808        ..      LDM      r0!,{r3}
        0x00006dee:    1f12        ..      SUBS     r2,r2,#4
        0x00006df0:    c108        ..      STM      r1!,{r3}
        0x00006df2:    2a00        .*      CMP      r2,#0
        0x00006df4:    d1fa        ..      BNE      0x6dec ; __scatterload_copy + 2
        0x00006df6:    4770        pG      BX       lr
    i.__scatterload_null
    __scatterload_null
        0x00006df8:    4770        pG      BX       lr
    i.__scatterload_zeroinit
    __scatterload_zeroinit
        0x00006dfa:    2000        .       MOVS     r0,#0
        0x00006dfc:    e001        ..      B        0x6e02 ; __scatterload_zeroinit + 8
        0x00006dfe:    c101        ..      STM      r1!,{r0}
        0x00006e00:    1f12        ..      SUBS     r2,r2,#4
        0x00006e02:    2a00        .*      CMP      r2,#0
        0x00006e04:    d1fb        ..      BNE      0x6dfe ; __scatterload_zeroinit + 4
        0x00006e06:    4770        pG      BX       lr
    i._fp_digits
    _fp_digits
        0x00006e08:    b5f0        ..      PUSH     {r4-r7,lr}
        0x00006e0a:    b41f        ..      PUSH     {r0-r4}
        0x00006e0c:    b086        ..      SUB      sp,sp,#0x18
        0x00006e0e:    9809        ..      LDR      r0,[sp,#0x24]
        0x00006e10:    9a08        ..      LDR      r2,[sp,#0x20]
        0x00006e12:    0d03        ..      LSRS     r3,r0,#20
        0x00006e14:    2100        .!      MOVS     r1,#0
        0x00006e16:    4302        .C      ORRS     r2,r2,r0
        0x00006e18:    d014        ..      BEQ      0x6e44 ; _fp_digits + 60
        0x00006e1a:    4851        QH      LDR      r0,[pc,#324] ; [0x6f60] = 0xfffffc01
        0x00006e1c:    4a51        QJ      LDR      r2,[pc,#324] ; [0x6f64] = 0x4d10
        0x00006e1e:    1818        ..      ADDS     r0,r3,r0
        0x00006e20:    4350        PC      MULS     r0,r2,r0
        0x00006e22:    1405        ..      ASRS     r5,r0,#16
        0x00006e24:    9811        ..      LDR      r0,[sp,#0x44]
        0x00006e26:    2801        .(      CMP      r0,#1
        0x00006e28:    9810        ..      LDR      r0,[sp,#0x40]
        0x00006e2a:    d01a        ..      BEQ      0x6e62 ; _fp_digits + 90
        0x00006e2c:    1a28        (.      SUBS     r0,r5,r0
        0x00006e2e:    1c40        @.      ADDS     r0,r0,#1
        0x00006e30:    2600        .&      MOVS     r6,#0
        0x00006e32:    4f4d        MO      LDR      r7,[pc,#308] ; [0x6f68] = 0x40140000
        0x00006e34:    494d        MI      LDR      r1,[pc,#308] ; [0x6f6c] = 0x3ff00000
        0x00006e36:    9600        ..      STR      r6,[sp,#0]
        0x00006e38:    9101        ..      STR      r1,[sp,#4]
        0x00006e3a:    9004        ..      STR      r0,[sp,#0x10]
        0x00006e3c:    2800        .(      CMP      r0,#0
        0x00006e3e:    da12        ..      BGE      0x6e66 ; _fp_digits + 94
        0x00006e40:    4244        DB      RSBS     r4,r0,#0
        0x00006e42:    e011        ..      B        0x6e68 ; _fp_digits + 96
        0x00006e44:    9811        ..      LDR      r0,[sp,#0x44]
        0x00006e46:    2401        .$      MOVS     r4,#1
        0x00006e48:    a349        I.      ADR      r3,{pc}+0x128 ; 0x6f70
        0x00006e4a:    2801        .(      CMP      r0,#1
        0x00006e4c:    d101        ..      BNE      0x6e52 ; _fp_digits + 74
        0x00006e4e:    9810        ..      LDR      r0,[sp,#0x40]
        0x00006e50:    43c1        .C      MVNS     r1,r0
        0x00006e52:    9806        ..      LDR      r0,[sp,#0x18]
        0x00006e54:    9a11        ..      LDR      r2,[sp,#0x44]
        0x00006e56:    6084        .`      STR      r4,[r0,#8]
        0x00006e58:    6003        .`      STR      r3,[r0,#0]
        0x00006e5a:    60c2        .`      STR      r2,[r0,#0xc]
        0x00006e5c:    6041        A`      STR      r1,[r0,#4]
        0x00006e5e:    b00b        ..      ADD      sp,sp,#0x2c
        0x00006e60:    bdf0        ..      POP      {r4-r7,pc}
        0x00006e62:    4240        @B      RSBS     r0,r0,#0
        0x00006e64:    e7e4        ..      B        0x6e30 ; _fp_digits + 40
        0x00006e66:    4604        .F      MOV      r4,r0
        0x00006e68:    0521        !.      LSLS     r1,r4,#20
        0x00006e6a:    2000        .       MOVS     r0,#0
        0x00006e6c:    4a3f        ?J      LDR      r2,[pc,#252] ; [0x6f6c] = 0x3ff00000
        0x00006e6e:    1c00        ..      ADDS     r0,r0,#0
        0x00006e70:    4151        QA      ADCS     r1,r1,r2
        0x00006e72:    9103        ..      STR      r1,[sp,#0xc]
        0x00006e74:    9002        ..      STR      r0,[sp,#8]
        0x00006e76:    e012        ..      B        0x6e9e ; _fp_digits + 150
        0x00006e78:    07e0        ..      LSLS     r0,r4,#31
        0x00006e7a:    d007        ..      BEQ      0x6e8c ; _fp_digits + 132
        0x00006e7c:    4632        2F      MOV      r2,r6
        0x00006e7e:    463b        ;F      MOV      r3,r7
        0x00006e80:    9901        ..      LDR      r1,[sp,#4]
        0x00006e82:    9800        ..      LDR      r0,[sp,#0]
        0x00006e84:    f7f9fab6    ....    BL       __aeabi_dmul ; 0x3f4
        0x00006e88:    9101        ..      STR      r1,[sp,#4]
        0x00006e8a:    9000        ..      STR      r0,[sp,#0]
        0x00006e8c:    4632        2F      MOV      r2,r6
        0x00006e8e:    463b        ;F      MOV      r3,r7
        0x00006e90:    4610        .F      MOV      r0,r2
        0x00006e92:    4619        .F      MOV      r1,r3
        0x00006e94:    f7f9faae    ....    BL       __aeabi_dmul ; 0x3f4
        0x00006e98:    4606        .F      MOV      r6,r0
        0x00006e9a:    460f        .F      MOV      r7,r1
        0x00006e9c:    1064        d.      ASRS     r4,r4,#1
        0x00006e9e:    2c00        .,      CMP      r4,#0
        0x00006ea0:    d1ea        ..      BNE      0x6e78 ; _fp_digits + 112
        0x00006ea2:    9804        ..      LDR      r0,[sp,#0x10]
        0x00006ea4:    9b03        ..      LDR      r3,[sp,#0xc]
        0x00006ea6:    2800        .(      CMP      r0,#0
        0x00006ea8:    9a02        ..      LDR      r2,[sp,#8]
        0x00006eaa:    9909        ..      LDR      r1,[sp,#0x24]
        0x00006eac:    9808        ..      LDR      r0,[sp,#0x20]
        0x00006eae:    da06        ..      BGE      0x6ebe ; _fp_digits + 182
        0x00006eb0:    f7f9faa0    ....    BL       __aeabi_dmul ; 0x3f4
        0x00006eb4:    9b01        ..      LDR      r3,[sp,#4]
        0x00006eb6:    9a00        ..      LDR      r2,[sp,#0]
        0x00006eb8:    f7f9fa9c    ....    BL       __aeabi_dmul ; 0x3f4
        0x00006ebc:    e005        ..      B        0x6eca ; _fp_digits + 194
        0x00006ebe:    f7f9fb01    ....    BL       __aeabi_ddiv ; 0x4c4
        0x00006ec2:    9b01        ..      LDR      r3,[sp,#4]
        0x00006ec4:    9a00        ..      LDR      r2,[sp,#0]
        0x00006ec6:    f7f9fafd    ....    BL       __aeabi_ddiv ; 0x4c4
        0x00006eca:    4604        .F      MOV      r4,r0
        0x00006ecc:    460e        .F      MOV      r6,r1
        0x00006ece:    2200        ."      MOVS     r2,#0
        0x00006ed0:    4b28        (K      LDR      r3,[pc,#160] ; [0x6f74] = 0x43f00000
        0x00006ed2:    f7f9fb8f    ....    BL       __aeabi_cdrcmple ; 0x5f4
        0x00006ed6:    d803        ..      BHI      0x6ee0 ; _fp_digits + 216
        0x00006ed8:    2000        .       MOVS     r0,#0
        0x00006eda:    43c0        .C      MVNS     r0,r0
        0x00006edc:    4601        .F      MOV      r1,r0
        0x00006ede:    e007        ..      B        0x6ef0 ; _fp_digits + 232
        0x00006ee0:    2200        ."      MOVS     r2,#0
        0x00006ee2:    4b25        %K      LDR      r3,[pc,#148] ; [0x6f78] = 0x3fe00000
        0x00006ee4:    4620         F      MOV      r0,r4
        0x00006ee6:    4631        1F      MOV      r1,r6
        0x00006ee8:    f7f9f9d2    ....    BL       __I$use$fp ; 0x290
        0x00006eec:    f7f9fb62    ..b.    BL       __aeabi_d2ulz ; 0x5b4
        0x00006ef0:    2410        .$      MOVS     r4,#0x10
        0x00006ef2:    e009        ..      B        0x6f08 ; _fp_digits + 256
        0x00006ef4:    2c00        .,      CMP      r4,#0
        0x00006ef6:    db0a        ..      BLT      0x6f0e ; _fp_digits + 262
        0x00006ef8:    220a        ."      MOVS     r2,#0xa
        0x00006efa:    2300        .#      MOVS     r3,#0
        0x00006efc:    f7f9f998    ....    BL       __aeabi_uldivmod ; 0x230
        0x00006f00:    9b07        ..      LDR      r3,[sp,#0x1c]
        0x00006f02:    3230        02      ADDS     r2,r2,#0x30
        0x00006f04:    551a        .U      STRB     r2,[r3,r4]
        0x00006f06:    1e64        d.      SUBS     r4,r4,#1
        0x00006f08:    4602        .F      MOV      r2,r0
        0x00006f0a:    430a        .C      ORRS     r2,r2,r1
        0x00006f0c:    d1f2        ..      BNE      0x6ef4 ; _fp_digits + 236
        0x00006f0e:    2211        ."      MOVS     r2,#0x11
        0x00006f10:    1c64        d.      ADDS     r4,r4,#1
        0x00006f12:    9b07        ..      LDR      r3,[sp,#0x1c]
        0x00006f14:    1b12        ..      SUBS     r2,r2,r4
        0x00006f16:    191c        ..      ADDS     r4,r3,r4
        0x00006f18:    9b11        ..      LDR      r3,[sp,#0x44]
        0x00006f1a:    2b01        .+      CMP      r3,#1
        0x00006f1c:    d003        ..      BEQ      0x6f26 ; _fp_digits + 286
        0x00006f1e:    2301        .#      MOVS     r3,#1
        0x00006f20:    4308        .C      ORRS     r0,r0,r1
        0x00006f22:    d10e        ..      BNE      0x6f42 ; _fp_digits + 314
        0x00006f24:    e00a        ..      B        0x6f3c ; _fp_digits + 308
        0x00006f26:    4308        .C      ORRS     r0,r0,r1
        0x00006f28:    d004        ..      BEQ      0x6f34 ; _fp_digits + 300
        0x00006f2a:    2011        .       MOVS     r0,#0x11
        0x00006f2c:    9010        ..      STR      r0,[sp,#0x40]
        0x00006f2e:    2000        .       MOVS     r0,#0
        0x00006f30:    9011        ..      STR      r0,[sp,#0x44]
        0x00006f32:    e777        w.      B        0x6e24 ; _fp_digits + 28
        0x00006f34:    9810        ..      LDR      r0,[sp,#0x40]
        0x00006f36:    1a15        ..      SUBS     r5,r2,r0
        0x00006f38:    1e6d        m.      SUBS     r5,r5,#1
        0x00006f3a:    e00b        ..      B        0x6f54 ; _fp_digits + 332
        0x00006f3c:    9810        ..      LDR      r0,[sp,#0x40]
        0x00006f3e:    4282        .B      CMP      r2,r0
        0x00006f40:    dd02        ..      BLE      0x6f48 ; _fp_digits + 320
        0x00006f42:    2300        .#      MOVS     r3,#0
        0x00006f44:    1c6d        m.      ADDS     r5,r5,#1
        0x00006f46:    e003        ..      B        0x6f50 ; _fp_digits + 328
        0x00006f48:    4282        .B      CMP      r2,r0
        0x00006f4a:    da01        ..      BGE      0x6f50 ; _fp_digits + 328
        0x00006f4c:    2300        .#      MOVS     r3,#0
        0x00006f4e:    1e6d        m.      SUBS     r5,r5,#1
        0x00006f50:    2b00        .+      CMP      r3,#0
        0x00006f52:    d0ee        ..      BEQ      0x6f32 ; _fp_digits + 298
        0x00006f54:    9806        ..      LDR      r0,[sp,#0x18]
        0x00006f56:    9911        ..      LDR      r1,[sp,#0x44]
        0x00006f58:    6082        .`      STR      r2,[r0,#8]
        0x00006f5a:    60c1        .`      STR      r1,[r0,#0xc]
        0x00006f5c:    c030        0.      STM      r0!,{r4,r5}
        0x00006f5e:    e77e        ~.      B        0x6e5e ; _fp_digits + 86
    $d
        0x00006f60:    fffffc01    ....    DCD    4294966273
        0x00006f64:    00004d10    .M..    DCD    19728
        0x00006f68:    40140000    ...@    DCD    1075052544
        0x00006f6c:    3ff00000    ...?    DCD    1072693248
        0x00006f70:    00000030    0...    DCD    48
        0x00006f74:    43f00000    ...C    DCD    1139802112
        0x00006f78:    3fe00000    ...?    DCD    1071644672
    $t
    i._printf_core
    _printf_core
        0x00006f7c:    b5ff        ..      PUSH     {r0-r7,lr}
        0x00006f7e:    b097        ..      SUB      sp,sp,#0x5c
        0x00006f80:    4606        .F      MOV      r6,r0
        0x00006f82:    2500        .%      MOVS     r5,#0
        0x00006f84:    e218        ..      B        0x73b8 ; _printf_core + 1084
        0x00006f86:    2825        %(      CMP      r0,#0x25
        0x00006f88:    d177        w.      BNE      0x707a ; _printf_core + 254
        0x00006f8a:    2400        .$      MOVS     r4,#0
        0x00006f8c:    4627        'F      MOV      r7,r4
        0x00006f8e:    49fd        .I      LDR      r1,[pc,#1012] ; [0x7384] = 0x12809
        0x00006f90:    9404        ..      STR      r4,[sp,#0x10]
        0x00006f92:    e000        ..      B        0x6f96 ; _printf_core + 26
        0x00006f94:    4304        .C      ORRS     r4,r4,r0
        0x00006f96:    1c76        v.      ADDS     r6,r6,#1
        0x00006f98:    7832        2x      LDRB     r2,[r6,#0]
        0x00006f9a:    2001        .       MOVS     r0,#1
        0x00006f9c:    3a20         :      SUBS     r2,r2,#0x20
        0x00006f9e:    4090        .@      LSLS     r0,r0,r2
        0x00006fa0:    4208        .B      TST      r0,r1
        0x00006fa2:    d1f7        ..      BNE      0x6f94 ; _printf_core + 24
        0x00006fa4:    7830        0x      LDRB     r0,[r6,#0]
        0x00006fa6:    282a        *(      CMP      r0,#0x2a
        0x00006fa8:    d00e        ..      BEQ      0x6fc8 ; _printf_core + 76
        0x00006faa:    2202        ."      MOVS     r2,#2
        0x00006fac:    7830        0x      LDRB     r0,[r6,#0]
        0x00006fae:    4601        .F      MOV      r1,r0
        0x00006fb0:    3930        09      SUBS     r1,r1,#0x30
        0x00006fb2:    2909        .)      CMP      r1,#9
        0x00006fb4:    d816        ..      BHI      0x6fe4 ; _printf_core + 104
        0x00006fb6:    9904        ..      LDR      r1,[sp,#0x10]
        0x00006fb8:    230a        .#      MOVS     r3,#0xa
        0x00006fba:    4359        YC      MULS     r1,r3,r1
        0x00006fbc:    3930        09      SUBS     r1,r1,#0x30
        0x00006fbe:    1840        @.      ADDS     r0,r0,r1
        0x00006fc0:    4314        .C      ORRS     r4,r4,r2
        0x00006fc2:    1c76        v.      ADDS     r6,r6,#1
        0x00006fc4:    9004        ..      STR      r0,[sp,#0x10]
        0x00006fc6:    e7f1        ..      B        0x6fac ; _printf_core + 48
        0x00006fc8:    9818        ..      LDR      r0,[sp,#0x60]
        0x00006fca:    c802        ..      LDM      r0!,{r1}
        0x00006fcc:    9104        ..      STR      r1,[sp,#0x10]
        0x00006fce:    9018        ..      STR      r0,[sp,#0x60]
        0x00006fd0:    2900        .)      CMP      r1,#0
        0x00006fd2:    da04        ..      BGE      0x6fde ; _printf_core + 98
        0x00006fd4:    2001        .       MOVS     r0,#1
        0x00006fd6:    0340        @.      LSLS     r0,r0,#13
        0x00006fd8:    4304        .C      ORRS     r4,r4,r0
        0x00006fda:    4248        HB      RSBS     r0,r1,#0
        0x00006fdc:    9004        ..      STR      r0,[sp,#0x10]
        0x00006fde:    2002        .       MOVS     r0,#2
        0x00006fe0:    4304        .C      ORRS     r4,r4,r0
        0x00006fe2:    1c76        v.      ADDS     r6,r6,#1
        0x00006fe4:    7830        0x      LDRB     r0,[r6,#0]
        0x00006fe6:    282e        .(      CMP      r0,#0x2e
        0x00006fe8:    d114        ..      BNE      0x7014 ; _printf_core + 152
        0x00006fea:    2004        .       MOVS     r0,#4
        0x00006fec:    4304        .C      ORRS     r4,r4,r0
        0x00006fee:    7870        px      LDRB     r0,[r6,#1]
        0x00006ff0:    1c76        v.      ADDS     r6,r6,#1
        0x00006ff2:    282a        *(      CMP      r0,#0x2a
        0x00006ff4:    d109        ..      BNE      0x700a ; _printf_core + 142
        0x00006ff6:    9818        ..      LDR      r0,[sp,#0x60]
        0x00006ff8:    1c76        v.      ADDS     r6,r6,#1
        0x00006ffa:    c880        ..      LDM      r0!,{r7}
        0x00006ffc:    9018        ..      STR      r0,[sp,#0x60]
        0x00006ffe:    e009        ..      B        0x7014 ; _printf_core + 152
        0x00007000:    210a        .!      MOVS     r1,#0xa
        0x00007002:    434f        OC      MULS     r7,r1,r7
        0x00007004:    3f30        0?      SUBS     r7,r7,#0x30
        0x00007006:    19c7        ..      ADDS     r7,r0,r7
        0x00007008:    1c76        v.      ADDS     r6,r6,#1
        0x0000700a:    7830        0x      LDRB     r0,[r6,#0]
        0x0000700c:    4601        .F      MOV      r1,r0
        0x0000700e:    3930        09      SUBS     r1,r1,#0x30
        0x00007010:    2909        .)      CMP      r1,#9
        0x00007012:    d9f5        ..      BLS      0x7000 ; _printf_core + 132
        0x00007014:    7830        0x      LDRB     r0,[r6,#0]
        0x00007016:    286c        l(      CMP      r0,#0x6c
        0x00007018:    d010        ..      BEQ      0x703c ; _printf_core + 192
        0x0000701a:    dc06        ..      BGT      0x702a ; _printf_core + 174
        0x0000701c:    284c        L(      CMP      r0,#0x4c
        0x0000701e:    d01a        ..      BEQ      0x7056 ; _printf_core + 218
        0x00007020:    2868        h(      CMP      r0,#0x68
        0x00007022:    d00e        ..      BEQ      0x7042 ; _printf_core + 198
        0x00007024:    286a        j(      CMP      r0,#0x6a
        0x00007026:    d117        ..      BNE      0x7058 ; _printf_core + 220
        0x00007028:    e004        ..      B        0x7034 ; _printf_core + 184
        0x0000702a:    2874        t(      CMP      r0,#0x74
        0x0000702c:    d013        ..      BEQ      0x7056 ; _printf_core + 218
        0x0000702e:    287a        z(      CMP      r0,#0x7a
        0x00007030:    d112        ..      BNE      0x7058 ; _printf_core + 220
        0x00007032:    e010        ..      B        0x7056 ; _printf_core + 218
        0x00007034:    2001        .       MOVS     r0,#1
        0x00007036:    0540        @.      LSLS     r0,r0,#21
        0x00007038:    4304        .C      ORRS     r4,r4,r0
        0x0000703a:    e00c        ..      B        0x7056 ; _printf_core + 218
        0x0000703c:    2101        .!      MOVS     r1,#1
        0x0000703e:    0509        ..      LSLS     r1,r1,#20
        0x00007040:    e001        ..      B        0x7046 ; _printf_core + 202
        0x00007042:    2103        .!      MOVS     r1,#3
        0x00007044:    0509        ..      LSLS     r1,r1,#20
        0x00007046:    430c        .C      ORRS     r4,r4,r1
        0x00007048:    7871        qx      LDRB     r1,[r6,#1]
        0x0000704a:    4281        .B      CMP      r1,r0
        0x0000704c:    d103        ..      BNE      0x7056 ; _printf_core + 218
        0x0000704e:    2001        .       MOVS     r0,#1
        0x00007050:    0500        ..      LSLS     r0,r0,#20
        0x00007052:    1824        $.      ADDS     r4,r4,r0
        0x00007054:    1c76        v.      ADDS     r6,r6,#1
        0x00007056:    1c76        v.      ADDS     r6,r6,#1
        0x00007058:    7830        0x      LDRB     r0,[r6,#0]
        0x0000705a:    9011        ..      STR      r0,[sp,#0x44]
        0x0000705c:    2866        f(      CMP      r0,#0x66
        0x0000705e:    d00b        ..      BEQ      0x7078 ; _printf_core + 252
        0x00007060:    dc13        ..      BGT      0x708a ; _printf_core + 270
        0x00007062:    2858        X(      CMP      r0,#0x58
        0x00007064:    d07d        }.      BEQ      0x7162 ; _printf_core + 486
        0x00007066:    dc09        ..      BGT      0x707c ; _printf_core + 256
        0x00007068:    2800        .(      CMP      r0,#0
        0x0000706a:    d07b        {.      BEQ      0x7164 ; _printf_core + 488
        0x0000706c:    2845        E(      CMP      r0,#0x45
        0x0000706e:    d0f6        ..      BEQ      0x705e ; _printf_core + 226
        0x00007070:    2846        F(      CMP      r0,#0x46
        0x00007072:    d0f4        ..      BEQ      0x705e ; _printf_core + 226
        0x00007074:    2847        G(      CMP      r0,#0x47
        0x00007076:    d11a        ..      BNE      0x70ae ; _printf_core + 306
        0x00007078:    e1a5        ..      B        0x73c6 ; _printf_core + 1098
        0x0000707a:    e018        ..      B        0x70ae ; _printf_core + 306
        0x0000707c:    2863        c(      CMP      r0,#0x63
        0x0000707e:    d035        5.      BEQ      0x70ec ; _printf_core + 368
        0x00007080:    2864        d(      CMP      r0,#0x64
        0x00007082:    d070        p.      BEQ      0x7166 ; _printf_core + 490
        0x00007084:    2865        e(      CMP      r0,#0x65
        0x00007086:    d112        ..      BNE      0x70ae ; _printf_core + 306
        0x00007088:    e19d        ..      B        0x73c6 ; _printf_core + 1098
        0x0000708a:    2870        p(      CMP      r0,#0x70
        0x0000708c:    d06c        l.      BEQ      0x7168 ; _printf_core + 492
        0x0000708e:    dc08        ..      BGT      0x70a2 ; _printf_core + 294
        0x00007090:    2867        g(      CMP      r0,#0x67
        0x00007092:    d0f1        ..      BEQ      0x7078 ; _printf_core + 252
        0x00007094:    2869        i(      CMP      r0,#0x69
        0x00007096:    d07b        {.      BEQ      0x7190 ; _printf_core + 532
        0x00007098:    286e        n(      CMP      r0,#0x6e
        0x0000709a:    d00d        ..      BEQ      0x70b8 ; _printf_core + 316
        0x0000709c:    286f        o(      CMP      r0,#0x6f
        0x0000709e:    d106        ..      BNE      0x70ae ; _printf_core + 306
        0x000070a0:    e0ba        ..      B        0x7218 ; _printf_core + 668
        0x000070a2:    2873        s(      CMP      r0,#0x73
        0x000070a4:    d02e        ..      BEQ      0x7104 ; _printf_core + 392
        0x000070a6:    2875        u(      CMP      r0,#0x75
        0x000070a8:    d071        q.      BEQ      0x718e ; _printf_core + 530
        0x000070aa:    2878        x(      CMP      r0,#0x78
        0x000070ac:    d059        Y.      BEQ      0x7162 ; _printf_core + 486
        0x000070ae:    9a1a        ..      LDR      r2,[sp,#0x68]
        0x000070b0:    9919        ..      LDR      r1,[sp,#0x64]
        0x000070b2:    4790        .G      BLX      r2
        0x000070b4:    1c6d        m.      ADDS     r5,r5,#1
        0x000070b6:    e17e        ~.      B        0x73b6 ; _printf_core + 1082
        0x000070b8:    0260        `.      LSLS     r0,r4,#9
        0x000070ba:    0f40        @.      LSRS     r0,r0,#29
        0x000070bc:    2802        .(      CMP      r0,#2
        0x000070be:    d009        ..      BEQ      0x70d4 ; _printf_core + 344
        0x000070c0:    2803        .(      CMP      r0,#3
        0x000070c2:    d00d        ..      BEQ      0x70e0 ; _printf_core + 356
        0x000070c4:    2804        .(      CMP      r0,#4
        0x000070c6:    9818        ..      LDR      r0,[sp,#0x60]
        0x000070c8:    6801        .h      LDR      r1,[r0,#0]
        0x000070ca:    d00d        ..      BEQ      0x70e8 ; _printf_core + 364
        0x000070cc:    600d        .`      STR      r5,[r1,#0]
        0x000070ce:    1d00        ..      ADDS     r0,r0,#4
        0x000070d0:    9018        ..      STR      r0,[sp,#0x60]
        0x000070d2:    e170        p.      B        0x73b6 ; _printf_core + 1082
        0x000070d4:    9818        ..      LDR      r0,[sp,#0x60]
        0x000070d6:    17ea        ..      ASRS     r2,r5,#31
        0x000070d8:    6801        .h      LDR      r1,[r0,#0]
        0x000070da:    600d        .`      STR      r5,[r1,#0]
        0x000070dc:    604a        J`      STR      r2,[r1,#4]
        0x000070de:    e7f6        ..      B        0x70ce ; _printf_core + 338
        0x000070e0:    9818        ..      LDR      r0,[sp,#0x60]
        0x000070e2:    6801        .h      LDR      r1,[r0,#0]
        0x000070e4:    800d        ..      STRH     r5,[r1,#0]
        0x000070e6:    e7f2        ..      B        0x70ce ; _printf_core + 338
        0x000070e8:    700d        .p      STRB     r5,[r1,#0]
        0x000070ea:    e7f0        ..      B        0x70ce ; _printf_core + 338
        0x000070ec:    9818        ..      LDR      r0,[sp,#0x60]
        0x000070ee:    466a        jF      MOV      r2,sp
        0x000070f0:    7801        .x      LDRB     r1,[r0,#0]
        0x000070f2:    7211        .r      STRB     r1,[r2,#8]
        0x000070f4:    1d00        ..      ADDS     r0,r0,#4
        0x000070f6:    9018        ..      STR      r0,[sp,#0x60]
        0x000070f8:    2000        .       MOVS     r0,#0
        0x000070fa:    7250        Pr      STRB     r0,[r2,#9]
        0x000070fc:    a802        ..      ADD      r0,sp,#8
        0x000070fe:    9000        ..      STR      r0,[sp,#0]
        0x00007100:    2001        .       MOVS     r0,#1
        0x00007102:    e005        ..      B        0x7110 ; _printf_core + 404
        0x00007104:    9818        ..      LDR      r0,[sp,#0x60]
        0x00007106:    c802        ..      LDM      r0!,{r1}
        0x00007108:    9018        ..      STR      r0,[sp,#0x60]
        0x0000710a:    2000        .       MOVS     r0,#0
        0x0000710c:    9100        ..      STR      r1,[sp,#0]
        0x0000710e:    43c0        .C      MVNS     r0,r0
        0x00007110:    0761        a.      LSLS     r1,r4,#29
        0x00007112:    d50d        ..      BPL      0x7130 ; _printf_core + 436
        0x00007114:    2100        .!      MOVS     r1,#0
        0x00007116:    e001        ..      B        0x711c ; _printf_core + 416
        0x00007118:    9901        ..      LDR      r1,[sp,#4]
        0x0000711a:    1c49        I.      ADDS     r1,r1,#1
        0x0000711c:    9101        ..      STR      r1,[sp,#4]
        0x0000711e:    42b9        .B      CMP      r1,r7
        0x00007120:    da12        ..      BGE      0x7148 ; _printf_core + 460
        0x00007122:    4281        .B      CMP      r1,r0
        0x00007124:    dbf8        ..      BLT      0x7118 ; _printf_core + 412
        0x00007126:    9a00        ..      LDR      r2,[sp,#0]
        0x00007128:    5c51        Q\      LDRB     r1,[r2,r1]
        0x0000712a:    2900        .)      CMP      r1,#0
        0x0000712c:    d1f4        ..      BNE      0x7118 ; _printf_core + 412
        0x0000712e:    e00b        ..      B        0x7148 ; _printf_core + 460
        0x00007130:    2100        .!      MOVS     r1,#0
        0x00007132:    e001        ..      B        0x7138 ; _printf_core + 444
        0x00007134:    9901        ..      LDR      r1,[sp,#4]
        0x00007136:    1c49        I.      ADDS     r1,r1,#1
        0x00007138:    9101        ..      STR      r1,[sp,#4]
        0x0000713a:    4281        .B      CMP      r1,r0
        0x0000713c:    dbfa        ..      BLT      0x7134 ; _printf_core + 440
        0x0000713e:    9a01        ..      LDR      r2,[sp,#4]
        0x00007140:    9900        ..      LDR      r1,[sp,#0]
        0x00007142:    5c89        .\      LDRB     r1,[r1,r2]
        0x00007144:    2900        .)      CMP      r1,#0
        0x00007146:    d1f5        ..      BNE      0x7134 ; _printf_core + 440
        0x00007148:    9901        ..      LDR      r1,[sp,#4]
        0x0000714a:    9804        ..      LDR      r0,[sp,#0x10]
        0x0000714c:    9b1a        ..      LDR      r3,[sp,#0x68]
        0x0000714e:    1a47        G.      SUBS     r7,r0,r1
        0x00007150:    4621        !F      MOV      r1,r4
        0x00007152:    4638        8F      MOV      r0,r7
        0x00007154:    9a19        ..      LDR      r2,[sp,#0x64]
        0x00007156:    f000fa97    ....    BL       _printf_pre_padding ; 0x7688
        0x0000715a:    9901        ..      LDR      r1,[sp,#4]
        0x0000715c:    1940        @.      ADDS     r0,r0,r5
        0x0000715e:    1845        E.      ADDS     r5,r0,r1
        0x00007160:    e00b        ..      B        0x717a ; _printf_core + 510
        0x00007162:    e04f        O.      B        0x7204 ; _printf_core + 648
        0x00007164:    e12c        ,.      B        0x73c0 ; _printf_core + 1092
        0x00007166:    e013        ..      B        0x7190 ; _printf_core + 532
        0x00007168:    e04e        N.      B        0x7208 ; _printf_core + 652
        0x0000716a:    9800        ..      LDR      r0,[sp,#0]
        0x0000716c:    9900        ..      LDR      r1,[sp,#0]
        0x0000716e:    7800        .x      LDRB     r0,[r0,#0]
        0x00007170:    1c49        I.      ADDS     r1,r1,#1
        0x00007172:    9100        ..      STR      r1,[sp,#0]
        0x00007174:    9a1a        ..      LDR      r2,[sp,#0x68]
        0x00007176:    9919        ..      LDR      r1,[sp,#0x64]
        0x00007178:    4790        .G      BLX      r2
        0x0000717a:    9801        ..      LDR      r0,[sp,#4]
        0x0000717c:    1e40        @.      SUBS     r0,r0,#1
        0x0000717e:    9001        ..      STR      r0,[sp,#4]
        0x00007180:    1c40        @.      ADDS     r0,r0,#1
        0x00007182:    d1f2        ..      BNE      0x716a ; _printf_core + 494
        0x00007184:    4621        !F      MOV      r1,r4
        0x00007186:    4638        8F      MOV      r0,r7
        0x00007188:    9b1a        ..      LDR      r3,[sp,#0x68]
        0x0000718a:    9a19        ..      LDR      r2,[sp,#0x64]
        0x0000718c:    e110        ..      B        0x73b0 ; _printf_core + 1076
        0x0000718e:    e037        7.      B        0x7200 ; _printf_core + 644
        0x00007190:    200a        .       MOVS     r0,#0xa
        0x00007192:    2100        .!      MOVS     r1,#0
        0x00007194:    9000        ..      STR      r0,[sp,#0]
        0x00007196:    9101        ..      STR      r1,[sp,#4]
        0x00007198:    0260        `.      LSLS     r0,r4,#9
        0x0000719a:    0f41        A.      LSRS     r1,r0,#29
        0x0000719c:    2902        .)      CMP      r1,#2
        0x0000719e:    d007        ..      BEQ      0x71b0 ; _printf_core + 564
        0x000071a0:    9a18        ..      LDR      r2,[sp,#0x60]
        0x000071a2:    ca01        ..      LDM      r2!,{r0}
        0x000071a4:    9218        ..      STR      r2,[sp,#0x60]
        0x000071a6:    17c2        ..      ASRS     r2,r0,#31
        0x000071a8:    4694        .F      MOV      r12,r2
        0x000071aa:    2903        .)      CMP      r1,#3
        0x000071ac:    d008        ..      BEQ      0x71c0 ; _printf_core + 580
        0x000071ae:    e00a        ..      B        0x71c6 ; _printf_core + 586
        0x000071b0:    9818        ..      LDR      r0,[sp,#0x60]
        0x000071b2:    1dc0        ..      ADDS     r0,r0,#7
        0x000071b4:    08c1        ..      LSRS     r1,r0,#3
        0x000071b6:    00c9        ..      LSLS     r1,r1,#3
        0x000071b8:    c905        ..      LDM      r1!,{r0,r2}
        0x000071ba:    9118        ..      STR      r1,[sp,#0x60]
        0x000071bc:    4694        .F      MOV      r12,r2
        0x000071be:    e007        ..      B        0x71d0 ; _printf_core + 596
        0x000071c0:    b200        ..      SXTH     r0,r0
        0x000071c2:    17c2        ..      ASRS     r2,r0,#31
        0x000071c4:    4694        .F      MOV      r12,r2
        0x000071c6:    2904        .)      CMP      r1,#4
        0x000071c8:    d102        ..      BNE      0x71d0 ; _printf_core + 596
        0x000071ca:    b240        @.      SXTB     r0,r0
        0x000071cc:    17c1        ..      ASRS     r1,r0,#31
        0x000071ce:    468c        .F      MOV      r12,r1
        0x000071d0:    2200        ."      MOVS     r2,#0
        0x000071d2:    4661        aF      MOV      r1,r12
        0x000071d4:    4594        .E      CMP      r12,r2
        0x000071d6:    da06        ..      BGE      0x71e6 ; _printf_core + 618
        0x000071d8:    460a        .F      MOV      r2,r1
        0x000071da:    2100        .!      MOVS     r1,#0
        0x000071dc:    4240        @B      RSBS     r0,r0,#0
        0x000071de:    4191        .A      SBCS     r1,r1,r2
        0x000071e0:    468c        .F      MOV      r12,r1
        0x000071e2:    212d        -!      MOVS     r1,#0x2d
        0x000071e4:    e002        ..      B        0x71ec ; _printf_core + 624
        0x000071e6:    0521        !.      LSLS     r1,r4,#20
        0x000071e8:    d504        ..      BPL      0x71f4 ; _printf_core + 632
        0x000071ea:    212b        +!      MOVS     r1,#0x2b
        0x000071ec:    466a        jF      MOV      r2,sp
        0x000071ee:    7311        .s      STRB     r1,[r2,#0xc]
        0x000071f0:    2101        .!      MOVS     r1,#1
        0x000071f2:    e003        ..      B        0x71fc ; _printf_core + 640
        0x000071f4:    07e1        ..      LSLS     r1,r4,#31
        0x000071f6:    d001        ..      BEQ      0x71fc ; _printf_core + 640
        0x000071f8:    2120         !      MOVS     r1,#0x20
        0x000071fa:    e7f7        ..      B        0x71ec ; _printf_core + 624
        0x000071fc:    9102        ..      STR      r1,[sp,#8]
        0x000071fe:    e055        U.      B        0x72ac ; _printf_core + 816
        0x00007200:    200a        .       MOVS     r0,#0xa
        0x00007202:    e00a        ..      B        0x721a ; _printf_core + 670
        0x00007204:    2010        .       MOVS     r0,#0x10
        0x00007206:    e008        ..      B        0x721a ; _printf_core + 670
        0x00007208:    2010        .       MOVS     r0,#0x10
        0x0000720a:    9000        ..      STR      r0,[sp,#0]
        0x0000720c:    2100        .!      MOVS     r1,#0
        0x0000720e:    2004        .       MOVS     r0,#4
        0x00007210:    4304        .C      ORRS     r4,r4,r0
        0x00007212:    9101        ..      STR      r1,[sp,#4]
        0x00007214:    2708        .'      MOVS     r7,#8
        0x00007216:    e003        ..      B        0x7220 ; _printf_core + 676
        0x00007218:    2008        .       MOVS     r0,#8
        0x0000721a:    2100        .!      MOVS     r1,#0
        0x0000721c:    9101        ..      STR      r1,[sp,#4]
        0x0000721e:    9000        ..      STR      r0,[sp,#0]
        0x00007220:    0260        `.      LSLS     r0,r4,#9
        0x00007222:    0f41        A.      LSRS     r1,r0,#29
        0x00007224:    2902        .)      CMP      r1,#2
        0x00007226:    d007        ..      BEQ      0x7238 ; _printf_core + 700
        0x00007228:    9a18        ..      LDR      r2,[sp,#0x60]
        0x0000722a:    ca01        ..      LDM      r2!,{r0}
        0x0000722c:    9218        ..      STR      r2,[sp,#0x60]
        0x0000722e:    2200        ."      MOVS     r2,#0
        0x00007230:    4694        .F      MOV      r12,r2
        0x00007232:    2903        .)      CMP      r1,#3
        0x00007234:    d008        ..      BEQ      0x7248 ; _printf_core + 716
        0x00007236:    e008        ..      B        0x724a ; _printf_core + 718
        0x00007238:    9818        ..      LDR      r0,[sp,#0x60]
        0x0000723a:    1dc0        ..      ADDS     r0,r0,#7
        0x0000723c:    08c1        ..      LSRS     r1,r0,#3
        0x0000723e:    00c9        ..      LSLS     r1,r1,#3
        0x00007240:    c905        ..      LDM      r1!,{r0,r2}
        0x00007242:    9118        ..      STR      r1,[sp,#0x60]
        0x00007244:    4694        .F      MOV      r12,r2
        0x00007246:    e003        ..      B        0x7250 ; _printf_core + 724
        0x00007248:    b280        ..      UXTH     r0,r0
        0x0000724a:    2904        .)      CMP      r1,#4
        0x0000724c:    d100        ..      BNE      0x7250 ; _printf_core + 724
        0x0000724e:    b2c0        ..      UXTB     r0,r0
        0x00007250:    2100        .!      MOVS     r1,#0
        0x00007252:    9102        ..      STR      r1,[sp,#8]
        0x00007254:    0721        !.      LSLS     r1,r4,#28
        0x00007256:    d529        ).      BPL      0x72ac ; _printf_core + 816
        0x00007258:    9911        ..      LDR      r1,[sp,#0x44]
        0x0000725a:    2970        p)      CMP      r1,#0x70
        0x0000725c:    d006        ..      BEQ      0x726c ; _printf_core + 752
        0x0000725e:    9a00        ..      LDR      r2,[sp,#0]
        0x00007260:    2110        .!      MOVS     r1,#0x10
        0x00007262:    9b01        ..      LDR      r3,[sp,#4]
        0x00007264:    404a        J@      EORS     r2,r2,r1
        0x00007266:    431a        .C      ORRS     r2,r2,r3
        0x00007268:    d005        ..      BEQ      0x7276 ; _printf_core + 762
        0x0000726a:    e00e        ..      B        0x728a ; _printf_core + 782
        0x0000726c:    2140        @!      MOVS     r1,#0x40
        0x0000726e:    466a        jF      MOV      r2,sp
        0x00007270:    7311        .s      STRB     r1,[r2,#0xc]
        0x00007272:    2101        .!      MOVS     r1,#1
        0x00007274:    e008        ..      B        0x7288 ; _printf_core + 780
        0x00007276:    4661        aF      MOV      r1,r12
        0x00007278:    4301        .C      ORRS     r1,r1,r0
        0x0000727a:    d006        ..      BEQ      0x728a ; _printf_core + 782
        0x0000727c:    2130        0!      MOVS     r1,#0x30
        0x0000727e:    466a        jF      MOV      r2,sp
        0x00007280:    7311        .s      STRB     r1,[r2,#0xc]
        0x00007282:    9911        ..      LDR      r1,[sp,#0x44]
        0x00007284:    7351        Qs      STRB     r1,[r2,#0xd]
        0x00007286:    2102        .!      MOVS     r1,#2
        0x00007288:    9102        ..      STR      r1,[sp,#8]
        0x0000728a:    9a00        ..      LDR      r2,[sp,#0]
        0x0000728c:    2108        .!      MOVS     r1,#8
        0x0000728e:    9b01        ..      LDR      r3,[sp,#4]
        0x00007290:    404a        J@      EORS     r2,r2,r1
        0x00007292:    431a        .C      ORRS     r2,r2,r3
        0x00007294:    d10a        ..      BNE      0x72ac ; _printf_core + 816
        0x00007296:    4661        aF      MOV      r1,r12
        0x00007298:    4301        .C      ORRS     r1,r1,r0
        0x0000729a:    d101        ..      BNE      0x72a0 ; _printf_core + 804
        0x0000729c:    0761        a.      LSLS     r1,r4,#29
        0x0000729e:    d505        ..      BPL      0x72ac ; _printf_core + 816
        0x000072a0:    2130        0!      MOVS     r1,#0x30
        0x000072a2:    466a        jF      MOV      r2,sp
        0x000072a4:    7311        .s      STRB     r1,[r2,#0xc]
        0x000072a6:    2101        .!      MOVS     r1,#1
        0x000072a8:    1e7f        ..      SUBS     r7,r7,#1
        0x000072aa:    9102        ..      STR      r1,[sp,#8]
        0x000072ac:    9911        ..      LDR      r1,[sp,#0x44]
        0x000072ae:    2958        X)      CMP      r1,#0x58
        0x000072b0:    d004        ..      BEQ      0x72bc ; _printf_core + 832
        0x000072b2:    a135        5.      ADR      r1,{pc}+0xd6 ; 0x7388
        0x000072b4:    910e        ..      STR      r1,[sp,#0x38]
        0x000072b6:    a90d        ..      ADD      r1,sp,#0x34
        0x000072b8:    910d        ..      STR      r1,[sp,#0x34]
        0x000072ba:    e00d        ..      B        0x72d8 ; _printf_core + 860
        0x000072bc:    a137        7.      ADR      r1,{pc}+0xe0 ; 0x739c
        0x000072be:    e7f9        ..      B        0x72b4 ; _printf_core + 824
        0x000072c0:    4661        aF      MOV      r1,r12
        0x000072c2:    9b01        ..      LDR      r3,[sp,#4]
        0x000072c4:    9a00        ..      LDR      r2,[sp,#0]
        0x000072c6:    f7f8ffb3    ....    BL       __aeabi_uldivmod ; 0x230
        0x000072ca:    9b0e        ..      LDR      r3,[sp,#0x38]
        0x000072cc:    468c        .F      MOV      r12,r1
        0x000072ce:    5c9b        .\      LDRB     r3,[r3,r2]
        0x000072d0:    9a0d        ..      LDR      r2,[sp,#0x34]
        0x000072d2:    1e52        R.      SUBS     r2,r2,#1
        0x000072d4:    920d        ..      STR      r2,[sp,#0x34]
        0x000072d6:    7013        .p      STRB     r3,[r2,#0]
        0x000072d8:    4661        aF      MOV      r1,r12
        0x000072da:    4301        .C      ORRS     r1,r1,r0
        0x000072dc:    d1f0        ..      BNE      0x72c0 ; _printf_core + 836
        0x000072de:    980d        ..      LDR      r0,[sp,#0x34]
        0x000072e0:    a905        ..      ADD      r1,sp,#0x14
        0x000072e2:    1a08        ..      SUBS     r0,r1,r0
        0x000072e4:    3020         0      ADDS     r0,r0,#0x20
        0x000072e6:    9001        ..      STR      r0,[sp,#4]
        0x000072e8:    0760        `.      LSLS     r0,r4,#29
        0x000072ea:    d503        ..      BPL      0x72f4 ; _printf_core + 888
        0x000072ec:    2001        .       MOVS     r0,#1
        0x000072ee:    0400        ..      LSLS     r0,r0,#16
        0x000072f0:    4384        .C      BICS     r4,r4,r0
        0x000072f2:    e000        ..      B        0x72f6 ; _printf_core + 890
        0x000072f4:    2701        .'      MOVS     r7,#1
        0x000072f6:    9801        ..      LDR      r0,[sp,#4]
        0x000072f8:    4287        .B      CMP      r7,r0
        0x000072fa:    dd01        ..      BLE      0x7300 ; _printf_core + 900
        0x000072fc:    1a38        8.      SUBS     r0,r7,r0
        0x000072fe:    e000        ..      B        0x7302 ; _printf_core + 902
        0x00007300:    2000        .       MOVS     r0,#0
        0x00007302:    9901        ..      LDR      r1,[sp,#4]
        0x00007304:    9000        ..      STR      r0,[sp,#0]
        0x00007306:    1841        A.      ADDS     r1,r0,r1
        0x00007308:    9802        ..      LDR      r0,[sp,#8]
        0x0000730a:    1809        ..      ADDS     r1,r1,r0
        0x0000730c:    9804        ..      LDR      r0,[sp,#0x10]
        0x0000730e:    1a40        @.      SUBS     r0,r0,r1
        0x00007310:    9004        ..      STR      r0,[sp,#0x10]
        0x00007312:    03e0        ..      LSLS     r0,r4,#15
        0x00007314:    d406        ..      BMI      0x7324 ; _printf_core + 936
        0x00007316:    4621        !F      MOV      r1,r4
        0x00007318:    9b1a        ..      LDR      r3,[sp,#0x68]
        0x0000731a:    9a19        ..      LDR      r2,[sp,#0x64]
        0x0000731c:    9804        ..      LDR      r0,[sp,#0x10]
        0x0000731e:    f000f9b3    ....    BL       _printf_pre_padding ; 0x7688
        0x00007322:    1945        E.      ADDS     r5,r0,r5
        0x00007324:    2700        .'      MOVS     r7,#0
        0x00007326:    e006        ..      B        0x7336 ; _printf_core + 954
        0x00007328:    a803        ..      ADD      r0,sp,#0xc
        0x0000732a:    9a1a        ..      LDR      r2,[sp,#0x68]
        0x0000732c:    5dc0        .]      LDRB     r0,[r0,r7]
        0x0000732e:    9919        ..      LDR      r1,[sp,#0x64]
        0x00007330:    4790        .G      BLX      r2
        0x00007332:    1c6d        m.      ADDS     r5,r5,#1
        0x00007334:    1c7f        ..      ADDS     r7,r7,#1
        0x00007336:    9802        ..      LDR      r0,[sp,#8]
        0x00007338:    4287        .B      CMP      r7,r0
        0x0000733a:    dbf5        ..      BLT      0x7328 ; _printf_core + 940
        0x0000733c:    03e0        ..      LSLS     r0,r4,#15
        0x0000733e:    d50c        ..      BPL      0x735a ; _printf_core + 990
        0x00007340:    4621        !F      MOV      r1,r4
        0x00007342:    9b1a        ..      LDR      r3,[sp,#0x68]
        0x00007344:    9a19        ..      LDR      r2,[sp,#0x64]
        0x00007346:    9804        ..      LDR      r0,[sp,#0x10]
        0x00007348:    f000f99e    ....    BL       _printf_pre_padding ; 0x7688
        0x0000734c:    1945        E.      ADDS     r5,r0,r5
        0x0000734e:    e004        ..      B        0x735a ; _printf_core + 990
        0x00007350:    9a1a        ..      LDR      r2,[sp,#0x68]
        0x00007352:    2030        0       MOVS     r0,#0x30
        0x00007354:    9919        ..      LDR      r1,[sp,#0x64]
        0x00007356:    4790        .G      BLX      r2
        0x00007358:    1c6d        m.      ADDS     r5,r5,#1
        0x0000735a:    9900        ..      LDR      r1,[sp,#0]
        0x0000735c:    1e48        H.      SUBS     r0,r1,#1
        0x0000735e:    9000        ..      STR      r0,[sp,#0]
        0x00007360:    2900        .)      CMP      r1,#0
        0x00007362:    dcf5        ..      BGT      0x7350 ; _printf_core + 980
        0x00007364:    e008        ..      B        0x7378 ; _printf_core + 1020
        0x00007366:    980d        ..      LDR      r0,[sp,#0x34]
        0x00007368:    990d        ..      LDR      r1,[sp,#0x34]
        0x0000736a:    7800        .x      LDRB     r0,[r0,#0]
        0x0000736c:    1c49        I.      ADDS     r1,r1,#1
        0x0000736e:    910d        ..      STR      r1,[sp,#0x34]
        0x00007370:    9a1a        ..      LDR      r2,[sp,#0x68]
        0x00007372:    9919        ..      LDR      r1,[sp,#0x64]
        0x00007374:    4790        .G      BLX      r2
        0x00007376:    1c6d        m.      ADDS     r5,r5,#1
        0x00007378:    9901        ..      LDR      r1,[sp,#4]
        0x0000737a:    1e48        H.      SUBS     r0,r1,#1
        0x0000737c:    9001        ..      STR      r0,[sp,#4]
        0x0000737e:    2900        .)      CMP      r1,#0
        0x00007380:    dcf1        ..      BGT      0x7366 ; _printf_core + 1002
        0x00007382:    e163        c.      B        0x764c ; _printf_core + 1744
    $d
        0x00007384:    00012809    .(..    DCD    75785
        0x00007388:    33323130    0123    DCD    858927408
        0x0000738c:    37363534    4567    DCD    926299444
        0x00007390:    62613938    89ab    DCD    1650538808
        0x00007394:    66656463    cdef    DCD    1717920867
        0x00007398:    00000000    ....    DCD    0
        0x0000739c:    33323130    0123    DCD    858927408
        0x000073a0:    37363534    4567    DCD    926299444
        0x000073a4:    42413938    89AB    DCD    1111570744
        0x000073a8:    46454443    CDEF    DCD    1178944579
        0x000073ac:    00000000    ....    DCD    0
    $t
        0x000073b0:    f000f95a    ..Z.    BL       _printf_post_padding ; 0x7668
        0x000073b4:    1945        E.      ADDS     r5,r0,r5
        0x000073b6:    1c76        v.      ADDS     r6,r6,#1
        0x000073b8:    7830        0x      LDRB     r0,[r6,#0]
        0x000073ba:    2800        .(      CMP      r0,#0
        0x000073bc:    d000        ..      BEQ      0x73c0 ; _printf_core + 1092
        0x000073be:    e5e2        ..      B        0x6f86 ; _printf_core + 10
        0x000073c0:    4628        (F      MOV      r0,r5
        0x000073c2:    b01b        ..      ADD      sp,sp,#0x6c
        0x000073c4:    bdf0        ..      POP      {r4-r7,pc}
        0x000073c6:    0760        `.      LSLS     r0,r4,#29
        0x000073c8:    d400        ..      BMI      0x73cc ; _printf_core + 1104
        0x000073ca:    2706        .'      MOVS     r7,#6
        0x000073cc:    9818        ..      LDR      r0,[sp,#0x60]
        0x000073ce:    1dc0        ..      ADDS     r0,r0,#7
        0x000073d0:    08c1        ..      LSRS     r1,r0,#3
        0x000073d2:    00c9        ..      LSLS     r1,r1,#3
        0x000073d4:    6848        Hh      LDR      r0,[r1,#4]
        0x000073d6:    680a        .h      LDR      r2,[r1,#0]
        0x000073d8:    3108        .1      ADDS     r1,r1,#8
        0x000073da:    0fc3        ..      LSRS     r3,r0,#31
        0x000073dc:    07db        ..      LSLS     r3,r3,#31
        0x000073de:    9118        ..      STR      r1,[sp,#0x60]
        0x000073e0:    0019        ..      MOVS     r1,r3
        0x000073e2:    d001        ..      BEQ      0x73e8 ; _printf_core + 1132
        0x000073e4:    a19c        ..      ADR      r1,{pc}+0x274 ; 0x7658
        0x000073e6:    e008        ..      B        0x73fa ; _printf_core + 1150
        0x000073e8:    0521        !.      LSLS     r1,r4,#20
        0x000073ea:    d501        ..      BPL      0x73f0 ; _printf_core + 1140
        0x000073ec:    a19b        ..      ADR      r1,{pc}+0x270 ; 0x765c
        0x000073ee:    e004        ..      B        0x73fa ; _printf_core + 1150
        0x000073f0:    07e1        ..      LSLS     r1,r4,#31
        0x000073f2:    d001        ..      BEQ      0x73f8 ; _printf_core + 1148
        0x000073f4:    a19a        ..      ADR      r1,{pc}+0x26c ; 0x7660
        0x000073f6:    e000        ..      B        0x73fa ; _printf_core + 1150
        0x000073f8:    a19a        ..      ADR      r1,{pc}+0x26c ; 0x7664
        0x000073fa:    0043        C.      LSLS     r3,r0,#1
        0x000073fc:    9811        ..      LDR      r0,[sp,#0x44]
        0x000073fe:    085b        [.      LSRS     r3,r3,#1
        0x00007400:    9110        ..      STR      r1,[sp,#0x40]
        0x00007402:    2865        e(      CMP      r0,#0x65
        0x00007404:    d00c        ..      BEQ      0x7420 ; _printf_core + 1188
        0x00007406:    dc06        ..      BGT      0x7416 ; _printf_core + 1178
        0x00007408:    2845        E(      CMP      r0,#0x45
        0x0000740a:    d009        ..      BEQ      0x7420 ; _printf_core + 1188
        0x0000740c:    2846        F(      CMP      r0,#0x46
        0x0000740e:    d01d        ..      BEQ      0x744c ; _printf_core + 1232
        0x00007410:    2847        G(      CMP      r0,#0x47
        0x00007412:    d141        A.      BNE      0x7498 ; _printf_core + 1308
        0x00007414:    e041        A.      B        0x749a ; _printf_core + 1310
        0x00007416:    2866        f(      CMP      r0,#0x66
        0x00007418:    d018        ..      BEQ      0x744c ; _printf_core + 1232
        0x0000741a:    2867        g(      CMP      r0,#0x67
        0x0000741c:    d13c        <.      BNE      0x7498 ; _printf_core + 1308
        0x0000741e:    e03c        <.      B        0x749a ; _printf_core + 1310
        0x00007420:    2100        .!      MOVS     r1,#0
        0x00007422:    2f11        ./      CMP      r7,#0x11
        0x00007424:    db01        ..      BLT      0x742a ; _printf_core + 1198
        0x00007426:    2011        .       MOVS     r0,#0x11
        0x00007428:    e000        ..      B        0x742c ; _printf_core + 1200
        0x0000742a:    1c78        x.      ADDS     r0,r7,#1
        0x0000742c:    9101        ..      STR      r1,[sp,#4]
        0x0000742e:    9000        ..      STR      r0,[sp,#0]
        0x00007430:    a908        ..      ADD      r1,sp,#0x20
        0x00007432:    a811        ..      ADD      r0,sp,#0x44
        0x00007434:    f7fffce8    ....    BL       _fp_digits ; 0x6e08
        0x00007438:    9913        ..      LDR      r1,[sp,#0x4c]
        0x0000743a:    9105        ..      STR      r1,[sp,#0x14]
        0x0000743c:    2100        .!      MOVS     r1,#0
        0x0000743e:    9a11        ..      LDR      r2,[sp,#0x44]
        0x00007440:    9215        ..      STR      r2,[sp,#0x54]
        0x00007442:    1c7f        ..      ADDS     r7,r7,#1
        0x00007444:    9812        ..      LDR      r0,[sp,#0x48]
        0x00007446:    9701        ..      STR      r7,[sp,#4]
        0x00007448:    9100        ..      STR      r1,[sp,#0]
        0x0000744a:    e050        P.      B        0x74ee ; _printf_core + 1394
        0x0000744c:    2001        .       MOVS     r0,#1
        0x0000744e:    07c0        ..      LSLS     r0,r0,#31
        0x00007450:    9003        ..      STR      r0,[sp,#0xc]
        0x00007452:    2001        .       MOVS     r0,#1
        0x00007454:    9001        ..      STR      r0,[sp,#4]
        0x00007456:    a908        ..      ADD      r1,sp,#0x20
        0x00007458:    9700        ..      STR      r7,[sp,#0]
        0x0000745a:    a811        ..      ADD      r0,sp,#0x44
        0x0000745c:    f7fffcd4    ....    BL       _fp_digits ; 0x6e08
        0x00007460:    9a13        ..      LDR      r2,[sp,#0x4c]
        0x00007462:    9914        ..      LDR      r1,[sp,#0x50]
        0x00007464:    9205        ..      STR      r2,[sp,#0x14]
        0x00007466:    2200        ."      MOVS     r2,#0
        0x00007468:    9b11        ..      LDR      r3,[sp,#0x44]
        0x0000746a:    9200        ..      STR      r2,[sp,#0]
        0x0000746c:    9812        ..      LDR      r0,[sp,#0x48]
        0x0000746e:    9315        ..      STR      r3,[sp,#0x54]
        0x00007470:    9a05        ..      LDR      r2,[sp,#0x14]
        0x00007472:    9201        ..      STR      r2,[sp,#4]
        0x00007474:    2900        .)      CMP      r1,#0
        0x00007476:    d001        ..      BEQ      0x747c ; _printf_core + 1280
        0x00007478:    4610        .F      MOV      r0,r2
        0x0000747a:    e002        ..      B        0x7482 ; _printf_core + 1286
        0x0000747c:    1c79        y.      ADDS     r1,r7,#1
        0x0000747e:    1840        @.      ADDS     r0,r0,r1
        0x00007480:    9001        ..      STR      r0,[sp,#4]
        0x00007482:    1a38        8.      SUBS     r0,r7,r0
        0x00007484:    d501        ..      BPL      0x748a ; _printf_core + 1294
        0x00007486:    9801        ..      LDR      r0,[sp,#4]
        0x00007488:    e004        ..      B        0x7494 ; _printf_core + 1304
        0x0000748a:    4240        @B      RSBS     r0,r0,#0
        0x0000748c:    1e40        @.      SUBS     r0,r0,#1
        0x0000748e:    9000        ..      STR      r0,[sp,#0]
        0x00007490:    1c78        x.      ADDS     r0,r7,#1
        0x00007492:    9001        ..      STR      r0,[sp,#4]
        0x00007494:    1bc0        ..      SUBS     r0,r0,r7
        0x00007496:    9002        ..      STR      r0,[sp,#8]
        0x00007498:    e043        C.      B        0x7522 ; _printf_core + 1446
        0x0000749a:    2f01        ./      CMP      r7,#1
        0x0000749c:    da00        ..      BGE      0x74a0 ; _printf_core + 1316
        0x0000749e:    2701        .'      MOVS     r7,#1
        0x000074a0:    2100        .!      MOVS     r1,#0
        0x000074a2:    2f11        ./      CMP      r7,#0x11
        0x000074a4:    dd01        ..      BLE      0x74aa ; _printf_core + 1326
        0x000074a6:    2011        .       MOVS     r0,#0x11
        0x000074a8:    e000        ..      B        0x74ac ; _printf_core + 1328
        0x000074aa:    4638        8F      MOV      r0,r7
        0x000074ac:    9101        ..      STR      r1,[sp,#4]
        0x000074ae:    9000        ..      STR      r0,[sp,#0]
        0x000074b0:    a908        ..      ADD      r1,sp,#0x20
        0x000074b2:    a811        ..      ADD      r0,sp,#0x44
        0x000074b4:    f7fffca8    ....    BL       _fp_digits ; 0x6e08
        0x000074b8:    9913        ..      LDR      r1,[sp,#0x4c]
        0x000074ba:    9105        ..      STR      r1,[sp,#0x14]
        0x000074bc:    9a11        ..      LDR      r2,[sp,#0x44]
        0x000074be:    2100        .!      MOVS     r1,#0
        0x000074c0:    9812        ..      LDR      r0,[sp,#0x48]
        0x000074c2:    9215        ..      STR      r2,[sp,#0x54]
        0x000074c4:    9100        ..      STR      r1,[sp,#0]
        0x000074c6:    9701        ..      STR      r7,[sp,#4]
        0x000074c8:    0721        !.      LSLS     r1,r4,#28
        0x000074ca:    d40c        ..      BMI      0x74e6 ; _printf_core + 1386
        0x000074cc:    9905        ..      LDR      r1,[sp,#0x14]
        0x000074ce:    42b9        .B      CMP      r1,r7
        0x000074d0:    db01        ..      BLT      0x74d6 ; _printf_core + 1370
        0x000074d2:    9901        ..      LDR      r1,[sp,#4]
        0x000074d4:    e000        ..      B        0x74d8 ; _printf_core + 1372
        0x000074d6:    9101        ..      STR      r1,[sp,#4]
        0x000074d8:    2901        .)      CMP      r1,#1
        0x000074da:    dd04        ..      BLE      0x74e6 ; _printf_core + 1386
        0x000074dc:    9a15        ..      LDR      r2,[sp,#0x54]
        0x000074de:    1e49        I.      SUBS     r1,r1,#1
        0x000074e0:    5c51        Q\      LDRB     r1,[r2,r1]
        0x000074e2:    2930        0)      CMP      r1,#0x30
        0x000074e4:    d006        ..      BEQ      0x74f4 ; _printf_core + 1400
        0x000074e6:    42b8        .B      CMP      r0,r7
        0x000074e8:    da01        ..      BGE      0x74ee ; _printf_core + 1394
        0x000074ea:    1d01        ..      ADDS     r1,r0,#4
        0x000074ec:    da05        ..      BGE      0x74fa ; _printf_core + 1406
        0x000074ee:    2101        .!      MOVS     r1,#1
        0x000074f0:    9102        ..      STR      r1,[sp,#8]
        0x000074f2:    e015        ..      B        0x7520 ; _printf_core + 1444
        0x000074f4:    9901        ..      LDR      r1,[sp,#4]
        0x000074f6:    1e49        I.      SUBS     r1,r1,#1
        0x000074f8:    e7ed        ..      B        0x74d6 ; _printf_core + 1370
        0x000074fa:    2800        .(      CMP      r0,#0
        0x000074fc:    dc05        ..      BGT      0x750a ; _printf_core + 1422
        0x000074fe:    9900        ..      LDR      r1,[sp,#0]
        0x00007500:    1841        A.      ADDS     r1,r0,r1
        0x00007502:    9100        ..      STR      r1,[sp,#0]
        0x00007504:    9901        ..      LDR      r1,[sp,#4]
        0x00007506:    1a09        ..      SUBS     r1,r1,r0
        0x00007508:    e003        ..      B        0x7512 ; _printf_core + 1430
        0x0000750a:    9a01        ..      LDR      r2,[sp,#4]
        0x0000750c:    1c41        A.      ADDS     r1,r0,#1
        0x0000750e:    4291        .B      CMP      r1,r2
        0x00007510:    dd00        ..      BLE      0x7514 ; _printf_core + 1432
        0x00007512:    9101        ..      STR      r1,[sp,#4]
        0x00007514:    9900        ..      LDR      r1,[sp,#0]
        0x00007516:    1a40        @.      SUBS     r0,r0,r1
        0x00007518:    1c40        @.      ADDS     r0,r0,#1
        0x0000751a:    9002        ..      STR      r0,[sp,#8]
        0x0000751c:    2001        .       MOVS     r0,#1
        0x0000751e:    07c0        ..      LSLS     r0,r0,#31
        0x00007520:    9003        ..      STR      r0,[sp,#0xc]
        0x00007522:    0720         .      LSLS     r0,r4,#28
        0x00007524:    d406        ..      BMI      0x7534 ; _printf_core + 1464
        0x00007526:    9902        ..      LDR      r1,[sp,#8]
        0x00007528:    9801        ..      LDR      r0,[sp,#4]
        0x0000752a:    4281        .B      CMP      r1,r0
        0x0000752c:    db02        ..      BLT      0x7534 ; _printf_core + 1464
        0x0000752e:    2000        .       MOVS     r0,#0
        0x00007530:    43c0        .C      MVNS     r0,r0
        0x00007532:    9002        ..      STR      r0,[sp,#8]
        0x00007534:    2000        .       MOVS     r0,#0
        0x00007536:    4669        iF      MOV      r1,sp
        0x00007538:    77c8        .w      STRB     r0,[r1,#0x1f]
        0x0000753a:    af07        ..      ADD      r7,sp,#0x1c
        0x0000753c:    2101        .!      MOVS     r1,#1
        0x0000753e:    9803        ..      LDR      r0,[sp,#0xc]
        0x00007540:    3703        .7      ADDS     r7,#3
        0x00007542:    07c9        ..      LSLS     r1,r1,#31
        0x00007544:    4288        .B      CMP      r0,r1
        0x00007546:    d024        $.      BEQ      0x7592 ; _printf_core + 1558
        0x00007548:    2002        .       MOVS     r0,#2
        0x0000754a:    9011        ..      STR      r0,[sp,#0x44]
        0x0000754c:    202b        +       MOVS     r0,#0x2b
        0x0000754e:    9012        ..      STR      r0,[sp,#0x48]
        0x00007550:    9803        ..      LDR      r0,[sp,#0xc]
        0x00007552:    2800        .(      CMP      r0,#0
        0x00007554:    da0c        ..      BGE      0x7570 ; _printf_core + 1524
        0x00007556:    4240        @B      RSBS     r0,r0,#0
        0x00007558:    9003        ..      STR      r0,[sp,#0xc]
        0x0000755a:    202d        -       MOVS     r0,#0x2d
        0x0000755c:    9012        ..      STR      r0,[sp,#0x48]
        0x0000755e:    e007        ..      B        0x7570 ; _printf_core + 1524
        0x00007560:    210a        .!      MOVS     r1,#0xa
        0x00007562:    9803        ..      LDR      r0,[sp,#0xc]
        0x00007564:    f7f9f872    ..r.    BL       __aeabi_uidiv$div0 ; 0x64c
        0x00007568:    3130        01      ADDS     r1,r1,#0x30
        0x0000756a:    1e7f        ..      SUBS     r7,r7,#1
        0x0000756c:    9003        ..      STR      r0,[sp,#0xc]
        0x0000756e:    7039        9p      STRB     r1,[r7,#0]
        0x00007570:    9911        ..      LDR      r1,[sp,#0x44]
        0x00007572:    1e48        H.      SUBS     r0,r1,#1
        0x00007574:    9011        ..      STR      r0,[sp,#0x44]
        0x00007576:    2900        .)      CMP      r1,#0
        0x00007578:    dcf2        ..      BGT      0x7560 ; _printf_core + 1508
        0x0000757a:    9803        ..      LDR      r0,[sp,#0xc]
        0x0000757c:    2800        .(      CMP      r0,#0
        0x0000757e:    d1ef        ..      BNE      0x7560 ; _printf_core + 1508
        0x00007580:    1e79        y.      SUBS     r1,r7,#1
        0x00007582:    9812        ..      LDR      r0,[sp,#0x48]
        0x00007584:    7008        .p      STRB     r0,[r1,#0]
        0x00007586:    7830        0x      LDRB     r0,[r6,#0]
        0x00007588:    2120         !      MOVS     r1,#0x20
        0x0000758a:    4008        .@      ANDS     r0,r0,r1
        0x0000758c:    3045        E0      ADDS     r0,r0,#0x45
        0x0000758e:    1ebf        ..      SUBS     r7,r7,#2
        0x00007590:    7038        8p      STRB     r0,[r7,#0]
        0x00007592:    a806        ..      ADD      r0,sp,#0x18
        0x00007594:    1bc0        ..      SUBS     r0,r0,r7
        0x00007596:    1dc0        ..      ADDS     r0,r0,#7
        0x00007598:    9003        ..      STR      r0,[sp,#0xc]
        0x0000759a:    9810        ..      LDR      r0,[sp,#0x40]
        0x0000759c:    7800        .x      LDRB     r0,[r0,#0]
        0x0000759e:    2800        .(      CMP      r0,#0
        0x000075a0:    d000        ..      BEQ      0x75a4 ; _printf_core + 1576
        0x000075a2:    2001        .       MOVS     r0,#1
        0x000075a4:    9901        ..      LDR      r1,[sp,#4]
        0x000075a6:    1841        A.      ADDS     r1,r0,r1
        0x000075a8:    9802        ..      LDR      r0,[sp,#8]
        0x000075aa:    17c0        ..      ASRS     r0,r0,#31
        0x000075ac:    1809        ..      ADDS     r1,r1,r0
        0x000075ae:    9803        ..      LDR      r0,[sp,#0xc]
        0x000075b0:    1809        ..      ADDS     r1,r1,r0
        0x000075b2:    9804        ..      LDR      r0,[sp,#0x10]
        0x000075b4:    1a40        @.      SUBS     r0,r0,r1
        0x000075b6:    1e40        @.      SUBS     r0,r0,#1
        0x000075b8:    9004        ..      STR      r0,[sp,#0x10]
        0x000075ba:    03e0        ..      LSLS     r0,r4,#15
        0x000075bc:    d406        ..      BMI      0x75cc ; _printf_core + 1616
        0x000075be:    4621        !F      MOV      r1,r4
        0x000075c0:    9b1a        ..      LDR      r3,[sp,#0x68]
        0x000075c2:    9a19        ..      LDR      r2,[sp,#0x64]
        0x000075c4:    9804        ..      LDR      r0,[sp,#0x10]
        0x000075c6:    f000f85f    .._.    BL       _printf_pre_padding ; 0x7688
        0x000075ca:    1945        E.      ADDS     r5,r0,r5
        0x000075cc:    9810        ..      LDR      r0,[sp,#0x40]
        0x000075ce:    7800        .x      LDRB     r0,[r0,#0]
        0x000075d0:    2800        .(      CMP      r0,#0
        0x000075d2:    d003        ..      BEQ      0x75dc ; _printf_core + 1632
        0x000075d4:    9a1a        ..      LDR      r2,[sp,#0x68]
        0x000075d6:    9919        ..      LDR      r1,[sp,#0x64]
        0x000075d8:    4790        .G      BLX      r2
        0x000075da:    1c6d        m.      ADDS     r5,r5,#1
        0x000075dc:    03e0        ..      LSLS     r0,r4,#15
        0x000075de:    d524        $.      BPL      0x762a ; _printf_core + 1710
        0x000075e0:    4621        !F      MOV      r1,r4
        0x000075e2:    9b1a        ..      LDR      r3,[sp,#0x68]
        0x000075e4:    9a19        ..      LDR      r2,[sp,#0x64]
        0x000075e6:    9804        ..      LDR      r0,[sp,#0x10]
        0x000075e8:    f000f84e    ..N.    BL       _printf_pre_padding ; 0x7688
        0x000075ec:    1945        E.      ADDS     r5,r0,r5
        0x000075ee:    e01c        ..      B        0x762a ; _printf_core + 1710
        0x000075f0:    9800        ..      LDR      r0,[sp,#0]
        0x000075f2:    2800        .(      CMP      r0,#0
        0x000075f4:    db07        ..      BLT      0x7606 ; _printf_core + 1674
        0x000075f6:    9900        ..      LDR      r1,[sp,#0]
        0x000075f8:    9805        ..      LDR      r0,[sp,#0x14]
        0x000075fa:    4288        .B      CMP      r0,r1
        0x000075fc:    dd03        ..      BLE      0x7606 ; _printf_core + 1674
        0x000075fe:    9815        ..      LDR      r0,[sp,#0x54]
        0x00007600:    5c40        @\      LDRB     r0,[r0,r1]
        0x00007602:    9919        ..      LDR      r1,[sp,#0x64]
        0x00007604:    e001        ..      B        0x760a ; _printf_core + 1678
        0x00007606:    9919        ..      LDR      r1,[sp,#0x64]
        0x00007608:    2030        0       MOVS     r0,#0x30
        0x0000760a:    9a1a        ..      LDR      r2,[sp,#0x68]
        0x0000760c:    4790        .G      BLX      r2
        0x0000760e:    9800        ..      LDR      r0,[sp,#0]
        0x00007610:    1c6d        m.      ADDS     r5,r5,#1
        0x00007612:    1c40        @.      ADDS     r0,r0,#1
        0x00007614:    9000        ..      STR      r0,[sp,#0]
        0x00007616:    9802        ..      LDR      r0,[sp,#8]
        0x00007618:    1e40        @.      SUBS     r0,r0,#1
        0x0000761a:    9002        ..      STR      r0,[sp,#8]
        0x0000761c:    2800        .(      CMP      r0,#0
        0x0000761e:    d104        ..      BNE      0x762a ; _printf_core + 1710
        0x00007620:    9a1a        ..      LDR      r2,[sp,#0x68]
        0x00007622:    202e        .       MOVS     r0,#0x2e
        0x00007624:    9919        ..      LDR      r1,[sp,#0x64]
        0x00007626:    4790        .G      BLX      r2
        0x00007628:    1c6d        m.      ADDS     r5,r5,#1
        0x0000762a:    9901        ..      LDR      r1,[sp,#4]
        0x0000762c:    1e48        H.      SUBS     r0,r1,#1
        0x0000762e:    9001        ..      STR      r0,[sp,#4]
        0x00007630:    2900        .)      CMP      r1,#0
        0x00007632:    dcdd        ..      BGT      0x75f0 ; _printf_core + 1652
        0x00007634:    e005        ..      B        0x7642 ; _printf_core + 1734
        0x00007636:    7838        8x      LDRB     r0,[r7,#0]
        0x00007638:    9a1a        ..      LDR      r2,[sp,#0x68]
        0x0000763a:    1c7f        ..      ADDS     r7,r7,#1
        0x0000763c:    9919        ..      LDR      r1,[sp,#0x64]
        0x0000763e:    4790        .G      BLX      r2
        0x00007640:    1c6d        m.      ADDS     r5,r5,#1
        0x00007642:    9903        ..      LDR      r1,[sp,#0xc]
        0x00007644:    1e48        H.      SUBS     r0,r1,#1
        0x00007646:    9003        ..      STR      r0,[sp,#0xc]
        0x00007648:    2900        .)      CMP      r1,#0
        0x0000764a:    dcf4        ..      BGT      0x7636 ; _printf_core + 1722
        0x0000764c:    4621        !F      MOV      r1,r4
        0x0000764e:    9b1a        ..      LDR      r3,[sp,#0x68]
        0x00007650:    9a19        ..      LDR      r2,[sp,#0x64]
        0x00007652:    9804        ..      LDR      r0,[sp,#0x10]
        0x00007654:    e6ac        ..      B        0x73b0 ; _printf_core + 1076
    $d
        0x00007656:    0000        ..      DCW    0
        0x00007658:    0000002d    -...    DCD    45
        0x0000765c:    0000002b    +...    DCD    43
        0x00007660:    00000020     ...    DCD    32
        0x00007664:    00000000    ....    DCD    0
    $t
    i._printf_post_padding
    _printf_post_padding
        0x00007668:    b5f8        ..      PUSH     {r3-r7,lr}
        0x0000766a:    4604        .F      MOV      r4,r0
        0x0000766c:    2500        .%      MOVS     r5,#0
        0x0000766e:    461e        .F      MOV      r6,r3
        0x00007670:    4617        .F      MOV      r7,r2
        0x00007672:    0488        ..      LSLS     r0,r1,#18
        0x00007674:    d404        ..      BMI      0x7680 ; _printf_post_padding + 24
        0x00007676:    e005        ..      B        0x7684 ; _printf_post_padding + 28
        0x00007678:    4639        9F      MOV      r1,r7
        0x0000767a:    2020                MOVS     r0,#0x20
        0x0000767c:    47b0        .G      BLX      r6
        0x0000767e:    1c6d        m.      ADDS     r5,r5,#1
        0x00007680:    1e64        d.      SUBS     r4,r4,#1
        0x00007682:    d5f9        ..      BPL      0x7678 ; _printf_post_padding + 16
        0x00007684:    4628        (F      MOV      r0,r5
        0x00007686:    bdf8        ..      POP      {r3-r7,pc}
    i._printf_pre_padding
    _printf_pre_padding
        0x00007688:    b5ff        ..      PUSH     {r0-r7,lr}
        0x0000768a:    4604        .F      MOV      r4,r0
        0x0000768c:    2500        .%      MOVS     r5,#0
        0x0000768e:    b081        ..      SUB      sp,sp,#4
        0x00007690:    461e        .F      MOV      r6,r3
        0x00007692:    03c8        ..      LSLS     r0,r1,#15
        0x00007694:    d501        ..      BPL      0x769a ; _printf_pre_padding + 18
        0x00007696:    2730        0'      MOVS     r7,#0x30
        0x00007698:    e000        ..      B        0x769c ; _printf_pre_padding + 20
        0x0000769a:    2720         '      MOVS     r7,#0x20
        0x0000769c:    0488        ..      LSLS     r0,r1,#18
        0x0000769e:    d504        ..      BPL      0x76aa ; _printf_pre_padding + 34
        0x000076a0:    e005        ..      B        0x76ae ; _printf_pre_padding + 38
        0x000076a2:    4638        8F      MOV      r0,r7
        0x000076a4:    9903        ..      LDR      r1,[sp,#0xc]
        0x000076a6:    47b0        .G      BLX      r6
        0x000076a8:    1c6d        m.      ADDS     r5,r5,#1
        0x000076aa:    1e64        d.      SUBS     r4,r4,#1
        0x000076ac:    d5f9        ..      BPL      0x76a2 ; _printf_pre_padding + 26
        0x000076ae:    4628        (F      MOV      r0,r5
        0x000076b0:    b005        ..      ADD      sp,sp,#0x14
        0x000076b2:    bdf0        ..      POP      {r4-r7,pc}
    $d.realdata
        0x000076b4:    00b71b00    ....    DCD    12000000
        0x000076b8:    00008000    ....    DCD    32768
        0x000076bc:    00000000    ....    DCD    0
        0x000076c0:    00002710    .'..    DCD    10000
        0x000076c4:    00000000    ....    DCD    0
        0x000076c8:    02dc6c00    .l..    DCD    48000000
        0x000076cc:    00000000    ....    DCD    0
        0x000076d0:    00b71b00    ....    DCD    12000000
        0x000076d4:    00b71b00    ....    DCD    12000000
        0x000076d8:    00008000    ....    DCD    32768
        0x000076dc:    00000000    ....    DCD    0
        0x000076e0:    00000000    ....    DCD    0
        0x000076e4:    00000000    ....    DCD    0
        0x000076e8:    00002710    .'..    DCD    10000
        0x000076ec:    00000000    ....    DCD    0
        0x000076f0:    00b71b00    ....    DCD    12000000
        0x000076f4:    61482020      Ha    DCD    1632116768
        0x000076f8:    61466472    rdFa    DCD    1632003186
        0x000076fc:    21746c75    ult!    DCD    561278069
        0x00007700:    72000a0a    ...r    DCD    1912605194
        0x00007704:    3d202030    0  =    DCD    1025515568
        0x00007708:    25783020     0x%    DCD    628633632
        0x0000770c:    72000a78    x..r    DCD    1912605304
        0x00007710:    3d202031    1  =    DCD    1025515569
        0x00007714:    25783020     0x%    DCD    628633632
        0x00007718:    72000a78    x..r    DCD    1912605304
        0x0000771c:    3d202032    2  =    DCD    1025515570
        0x00007720:    25783020     0x%    DCD    628633632
        0x00007724:    72000a78    x..r    DCD    1912605304
        0x00007728:    3d202033    3  =    DCD    1025515571
        0x0000772c:    25783020     0x%    DCD    628633632
        0x00007730:    70000a78    x..p    DCD    1879050872
        0x00007734:    3d202063    c  =    DCD    1025515619
        0x00007738:    25783020     0x%    DCD    628633632
        0x0000773c:    6c000a78    x..l    DCD    1811942008
        0x00007740:    3d202072    r  =    DCD    1025515634
        0x00007744:    25783020     0x%    DCD    628633632
        0x00007748:    72000a78    x..r    DCD    1912605304
        0x0000774c:    3d203231    12 =    DCD    1025520177
        0x00007750:    25783020     0x%    DCD    628633632
        0x00007754:    70000a78    x..p    DCD    1879050872
        0x00007758:    3d207273    sr =    DCD    1025536627
        0x0000775c:    25783020     0x%    DCD    628633632
        0x00007760:    00000a78    x...    DCD    2680
    Region$$Table$$Base
        0x00007764:    00007784    .w..    DCD    30596
        0x00007768:    20000000    ...     DCD    536870912
        0x0000776c:    00000030    0...    DCD    48
        0x00007770:    00006dea    .m..    DCD    28138
        0x00007774:    000077b4    .w..    DCD    30644
        0x00007778:    20000030    0..     DCD    536870960
        0x0000777c:    00000a80    ....    DCD    2688
        0x00007780:    00006dfa    .m..    DCD    28154
    Region$$Table$$Limit

** Section #2 'ER_RW' (SHT_PROGBITS) [SHF_ALLOC + SHF_WRITE]
    Size   : 48 bytes (alignment 4)
    Address: 0x20000000


** Section #3 'ER_ZI' (SHT_NOBITS) [SHF_ALLOC + SHF_WRITE]
    Size   : 2688 bytes (alignment 8)
    Address: 0x20000030


** Section #4 '.debug_abbrev' (SHT_PROGBITS)
    Size   : 4121 bytes


** Section #5 '.debug_frame' (SHT_PROGBITS)
    Size   : 4416 bytes


** Section #6 '.debug_info' (SHT_PROGBITS)
    Size   : 31123 bytes


** Section #7 '.debug_line' (SHT_PROGBITS)
    Size   : 37396 bytes


** Section #8 '.debug_ranges' (SHT_PROGBITS)
    Size   : 1272 bytes


** Section #9 '.debug_str' (SHT_PROGBITS)
    Size   : 18911 bytes


** Section #10 '.symtab' (SHT_SYMTAB)
    Size   : 12992 bytes (alignment 4)
    String table #11 '.strtab'
    Last local symbol no. 550


** Section #11 '.strtab' (SHT_STRTAB)
    Size   : 7916 bytes


** Section #12 '.note' (SHT_NOTE)
    Size   : 28 bytes (alignment 4)


** Section #13 '.comment' (SHT_PROGBITS)
    Size   : 1688 bytes


** Section #14 '.shstrtab' (SHT_STRTAB)
    Size   : 136 bytes


