	.text
	.syntax unified
	.eabi_attribute	67, "2.09"	@ Tag_conformance
	.cpu	cortex-m23
	.eabi_attribute	6, 16	@ Tag_CPU_arch
	.eabi_attribute	7, 77	@ Tag_CPU_arch_profile
	.eabi_attribute	8, 0	@ Tag_ARM_ISA_use
	.eabi_attribute	9, 3	@ Tag_THUMB_ISA_use
	.eabi_attribute	34, 0	@ Tag_CPU_unaligned_access
	.eabi_attribute	17, 1	@ Tag_ABI_PCS_GOT_use
	.eabi_attribute	20, 2	@ Tag_ABI_FP_denormal
	.eabi_attribute	21, 0	@ Tag_ABI_FP_exceptions
	.eabi_attribute	23, 1	@ Tag_ABI_FP_number_model
	.eabi_attribute	24, 1	@ Tag_ABI_align_needed
	.eabi_attribute	25, 1	@ Tag_ABI_align_preserved
	.eabi_attribute	38, 1	@ Tag_ABI_FP_16bit_format
	.eabi_attribute	18, 4	@ Tag_ABI_PCS_wchar_t
	.eabi_attribute	26, 2	@ Tag_ABI_enum_size
	.eabi_attribute	14, 0	@ Tag_ABI_PCS_R9_use
	.file	"app.c"
	.file	1 "C:\\Users\\Anaya\\AppData\\Local\\Keil_v5\\ARM\\ARMCLANG\\bin\\..\\include" "stdint.h"
	.file	2 "D:\\work\\dheeraj\\local\\CEL\\CCC\\CCC_CPU123\\Code" "source/app.c"
	.file	3 "D:\\work\\dheeraj\\local\\CEL\\CCC\\CCC_CPU123\\Code" "source/Include\\app.h"
	.file	4 "D:\\work\\dheeraj\\local\\CEL\\CCC\\CCC_CPU123\\Code" "../../CCC_common/Library/Device/Nuvoton/M261/Include\\wdt_reg.h"
	.section	.text.cpu_sm,"ax",%progbits
	.hidden	cpu_sm                          @ -- Begin function cpu_sm
	.globl	cpu_sm
	.p2align	2
	.type	cpu_sm,%function
	.code	16                              @ @cpu_sm
	.thumb_func
cpu_sm:
.Lfunc_begin0:
	.loc	2 70 0                          @ source/app.c:70:0
	.fnstart
	.cfi_sections .debug_frame
	.cfi_startproc
@ %bb.0:
	.save	{r4, lr}
	push	{r4, lr}
	.cfi_def_cfa_offset 8
	.cfi_offset lr, -4
	.cfi_offset r4, -8
	.pad	#16
	sub	sp, #16
	.cfi_def_cfa_offset 24
.Ltmp0:
	.loc	2 75 9 prologue_end             @ source/app.c:75:9
	ldr	r0, __arm_cp.0_0
	ldr	r0, [r0]
	.loc	2 75 2 is_stmt 0                @ source/app.c:75:2
	str	r0, [sp, #4]                    @ 4-byte Spill
	cmp	r0, #3
	bls	.LBB0_1
	b	.LBB0_38
.LBB0_1:
	ldr	r1, [sp, #4]                    @ 4-byte Reload
	lsls	r2, r1, #2
	adr	r0, .LJTI0_0
	adds	r0, r0, r2
	mov	pc, r0
@ %bb.2:
	.loc	2 0 2                           @ source/app.c:0:2
	.p2align	2
.LJTI0_0:
	b.w	.LBB0_3
	b.w	.LBB0_4
	b.w	.LBB0_8
	b.w	.LBB0_14
.LBB0_3:
.Ltmp1:
	.loc	2 78 4 is_stmt 1                @ source/app.c:78:4
	bl	bsp_ctor
	.loc	2 80 4                          @ source/app.c:80:4
	bl	interlock_set_defaults
	.loc	2 81 4                          @ source/app.c:81:4
	bl	set_ctrl_defaults
	movw	r0, #2000
	.loc	2 89 4                          @ source/app.c:89:4
	bl	wait_ms
	.loc	2 91 14                         @ source/app.c:91:14
	ldr	r1, __arm_cp.0_0
	movs	r0, #1
	str	r0, [r1]
	.loc	2 92 4                          @ source/app.c:92:4
	b	.LBB0_39
.LBB0_4:
	.loc	2 94 32                         @ source/app.c:94:32
	bl	get_flash_checksum
	mov	r2, r0
	.loc	2 94 30 is_stmt 0               @ source/app.c:94:30
	ldr	r0, __arm_cp.0_4
	movs	r1, #191
	strb	r2, [r0, r1]
.Ltmp2:
	.loc	2 96 10 is_stmt 1               @ source/app.c:96:10
	ldrb	r0, [r0, r1]
.Ltmp3:
	.loc	2 96 7 is_stmt 0                @ source/app.c:96:7
	cbz	r0, .LBB0_7
	b	.LBB0_5
.LBB0_5:
.Ltmp4:
	.loc	2 98 5 is_stmt 1                @ source/app.c:98:5
	b	.LBB0_6
.LBB0_6:                                @ =>This Inner Loop Header: Depth=1
.Ltmp5:
	.loc	2 98 5 is_stmt 0                @ source/app.c:98:5
	b	.LBB0_6
.Ltmp6:
.LBB0_7:
	.loc	2 101 14 is_stmt 1              @ source/app.c:101:14
	ldr	r1, __arm_cp.0_0
	movs	r0, #2
	str	r0, [r1]
	.loc	2 102 4                         @ source/app.c:102:4
	b	.LBB0_39
.LBB0_8:
	.loc	2 108 20                        @ source/app.c:108:20
	ldr	r0, __arm_cp.0_1
	ldrb	r1, [r0]
	movs	r0, #1
	.loc	2 108 37 is_stmt 0              @ source/app.c:108:37
	lsls	r1, r1, #29
	lsrs	r1, r1, #31
	str	r0, [sp]                        @ 4-byte Spill
	cbnz	r1, .LBB0_10
	b	.LBB0_9
.LBB0_9:
	.loc	2 108 51                        @ source/app.c:108:51
	ldr	r0, __arm_cp.0_1
	ldrb	r0, [r0]
	.loc	2 108 62                        @ source/app.c:108:62
	lsls	r0, r0, #28
	lsrs	r0, r0, #31
	.loc	2 108 37                        @ source/app.c:108:37
	str	r0, [sp]                        @ 4-byte Spill
	b	.LBB0_10
.LBB0_10:
	.loc	2 0 37                          @ source/app.c:0:37
	ldr	r1, [sp]                        @ 4-byte Reload
	movs	r2, #1
	.loc	2 108 6                         @ source/app.c:108:6
	ands	r1, r2
	add	r0, sp, #8
	strb	r1, [r0]
	.loc	2 109 20 is_stmt 1              @ source/app.c:109:20
	ldr	r1, __arm_cp.0_1
	ldrb	r3, [r1]
	lsls	r3, r3, #26
	lsrs	r4, r3, #30
	.loc	2 109 35 is_stmt 0              @ source/app.c:109:35
	subs	r3, r4, #1
	sbcs	r4, r3
	.loc	2 109 6                         @ source/app.c:109:6
	ldrb	r3, [r0]
	ands	r3, r4
	strb	r3, [r0]
	.loc	2 110 20 is_stmt 1              @ source/app.c:110:20
	ldrb	r1, [r1, #1]
	.loc	2 110 6 is_stmt 0               @ source/app.c:110:6
	ldrb	r3, [r0]
	.loc	2 110 10                        @ source/app.c:110:10
	ands	r1, r3
	.loc	2 110 6                         @ source/app.c:110:6
	ands	r1, r2
	strb	r1, [r0]
	ldr	r2, __arm_cp.0_2
	ldr	r1, __arm_cp.0_3
	.loc	2 112 4 is_stmt 1               @ source/app.c:112:4
	str	r1, [r2]
.Ltmp7:
	.loc	2 113 8                         @ source/app.c:113:8
	ldrb	r0, [r0]
.Ltmp8:
	.loc	2 113 8 is_stmt 0               @ source/app.c:113:8
	lsls	r0, r0, #31
	cbz	r0, .LBB0_12
	b	.LBB0_11
.LBB0_11:
.Ltmp9:
	.loc	2 114 15 is_stmt 1              @ source/app.c:114:15
	ldr	r1, __arm_cp.0_0
	movs	r0, #3
	str	r0, [r1]
	.loc	2 115 4                         @ source/app.c:115:4
	b	.LBB0_13
.Ltmp10:
.LBB0_12:
	.loc	2 117 15                        @ source/app.c:117:15
	ldr	r1, __arm_cp.0_0
	movs	r0, #2
	str	r0, [r1]
	b	.LBB0_13
.Ltmp11:
.LBB0_13:
	.loc	2 113 8                         @ source/app.c:113:8
	b	.LBB0_14
.Ltmp12:
.LBB0_14:
	.loc	2 0 8 is_stmt 0                 @ source/app.c:0:8
	add	r1, sp, #12
	movs	r0, #0
.Ltmp13:
	.loc	2 121 9 is_stmt 1               @ source/app.c:121:9
	strb	r0, [r1]
	.loc	2 121 8 is_stmt 0               @ source/app.c:121:8
	b	.LBB0_15
.LBB0_15:                               @ =>This Inner Loop Header: Depth=1
	.loc	2 0 8                           @ source/app.c:0:8
	add	r0, sp, #12
.Ltmp14:
	.loc	2 121 13                        @ source/app.c:121:13
	ldrb	r0, [r0]
.Ltmp15:
	.loc	2 121 4                         @ source/app.c:121:4
	cmp	r0, #4
	bhi	.LBB0_18
	b	.LBB0_16
.LBB0_16:                               @   in Loop: Header=BB0_15 Depth=1
	.loc	2 0 4                           @ source/app.c:0:4
	add	r1, sp, #12
.Ltmp16:
	.loc	2 122 36 is_stmt 1              @ source/app.c:122:36
	ldrb	r2, [r1]
	.loc	2 122 21 is_stmt 0              @ source/app.c:122:21
	ldr	r0, __arm_cp.0_4
	adds	r0, r0, r2
	ldrb	r0, [r0, #6]
	.loc	2 122 16                        @ source/app.c:122:16
	ldrb	r2, [r1]
	.loc	2 122 5                         @ source/app.c:122:5
	ldr	r1, __arm_cp.0_10
	.loc	2 122 19                        @ source/app.c:122:19
	strb	r0, [r1, r2]
	.loc	2 123 4 is_stmt 1               @ source/app.c:123:4
	b	.LBB0_17
.Ltmp17:
.LBB0_17:                               @   in Loop: Header=BB0_15 Depth=1
	.loc	2 121 37                        @ source/app.c:121:37
	ldr	r0, [sp, #12]
	adds	r0, r0, #1
	add	r1, sp, #12
	strb	r0, [r1]
	.loc	2 121 4 is_stmt 0               @ source/app.c:121:4
	b	.LBB0_15
.Ltmp18:
.LBB0_18:
	.loc	2 0 4                           @ source/app.c:0:4
	add	r1, sp, #12
	movs	r0, #0
.Ltmp19:
	.loc	2 124 9 is_stmt 1               @ source/app.c:124:9
	strb	r0, [r1]
	.loc	2 124 8 is_stmt 0               @ source/app.c:124:8
	b	.LBB0_19
.LBB0_19:                               @ =>This Inner Loop Header: Depth=1
	.loc	2 0 8                           @ source/app.c:0:8
	add	r0, sp, #12
.Ltmp20:
	.loc	2 124 13                        @ source/app.c:124:13
	ldrb	r0, [r0]
.Ltmp21:
	.loc	2 124 4                         @ source/app.c:124:4
	cmp	r0, #4
	bhi	.LBB0_22
	b	.LBB0_20
.LBB0_20:                               @   in Loop: Header=BB0_19 Depth=1
	.loc	2 0 4                           @ source/app.c:0:4
	add	r1, sp, #12
.Ltmp22:
	.loc	2 125 33 is_stmt 1              @ source/app.c:125:33
	ldrb	r2, [r1]
	.loc	2 125 24 is_stmt 0              @ source/app.c:125:24
	ldr	r0, __arm_cp.0_4
	adds	r0, r0, r2
	ldrb	r0, [r0, #11]
	.loc	2 125 19                        @ source/app.c:125:19
	ldrb	r2, [r1]
	.loc	2 125 5                         @ source/app.c:125:5
	ldr	r1, __arm_cp.0_9
	.loc	2 125 22                        @ source/app.c:125:22
	strb	r0, [r1, r2]
	.loc	2 126 4 is_stmt 1               @ source/app.c:126:4
	b	.LBB0_21
.Ltmp23:
.LBB0_21:                               @   in Loop: Header=BB0_19 Depth=1
	.loc	2 124 37                        @ source/app.c:124:37
	ldr	r0, [sp, #12]
	adds	r0, r0, #1
	add	r1, sp, #12
	strb	r0, [r1]
	.loc	2 124 4 is_stmt 0               @ source/app.c:124:4
	b	.LBB0_19
.Ltmp24:
.LBB0_22:
	.loc	2 0 4                           @ source/app.c:0:4
	add	r1, sp, #12
	movs	r0, #0
.Ltmp25:
	.loc	2 127 9 is_stmt 1               @ source/app.c:127:9
	strb	r0, [r1]
	.loc	2 127 8 is_stmt 0               @ source/app.c:127:8
	b	.LBB0_23
.LBB0_23:                               @ =>This Inner Loop Header: Depth=1
	.loc	2 0 8                           @ source/app.c:0:8
	add	r0, sp, #12
.Ltmp26:
	.loc	2 127 13                        @ source/app.c:127:13
	ldrb	r0, [r0]
.Ltmp27:
	.loc	2 127 4                         @ source/app.c:127:4
	cmp	r0, #5
	bhi	.LBB0_26
	b	.LBB0_24
.LBB0_24:                               @   in Loop: Header=BB0_23 Depth=1
	.loc	2 0 4                           @ source/app.c:0:4
	add	r1, sp, #12
.Ltmp28:
	.loc	2 128 33 is_stmt 1              @ source/app.c:128:33
	ldrb	r2, [r1]
	.loc	2 128 24 is_stmt 0              @ source/app.c:128:24
	ldr	r0, __arm_cp.0_4
	adds	r0, r0, r2
	ldrb	r0, [r0, #16]
	.loc	2 128 19                        @ source/app.c:128:19
	ldrb	r2, [r1]
	.loc	2 128 5                         @ source/app.c:128:5
	ldr	r1, __arm_cp.0_8
	.loc	2 128 22                        @ source/app.c:128:22
	strb	r0, [r1, r2]
	.loc	2 129 4 is_stmt 1               @ source/app.c:129:4
	b	.LBB0_25
.Ltmp29:
.LBB0_25:                               @   in Loop: Header=BB0_23 Depth=1
	.loc	2 127 38                        @ source/app.c:127:38
	ldr	r0, [sp, #12]
	adds	r0, r0, #1
	add	r1, sp, #12
	strb	r0, [r1]
	.loc	2 127 4 is_stmt 0               @ source/app.c:127:4
	b	.LBB0_23
.Ltmp30:
.LBB0_26:
	.loc	2 0 4                           @ source/app.c:0:4
	add	r1, sp, #12
	movs	r0, #0
.Ltmp31:
	.loc	2 130 9 is_stmt 1               @ source/app.c:130:9
	strb	r0, [r1]
	.loc	2 130 8 is_stmt 0               @ source/app.c:130:8
	b	.LBB0_27
.LBB0_27:                               @ =>This Inner Loop Header: Depth=1
	.loc	2 0 8                           @ source/app.c:0:8
	add	r0, sp, #12
.Ltmp32:
	.loc	2 130 13                        @ source/app.c:130:13
	ldrb	r0, [r0]
.Ltmp33:
	.loc	2 130 4                         @ source/app.c:130:4
	cmp	r0, #1
	bhi	.LBB0_30
	b	.LBB0_28
.LBB0_28:                               @   in Loop: Header=BB0_27 Depth=1
	.loc	2 0 4                           @ source/app.c:0:4
	add	r1, sp, #12
.Ltmp34:
	.loc	2 131 33 is_stmt 1              @ source/app.c:131:33
	ldrb	r2, [r1]
	.loc	2 131 24 is_stmt 0              @ source/app.c:131:24
	ldr	r0, __arm_cp.0_4
	adds	r0, r0, r2
	ldrb	r0, [r0, #22]
	.loc	2 131 19                        @ source/app.c:131:19
	ldrb	r2, [r1]
	.loc	2 131 5                         @ source/app.c:131:5
	ldr	r1, __arm_cp.0_7
	.loc	2 131 22                        @ source/app.c:131:22
	strb	r0, [r1, r2]
	.loc	2 132 4 is_stmt 1               @ source/app.c:132:4
	b	.LBB0_29
.Ltmp35:
.LBB0_29:                               @   in Loop: Header=BB0_27 Depth=1
	.loc	2 130 38                        @ source/app.c:130:38
	ldr	r0, [sp, #12]
	adds	r0, r0, #1
	add	r1, sp, #12
	strb	r0, [r1]
	.loc	2 130 4 is_stmt 0               @ source/app.c:130:4
	b	.LBB0_27
.Ltmp36:
.LBB0_30:
	.loc	2 133 4 is_stmt 1               @ source/app.c:133:4
	bl	interlock
.Ltmp37:
	.loc	2 138 17                        @ source/app.c:138:17
	ldr	r0, __arm_cp.0_1
.Ltmp38:
	.loc	2 138 7 is_stmt 0               @ source/app.c:138:7
	ldrb	r0, [r0]
	lsls	r0, r0, #31
	cbz	r0, .LBB0_32
	b	.LBB0_31
.LBB0_31:
.Ltmp39:
	.loc	2 139 33 is_stmt 1              @ source/app.c:139:33
	bl	get_flash_checksum
	.loc	2 139 31 is_stmt 0              @ source/app.c:139:31
	ldr	r1, __arm_cp.0_4
	movs	r2, #191
	strb	r0, [r1, r2]
	.loc	2 140 31 is_stmt 1              @ source/app.c:140:31
	ldr	r1, __arm_cp.0_1
	ldrb	r0, [r1]
	movs	r2, #254
	ands	r0, r2
	strb	r0, [r1]
	.loc	2 141 4                         @ source/app.c:141:4
	b	.LBB0_32
.Ltmp40:
.LBB0_32:
	.loc	2 0 4 is_stmt 0                 @ source/app.c:0:4
	ldr	r1, __arm_cp.0_2
	ldr	r0, __arm_cp.0_3
	.loc	2 145 4 is_stmt 1               @ source/app.c:145:4
	str	r0, [r1]
.Ltmp41:
	.loc	2 147 17                        @ source/app.c:147:17
	ldr	r0, __arm_cp.0_1
	ldrb	r0, [r0]
	lsls	r0, r0, #30
	lsrs	r0, r0, #31
.Ltmp42:
	.loc	2 147 7 is_stmt 0               @ source/app.c:147:7
	cbz	r0, .LBB0_35
	b	.LBB0_33
.LBB0_33:
.Ltmp43:
	.loc	2 148 5 is_stmt 1               @ source/app.c:148:5
	b	.LBB0_34
.LBB0_34:                               @ =>This Inner Loop Header: Depth=1
	b	.LBB0_34
.Ltmp44:
.LBB0_35:
	.loc	2 151 7                         @ source/app.c:151:7
	ldr	r0, __arm_cp.0_5
	ldrb	r0, [r0]
.Ltmp45:
	.loc	2 151 7 is_stmt 0               @ source/app.c:151:7
	lsls	r0, r0, #31
	cbz	r0, .LBB0_37
	b	.LBB0_36
.LBB0_36:
.Ltmp46:
	.loc	2 152 18 is_stmt 1              @ source/app.c:152:18
	ldr	r1, __arm_cp.0_5
	movs	r0, #0
	strb	r0, [r1]
	ldr	r1, __arm_cp.0_6
	.loc	2 153 15                        @ source/app.c:153:15
	ldr	r0, [r1]
	.loc	2 153 22 is_stmt 0              @ source/app.c:153:22
	rsbs	r2, r0, #0
	adcs	r0, r2
	.loc	2 153 12                        @ source/app.c:153:12
	str	r0, [r1]
	.loc	2 154 4 is_stmt 1               @ source/app.c:154:4
	b	.LBB0_37
.Ltmp47:
.LBB0_37:
	.loc	2 155 4                         @ source/app.c:155:4
	b	.LBB0_39
.LBB0_38:
	.loc	2 158 4                         @ source/app.c:158:4
	b	.LBB0_39
.Ltmp48:
.LBB0_39:
	.loc	2 160 1 epilogue_begin          @ source/app.c:160:1
	add	sp, #16
	pop	{r4, pc}
.Ltmp49:
	.loc	2 0 1 is_stmt 0                 @ :0:1
.Ltmp50:
	.p2align	2
@ %bb.40:
__arm_cp.0_0:
	.long	cpu_state
.Lcpi_end0:
	.size	__arm_cp.0_0, .Lcpi_end0-__arm_cp.0_0
__arm_cp.0_1:
	.long	ctrls_u
.Lcpi_end1:
	.size	__arm_cp.0_1, .Lcpi_end1-__arm_cp.0_1
__arm_cp.0_2:
	.long	1074003976                      @ 0x40040008
.Lcpi_end2:
	.size	__arm_cp.0_2, .Lcpi_end2-__arm_cp.0_2
__arm_cp.0_3:
	.long	23205                           @ 0x5aa5
.Lcpi_end3:
	.size	__arm_cp.0_3, .Lcpi_end3-__arm_cp.0_3
__arm_cp.0_4:
	.long	db
.Lcpi_end4:
	.size	__arm_cp.0_4, .Lcpi_end4-__arm_cp.0_4
__arm_cp.0_5:
	.long	onesec_pulse
.Lcpi_end5:
	.size	__arm_cp.0_5, .Lcpi_end5-__arm_cp.0_5
__arm_cp.0_6:
	.long	1073760596                      @ 0x40004954
.Lcpi_end6:
	.size	__arm_cp.0_6, .Lcpi_end6-__arm_cp.0_6
__arm_cp.0_7:
	.long	vo_oe_u
.Lcpi_end7:
	.size	__arm_cp.0_7, .Lcpi_end7-__arm_cp.0_7
__arm_cp.0_8:
	.long	lo_oe_u
.Lcpi_end8:
	.size	__arm_cp.0_8, .Lcpi_end8-__arm_cp.0_8
__arm_cp.0_9:
	.long	vi_oe_u
.Lcpi_end9:
	.size	__arm_cp.0_9, .Lcpi_end9-__arm_cp.0_9
__arm_cp.0_10:
	.long	vi_u
.Lcpi_end10:
	.size	__arm_cp.0_10, .Lcpi_end10-__arm_cp.0_10
.Lfunc_end0:
	.size	cpu_sm, .Lfunc_end0-cpu_sm
	.cfi_endproc
	.cantunwind
	.fnend
                                        @ -- End function
	.section	.text.set_ctrl_defaults,"ax",%progbits
	.p2align	2                               @ -- Begin function set_ctrl_defaults
	.type	set_ctrl_defaults,%function
	.code	16                              @ @set_ctrl_defaults
	.thumb_func
set_ctrl_defaults:
.Lfunc_begin1:
	.fnstart
	.cfi_startproc
@ %bb.0:
	.loc	2 805 28 prologue_end is_stmt 1 @ source/app.c:805:28
	ldr	r1, __arm_cp.1_0
	ldrb	r0, [r1]
	movs	r2, #254
	ands	r0, r2
	strb	r0, [r1]
	.loc	2 806 24                        @ source/app.c:806:24
	ldrb	r0, [r1]
	movs	r3, #253
	ands	r0, r3
	strb	r0, [r1]
	.loc	2 807 23                        @ source/app.c:807:23
	ldrb	r0, [r1]
	movs	r3, #251
	ands	r0, r3
	strb	r0, [r1]
	.loc	2 808 23                        @ source/app.c:808:23
	ldrb	r0, [r1]
	movs	r3, #247
	ands	r0, r3
	strb	r0, [r1]
	.loc	2 809 27                        @ source/app.c:809:27
	ldrb	r0, [r1]
	movs	r3, #207
	ands	r0, r3
	strb	r0, [r1]
	.loc	2 810 22                        @ source/app.c:810:22
	ldrb	r0, [r1]
	movs	r3, #191
	ands	r0, r3
	strb	r0, [r1]
	.loc	2 811 24                        @ source/app.c:811:24
	ldrb	r0, [r1]
	movs	r3, #127
	ands	r0, r3
	strb	r0, [r1]
	.loc	2 812 25                        @ source/app.c:812:25
	ldrb	r0, [r1, #1]
	ands	r0, r2
	strb	r0, [r1, #1]
	.loc	2 813 18                        @ source/app.c:813:18
	ldrb	r0, [r1, #1]
	movs	r2, #7
	ands	r0, r2
	strb	r0, [r1, #1]
	.loc	2 814 24                        @ source/app.c:814:24
	ldrb	r0, [r1, #1]
	movs	r2, #6
	orrs	r0, r2
	strb	r0, [r1, #1]
	.loc	2 815 1                         @ source/app.c:815:1
	bx	lr
.Ltmp51:
	.loc	2 0 1 is_stmt 0                 @ :0:1
.Ltmp52:
	.p2align	2
@ %bb.1:
__arm_cp.1_0:
	.long	ctrls_u
.Lcpi_end11:
	.size	__arm_cp.1_0, .Lcpi_end11-__arm_cp.1_0
.Lfunc_end1:
	.size	set_ctrl_defaults, .Lfunc_end1-set_ctrl_defaults
	.cfi_endproc
	.cantunwind
	.fnend
                                        @ -- End function
	.section	.text.get_flash_checksum,"ax",%progbits
	.p2align	2                               @ -- Begin function get_flash_checksum
	.type	get_flash_checksum,%function
	.code	16                              @ @get_flash_checksum
	.thumb_func
get_flash_checksum:
.Lfunc_begin2:
	.loc	2 180 0 is_stmt 1               @ source/app.c:180:0
	.fnstart
	.cfi_startproc
@ %bb.0:
	.save	{r7, lr}
	push	{r7, lr}
	.cfi_def_cfa_offset 8
	.cfi_offset lr, -4
	.cfi_offset r7, -8
	.pad	#16
	sub	sp, #16
	.cfi_def_cfa_offset 24
	add	r1, sp, #12
	movs	r0, #0
.Ltmp53:
	.loc	2 181 10 prologue_end           @ source/app.c:181:10
	str	r0, [sp, #4]                    @ 4-byte Spill
	strb	r0, [r1]
	.loc	2 185 2                         @ source/app.c:185:2
	bl	FMC_Open
	ldr	r0, [sp, #4]                    @ 4-byte Reload
	movw	r1, #22528
	.loc	2 188 19                        @ source/app.c:188:19
	bl	FMC_GetChkSum
	.loc	2 188 17 is_stmt 0              @ source/app.c:188:17
	ldr	r1, __arm_cp.2_0
	movs	r2, #192
	str	r0, [r1, r2]
	.loc	2 190 7 is_stmt 1               @ source/app.c:190:7
	ldr	r0, __arm_cp.2_1
	ldr	r1, [r0]
	.loc	2 190 24 is_stmt 0              @ source/app.c:190:24
	subs	r0, r1, #1
	sbcs	r1, r0
	add	r0, sp, #8
	.loc	2 190 4                         @ source/app.c:190:4
	strb	r1, [r0]
.Ltmp54:
	.loc	2 191 5 is_stmt 1               @ source/app.c:191:5
	ldrb	r0, [r0]
.Ltmp55:
	.loc	2 191 5 is_stmt 0               @ source/app.c:191:5
	lsls	r0, r0, #31
	cbz	r0, .LBB2_2
	b	.LBB2_1
.LBB2_1:
	.loc	2 0 5                           @ source/app.c:0:5
	add	r1, sp, #12
	movs	r0, #1
.Ltmp56:
	.loc	2 192 7 is_stmt 1               @ source/app.c:192:7
	strb	r0, [r1]
	.loc	2 193 2                         @ source/app.c:193:2
	b	.LBB2_3
.Ltmp57:
.LBB2_2:
	.loc	2 0 2 is_stmt 0                 @ source/app.c:0:2
	b	.LBB2_3
.LBB2_3:
	.loc	2 198 2 is_stmt 1               @ source/app.c:198:2
	bl	FMC_Close
	add	r0, sp, #12
	.loc	2 200 9                         @ source/app.c:200:9
	ldrb	r0, [r0]
	.loc	2 200 2 epilogue_begin is_stmt 0 @ source/app.c:200:2
	add	sp, #16
	pop	{r7, pc}
.Ltmp58:
	.loc	2 0 2                           @ :0:2
.Ltmp59:
	.p2align	2
@ %bb.4:
__arm_cp.2_0:
	.long	db
.Lcpi_end12:
	.size	__arm_cp.2_0, .Lcpi_end12-__arm_cp.2_0
__arm_cp.2_1:
	.long	g_FMC_i32ErrCode
.Lcpi_end13:
	.size	__arm_cp.2_1, .Lcpi_end13-__arm_cp.2_1
.Lfunc_end2:
	.size	get_flash_checksum, .Lfunc_end2-get_flash_checksum
	.cfi_endproc
	.cantunwind
	.fnend
                                        @ -- End function
	.section	.text.cpu_fpga_xfer,"ax",%progbits
	.hidden	cpu_fpga_xfer                   @ -- Begin function cpu_fpga_xfer
	.globl	cpu_fpga_xfer
	.p2align	2
	.type	cpu_fpga_xfer,%function
	.code	16                              @ @cpu_fpga_xfer
	.thumb_func
cpu_fpga_xfer:
.Lfunc_begin3:
	.loc	2 232 0 is_stmt 1               @ source/app.c:232:0
	.fnstart
	.cfi_startproc
@ %bb.0:
	.save	{r4, r5, r7, lr}
	push	{r4, r5, r7, lr}
	.cfi_def_cfa_offset 16
	.cfi_offset lr, -4
	.cfi_offset r7, -8
	.cfi_offset r5, -12
	.cfi_offset r4, -16
	.pad	#40
	sub	sp, #40
	.cfi_def_cfa_offset 56
	ldr	r0, __arm_cp.3_0
.Ltmp60:
	.loc	2 237 20 prologue_end           @ source/app.c:237:20
	ldr	r1, [r0]
	add	r0, sp, #20
	.loc	2 237 10 is_stmt 0              @ source/app.c:237:10
	strb	r1, [r0]
	ldr	r1, __arm_cp.3_1
	.loc	2 238 16 is_stmt 1              @ source/app.c:238:16
	ldr	r1, [r1]
	add	r2, sp, #16
	.loc	2 238 10 is_stmt 0              @ source/app.c:238:10
	strb	r1, [r2]
	.loc	2 249 16 is_stmt 1              @ source/app.c:249:16
	ldrb	r1, [r0]
	movs	r0, #0
	.loc	2 249 29 is_stmt 0              @ source/app.c:249:29
	cmp	r1, #1
	str	r0, [sp, #12]                   @ 4-byte Spill
	bne	.LBB3_2
	b	.LBB3_1
.LBB3_1:
	.loc	2 249 33                        @ source/app.c:249:33
	ldr	r0, __arm_cp.3_2
	ldrb	r0, [r0]
	.loc	2 249 42                        @ source/app.c:249:42
	rsbs	r1, r0, #0
	adcs	r0, r1
	str	r0, [sp, #12]                   @ 4-byte Spill
	b	.LBB3_2
.LBB3_2:
	.loc	2 0 0                           @ source/app.c:0:0
	ldr	r0, [sp, #12]                   @ 4-byte Reload
	movs	r1, #1
	.loc	2 249 13                        @ source/app.c:249:13
	ands	r0, r1
	add	r1, sp, #28
	strb	r0, [r1]
	add	r0, sp, #20
	.loc	2 250 17 is_stmt 1              @ source/app.c:250:17
	ldrb	r1, [r0]
	movs	r0, #0
	.loc	2 250 30 is_stmt 0              @ source/app.c:250:30
	str	r0, [sp, #8]                    @ 4-byte Spill
	cbnz	r1, .LBB3_4
	b	.LBB3_3
.LBB3_3:
	.loc	2 250 34                        @ source/app.c:250:34
	ldr	r0, __arm_cp.3_2
	ldrb	r0, [r0]
	.loc	2 250 43                        @ source/app.c:250:43
	subs	r0, r0, #1
	rsbs	r1, r0, #0
	adcs	r0, r1
	str	r0, [sp, #8]                    @ 4-byte Spill
	b	.LBB3_4
.LBB3_4:
	.loc	2 0 0                           @ source/app.c:0:0
	ldr	r0, [sp, #8]                    @ 4-byte Reload
	movs	r1, #1
	.loc	2 250 14                        @ source/app.c:250:14
	ands	r0, r1
	add	r1, sp, #24
	strb	r0, [r1]
	.loc	2 251 13 is_stmt 1              @ source/app.c:251:13
	ldr	r0, [sp, #20]
	.loc	2 251 11 is_stmt 0              @ source/app.c:251:11
	ldr	r1, __arm_cp.3_2
	strb	r0, [r1]
	add	r0, sp, #16
.Ltmp61:
	.loc	2 253 5 is_stmt 1               @ source/app.c:253:5
	ldrb	r0, [r0]
.Ltmp62:
	.loc	2 253 5 is_stmt 0               @ source/app.c:253:5
	cbnz	r0, .LBB3_6
	b	.LBB3_5
.LBB3_5:
.Ltmp63:
	.loc	2 254 8 is_stmt 1               @ source/app.c:254:8
	ldr	r1, __arm_cp.3_11
	movs	r0, #0
	strb	r0, [r1]
	ldr	r2, __arm_cp.3_14
	movs	r1, #1
	.loc	2 255 17                        @ source/app.c:255:17
	str	r1, [r2]
	.loc	2 256 12                        @ source/app.c:256:12
	ldr	r1, __arm_cp.3_10
	strb	r0, [r1]
	.loc	2 257 8                         @ source/app.c:257:8
	ldr	r1, __arm_cp.3_12
	strb	r0, [r1]
	.loc	2 258 14                        @ source/app.c:258:14
	ldr	r1, __arm_cp.3_3
	strb	r0, [r1]
	.loc	2 259 7                         @ source/app.c:259:7
	ldr	r1, __arm_cp.3_6
	strb	r0, [r1]
	.loc	2 260 7                         @ source/app.c:260:7
	ldr	r1, __arm_cp.3_7
	strb	r0, [r1]
	.loc	2 261 7                         @ source/app.c:261:7
	ldr	r1, __arm_cp.3_9
	strb	r0, [r1]
	.loc	2 262 2                         @ source/app.c:262:2
	b	.LBB3_57
.Ltmp64:
.LBB3_6:
	.loc	2 0 2 is_stmt 0                 @ source/app.c:0:2
	add	r0, sp, #28
.Ltmp65:
	.loc	2 263 11 is_stmt 1              @ source/app.c:263:11
	ldrb	r0, [r0]
.Ltmp66:
	.loc	2 263 11 is_stmt 0              @ source/app.c:263:11
	lsls	r0, r0, #31
	cbnz	r0, .LBB3_7
	b	.LBB3_32
.LBB3_7:
.Ltmp67:
	.loc	2 265 7 is_stmt 1               @ source/app.c:265:7
	ldr	r1, __arm_cp.3_9
	ldrb	r0, [r1]
	adds	r0, r0, #1
	strb	r0, [r1]
	.loc	2 266 10                        @ source/app.c:266:10
	ldr	r0, __arm_cp.3_10
	ldrb	r0, [r0]
	.loc	2 266 3 is_stmt 0               @ source/app.c:266:3
	str	r0, [sp, #4]                    @ 4-byte Spill
	cmp	r0, #3
	bls	.LBB3_8
	b	.LBB3_30
.LBB3_8:
	ldr	r1, [sp, #4]                    @ 4-byte Reload
	lsls	r2, r1, #2
	adr	r0, .LJTI3_1
	adds	r0, r0, r2
	mov	pc, r0
@ %bb.9:
	.loc	2 0 3                           @ source/app.c:0:3
	.p2align	2
.LJTI3_1:
	b.w	.LBB3_10
	b.w	.LBB3_15
	b.w	.LBB3_20
	b.w	.LBB3_25
.LBB3_10:
.Ltmp68:
	.loc	2 268 32 is_stmt 1              @ source/app.c:268:32
	ldr	r0, __arm_cp.3_11
	ldrb	r2, [r0]
	movs	r1, #1
	.loc	2 268 29 is_stmt 0              @ source/app.c:268:29
	lsls	r1, r2
	.loc	2 268 10                        @ source/app.c:268:10
	str	r1, [sp, #36]
	.loc	2 269 11 is_stmt 1              @ source/app.c:269:11
	ldr	r2, [sp, #36]
	.loc	2 269 33 is_stmt 0              @ source/app.c:269:33
	ldr	r1, __arm_cp.3_12
	ldrb	r3, [r1]
	.loc	2 269 18                        @ source/app.c:269:18
	ldr	r1, __arm_cp.3_8
	adds	r1, r1, r3
	ldrb	r1, [r1, #6]
	.loc	2 269 16                        @ source/app.c:269:16
	ands	r2, r1
	.loc	2 269 40                        @ source/app.c:269:40
	subs	r1, r2, #1
	sbcs	r2, r1
	add	r1, sp, #32
	.loc	2 269 7                         @ source/app.c:269:7
	strb	r2, [r1]
	.loc	2 270 21 is_stmt 1              @ source/app.c:270:21
	ldrb	r1, [r1]
	ldr	r2, __arm_cp.3_14
	.loc	2 270 19 is_stmt 0              @ source/app.c:270:19
	str	r1, [r2]
	.loc	2 271 9 is_stmt 1               @ source/app.c:271:9
	ldrb	r1, [r0]
	adds	r1, r1, #1
	strb	r1, [r0]
.Ltmp69:
	.loc	2 272 8                         @ source/app.c:272:8
	ldrb	r0, [r0]
.Ltmp70:
	.loc	2 272 8 is_stmt 0               @ source/app.c:272:8
	cmp	r0, #8
	bne	.LBB3_14
	b	.LBB3_11
.LBB3_11:
.Ltmp71:
	.loc	2 273 11 is_stmt 1              @ source/app.c:273:11
	ldr	r1, __arm_cp.3_11
	movs	r0, #0
	strb	r0, [r1]
	.loc	2 274 10                        @ source/app.c:274:10
	ldr	r0, __arm_cp.3_12
	ldrb	r1, [r0]
	adds	r1, r1, #1
	strb	r1, [r0]
.Ltmp72:
	.loc	2 275 9                         @ source/app.c:275:9
	ldrb	r0, [r0]
.Ltmp73:
	.loc	2 275 9 is_stmt 0               @ source/app.c:275:9
	cmp	r0, #5
	bne	.LBB3_13
	b	.LBB3_12
.LBB3_12:
.Ltmp74:
	.loc	2 276 16 is_stmt 1              @ source/app.c:276:16
	ldr	r1, __arm_cp.3_10
	movs	r0, #1
	strb	r0, [r1]
	.loc	2 277 12                        @ source/app.c:277:12
	ldr	r1, __arm_cp.3_12
	movs	r0, #0
	strb	r0, [r1]
	.loc	2 278 6                         @ source/app.c:278:6
	b	.LBB3_13
.Ltmp75:
.LBB3_13:
	.loc	2 279 5                         @ source/app.c:279:5
	b	.LBB3_14
.Ltmp76:
.LBB3_14:
	.loc	2 280 5                         @ source/app.c:280:5
	b	.LBB3_31
.LBB3_15:
	.loc	2 282 32                        @ source/app.c:282:32
	ldr	r0, __arm_cp.3_11
	ldrb	r2, [r0]
	movs	r1, #1
	.loc	2 282 29 is_stmt 0              @ source/app.c:282:29
	lsls	r1, r2
	.loc	2 282 10                        @ source/app.c:282:10
	str	r1, [sp, #36]
	.loc	2 283 11 is_stmt 1              @ source/app.c:283:11
	ldr	r2, [sp, #36]
	.loc	2 283 29 is_stmt 0              @ source/app.c:283:29
	ldr	r1, __arm_cp.3_12
	ldrb	r3, [r1]
	.loc	2 283 18                        @ source/app.c:283:18
	ldr	r1, __arm_cp.3_16
	ldrb	r1, [r1, r3]
	.loc	2 283 16                        @ source/app.c:283:16
	ands	r2, r1
	.loc	2 283 36                        @ source/app.c:283:36
	subs	r1, r2, #1
	sbcs	r2, r1
	add	r1, sp, #32
	.loc	2 283 7                         @ source/app.c:283:7
	strb	r2, [r1]
	.loc	2 284 21 is_stmt 1              @ source/app.c:284:21
	ldrb	r1, [r1]
	ldr	r2, __arm_cp.3_14
	.loc	2 284 19 is_stmt 0              @ source/app.c:284:19
	str	r1, [r2]
	.loc	2 285 9 is_stmt 1               @ source/app.c:285:9
	ldrb	r1, [r0]
	adds	r1, r1, #1
	strb	r1, [r0]
.Ltmp77:
	.loc	2 286 8                         @ source/app.c:286:8
	ldrb	r0, [r0]
.Ltmp78:
	.loc	2 286 8 is_stmt 0               @ source/app.c:286:8
	cmp	r0, #8
	bne	.LBB3_19
	b	.LBB3_16
.LBB3_16:
.Ltmp79:
	.loc	2 287 11 is_stmt 1              @ source/app.c:287:11
	ldr	r1, __arm_cp.3_11
	movs	r0, #0
	strb	r0, [r1]
	.loc	2 288 10                        @ source/app.c:288:10
	ldr	r0, __arm_cp.3_12
	ldrb	r1, [r0]
	adds	r1, r1, #1
	strb	r1, [r0]
.Ltmp80:
	.loc	2 289 9                         @ source/app.c:289:9
	ldrb	r0, [r0]
.Ltmp81:
	.loc	2 289 9 is_stmt 0               @ source/app.c:289:9
	cmp	r0, #2
	bne	.LBB3_18
	b	.LBB3_17
.LBB3_17:
.Ltmp82:
	.loc	2 290 12 is_stmt 1              @ source/app.c:290:12
	ldr	r1, __arm_cp.3_12
	movs	r0, #0
	strb	r0, [r1]
	.loc	2 291 16                        @ source/app.c:291:16
	ldr	r1, __arm_cp.3_10
	movs	r0, #2
	strb	r0, [r1]
	.loc	2 292 6                         @ source/app.c:292:6
	b	.LBB3_18
.Ltmp83:
.LBB3_18:
	.loc	2 293 5                         @ source/app.c:293:5
	b	.LBB3_19
.Ltmp84:
.LBB3_19:
	.loc	2 294 5                         @ source/app.c:294:5
	b	.LBB3_31
.LBB3_20:
	.loc	2 296 32                        @ source/app.c:296:32
	ldr	r0, __arm_cp.3_11
	ldrb	r2, [r0]
	movs	r1, #1
	.loc	2 296 29 is_stmt 0              @ source/app.c:296:29
	lsls	r1, r2
	.loc	2 296 10                        @ source/app.c:296:10
	str	r1, [sp, #36]
	.loc	2 297 11 is_stmt 1              @ source/app.c:297:11
	ldr	r2, [sp, #36]
	.loc	2 297 29 is_stmt 0              @ source/app.c:297:29
	ldr	r1, __arm_cp.3_12
	ldrb	r3, [r1]
	.loc	2 297 18                        @ source/app.c:297:18
	ldr	r1, __arm_cp.3_15
	ldrb	r1, [r1, r3]
	.loc	2 297 16                        @ source/app.c:297:16
	ands	r2, r1
	.loc	2 297 36                        @ source/app.c:297:36
	subs	r1, r2, #1
	sbcs	r2, r1
	add	r1, sp, #32
	.loc	2 297 7                         @ source/app.c:297:7
	strb	r2, [r1]
	.loc	2 298 21 is_stmt 1              @ source/app.c:298:21
	ldrb	r1, [r1]
	ldr	r2, __arm_cp.3_14
	.loc	2 298 19 is_stmt 0              @ source/app.c:298:19
	str	r1, [r2]
	.loc	2 299 9 is_stmt 1               @ source/app.c:299:9
	ldrb	r1, [r0]
	adds	r1, r1, #1
	strb	r1, [r0]
.Ltmp85:
	.loc	2 300 8                         @ source/app.c:300:8
	ldrb	r0, [r0]
.Ltmp86:
	.loc	2 300 8 is_stmt 0               @ source/app.c:300:8
	cmp	r0, #8
	bne	.LBB3_24
	b	.LBB3_21
.LBB3_21:
.Ltmp87:
	.loc	2 301 11 is_stmt 1              @ source/app.c:301:11
	ldr	r1, __arm_cp.3_11
	movs	r0, #0
	strb	r0, [r1]
	.loc	2 302 10                        @ source/app.c:302:10
	ldr	r0, __arm_cp.3_12
	ldrb	r1, [r0]
	adds	r1, r1, #1
	strb	r1, [r0]
.Ltmp88:
	.loc	2 303 9                         @ source/app.c:303:9
	ldrb	r0, [r0]
.Ltmp89:
	.loc	2 303 9 is_stmt 0               @ source/app.c:303:9
	cmp	r0, #6
	bne	.LBB3_23
	b	.LBB3_22
.LBB3_22:
.Ltmp90:
	.loc	2 304 12 is_stmt 1              @ source/app.c:304:12
	ldr	r1, __arm_cp.3_12
	movs	r0, #0
	strb	r0, [r1]
	.loc	2 305 16                        @ source/app.c:305:16
	ldr	r1, __arm_cp.3_10
	movs	r0, #3
	strb	r0, [r1]
	.loc	2 306 6                         @ source/app.c:306:6
	b	.LBB3_23
.Ltmp91:
.LBB3_23:
	.loc	2 307 5                         @ source/app.c:307:5
	b	.LBB3_24
.Ltmp92:
.LBB3_24:
	.loc	2 308 5                         @ source/app.c:308:5
	b	.LBB3_31
.LBB3_25:
	.loc	2 310 32                        @ source/app.c:310:32
	ldr	r0, __arm_cp.3_11
	ldrb	r2, [r0]
	movs	r1, #1
	.loc	2 310 29 is_stmt 0              @ source/app.c:310:29
	lsls	r1, r2
	.loc	2 310 10                        @ source/app.c:310:10
	str	r1, [sp, #36]
	.loc	2 311 11 is_stmt 1              @ source/app.c:311:11
	ldr	r2, [sp, #36]
	.loc	2 311 30 is_stmt 0              @ source/app.c:311:30
	ldr	r1, __arm_cp.3_12
	ldrb	r3, [r1]
	.loc	2 311 18                        @ source/app.c:311:18
	ldr	r1, __arm_cp.3_13
	ldrb	r1, [r1, r3]
	.loc	2 311 16                        @ source/app.c:311:16
	ands	r2, r1
	.loc	2 311 37                        @ source/app.c:311:37
	subs	r1, r2, #1
	sbcs	r2, r1
	add	r1, sp, #32
	.loc	2 311 7                         @ source/app.c:311:7
	strb	r2, [r1]
	.loc	2 312 21 is_stmt 1              @ source/app.c:312:21
	ldrb	r1, [r1]
	ldr	r2, __arm_cp.3_14
	.loc	2 312 19 is_stmt 0              @ source/app.c:312:19
	str	r1, [r2]
	.loc	2 313 9 is_stmt 1               @ source/app.c:313:9
	ldrb	r1, [r0]
	adds	r1, r1, #1
	strb	r1, [r0]
.Ltmp93:
	.loc	2 314 8                         @ source/app.c:314:8
	ldrb	r0, [r0]
.Ltmp94:
	.loc	2 314 8 is_stmt 0               @ source/app.c:314:8
	cmp	r0, #8
	bne	.LBB3_29
	b	.LBB3_26
.LBB3_26:
.Ltmp95:
	.loc	2 315 11 is_stmt 1              @ source/app.c:315:11
	ldr	r1, __arm_cp.3_11
	movs	r0, #0
	strb	r0, [r1]
	.loc	2 316 10                        @ source/app.c:316:10
	ldr	r0, __arm_cp.3_12
	ldrb	r1, [r0]
	adds	r1, r1, #1
	strb	r1, [r0]
.Ltmp96:
	.loc	2 317 9                         @ source/app.c:317:9
	ldrb	r0, [r0]
.Ltmp97:
	.loc	2 317 9 is_stmt 0               @ source/app.c:317:9
	cmp	r0, #5
	bne	.LBB3_28
	b	.LBB3_27
.LBB3_27:
.Ltmp98:
	.loc	2 318 12 is_stmt 1              @ source/app.c:318:12
	ldr	r1, __arm_cp.3_12
	movs	r0, #0
	strb	r0, [r1]
	.loc	2 319 16                        @ source/app.c:319:16
	ldr	r1, __arm_cp.3_10
	strb	r0, [r1]
	.loc	2 320 6                         @ source/app.c:320:6
	b	.LBB3_28
.Ltmp99:
.LBB3_28:
	.loc	2 321 5                         @ source/app.c:321:5
	b	.LBB3_29
.Ltmp100:
.LBB3_29:
	.loc	2 322 5                         @ source/app.c:322:5
	b	.LBB3_31
.LBB3_30:
	.loc	2 326 5                         @ source/app.c:326:5
	b	.LBB3_31
.Ltmp101:
.LBB3_31:
	.loc	2 328 2                         @ source/app.c:328:2
	b	.LBB3_56
.Ltmp102:
.LBB3_32:
	.loc	2 0 2 is_stmt 0                 @ source/app.c:0:2
	add	r0, sp, #24
.Ltmp103:
	.loc	2 329 11 is_stmt 1              @ source/app.c:329:11
	ldrb	r0, [r0]
.Ltmp104:
	.loc	2 329 11 is_stmt 0              @ source/app.c:329:11
	lsls	r0, r0, #31
	cbnz	r0, .LBB3_33
	b	.LBB3_54
.LBB3_33:
.Ltmp105:
	.loc	2 330 10 is_stmt 1              @ source/app.c:330:10
	ldr	r0, __arm_cp.3_3
	ldrb	r0, [r0]
	.loc	2 330 3 is_stmt 0               @ source/app.c:330:3
	str	r0, [sp]                        @ 4-byte Spill
	cmp	r0, #3
	bls	.LBB3_34
	b	.LBB3_52
.LBB3_34:
	ldr	r1, [sp]                        @ 4-byte Reload
	lsls	r2, r1, #2
	adr	r0, .LJTI3_0
	adds	r0, r0, r2
	mov	pc, r0
@ %bb.35:
	.loc	2 0 3                           @ source/app.c:0:3
	.p2align	2
.LJTI3_0:
	b.w	.LBB3_36
	b.w	.LBB3_41
	b.w	.LBB3_46
	b.w	.LBB3_51
.LBB3_36:
.Ltmp106:
	.loc	2 333 12 is_stmt 1              @ source/app.c:333:12
	ldr	r1, __arm_cp.3_4
	ldrb	r0, [r1]
	lsrs	r0, r0, #1
	strb	r0, [r1]
	.loc	2 334 12                        @ source/app.c:334:12
	ldrb	r0, [r1]
	movs	r2, #127
	ands	r0, r2
	strb	r0, [r1]
	ldr	r0, __arm_cp.3_5
	.loc	2 335 17                        @ source/app.c:335:17
	ldr	r0, [r0]
	.loc	2 335 31 is_stmt 0              @ source/app.c:335:31
	lsls	r2, r0, #7
	.loc	2 335 12                        @ source/app.c:335:12
	ldrb	r0, [r1]
	orrs	r0, r2
	strb	r0, [r1]
	.loc	2 336 8 is_stmt 1               @ source/app.c:336:8
	ldr	r0, __arm_cp.3_6
	ldrb	r1, [r0]
	adds	r1, r1, #1
	strb	r1, [r0]
.Ltmp107:
	.loc	2 337 8                         @ source/app.c:337:8
	ldrb	r0, [r0]
.Ltmp108:
	.loc	2 337 8 is_stmt 0               @ source/app.c:337:8
	cmp	r0, #8
	bne	.LBB3_40
	b	.LBB3_37
.LBB3_37:
.Ltmp109:
	.loc	2 338 10 is_stmt 1              @ source/app.c:338:10
	ldr	r0, __arm_cp.3_6
	movs	r1, #0
	strb	r1, [r0]
	.loc	2 339 22                        @ source/app.c:339:22
	ldr	r2, __arm_cp.3_4
	ldrb	r3, [r2]
	.loc	2 339 15 is_stmt 0              @ source/app.c:339:15
	ldr	r0, __arm_cp.3_7
	ldrb	r5, [r0]
	.loc	2 339 6                         @ source/app.c:339:6
	ldr	r4, __arm_cp.3_8
	adds	r4, r4, r5
	.loc	2 339 20                        @ source/app.c:339:20
	strb	r3, [r4, #11]
	.loc	2 340 13 is_stmt 1              @ source/app.c:340:13
	strb	r1, [r2]
	.loc	2 341 9                         @ source/app.c:341:9
	ldrb	r1, [r0]
	adds	r1, r1, #1
	strb	r1, [r0]
.Ltmp110:
	.loc	2 342 9                         @ source/app.c:342:9
	ldrb	r0, [r0]
.Ltmp111:
	.loc	2 342 9 is_stmt 0               @ source/app.c:342:9
	cmp	r0, #5
	bne	.LBB3_39
	b	.LBB3_38
.LBB3_38:
.Ltmp112:
	.loc	2 343 18 is_stmt 1              @ source/app.c:343:18
	ldr	r1, __arm_cp.3_3
	movs	r0, #1
	strb	r0, [r1]
	.loc	2 344 11                        @ source/app.c:344:11
	ldr	r1, __arm_cp.3_7
	movs	r0, #0
	strb	r0, [r1]
	.loc	2 345 6                         @ source/app.c:345:6
	b	.LBB3_39
.Ltmp113:
.LBB3_39:
	.loc	2 346 5                         @ source/app.c:346:5
	b	.LBB3_40
.Ltmp114:
.LBB3_40:
	.loc	2 347 5                         @ source/app.c:347:5
	b	.LBB3_53
.LBB3_41:
	.loc	2 349 12                        @ source/app.c:349:12
	ldr	r1, __arm_cp.3_4
	ldrb	r0, [r1]
	lsrs	r0, r0, #1
	strb	r0, [r1]
	.loc	2 350 12                        @ source/app.c:350:12
	ldrb	r0, [r1]
	movs	r2, #127
	ands	r0, r2
	strb	r0, [r1]
	ldr	r0, __arm_cp.3_5
	.loc	2 351 17                        @ source/app.c:351:17
	ldr	r0, [r0]
	.loc	2 351 31 is_stmt 0              @ source/app.c:351:31
	lsls	r2, r0, #7
	.loc	2 351 12                        @ source/app.c:351:12
	ldrb	r0, [r1]
	orrs	r0, r2
	strb	r0, [r1]
	.loc	2 352 8 is_stmt 1               @ source/app.c:352:8
	ldr	r0, __arm_cp.3_6
	ldrb	r1, [r0]
	adds	r1, r1, #1
	strb	r1, [r0]
.Ltmp115:
	.loc	2 353 8                         @ source/app.c:353:8
	ldrb	r0, [r0]
.Ltmp116:
	.loc	2 353 8 is_stmt 0               @ source/app.c:353:8
	cmp	r0, #8
	bne	.LBB3_45
	b	.LBB3_42
.LBB3_42:
.Ltmp117:
	.loc	2 354 10 is_stmt 1              @ source/app.c:354:10
	ldr	r0, __arm_cp.3_6
	movs	r1, #0
	strb	r1, [r0]
	.loc	2 355 22                        @ source/app.c:355:22
	ldr	r2, __arm_cp.3_4
	ldrb	r3, [r2]
	.loc	2 355 15 is_stmt 0              @ source/app.c:355:15
	ldr	r0, __arm_cp.3_7
	ldrb	r5, [r0]
	.loc	2 355 6                         @ source/app.c:355:6
	ldr	r4, __arm_cp.3_8
	adds	r4, r4, r5
	.loc	2 355 20                        @ source/app.c:355:20
	strb	r3, [r4, #22]
	.loc	2 356 13 is_stmt 1              @ source/app.c:356:13
	strb	r1, [r2]
	.loc	2 357 9                         @ source/app.c:357:9
	ldrb	r1, [r0]
	adds	r1, r1, #1
	strb	r1, [r0]
.Ltmp118:
	.loc	2 358 9                         @ source/app.c:358:9
	ldrb	r0, [r0]
.Ltmp119:
	.loc	2 358 9 is_stmt 0               @ source/app.c:358:9
	cmp	r0, #2
	bne	.LBB3_44
	b	.LBB3_43
.LBB3_43:
.Ltmp120:
	.loc	2 359 18 is_stmt 1              @ source/app.c:359:18
	ldr	r1, __arm_cp.3_3
	movs	r0, #2
	strb	r0, [r1]
	.loc	2 360 11                        @ source/app.c:360:11
	ldr	r1, __arm_cp.3_7
	movs	r0, #0
	strb	r0, [r1]
	.loc	2 361 6                         @ source/app.c:361:6
	b	.LBB3_44
.Ltmp121:
.LBB3_44:
	.loc	2 362 5                         @ source/app.c:362:5
	b	.LBB3_45
.Ltmp122:
.LBB3_45:
	.loc	2 363 5                         @ source/app.c:363:5
	b	.LBB3_53
.LBB3_46:
	.loc	2 365 12                        @ source/app.c:365:12
	ldr	r1, __arm_cp.3_4
	ldrb	r0, [r1]
	lsrs	r0, r0, #1
	strb	r0, [r1]
	.loc	2 366 12                        @ source/app.c:366:12
	ldrb	r0, [r1]
	movs	r2, #127
	ands	r0, r2
	strb	r0, [r1]
	ldr	r0, __arm_cp.3_5
	.loc	2 367 26                        @ source/app.c:367:26
	ldr	r0, [r0]
	.loc	2 367 40 is_stmt 0              @ source/app.c:367:40
	lsls	r2, r0, #7
	.loc	2 367 12                        @ source/app.c:367:12
	ldrb	r0, [r1]
	orrs	r0, r2
	strb	r0, [r1]
	.loc	2 368 8 is_stmt 1               @ source/app.c:368:8
	ldr	r0, __arm_cp.3_6
	ldrb	r1, [r0]
	adds	r1, r1, #1
	strb	r1, [r0]
.Ltmp123:
	.loc	2 369 8                         @ source/app.c:369:8
	ldrb	r0, [r0]
.Ltmp124:
	.loc	2 369 8 is_stmt 0               @ source/app.c:369:8
	cmp	r0, #8
	bne	.LBB3_50
	b	.LBB3_47
.LBB3_47:
.Ltmp125:
	.loc	2 370 10 is_stmt 1              @ source/app.c:370:10
	ldr	r0, __arm_cp.3_6
	movs	r1, #0
	strb	r1, [r0]
	.loc	2 371 22                        @ source/app.c:371:22
	ldr	r2, __arm_cp.3_4
	ldrb	r3, [r2]
	.loc	2 371 15 is_stmt 0              @ source/app.c:371:15
	ldr	r0, __arm_cp.3_7
	ldrb	r5, [r0]
	.loc	2 371 6                         @ source/app.c:371:6
	ldr	r4, __arm_cp.3_8
	adds	r4, r4, r5
	.loc	2 371 20                        @ source/app.c:371:20
	strb	r3, [r4, #16]
	.loc	2 372 13 is_stmt 1              @ source/app.c:372:13
	strb	r1, [r2]
	.loc	2 373 9                         @ source/app.c:373:9
	ldrb	r1, [r0]
	adds	r1, r1, #1
	strb	r1, [r0]
.Ltmp126:
	.loc	2 374 9                         @ source/app.c:374:9
	ldrb	r0, [r0]
.Ltmp127:
	.loc	2 374 9 is_stmt 0               @ source/app.c:374:9
	cmp	r0, #6
	bne	.LBB3_49
	b	.LBB3_48
.LBB3_48:
.Ltmp128:
	.loc	2 375 18 is_stmt 1              @ source/app.c:375:18
	ldr	r1, __arm_cp.3_3
	movs	r0, #3
	strb	r0, [r1]
	.loc	2 376 11                        @ source/app.c:376:11
	ldr	r1, __arm_cp.3_7
	movs	r0, #0
	strb	r0, [r1]
	.loc	2 377 6                         @ source/app.c:377:6
	b	.LBB3_49
.Ltmp129:
.LBB3_49:
	.loc	2 378 5                         @ source/app.c:378:5
	b	.LBB3_50
.Ltmp130:
.LBB3_50:
	.loc	2 379 5                         @ source/app.c:379:5
	b	.LBB3_53
.LBB3_51:
	.loc	2 380 12                        @ source/app.c:380:12
	b	.LBB3_53
.LBB3_52:
	.loc	2 383 6                         @ source/app.c:383:6
	b	.LBB3_53
.Ltmp131:
.LBB3_53:
	.loc	2 385 2                         @ source/app.c:385:2
	b	.LBB3_55
.Ltmp132:
.LBB3_54:
	.loc	2 0 2 is_stmt 0                 @ source/app.c:0:2
	b	.LBB3_55
.LBB3_55:
	b	.LBB3_56
.LBB3_56:
	b	.LBB3_57
.LBB3_57:
	.loc	2 389 1 epilogue_begin is_stmt 1 @ source/app.c:389:1
	add	sp, #40
	pop	{r4, r5, r7, pc}
.Ltmp133:
	.loc	2 0 1 is_stmt 0                 @ :0:1
.Ltmp134:
	.p2align	2
@ %bb.58:
__arm_cp.3_0:
	.long	1073760448                      @ 0x400048c0
.Lcpi_end14:
	.size	__arm_cp.3_0, .Lcpi_end14-__arm_cp.3_0
__arm_cp.3_1:
	.long	1073760452                      @ 0x400048c4
.Lcpi_end15:
	.size	__arm_cp.3_1, .Lcpi_end15-__arm_cp.3_1
__arm_cp.3_2:
	.long	cpu_fpga_xfer.clk_last
.Lcpi_end16:
	.size	__arm_cp.3_2, .Lcpi_end16-__arm_cp.3_2
__arm_cp.3_3:
	.long	cpu_fpga_xfer.sm_state_1
.Lcpi_end17:
	.size	__arm_cp.3_3, .Lcpi_end17-__arm_cp.3_3
__arm_cp.3_4:
	.long	cpu_fpga_xfer.data_1
.Lcpi_end18:
	.size	__arm_cp.3_4, .Lcpi_end18-__arm_cp.3_4
__arm_cp.3_5:
	.long	1073760460                      @ 0x400048cc
.Lcpi_end19:
	.size	__arm_cp.3_5, .Lcpi_end19-__arm_cp.3_5
__arm_cp.3_6:
	.long	cpu_fpga_xfer.i_1
.Lcpi_end20:
	.size	__arm_cp.3_6, .Lcpi_end20-__arm_cp.3_6
__arm_cp.3_7:
	.long	cpu_fpga_xfer.k_1
.Lcpi_end21:
	.size	__arm_cp.3_7, .Lcpi_end21-__arm_cp.3_7
__arm_cp.3_8:
	.long	db
.Lcpi_end22:
	.size	__arm_cp.3_8, .Lcpi_end22-__arm_cp.3_8
__arm_cp.3_9:
	.long	cpu_fpga_xfer.clks
.Lcpi_end23:
	.size	__arm_cp.3_9, .Lcpi_end23-__arm_cp.3_9
__arm_cp.3_10:
	.long	cpu_fpga_xfer.sm_state
.Lcpi_end24:
	.size	__arm_cp.3_10, .Lcpi_end24-__arm_cp.3_10
__arm_cp.3_11:
	.long	cpu_fpga_xfer.st_i
.Lcpi_end25:
	.size	__arm_cp.3_11, .Lcpi_end25-__arm_cp.3_11
__arm_cp.3_12:
	.long	cpu_fpga_xfer.st_k
.Lcpi_end26:
	.size	__arm_cp.3_12, .Lcpi_end26-__arm_cp.3_12
__arm_cp.3_13:
	.long	nvo_u
.Lcpi_end27:
	.size	__arm_cp.3_13, .Lcpi_end27-__arm_cp.3_13
__arm_cp.3_14:
	.long	1073760456                      @ 0x400048c8
.Lcpi_end28:
	.size	__arm_cp.3_14, .Lcpi_end28-__arm_cp.3_14
__arm_cp.3_15:
	.long	lo_u
.Lcpi_end29:
	.size	__arm_cp.3_15, .Lcpi_end29-__arm_cp.3_15
__arm_cp.3_16:
	.long	vo_u
.Lcpi_end30:
	.size	__arm_cp.3_16, .Lcpi_end30-__arm_cp.3_16
.Lfunc_end3:
	.size	cpu_fpga_xfer, .Lfunc_end3-cpu_fpga_xfer
	.cfi_endproc
	.cantunwind
	.fnend
                                        @ -- End function
	.section	.text.vi_process,"ax",%progbits
	.hidden	vi_process                      @ -- Begin function vi_process
	.globl	vi_process
	.p2align	2
	.type	vi_process,%function
	.code	16                              @ @vi_process
	.thumb_func
vi_process:
.Lfunc_begin4:
	.loc	2 417 0 is_stmt 1               @ source/app.c:417:0
	.fnstart
	.cfi_startproc
@ %bb.0:
	.save	{r4, r5, r6, r7, lr}
	push	{r4, r5, r6, r7, lr}
	.cfi_def_cfa_offset 20
	.cfi_offset lr, -4
	.cfi_offset r7, -8
	.cfi_offset r6, -12
	.cfi_offset r5, -16
	.cfi_offset r4, -20
	.pad	#28
	sub	sp, #28
	.cfi_def_cfa_offset 48
.Ltmp135:
	.loc	2 425 10 prologue_end           @ source/app.c:425:10
	ldr	r0, __arm_cp.4_0
	ldrb	r0, [r0]
	.loc	2 425 2 is_stmt 0               @ source/app.c:425:2
	str	r0, [sp, #8]                    @ 4-byte Spill
	cmp	r0, #4
	bls	.LBB4_1
	b	.LBB4_33
.LBB4_1:
	ldr	r1, [sp, #8]                    @ 4-byte Reload
	lsls	r2, r1, #2
	adr	r0, .LJTI4_0
	adds	r0, r0, r2
	mov	pc, r0
@ %bb.2:
	.loc	2 0 2                           @ source/app.c:0:2
	.p2align	2
.LJTI4_0:
	b.w	.LBB4_3
	b.w	.LBB4_7
	b.w	.LBB4_8
	b.w	.LBB4_9
	b.w	.LBB4_10
.LBB4_3:
.Ltmp136:
	.loc	2 427 7 is_stmt 1               @ source/app.c:427:7
	ldr	r0, __arm_cp.4_5
	ldrh	r0, [r0]
.Ltmp137:
	.loc	2 427 7 is_stmt 0               @ source/app.c:427:7
	cbz	r0, .LBB4_5
	b	.LBB4_4
.LBB4_4:
.Ltmp138:
	.loc	2 427 32                        @ source/app.c:427:32
	ldr	r1, __arm_cp.4_5
	ldrh	r0, [r1]
	subs	r0, r0, #1
	strh	r0, [r1]
	.loc	2 427 35                        @ source/app.c:427:35
	b	.LBB4_6
.Ltmp139:
.LBB4_5:
	.loc	2 428 17 is_stmt 1              @ source/app.c:428:17
	ldr	r1, __arm_cp.4_0
	movs	r0, #1
	strb	r0, [r1]
	b	.LBB4_6
.Ltmp140:
.LBB4_6:
	.loc	2 0 17 is_stmt 0                @ source/app.c:0:17
	ldr	r1, __arm_cp.4_6
	movs	r0, #0
	.loc	2 429 14 is_stmt 1              @ source/app.c:429:14
	str	r0, [r1]
	.loc	2 430 4                         @ source/app.c:430:4
	b	.LBB4_34
.LBB4_7:
	.loc	2 0 4 is_stmt 0                 @ source/app.c:0:4
	ldr	r1, __arm_cp.4_6
	movs	r0, #1
	.loc	2 432 14 is_stmt 1              @ source/app.c:432:14
	str	r0, [r1]
	.loc	2 433 11                        @ source/app.c:433:11
	ldr	r1, __arm_cp.4_0
	movs	r0, #2
	strb	r0, [r1]
	.loc	2 434 4                         @ source/app.c:434:4
	b	.LBB4_34
.LBB4_8:
	.loc	2 436 13                        @ source/app.c:436:13
	ldr	r1, __arm_cp.4_2
	movs	r0, #0
	strb	r0, [r1]
	.loc	2 437 11                        @ source/app.c:437:11
	ldr	r1, __arm_cp.4_0
	movs	r0, #3
	strb	r0, [r1]
	.loc	2 438 4                         @ source/app.c:438:4
	b	.LBB4_34
.LBB4_9:
	.loc	2 0 4 is_stmt 0                 @ source/app.c:0:4
	ldr	r1, __arm_cp.4_1
	movs	r0, #1
	.loc	2 440 14 is_stmt 1              @ source/app.c:440:14
	str	r0, [r1]
	.loc	2 441 11                        @ source/app.c:441:11
	ldr	r1, __arm_cp.4_0
	movs	r0, #4
	strb	r0, [r1]
	.loc	2 442 4                         @ source/app.c:442:4
	b	.LBB4_34
.LBB4_10:
	.loc	2 0 4 is_stmt 0                 @ source/app.c:0:4
	ldr	r1, __arm_cp.4_1
	movs	r0, #0
	.loc	2 445 14 is_stmt 1              @ source/app.c:445:14
	str	r0, [r1]
	.loc	2 446 9                         @ source/app.c:446:9
	ldr	r0, __arm_cp.4_2
	ldrb	r1, [r0]
	.loc	2 446 17 is_stmt 0              @ source/app.c:446:17
	lsrs	r1, r1, #1
	add	r2, sp, #24
	.loc	2 446 6                         @ source/app.c:446:6
	strb	r1, [r2]
	ldr	r1, __arm_cp.4_3
	.loc	2 447 8 is_stmt 1               @ source/app.c:447:8
	ldr	r1, [r1]
	add	r2, sp, #20
	.loc	2 447 6 is_stmt 0               @ source/app.c:447:6
	strb	r1, [r2]
.Ltmp141:
	.loc	2 449 8 is_stmt 1               @ source/app.c:449:8
	ldrb	r0, [r0]
.Ltmp142:
	.loc	2 449 7 is_stmt 0               @ source/app.c:449:7
	lsls	r0, r0, #31
	cbnz	r0, .LBB4_15
	b	.LBB4_11
.LBB4_11:
	.loc	2 0 7                           @ source/app.c:0:7
	add	r0, sp, #20
.Ltmp143:
	.loc	2 450 8 is_stmt 1               @ source/app.c:450:8
	ldrb	r0, [r0]
.Ltmp144:
	.loc	2 450 8 is_stmt 0               @ source/app.c:450:8
	cbz	r0, .LBB4_13
	b	.LBB4_12
.LBB4_12:
	.loc	2 0 8                           @ source/app.c:0:8
	add	r0, sp, #24
.Ltmp145:
	.loc	2 450 29                        @ source/app.c:450:29
	ldrb	r0, [r0]
	.loc	2 450 18                        @ source/app.c:450:18
	lsls	r1, r0, #3
	ldr	r0, __arm_cp.4_4
	adds	r1, r0, r1
	.loc	2 450 42                        @ source/app.c:450:42
	ldrb	r0, [r1, #25]
	movs	r2, #1
	orrs	r0, r2
	strb	r0, [r1, #25]
	.loc	2 450 60                        @ source/app.c:450:60
	b	.LBB4_14
.Ltmp146:
.LBB4_13:
	.loc	2 0 60                          @ source/app.c:0:60
	add	r0, sp, #24
.Ltmp147:
	.loc	2 451 23 is_stmt 1              @ source/app.c:451:23
	ldrb	r0, [r0]
	.loc	2 451 12 is_stmt 0              @ source/app.c:451:12
	lsls	r1, r0, #3
	ldr	r0, __arm_cp.4_4
	adds	r1, r0, r1
	.loc	2 451 36                        @ source/app.c:451:36
	ldrb	r0, [r1, #25]
	movs	r2, #254
	ands	r0, r2
	strb	r0, [r1, #25]
	b	.LBB4_14
.Ltmp148:
.LBB4_14:
	.loc	2 452 4 is_stmt 1               @ source/app.c:452:4
	b	.LBB4_19
.Ltmp149:
.LBB4_15:
	.loc	2 0 4 is_stmt 0                 @ source/app.c:0:4
	add	r0, sp, #20
.Ltmp150:
	.loc	2 454 8 is_stmt 1               @ source/app.c:454:8
	ldrb	r0, [r0]
.Ltmp151:
	.loc	2 454 8 is_stmt 0               @ source/app.c:454:8
	cbz	r0, .LBB4_17
	b	.LBB4_16
.LBB4_16:
	.loc	2 0 8                           @ source/app.c:0:8
	add	r0, sp, #24
.Ltmp152:
	.loc	2 454 29                        @ source/app.c:454:29
	ldrb	r0, [r0]
	.loc	2 454 18                        @ source/app.c:454:18
	lsls	r1, r0, #3
	ldr	r0, __arm_cp.4_4
	adds	r1, r0, r1
	.loc	2 454 42                        @ source/app.c:454:42
	ldrb	r0, [r1, #25]
	movs	r2, #2
	orrs	r0, r2
	strb	r0, [r1, #25]
	.loc	2 454 60                        @ source/app.c:454:60
	b	.LBB4_18
.Ltmp153:
.LBB4_17:
	.loc	2 0 60                          @ source/app.c:0:60
	add	r0, sp, #24
.Ltmp154:
	.loc	2 455 23 is_stmt 1              @ source/app.c:455:23
	ldrb	r0, [r0]
	.loc	2 455 12 is_stmt 0              @ source/app.c:455:12
	lsls	r1, r0, #3
	ldr	r0, __arm_cp.4_4
	adds	r1, r0, r1
	.loc	2 455 36                        @ source/app.c:455:36
	ldrb	r0, [r1, #25]
	movs	r2, #253
	ands	r0, r2
	strb	r0, [r1, #25]
	b	.LBB4_18
.Ltmp155:
.LBB4_18:
	.loc	2 0 36                          @ source/app.c:0:36
	b	.LBB4_19
.LBB4_19:
.Ltmp156:
	.loc	2 458 8 is_stmt 1               @ source/app.c:458:8
	ldr	r0, __arm_cp.4_2
	ldrb	r0, [r0]
.Ltmp157:
	.loc	2 458 7 is_stmt 0               @ source/app.c:458:7
	lsls	r0, r0, #31
	cbnz	r0, .LBB4_20
	b	.LBB4_29
.LBB4_20:
.Ltmp158:
	.loc	2 459 16 is_stmt 1              @ source/app.c:459:16
	ldr	r0, __arm_cp.4_2
	ldrb	r1, [r0]
	.loc	2 459 24 is_stmt 0              @ source/app.c:459:24
	lsrs	r1, r1, #3
	add	r2, sp, #16
	.loc	2 459 13                        @ source/app.c:459:13
	strb	r1, [r2]
	.loc	2 460 16 is_stmt 1              @ source/app.c:460:16
	ldrb	r0, [r0]
	.loc	2 460 24 is_stmt 0              @ source/app.c:460:24
	lsrs	r0, r0, #1
	add	r1, sp, #12
	.loc	2 460 13                        @ source/app.c:460:13
	strb	r0, [r1]
	.loc	2 461 12 is_stmt 1              @ source/app.c:461:12
	ldrb	r0, [r1]
	movs	r2, #3
	ands	r0, r2
	strb	r0, [r1]
	.loc	2 462 12                        @ source/app.c:462:12
	ldr	r0, [sp, #12]
	lsls	r0, r0, #1
	strb	r0, [r1]
	add	r2, sp, #24
.Ltmp159:
	.loc	2 465 19                        @ source/app.c:465:19
	ldrb	r0, [r2]
	.loc	2 465 8 is_stmt 0               @ source/app.c:465:8
	ldr	r1, __arm_cp.4_4
	adds	r1, #24
	lsls	r0, r0, #3
	.loc	2 465 22                        @ source/app.c:465:22
	ldrb	r0, [r1, r0]
	.loc	2 465 52                        @ source/app.c:465:52
	ldrb	r2, [r2]
	.loc	2 465 41                        @ source/app.c:465:41
	lsls	r2, r2, #3
	adds	r1, r1, r2
	.loc	2 465 55                        @ source/app.c:465:55
	ldrb	r1, [r1, #1]
.Ltmp160:
	.loc	2 465 8                         @ source/app.c:465:8
	cmp	r0, r1
	beq	.LBB4_24
	b	.LBB4_21
.LBB4_21:
	.loc	2 0 8                           @ source/app.c:0:8
	add	r1, sp, #24
.Ltmp161:
	.loc	2 466 17 is_stmt 1              @ source/app.c:466:17
	ldrb	r2, [r1]
	.loc	2 466 6 is_stmt 0               @ source/app.c:466:6
	ldr	r0, __arm_cp.4_4
	adds	r0, #24
	lsls	r2, r2, #3
	adds	r3, r0, r2
	movs	r2, #2
	.loc	2 466 34                        @ source/app.c:466:34
	strh	r2, [r3, #4]
	.loc	2 467 49 is_stmt 1              @ source/app.c:467:49
	ldrb	r2, [r1]
	.loc	2 467 38 is_stmt 0              @ source/app.c:467:38
	lsls	r2, r2, #3
	adds	r2, r0, r2
	.loc	2 467 52                        @ source/app.c:467:52
	ldrb	r2, [r2, #1]
	.loc	2 467 17                        @ source/app.c:467:17
	ldrb	r3, [r1]
	.loc	2 467 6                         @ source/app.c:467:6
	lsls	r3, r3, #3
	.loc	2 467 36                        @ source/app.c:467:36
	strb	r2, [r0, r3]
	.loc	2 468 17 is_stmt 1              @ source/app.c:468:17
	ldrb	r2, [r1]
	.loc	2 468 6 is_stmt 0               @ source/app.c:468:6
	lsls	r2, r2, #3
	adds	r3, r0, r2
	.loc	2 468 40                        @ source/app.c:468:40
	ldrh	r2, [r3, #6]
	adds	r2, r2, #1
	strh	r2, [r3, #6]
.Ltmp162:
	.loc	2 469 20 is_stmt 1              @ source/app.c:469:20
	ldrb	r1, [r1]
	.loc	2 469 9 is_stmt 0               @ source/app.c:469:9
	lsls	r1, r1, #3
	adds	r0, r0, r1
	.loc	2 469 23                        @ source/app.c:469:23
	ldrh	r0, [r0, #6]
.Ltmp163:
	.loc	2 469 9                         @ source/app.c:469:9
	cmp	r0, #3
	blo	.LBB4_23
	b	.LBB4_22
.LBB4_22:
	.loc	2 0 9                           @ source/app.c:0:9
	add	r2, sp, #12
.Ltmp164:
	.loc	2 470 58 is_stmt 1              @ source/app.c:470:58
	ldrb	r0, [r2]
	movs	r3, #3
	.loc	2 470 55 is_stmt 0              @ source/app.c:470:55
	mov	r6, r3
	lsls	r6, r0
	add	r0, sp, #16
	.loc	2 470 25                        @ source/app.c:470:25
	ldrb	r5, [r0]
	.loc	2 470 7                         @ source/app.c:470:7
	ldr	r1, __arm_cp.4_4
	adds	r1, #196
	.loc	2 470 34                        @ source/app.c:470:34
	ldrb	r4, [r1, r5]
	bics	r4, r6
	strb	r4, [r1, r5]
	.loc	2 471 56 is_stmt 1              @ source/app.c:471:56
	ldrb	r2, [r2]
	.loc	2 471 53 is_stmt 0              @ source/app.c:471:53
	lsls	r3, r2
	.loc	2 471 25                        @ source/app.c:471:25
	ldrb	r2, [r0]
	.loc	2 471 34                        @ source/app.c:471:34
	ldrb	r0, [r1, r2]
	orrs	r0, r3
	strb	r0, [r1, r2]
	.loc	2 472 6 is_stmt 1               @ source/app.c:472:6
	b	.LBB4_23
.Ltmp165:
.LBB4_23:
	.loc	2 473 5                         @ source/app.c:473:5
	b	.LBB4_28
.Ltmp166:
.LBB4_24:
	.loc	2 0 5 is_stmt 0                 @ source/app.c:0:5
	add	r0, sp, #24
.Ltmp167:
	.loc	2 474 24 is_stmt 1              @ source/app.c:474:24
	ldrb	r0, [r0]
	.loc	2 474 13 is_stmt 0              @ source/app.c:474:13
	lsls	r1, r0, #3
	ldr	r0, __arm_cp.4_4
	adds	r0, r0, r1
	.loc	2 474 27                        @ source/app.c:474:27
	ldrh	r0, [r0, #28]
.Ltmp168:
	.loc	2 474 13                        @ source/app.c:474:13
	cbz	r0, .LBB4_26
	b	.LBB4_25
.LBB4_25:
	.loc	2 0 13                          @ source/app.c:0:13
	add	r0, sp, #24
.Ltmp169:
	.loc	2 475 17 is_stmt 1              @ source/app.c:475:17
	ldrb	r0, [r0]
	.loc	2 475 6 is_stmt 0               @ source/app.c:475:6
	lsls	r1, r0, #3
	ldr	r0, __arm_cp.4_4
	adds	r1, r0, r1
	.loc	2 475 34                        @ source/app.c:475:34
	ldrh	r0, [r1, #28]
	subs	r0, r0, #1
	strh	r0, [r1, #28]
	.loc	2 476 5 is_stmt 1               @ source/app.c:476:5
	b	.LBB4_27
.Ltmp170:
.LBB4_26:
	.loc	2 0 5 is_stmt 0                 @ source/app.c:0:5
	add	r4, sp, #24
.Ltmp171:
	.loc	2 478 53 is_stmt 1              @ source/app.c:478:53
	ldrb	r0, [r4]
	.loc	2 478 42 is_stmt 0              @ source/app.c:478:42
	ldr	r1, __arm_cp.4_4
	mov	r3, r1
	adds	r3, #24
	lsls	r0, r0, #3
	.loc	2 478 56                        @ source/app.c:478:56
	ldrb	r0, [r3, r0]
	.loc	2 478 17                        @ source/app.c:478:17
	ldrb	r2, [r4]
	.loc	2 478 6                         @ source/app.c:478:6
	lsls	r2, r2, #3
	adds	r2, r3, r2
	.loc	2 478 40                        @ source/app.c:478:40
	strb	r0, [r2, #2]
	.loc	2 479 17 is_stmt 1              @ source/app.c:479:17
	ldrb	r0, [r4]
	.loc	2 479 6 is_stmt 0               @ source/app.c:479:6
	lsls	r0, r0, #3
	adds	r2, r3, r0
	movs	r0, #0
	.loc	2 479 41                        @ source/app.c:479:41
	strh	r0, [r2, #6]
	add	r2, sp, #12
	.loc	2 480 57 is_stmt 1              @ source/app.c:480:57
	ldrb	r5, [r2]
	movs	r7, #3
	.loc	2 480 54 is_stmt 0              @ source/app.c:480:54
	mov	r0, r7
	lsls	r0, r5
	add	r5, sp, #16
	.loc	2 480 24                        @ source/app.c:480:24
	str	r5, [sp, #4]                    @ 4-byte Spill
	ldrb	r5, [r5]
	.loc	2 480 6                         @ source/app.c:480:6
	adds	r6, r1, r5
	movs	r5, #196
	.loc	2 480 33                        @ source/app.c:480:33
	str	r5, [sp]                        @ 4-byte Spill
	ldrb	r5, [r6, r5]
	bics	r5, r0
	ldr	r0, [sp]                        @ 4-byte Reload
	strb	r5, [r6, r0]
	.loc	2 482 54 is_stmt 1              @ source/app.c:482:54
	ldr	r0, [sp, #4]                    @ 4-byte Reload
	ldrb	r5, [r2]
	.loc	2 482 51 is_stmt 0              @ source/app.c:482:51
	lsls	r7, r5
	.loc	2 482 21                        @ source/app.c:482:21
	ldrb	r6, [r0]
	.loc	2 482 6                         @ source/app.c:482:6
	adds	r1, r1, #6
	.loc	2 482 30                        @ source/app.c:482:30
	ldrb	r5, [r1, r6]
	bics	r5, r7
	strb	r5, [r1, r6]
	.loc	2 483 45 is_stmt 1              @ source/app.c:483:45
	ldrb	r4, [r4]
	.loc	2 483 34 is_stmt 0              @ source/app.c:483:34
	lsls	r4, r4, #3
	adds	r3, r3, r4
	ldrb	r3, [r3, #2]
	.loc	2 483 71                        @ source/app.c:483:71
	ldrb	r2, [r2]
	.loc	2 483 68                        @ source/app.c:483:68
	lsls	r3, r2
	.loc	2 483 21                        @ source/app.c:483:21
	ldrb	r2, [r0]
	.loc	2 483 30                        @ source/app.c:483:30
	ldrb	r0, [r1, r2]
	orrs	r0, r3
	strb	r0, [r1, r2]
	b	.LBB4_27
.Ltmp172:
.LBB4_27:
	.loc	2 0 30                          @ source/app.c:0:30
	b	.LBB4_28
.LBB4_28:
	.loc	2 485 4 is_stmt 1               @ source/app.c:485:4
	b	.LBB4_29
.Ltmp173:
.LBB4_29:
	.loc	2 486 12                        @ source/app.c:486:12
	ldr	r0, __arm_cp.4_2
	ldrb	r1, [r0]
	adds	r1, r1, #1
	strb	r1, [r0]
.Ltmp174:
	.loc	2 488 7                         @ source/app.c:488:7
	ldrb	r0, [r0]
.Ltmp175:
	.loc	2 488 7 is_stmt 0               @ source/app.c:488:7
	cmp	r0, #40
	bne	.LBB4_31
	b	.LBB4_30
.LBB4_30:
.Ltmp176:
	.loc	2 489 12 is_stmt 1              @ source/app.c:489:12
	ldr	r1, __arm_cp.4_0
	movs	r0, #0
	strb	r0, [r1]
	.loc	2 490 14                        @ source/app.c:490:14
	ldr	r1, __arm_cp.4_5
	movs	r0, #50
	strh	r0, [r1]
	.loc	2 491 4                         @ source/app.c:491:4
	b	.LBB4_32
.Ltmp177:
.LBB4_31:
	.loc	2 493 12                        @ source/app.c:493:12
	ldr	r1, __arm_cp.4_0
	movs	r0, #3
	strb	r0, [r1]
	b	.LBB4_32
.Ltmp178:
.LBB4_32:
	.loc	2 495 4                         @ source/app.c:495:4
	b	.LBB4_34
.LBB4_33:
.Ltmp179:
	.loc	2 499 7                         @ source/app.c:499:7
	b	.LBB4_34
.Ltmp180:
.LBB4_34:
	.loc	2 502 1 epilogue_begin          @ source/app.c:502:1
	add	sp, #28
	pop	{r4, r5, r6, r7, pc}
.Ltmp181:
	.loc	2 0 1 is_stmt 0                 @ :0:1
.Ltmp182:
	.p2align	2
@ %bb.35:
__arm_cp.4_0:
	.long	vi_process.lstate
.Lcpi_end31:
	.size	__arm_cp.4_0, .Lcpi_end31-__arm_cp.4_0
__arm_cp.4_1:
	.long	1073760264                      @ 0x40004808
.Lcpi_end32:
	.size	__arm_cp.4_1, .Lcpi_end32-__arm_cp.4_1
__arm_cp.4_2:
	.long	vi_process.relayidx
.Lcpi_end33:
	.size	__arm_cp.4_2, .Lcpi_end33-__arm_cp.4_2
__arm_cp.4_3:
	.long	1073760268                      @ 0x4000480c
.Lcpi_end34:
	.size	__arm_cp.4_3, .Lcpi_end34-__arm_cp.4_3
__arm_cp.4_4:
	.long	db
.Lcpi_end35:
	.size	__arm_cp.4_4, .Lcpi_end35-__arm_cp.4_4
__arm_cp.4_5:
	.long	vi_process.read_gap
.Lcpi_end36:
	.size	__arm_cp.4_5, .Lcpi_end36-__arm_cp.4_5
__arm_cp.4_6:
	.long	1073760272                      @ 0x40004810
.Lcpi_end37:
	.size	__arm_cp.4_6, .Lcpi_end37-__arm_cp.4_6
.Lfunc_end4:
	.size	vi_process, .Lfunc_end4-vi_process
	.cfi_endproc
	.cantunwind
	.fnend
                                        @ -- End function
	.section	.text.spi_read_cb,"ax",%progbits
	.hidden	spi_read_cb                     @ -- Begin function spi_read_cb
	.globl	spi_read_cb
	.p2align	2
	.type	spi_read_cb,%function
	.code	16                              @ @spi_read_cb
	.thumb_func
spi_read_cb:
.Lfunc_begin5:
	.loc	2 532 0 is_stmt 1               @ source/app.c:532:0
	.fnstart
	.cfi_startproc
@ %bb.0:
	.save	{r4, r5, r7, lr}
	push	{r4, r5, r7, lr}
	.cfi_def_cfa_offset 16
	.cfi_offset lr, -4
	.cfi_offset r7, -8
	.cfi_offset r5, -12
	.cfi_offset r4, -16
	.pad	#248
	sub	sp, #248
	.cfi_def_cfa_offset 264
	add	r1, sp, #232
	movs	r0, #0
.Ltmp183:
	.loc	2 540 10 prologue_end           @ source/app.c:540:10
	strb	r0, [r1]
	.loc	2 549 25                        @ source/app.c:549:25
	ldr	r0, __arm_cp.5_6
	ldr	r1, [r0, #4]
	.loc	2 549 10 is_stmt 0              @ source/app.c:549:10
	str	r1, [sp, #212]
	.loc	2 550 25 is_stmt 1              @ source/app.c:550:25
	ldr	r0, [r0]
	.loc	2 550 10 is_stmt 0              @ source/app.c:550:10
	str	r0, [sp, #208]
	.loc	2 552 13 is_stmt 1              @ source/app.c:552:13
	ldr	r0, [sp, #208]
	.loc	2 552 2 is_stmt 0               @ source/app.c:552:2
	bl	fifo_reset
	.loc	2 553 2 is_stmt 1               @ source/app.c:553:2
	b	.LBB5_1
.LBB5_1:                                @ =>This Loop Header: Depth=1
                                        @     Child Loop BB5_70 Depth 2
                                        @     Child Loop BB5_76 Depth 2
                                        @     Child Loop BB5_62 Depth 2
                                        @     Child Loop BB5_51 Depth 2
                                        @     Child Loop BB5_45 Depth 2
                                        @     Child Loop BB5_39 Depth 2
                                        @     Child Loop BB5_33 Depth 2
                                        @     Child Loop BB5_27 Depth 2
                                        @     Child Loop BB5_21 Depth 2
                                        @     Child Loop BB5_15 Depth 2
	.loc	2 553 9 is_stmt 0               @ source/app.c:553:9
	ldr	r0, [sp, #212]
	.loc	2 553 14                        @ source/app.c:553:14
	ldrb	r0, [r0, #8]
	.loc	2 553 2                         @ source/app.c:553:2
	lsls	r0, r0, #31
	cbz	r0, .LBB5_2
	bl	.LBB5_128
.LBB5_2:                                @   in Loop: Header=BB5_1 Depth=1
.Ltmp184:
	.loc	2 555 13 is_stmt 1              @ source/app.c:555:13
	ldr	r0, [sp, #212]
	add	r1, sp, #244
	.loc	2 555 3 is_stmt 0               @ source/app.c:555:3
	str	r1, [sp, #200]                  @ 4-byte Spill
	bl	fifo_read
	ldr	r0, [sp, #200]                  @ 4-byte Reload
	.loc	2 556 13 is_stmt 1              @ source/app.c:556:13
	ldr	r2, [sp, #244]
	.loc	2 556 10 is_stmt 0              @ source/app.c:556:10
	ldr	r1, [sp, #232]
	adds	r1, r1, r2
	add	r2, sp, #232
	strb	r1, [r2]
.Ltmp185:
	.loc	2 557 7 is_stmt 1               @ source/app.c:557:7
	ldrb	r0, [r0]
	.loc	2 557 28 is_stmt 0              @ source/app.c:557:28
	cmp	r0, #177
	beq	.LBB5_10
	b	.LBB5_3
.LBB5_3:                                @   in Loop: Header=BB5_1 Depth=1
	.loc	2 0 28                          @ source/app.c:0:28
	add	r0, sp, #244
	.loc	2 557 32                        @ source/app.c:557:32
	ldrb	r0, [r0]
	.loc	2 557 52                        @ source/app.c:557:52
	cmp	r0, #165
	beq	.LBB5_10
	b	.LBB5_4
.LBB5_4:                                @   in Loop: Header=BB5_1 Depth=1
	.loc	2 0 52                          @ source/app.c:0:52
	add	r0, sp, #244
	.loc	2 557 56                        @ source/app.c:557:56
	ldrb	r0, [r0]
.Ltmp186:
	.loc	2 557 6                         @ source/app.c:557:6
	cmp	r0, #180
	beq	.LBB5_10
	b	.LBB5_5
.LBB5_5:                                @   in Loop: Header=BB5_1 Depth=1
.Ltmp187:
	.loc	2 558 14 is_stmt 1              @ source/app.c:558:14
	ldr	r0, [sp, #212]
	add	r1, sp, #228
	.loc	2 558 4 is_stmt 0               @ source/app.c:558:4
	str	r1, [sp, #196]                  @ 4-byte Spill
	bl	fifo_read
	.loc	2 559 14 is_stmt 1              @ source/app.c:559:14
	ldr	r0, [sp, #212]
	add	r1, sp, #224
	.loc	2 559 4 is_stmt 0               @ source/app.c:559:4
	str	r1, [sp, #192]                  @ 4-byte Spill
	bl	fifo_read
	ldr	r2, [sp, #192]                  @ 4-byte Reload
	ldr	r1, [sp, #196]                  @ 4-byte Reload
	.loc	2 560 12 is_stmt 1              @ source/app.c:560:12
	ldr	r0, [sp, #224]
	.loc	2 560 11 is_stmt 0              @ source/app.c:560:11
	mvns	r0, r0
	.loc	2 560 9                         @ source/app.c:560:9
	strb	r0, [r2]
	add	r0, sp, #232
.Ltmp188:
	.loc	2 561 8 is_stmt 1               @ source/app.c:561:8
	ldrb	r0, [r0]
	.loc	2 561 18 is_stmt 0              @ source/app.c:561:18
	ldrb	r1, [r1]
	.loc	2 561 21                        @ source/app.c:561:21
	cmp	r0, r1
	bne	.LBB5_7
	b	.LBB5_6
.LBB5_6:                                @   in Loop: Header=BB5_1 Depth=1
	.loc	2 0 21                          @ source/app.c:0:21
	add	r0, sp, #232
	.loc	2 561 25                        @ source/app.c:561:25
	ldrb	r0, [r0]
	add	r1, sp, #224
	.loc	2 561 35                        @ source/app.c:561:35
	ldrb	r1, [r1]
.Ltmp189:
	.loc	2 561 7                         @ source/app.c:561:7
	cmp	r0, r1
	beq	.LBB5_8
	b	.LBB5_7
.LBB5_7:
.Ltmp190:
	.loc	2 561 43                        @ source/app.c:561:43
	b	.LBB5_128
.Ltmp191:
.LBB5_8:                                @   in Loop: Header=BB5_1 Depth=1
	.loc	2 0 43                          @ source/app.c:0:43
	b	.LBB5_9
.LBB5_9:                                @   in Loop: Header=BB5_1 Depth=1
	.loc	2 566 3 is_stmt 1               @ source/app.c:566:3
	b	.LBB5_11
.Ltmp192:
.LBB5_10:                               @   in Loop: Header=BB5_1 Depth=1
	.loc	2 0 3 is_stmt 0                 @ source/app.c:0:3
	b	.LBB5_11
.LBB5_11:                               @   in Loop: Header=BB5_1 Depth=1
	add	r0, sp, #244
.Ltmp193:
	.loc	2 572 6 is_stmt 1               @ source/app.c:572:6
	ldrb	r0, [r0]
.Ltmp194:
	.loc	2 572 6 is_stmt 0               @ source/app.c:572:6
	cmp	r0, #161
	bne	.LBB5_13
	b	.LBB5_12
.LBB5_12:                               @   in Loop: Header=BB5_1 Depth=1
.Ltmp195:
	.loc	2 573 25 is_stmt 1              @ source/app.c:573:25
	ldr	r0, __arm_cp.5_7
	ldr	r0, [r0]
	.loc	2 573 14 is_stmt 0              @ source/app.c:573:14
	ldr	r1, .LCPI5_8
	str	r1, [sp, #184]                  @ 4-byte Spill
	strb	r0, [r1]
	.loc	2 574 15 is_stmt 1              @ source/app.c:574:15
	ldr	r0, [sp, #208]
	.loc	2 574 22 is_stmt 0              @ source/app.c:574:22
	ldrb	r1, [r1]
	.loc	2 574 4                         @ source/app.c:574:4
	bl	fifo_write
	ldr	r0, [sp, #184]                  @ 4-byte Reload
	.loc	2 575 16 is_stmt 1              @ source/app.c:575:16
	ldrb	r0, [r0]
	add	r1, sp, #232
	.loc	2 575 11 is_stmt 0              @ source/app.c:575:11
	str	r1, [sp, #188]                  @ 4-byte Spill
	strb	r0, [r1]
	.loc	2 576 15 is_stmt 1              @ source/app.c:576:15
	ldr	r0, [sp, #208]
	.loc	2 576 19 is_stmt 0              @ source/app.c:576:19
	ldrb	r1, [r1]
	.loc	2 576 4                         @ source/app.c:576:4
	bl	fifo_write
	ldr	r1, [sp, #188]                  @ 4-byte Reload
	.loc	2 577 14 is_stmt 1              @ source/app.c:577:14
	ldr	r0, [sp, #232]
	.loc	2 577 13 is_stmt 0              @ source/app.c:577:13
	mvns	r0, r0
	.loc	2 577 11                        @ source/app.c:577:11
	strb	r0, [r1]
	.loc	2 578 15 is_stmt 1              @ source/app.c:578:15
	ldr	r0, [sp, #208]
	.loc	2 578 19 is_stmt 0              @ source/app.c:578:19
	ldrb	r1, [r1]
	.loc	2 578 4                         @ source/app.c:578:4
	bl	fifo_write
	.loc	2 579 3 is_stmt 1               @ source/app.c:579:3
	b	.LBB5_127
.Ltmp196:
.LBB5_13:                               @   in Loop: Header=BB5_1 Depth=1
	.loc	2 0 3 is_stmt 0                 @ source/app.c:0:3
	add	r0, sp, #244
.Ltmp197:
	.loc	2 580 11 is_stmt 1              @ source/app.c:580:11
	ldrb	r0, [r0]
.Ltmp198:
	.loc	2 580 11 is_stmt 0              @ source/app.c:580:11
	cmp	r0, #167
	bne	.LBB5_19
	b	.LBB5_14
.LBB5_14:                               @   in Loop: Header=BB5_1 Depth=1
	.loc	2 0 11                          @ source/app.c:0:11
	add	r1, sp, #232
	movs	r0, #0
.Ltmp199:
	.loc	2 582 11 is_stmt 1              @ source/app.c:582:11
	strb	r0, [r1]
	add	r1, sp, #236
.Ltmp200:
	.loc	2 583 9                         @ source/app.c:583:9
	strb	r0, [r1]
	.loc	2 583 8 is_stmt 0               @ source/app.c:583:8
	b	.LBB5_15
.LBB5_15:                               @   Parent Loop BB5_1 Depth=1
                                        @ =>  This Inner Loop Header: Depth=2
	.loc	2 0 8                           @ source/app.c:0:8
	add	r0, sp, #236
.Ltmp201:
	.loc	2 583 12                        @ source/app.c:583:12
	ldrb	r0, [r0]
.Ltmp202:
	.loc	2 583 4                         @ source/app.c:583:4
	cmp	r0, #3
	bhi	.LBB5_18
	b	.LBB5_16
.LBB5_16:                               @   in Loop: Header=BB5_15 Depth=2
.Ltmp203:
	.loc	2 584 28 is_stmt 1              @ source/app.c:584:28
	ldr	r0, .LCPI5_8
	movs	r1, #192
	ldr	r0, [r0, r1]
	add	r1, sp, #236
	.loc	2 584 44 is_stmt 0              @ source/app.c:584:44
	ldrb	r1, [r1]
	.loc	2 584 45                        @ source/app.c:584:45
	lsls	r1, r1, #3
	.loc	2 584 40                        @ source/app.c:584:40
	lsrs	r0, r1
	add	r1, sp, #204
	.loc	2 584 12                        @ source/app.c:584:12
	strb	r0, [r1]
	.loc	2 585 16 is_stmt 1              @ source/app.c:585:16
	ldr	r0, [sp, #208]
	.loc	2 585 20 is_stmt 0              @ source/app.c:585:20
	ldrb	r1, [r1]
	.loc	2 585 5                         @ source/app.c:585:5
	bl	fifo_write
	.loc	2 586 15 is_stmt 1              @ source/app.c:586:15
	ldr	r1, [sp, #204]
	.loc	2 586 12 is_stmt 0              @ source/app.c:586:12
	ldr	r0, [sp, #232]
	adds	r0, r0, r1
	add	r1, sp, #232
	strb	r0, [r1]
	.loc	2 587 4 is_stmt 1               @ source/app.c:587:4
	b	.LBB5_17
.Ltmp204:
.LBB5_17:                               @   in Loop: Header=BB5_15 Depth=2
	.loc	2 583 18                        @ source/app.c:583:18
	ldr	r0, [sp, #236]
	adds	r0, r0, #1
	add	r1, sp, #236
	strb	r0, [r1]
	.loc	2 583 4 is_stmt 0               @ source/app.c:583:4
	b	.LBB5_15
.Ltmp205:
.LBB5_18:                               @   in Loop: Header=BB5_1 Depth=1
	.loc	2 588 15 is_stmt 1              @ source/app.c:588:15
	ldr	r0, [sp, #208]
	.loc	2 588 22 is_stmt 0              @ source/app.c:588:22
	ldr	r1, .LCPI5_8
	str	r1, [sp, #176]                  @ 4-byte Spill
	movs	r2, #191
	str	r2, [sp, #172]                  @ 4-byte Spill
	ldrb	r1, [r1, r2]
	.loc	2 588 4                         @ source/app.c:588:4
	bl	fifo_write
	ldr	r1, [sp, #172]                  @ 4-byte Reload
	ldr	r0, [sp, #176]                  @ 4-byte Reload
	.loc	2 589 14 is_stmt 1              @ source/app.c:589:14
	ldrb	r1, [r0, r1]
	.loc	2 589 11 is_stmt 0              @ source/app.c:589:11
	ldr	r0, [sp, #232]
	adds	r0, r0, r1
	add	r1, sp, #232
	str	r1, [sp, #180]                  @ 4-byte Spill
	strb	r0, [r1]
	.loc	2 590 15 is_stmt 1              @ source/app.c:590:15
	ldr	r0, [sp, #208]
	.loc	2 590 19 is_stmt 0              @ source/app.c:590:19
	ldrb	r1, [r1]
	.loc	2 590 4                         @ source/app.c:590:4
	bl	fifo_write
	ldr	r1, [sp, #180]                  @ 4-byte Reload
	.loc	2 591 14 is_stmt 1              @ source/app.c:591:14
	ldr	r0, [sp, #232]
	.loc	2 591 13 is_stmt 0              @ source/app.c:591:13
	mvns	r0, r0
	.loc	2 591 11                        @ source/app.c:591:11
	strb	r0, [r1]
	.loc	2 592 15 is_stmt 1              @ source/app.c:592:15
	ldr	r0, [sp, #208]
	.loc	2 592 19 is_stmt 0              @ source/app.c:592:19
	ldrb	r1, [r1]
	.loc	2 592 4                         @ source/app.c:592:4
	bl	fifo_write
	.loc	2 593 3 is_stmt 1               @ source/app.c:593:3
	b	.LBB5_126
.Ltmp206:
.LBB5_19:                               @   in Loop: Header=BB5_1 Depth=1
	.loc	2 0 3 is_stmt 0                 @ source/app.c:0:3
	add	r0, sp, #244
.Ltmp207:
	.loc	2 594 11 is_stmt 1              @ source/app.c:594:11
	ldrb	r0, [r0]
.Ltmp208:
	.loc	2 594 11 is_stmt 0              @ source/app.c:594:11
	cmp	r0, #162
	bne	.LBB5_25
	b	.LBB5_20
.LBB5_20:                               @   in Loop: Header=BB5_1 Depth=1
	.loc	2 0 11                          @ source/app.c:0:11
	add	r1, sp, #232
	movs	r0, #0
.Ltmp209:
	.loc	2 595 11 is_stmt 1              @ source/app.c:595:11
	strb	r0, [r1]
	add	r1, sp, #236
.Ltmp210:
	.loc	2 596 9                         @ source/app.c:596:9
	strb	r0, [r1]
	.loc	2 596 8 is_stmt 0               @ source/app.c:596:8
	b	.LBB5_21
.LBB5_21:                               @   Parent Loop BB5_1 Depth=1
                                        @ =>  This Inner Loop Header: Depth=2
	.loc	2 0 8                           @ source/app.c:0:8
	add	r0, sp, #236
.Ltmp211:
	.loc	2 596 12                        @ source/app.c:596:12
	ldrb	r0, [r0]
.Ltmp212:
	.loc	2 596 4                         @ source/app.c:596:4
	cmp	r0, #4
	bhi	.LBB5_24
	b	.LBB5_22
.LBB5_22:                               @   in Loop: Header=BB5_21 Depth=2
.Ltmp213:
	.loc	2 597 16 is_stmt 1              @ source/app.c:597:16
	ldr	r0, [sp, #208]
	add	r1, sp, #236
	.loc	2 597 35 is_stmt 0              @ source/app.c:597:35
	str	r1, [sp, #164]                  @ 4-byte Spill
	ldrb	r2, [r1]
	.loc	2 597 20                        @ source/app.c:597:20
	ldr	r1, .LCPI5_8
	adds	r1, r1, #6
	str	r1, [sp, #168]                  @ 4-byte Spill
	ldrb	r1, [r1, r2]
	.loc	2 597 5                         @ source/app.c:597:5
	bl	fifo_write
	ldr	r1, [sp, #164]                  @ 4-byte Reload
	ldr	r0, [sp, #168]                  @ 4-byte Reload
	.loc	2 598 30 is_stmt 1              @ source/app.c:598:30
	ldrb	r1, [r1]
	.loc	2 598 15 is_stmt 0              @ source/app.c:598:15
	ldrb	r1, [r0, r1]
	.loc	2 598 12                        @ source/app.c:598:12
	ldr	r0, [sp, #232]
	adds	r0, r0, r1
	add	r1, sp, #232
	strb	r0, [r1]
	.loc	2 599 4 is_stmt 1               @ source/app.c:599:4
	b	.LBB5_23
.Ltmp214:
.LBB5_23:                               @   in Loop: Header=BB5_21 Depth=2
	.loc	2 596 35                        @ source/app.c:596:35
	ldr	r0, [sp, #236]
	adds	r0, r0, #1
	add	r1, sp, #236
	strb	r0, [r1]
	.loc	2 596 4 is_stmt 0               @ source/app.c:596:4
	b	.LBB5_21
.Ltmp215:
.LBB5_24:                               @   in Loop: Header=BB5_1 Depth=1
	.loc	2 600 15 is_stmt 1              @ source/app.c:600:15
	ldr	r0, [sp, #208]
	add	r1, sp, #232
	.loc	2 600 19 is_stmt 0              @ source/app.c:600:19
	str	r1, [sp, #160]                  @ 4-byte Spill
	ldrb	r1, [r1]
	.loc	2 600 4                         @ source/app.c:600:4
	bl	fifo_write
	ldr	r1, [sp, #160]                  @ 4-byte Reload
	.loc	2 601 14 is_stmt 1              @ source/app.c:601:14
	ldr	r0, [sp, #232]
	.loc	2 601 13 is_stmt 0              @ source/app.c:601:13
	mvns	r0, r0
	.loc	2 601 11                        @ source/app.c:601:11
	strb	r0, [r1]
	.loc	2 602 15 is_stmt 1              @ source/app.c:602:15
	ldr	r0, [sp, #208]
	.loc	2 602 19 is_stmt 0              @ source/app.c:602:19
	ldrb	r1, [r1]
	.loc	2 602 4                         @ source/app.c:602:4
	bl	fifo_write
	.loc	2 603 3 is_stmt 1               @ source/app.c:603:3
	b	.LBB5_125
.Ltmp216:
.LBB5_25:                               @   in Loop: Header=BB5_1 Depth=1
	.loc	2 0 3 is_stmt 0                 @ source/app.c:0:3
	add	r0, sp, #244
.Ltmp217:
	.loc	2 604 11 is_stmt 1              @ source/app.c:604:11
	ldrb	r0, [r0]
.Ltmp218:
	.loc	2 604 11 is_stmt 0              @ source/app.c:604:11
	cmp	r0, #168
	bne	.LBB5_31
	b	.LBB5_26
.LBB5_26:                               @   in Loop: Header=BB5_1 Depth=1
	.loc	2 0 11                          @ source/app.c:0:11
	add	r1, sp, #232
	movs	r0, #0
.Ltmp219:
	.loc	2 605 11 is_stmt 1              @ source/app.c:605:11
	strb	r0, [r1]
	add	r1, sp, #236
.Ltmp220:
	.loc	2 606 9                         @ source/app.c:606:9
	strb	r0, [r1]
	.loc	2 606 8 is_stmt 0               @ source/app.c:606:8
	b	.LBB5_27
.LBB5_27:                               @   Parent Loop BB5_1 Depth=1
                                        @ =>  This Inner Loop Header: Depth=2
	.loc	2 0 8                           @ source/app.c:0:8
	add	r0, sp, #236
.Ltmp221:
	.loc	2 606 12                        @ source/app.c:606:12
	ldrb	r0, [r0]
.Ltmp222:
	.loc	2 606 4                         @ source/app.c:606:4
	cmp	r0, #4
	bhi	.LBB5_30
	b	.LBB5_28
.LBB5_28:                               @   in Loop: Header=BB5_27 Depth=2
.Ltmp223:
	.loc	2 607 16 is_stmt 1              @ source/app.c:607:16
	ldr	r0, [sp, #208]
	add	r1, sp, #236
	.loc	2 607 29 is_stmt 0              @ source/app.c:607:29
	str	r1, [sp, #152]                  @ 4-byte Spill
	ldrb	r2, [r1]
	.loc	2 607 20                        @ source/app.c:607:20
	ldr	r1, .LCPI5_8
	adds	r1, #11
	str	r1, [sp, #156]                  @ 4-byte Spill
	ldrb	r1, [r1, r2]
	.loc	2 607 5                         @ source/app.c:607:5
	bl	fifo_write
	ldr	r1, [sp, #152]                  @ 4-byte Reload
	ldr	r0, [sp, #156]                  @ 4-byte Reload
	.loc	2 608 24 is_stmt 1              @ source/app.c:608:24
	ldrb	r1, [r1]
	.loc	2 608 15 is_stmt 0              @ source/app.c:608:15
	ldrb	r1, [r0, r1]
	.loc	2 608 12                        @ source/app.c:608:12
	ldr	r0, [sp, #232]
	adds	r0, r0, r1
	add	r1, sp, #232
	strb	r0, [r1]
	.loc	2 609 4 is_stmt 1               @ source/app.c:609:4
	b	.LBB5_29
.Ltmp224:
.LBB5_29:                               @   in Loop: Header=BB5_27 Depth=2
	.loc	2 606 35                        @ source/app.c:606:35
	ldr	r0, [sp, #236]
	adds	r0, r0, #1
	add	r1, sp, #236
	strb	r0, [r1]
	.loc	2 606 4 is_stmt 0               @ source/app.c:606:4
	b	.LBB5_27
.Ltmp225:
.LBB5_30:                               @   in Loop: Header=BB5_1 Depth=1
	.loc	2 610 15 is_stmt 1              @ source/app.c:610:15
	ldr	r0, [sp, #208]
	add	r1, sp, #232
	.loc	2 610 19 is_stmt 0              @ source/app.c:610:19
	str	r1, [sp, #148]                  @ 4-byte Spill
	ldrb	r1, [r1]
	.loc	2 610 4                         @ source/app.c:610:4
	bl	fifo_write
	ldr	r1, [sp, #148]                  @ 4-byte Reload
	.loc	2 611 14 is_stmt 1              @ source/app.c:611:14
	ldr	r0, [sp, #232]
	.loc	2 611 13 is_stmt 0              @ source/app.c:611:13
	mvns	r0, r0
	.loc	2 611 11                        @ source/app.c:611:11
	strb	r0, [r1]
	.loc	2 612 15 is_stmt 1              @ source/app.c:612:15
	ldr	r0, [sp, #208]
	.loc	2 612 19 is_stmt 0              @ source/app.c:612:19
	ldrb	r1, [r1]
	.loc	2 612 4                         @ source/app.c:612:4
	bl	fifo_write
	.loc	2 613 3 is_stmt 1               @ source/app.c:613:3
	b	.LBB5_124
.Ltmp226:
.LBB5_31:                               @   in Loop: Header=BB5_1 Depth=1
	.loc	2 0 3 is_stmt 0                 @ source/app.c:0:3
	add	r0, sp, #244
.Ltmp227:
	.loc	2 614 11 is_stmt 1              @ source/app.c:614:11
	ldrb	r0, [r0]
.Ltmp228:
	.loc	2 614 11 is_stmt 0              @ source/app.c:614:11
	cmp	r0, #170
	bne	.LBB5_37
	b	.LBB5_32
.LBB5_32:                               @   in Loop: Header=BB5_1 Depth=1
	.loc	2 0 11                          @ source/app.c:0:11
	add	r1, sp, #232
	movs	r0, #0
.Ltmp229:
	.loc	2 615 11 is_stmt 1              @ source/app.c:615:11
	strb	r0, [r1]
	add	r1, sp, #236
.Ltmp230:
	.loc	2 616 9                         @ source/app.c:616:9
	strb	r0, [r1]
	.loc	2 616 8 is_stmt 0               @ source/app.c:616:8
	b	.LBB5_33
.LBB5_33:                               @   Parent Loop BB5_1 Depth=1
                                        @ =>  This Inner Loop Header: Depth=2
	.loc	2 0 8                           @ source/app.c:0:8
	add	r0, sp, #236
.Ltmp231:
	.loc	2 616 12                        @ source/app.c:616:12
	ldrb	r0, [r0]
.Ltmp232:
	.loc	2 616 4                         @ source/app.c:616:4
	cmp	r0, #5
	bhi	.LBB5_36
	b	.LBB5_34
.LBB5_34:                               @   in Loop: Header=BB5_33 Depth=2
.Ltmp233:
	.loc	2 617 16 is_stmt 1              @ source/app.c:617:16
	ldr	r0, [sp, #208]
	add	r1, sp, #236
	.loc	2 617 29 is_stmt 0              @ source/app.c:617:29
	str	r1, [sp, #140]                  @ 4-byte Spill
	ldrb	r2, [r1]
	.loc	2 617 20                        @ source/app.c:617:20
	ldr	r1, .LCPI5_8
	adds	r1, #16
	str	r1, [sp, #144]                  @ 4-byte Spill
	ldrb	r1, [r1, r2]
	.loc	2 617 5                         @ source/app.c:617:5
	bl	fifo_write
	ldr	r1, [sp, #140]                  @ 4-byte Reload
	ldr	r0, [sp, #144]                  @ 4-byte Reload
	.loc	2 618 24 is_stmt 1              @ source/app.c:618:24
	ldrb	r1, [r1]
	.loc	2 618 15 is_stmt 0              @ source/app.c:618:15
	ldrb	r1, [r0, r1]
	.loc	2 618 12                        @ source/app.c:618:12
	ldr	r0, [sp, #232]
	adds	r0, r0, r1
	add	r1, sp, #232
	strb	r0, [r1]
	.loc	2 619 4 is_stmt 1               @ source/app.c:619:4
	b	.LBB5_35
.Ltmp234:
.LBB5_35:                               @   in Loop: Header=BB5_33 Depth=2
	.loc	2 616 36                        @ source/app.c:616:36
	ldr	r0, [sp, #236]
	adds	r0, r0, #1
	add	r1, sp, #236
	strb	r0, [r1]
	.loc	2 616 4 is_stmt 0               @ source/app.c:616:4
	b	.LBB5_33
.Ltmp235:
.LBB5_36:                               @   in Loop: Header=BB5_1 Depth=1
	.loc	2 620 15 is_stmt 1              @ source/app.c:620:15
	ldr	r0, [sp, #208]
	add	r1, sp, #232
	.loc	2 620 19 is_stmt 0              @ source/app.c:620:19
	str	r1, [sp, #136]                  @ 4-byte Spill
	ldrb	r1, [r1]
	.loc	2 620 4                         @ source/app.c:620:4
	bl	fifo_write
	ldr	r1, [sp, #136]                  @ 4-byte Reload
	.loc	2 621 14 is_stmt 1              @ source/app.c:621:14
	ldr	r0, [sp, #232]
	.loc	2 621 13 is_stmt 0              @ source/app.c:621:13
	mvns	r0, r0
	.loc	2 621 11                        @ source/app.c:621:11
	strb	r0, [r1]
	.loc	2 622 15 is_stmt 1              @ source/app.c:622:15
	ldr	r0, [sp, #208]
	.loc	2 622 19 is_stmt 0              @ source/app.c:622:19
	ldrb	r1, [r1]
	.loc	2 622 4                         @ source/app.c:622:4
	bl	fifo_write
	.loc	2 623 3 is_stmt 1               @ source/app.c:623:3
	b	.LBB5_123
.Ltmp236:
.LBB5_37:                               @   in Loop: Header=BB5_1 Depth=1
	.loc	2 0 3 is_stmt 0                 @ source/app.c:0:3
	add	r0, sp, #244
.Ltmp237:
	.loc	2 624 11 is_stmt 1              @ source/app.c:624:11
	ldrb	r0, [r0]
.Ltmp238:
	.loc	2 624 11 is_stmt 0              @ source/app.c:624:11
	cmp	r0, #171
	bne	.LBB5_43
	b	.LBB5_38
.LBB5_38:                               @   in Loop: Header=BB5_1 Depth=1
	.loc	2 0 11                          @ source/app.c:0:11
	add	r1, sp, #232
	movs	r0, #0
.Ltmp239:
	.loc	2 625 11 is_stmt 1              @ source/app.c:625:11
	strb	r0, [r1]
	add	r1, sp, #236
.Ltmp240:
	.loc	2 626 9                         @ source/app.c:626:9
	strb	r0, [r1]
	.loc	2 626 8 is_stmt 0               @ source/app.c:626:8
	b	.LBB5_39
.LBB5_39:                               @   Parent Loop BB5_1 Depth=1
                                        @ =>  This Inner Loop Header: Depth=2
	.loc	2 0 8                           @ source/app.c:0:8
	add	r0, sp, #236
.Ltmp241:
	.loc	2 626 12                        @ source/app.c:626:12
	ldrb	r0, [r0]
.Ltmp242:
	.loc	2 626 4                         @ source/app.c:626:4
	cmp	r0, #1
	bhi	.LBB5_42
	b	.LBB5_40
.LBB5_40:                               @   in Loop: Header=BB5_39 Depth=2
.Ltmp243:
	.loc	2 627 16 is_stmt 1              @ source/app.c:627:16
	ldr	r0, [sp, #208]
	add	r1, sp, #236
	.loc	2 627 29 is_stmt 0              @ source/app.c:627:29
	str	r1, [sp, #128]                  @ 4-byte Spill
	ldrb	r2, [r1]
	.loc	2 627 20                        @ source/app.c:627:20
	ldr	r1, .LCPI5_8
	adds	r1, #22
	str	r1, [sp, #132]                  @ 4-byte Spill
	ldrb	r1, [r1, r2]
	.loc	2 627 5                         @ source/app.c:627:5
	bl	fifo_write
	ldr	r1, [sp, #128]                  @ 4-byte Reload
	ldr	r0, [sp, #132]                  @ 4-byte Reload
	.loc	2 628 24 is_stmt 1              @ source/app.c:628:24
	ldrb	r1, [r1]
	.loc	2 628 15 is_stmt 0              @ source/app.c:628:15
	ldrb	r1, [r0, r1]
	.loc	2 628 12                        @ source/app.c:628:12
	ldr	r0, [sp, #232]
	adds	r0, r0, r1
	add	r1, sp, #232
	strb	r0, [r1]
	.loc	2 629 4 is_stmt 1               @ source/app.c:629:4
	b	.LBB5_41
.Ltmp244:
.LBB5_41:                               @   in Loop: Header=BB5_39 Depth=2
	.loc	2 626 36                        @ source/app.c:626:36
	ldr	r0, [sp, #236]
	adds	r0, r0, #1
	add	r1, sp, #236
	strb	r0, [r1]
	.loc	2 626 4 is_stmt 0               @ source/app.c:626:4
	b	.LBB5_39
.Ltmp245:
.LBB5_42:                               @   in Loop: Header=BB5_1 Depth=1
	.loc	2 630 15 is_stmt 1              @ source/app.c:630:15
	ldr	r0, [sp, #208]
	add	r1, sp, #232
	.loc	2 630 19 is_stmt 0              @ source/app.c:630:19
	str	r1, [sp, #124]                  @ 4-byte Spill
	ldrb	r1, [r1]
	.loc	2 630 4                         @ source/app.c:630:4
	bl	fifo_write
	ldr	r1, [sp, #124]                  @ 4-byte Reload
	.loc	2 631 14 is_stmt 1              @ source/app.c:631:14
	ldr	r0, [sp, #232]
	.loc	2 631 13 is_stmt 0              @ source/app.c:631:13
	mvns	r0, r0
	.loc	2 631 11                        @ source/app.c:631:11
	strb	r0, [r1]
	.loc	2 632 15 is_stmt 1              @ source/app.c:632:15
	ldr	r0, [sp, #208]
	.loc	2 632 19 is_stmt 0              @ source/app.c:632:19
	ldrb	r1, [r1]
	.loc	2 632 4                         @ source/app.c:632:4
	bl	fifo_write
	.loc	2 633 3 is_stmt 1               @ source/app.c:633:3
	b	.LBB5_122
.Ltmp246:
.LBB5_43:                               @   in Loop: Header=BB5_1 Depth=1
	.loc	2 0 3 is_stmt 0                 @ source/app.c:0:3
	add	r0, sp, #244
.Ltmp247:
	.loc	2 634 11 is_stmt 1              @ source/app.c:634:11
	ldrb	r0, [r0]
.Ltmp248:
	.loc	2 634 11 is_stmt 0              @ source/app.c:634:11
	cmp	r0, #164
	bne	.LBB5_49
	b	.LBB5_44
.LBB5_44:                               @   in Loop: Header=BB5_1 Depth=1
	.loc	2 0 11                          @ source/app.c:0:11
	add	r1, sp, #232
	movs	r0, #0
.Ltmp249:
	.loc	2 635 11 is_stmt 1              @ source/app.c:635:11
	strb	r0, [r1]
	add	r1, sp, #236
.Ltmp250:
	.loc	2 636 9                         @ source/app.c:636:9
	strb	r0, [r1]
	.loc	2 636 8 is_stmt 0               @ source/app.c:636:8
	b	.LBB5_45
.LBB5_45:                               @   Parent Loop BB5_1 Depth=1
                                        @ =>  This Inner Loop Header: Depth=2
	.loc	2 0 8                           @ source/app.c:0:8
	add	r0, sp, #236
.Ltmp251:
	.loc	2 636 12                        @ source/app.c:636:12
	ldrb	r0, [r0]
.Ltmp252:
	.loc	2 636 4                         @ source/app.c:636:4
	cmp	r0, #1
	bhi	.LBB5_48
	b	.LBB5_46
.LBB5_46:                               @   in Loop: Header=BB5_45 Depth=2
.Ltmp253:
	.loc	2 637 16 is_stmt 1              @ source/app.c:637:16
	ldr	r0, [sp, #208]
	add	r1, sp, #236
	.loc	2 637 31 is_stmt 0              @ source/app.c:637:31
	str	r1, [sp, #116]                  @ 4-byte Spill
	ldrb	r2, [r1]
	.loc	2 637 20                        @ source/app.c:637:20
	ldr	r1, __arm_cp.5_9
	str	r1, [sp, #120]                  @ 4-byte Spill
	ldrb	r1, [r1, r2]
	.loc	2 637 5                         @ source/app.c:637:5
	bl	fifo_write
	ldr	r1, [sp, #116]                  @ 4-byte Reload
	ldr	r0, [sp, #120]                  @ 4-byte Reload
	.loc	2 638 26 is_stmt 1              @ source/app.c:638:26
	ldrb	r1, [r1]
	.loc	2 638 15 is_stmt 0              @ source/app.c:638:15
	ldrb	r1, [r0, r1]
	.loc	2 638 12                        @ source/app.c:638:12
	ldr	r0, [sp, #232]
	adds	r0, r0, r1
	add	r1, sp, #232
	strb	r0, [r1]
	.loc	2 639 4 is_stmt 1               @ source/app.c:639:4
	b	.LBB5_47
.Ltmp254:
.LBB5_47:                               @   in Loop: Header=BB5_45 Depth=2
	.loc	2 636 36                        @ source/app.c:636:36
	ldr	r0, [sp, #236]
	adds	r0, r0, #1
	add	r1, sp, #236
	strb	r0, [r1]
	.loc	2 636 4 is_stmt 0               @ source/app.c:636:4
	b	.LBB5_45
.Ltmp255:
.LBB5_48:                               @   in Loop: Header=BB5_1 Depth=1
	.loc	2 640 15 is_stmt 1              @ source/app.c:640:15
	ldr	r0, [sp, #208]
	add	r1, sp, #232
	.loc	2 640 19 is_stmt 0              @ source/app.c:640:19
	str	r1, [sp, #112]                  @ 4-byte Spill
	ldrb	r1, [r1]
	.loc	2 640 4                         @ source/app.c:640:4
	bl	fifo_write
	ldr	r1, [sp, #112]                  @ 4-byte Reload
	.loc	2 641 14 is_stmt 1              @ source/app.c:641:14
	ldr	r0, [sp, #232]
	.loc	2 641 13 is_stmt 0              @ source/app.c:641:13
	mvns	r0, r0
	.loc	2 641 11                        @ source/app.c:641:11
	strb	r0, [r1]
	.loc	2 642 15 is_stmt 1              @ source/app.c:642:15
	ldr	r0, [sp, #208]
	.loc	2 642 19 is_stmt 0              @ source/app.c:642:19
	ldrb	r1, [r1]
	.loc	2 642 4                         @ source/app.c:642:4
	bl	fifo_write
	.loc	2 643 3 is_stmt 1               @ source/app.c:643:3
	b	.LBB5_121
.Ltmp256:
.LBB5_49:                               @   in Loop: Header=BB5_1 Depth=1
	.loc	2 0 3 is_stmt 0                 @ source/app.c:0:3
	add	r0, sp, #244
.Ltmp257:
	.loc	2 644 11 is_stmt 1              @ source/app.c:644:11
	ldrb	r0, [r0]
.Ltmp258:
	.loc	2 644 11 is_stmt 0              @ source/app.c:644:11
	cmp	r0, #169
	bne	.LBB5_55
	b	.LBB5_50
.LBB5_50:                               @   in Loop: Header=BB5_1 Depth=1
	.loc	2 0 11                          @ source/app.c:0:11
	add	r1, sp, #232
	movs	r0, #0
.Ltmp259:
	.loc	2 645 11 is_stmt 1              @ source/app.c:645:11
	strb	r0, [r1]
	add	r1, sp, #236
.Ltmp260:
	.loc	2 646 9                         @ source/app.c:646:9
	strb	r0, [r1]
	.loc	2 646 8 is_stmt 0               @ source/app.c:646:8
	b	.LBB5_51
.LBB5_51:                               @   Parent Loop BB5_1 Depth=1
                                        @ =>  This Inner Loop Header: Depth=2
	.loc	2 0 8                           @ source/app.c:0:8
	add	r0, sp, #236
.Ltmp261:
	.loc	2 646 12                        @ source/app.c:646:12
	ldrb	r0, [r0]
.Ltmp262:
	.loc	2 646 4                         @ source/app.c:646:4
	cmp	r0, #5
	bhi	.LBB5_54
	b	.LBB5_52
.LBB5_52:                               @   in Loop: Header=BB5_51 Depth=2
.Ltmp263:
	.loc	2 647 16 is_stmt 1              @ source/app.c:647:16
	ldr	r0, [sp, #208]
	add	r1, sp, #236
	.loc	2 647 31 is_stmt 0              @ source/app.c:647:31
	str	r1, [sp, #104]                  @ 4-byte Spill
	ldrb	r2, [r1]
	.loc	2 647 20                        @ source/app.c:647:20
	ldr	r1, __arm_cp.5_10
	str	r1, [sp, #108]                  @ 4-byte Spill
	ldrb	r1, [r1, r2]
	.loc	2 647 5                         @ source/app.c:647:5
	bl	fifo_write
	ldr	r1, [sp, #104]                  @ 4-byte Reload
	ldr	r0, [sp, #108]                  @ 4-byte Reload
	.loc	2 648 26 is_stmt 1              @ source/app.c:648:26
	ldrb	r1, [r1]
	.loc	2 648 15 is_stmt 0              @ source/app.c:648:15
	ldrb	r1, [r0, r1]
	.loc	2 648 12                        @ source/app.c:648:12
	ldr	r0, [sp, #232]
	adds	r0, r0, r1
	add	r1, sp, #232
	strb	r0, [r1]
	.loc	2 649 4 is_stmt 1               @ source/app.c:649:4
	b	.LBB5_53
.Ltmp264:
.LBB5_53:                               @   in Loop: Header=BB5_51 Depth=2
	.loc	2 646 36                        @ source/app.c:646:36
	ldr	r0, [sp, #236]
	adds	r0, r0, #1
	add	r1, sp, #236
	strb	r0, [r1]
	.loc	2 646 4 is_stmt 0               @ source/app.c:646:4
	b	.LBB5_51
.Ltmp265:
.LBB5_54:                               @   in Loop: Header=BB5_1 Depth=1
	.loc	2 650 15 is_stmt 1              @ source/app.c:650:15
	ldr	r0, [sp, #208]
	add	r1, sp, #232
	.loc	2 650 19 is_stmt 0              @ source/app.c:650:19
	str	r1, [sp, #100]                  @ 4-byte Spill
	ldrb	r1, [r1]
	.loc	2 650 4                         @ source/app.c:650:4
	bl	fifo_write
	ldr	r1, [sp, #100]                  @ 4-byte Reload
	.loc	2 651 14 is_stmt 1              @ source/app.c:651:14
	ldr	r0, [sp, #232]
	.loc	2 651 13 is_stmt 0              @ source/app.c:651:13
	mvns	r0, r0
	.loc	2 651 11                        @ source/app.c:651:11
	strb	r0, [r1]
	.loc	2 652 15 is_stmt 1              @ source/app.c:652:15
	ldr	r0, [sp, #208]
	.loc	2 652 19 is_stmt 0              @ source/app.c:652:19
	ldrb	r1, [r1]
	.loc	2 652 4                         @ source/app.c:652:4
	bl	fifo_write
	.loc	2 653 3 is_stmt 1               @ source/app.c:653:3
	b	.LBB5_120
.Ltmp266:
.LBB5_55:                               @   in Loop: Header=BB5_1 Depth=1
	.loc	2 0 3 is_stmt 0                 @ source/app.c:0:3
	add	r0, sp, #244
.Ltmp267:
	.loc	2 654 11 is_stmt 1              @ source/app.c:654:11
	ldrb	r0, [r0]
.Ltmp268:
	.loc	2 654 11 is_stmt 0              @ source/app.c:654:11
	cmp	r0, #172
	bne	.LBB5_66
	b	.LBB5_61
	.loc	2 0 11                          @ :0:11
.Ltmp269:
	.p2align	2
@ %bb.56:
__arm_cp.5_6:
	.long	spi_cpux
.Lcpi_end38:
	.size	__arm_cp.5_6, .Lcpi_end38-__arm_cp.5_6
	.p2align	2
@ %bb.57:
__arm_cp.5_7:
	.long	cpu_state
.Lcpi_end39:
	.size	__arm_cp.5_7, .Lcpi_end39-__arm_cp.5_7
	.p2align	2
@ %bb.58:
.LCPI5_8:
	.long	db
	.p2align	2
@ %bb.59:
__arm_cp.5_9:
	.long	vo_u
.Lcpi_end40:
	.size	__arm_cp.5_9, .Lcpi_end40-__arm_cp.5_9
	.p2align	2
@ %bb.60:
__arm_cp.5_10:
	.long	lo_u
.Lcpi_end41:
	.size	__arm_cp.5_10, .Lcpi_end41-__arm_cp.5_10
	.p2align	1
.LBB5_61:                               @   in Loop: Header=BB5_1 Depth=1
	add	r1, sp, #232
	movs	r0, #0
.Ltmp270:
	.loc	2 655 11 is_stmt 1              @ source/app.c:655:11
	strb	r0, [r1]
	add	r1, sp, #236
.Ltmp271:
	.loc	2 656 9                         @ source/app.c:656:9
	strb	r0, [r1]
	.loc	2 656 8 is_stmt 0               @ source/app.c:656:8
	b	.LBB5_62
.LBB5_62:                               @   Parent Loop BB5_1 Depth=1
                                        @ =>  This Inner Loop Header: Depth=2
	.loc	2 0 8                           @ source/app.c:0:8
	add	r0, sp, #236
.Ltmp272:
	.loc	2 656 12                        @ source/app.c:656:12
	ldrb	r0, [r0]
.Ltmp273:
	.loc	2 656 4                         @ source/app.c:656:4
	cmp	r0, #4
	bhi	.LBB5_65
	b	.LBB5_63
.LBB5_63:                               @   in Loop: Header=BB5_62 Depth=2
.Ltmp274:
	.loc	2 657 16 is_stmt 1              @ source/app.c:657:16
	ldr	r0, [sp, #208]
	add	r1, sp, #236
	.loc	2 657 38 is_stmt 0              @ source/app.c:657:38
	str	r1, [sp, #92]                   @ 4-byte Spill
	ldrb	r2, [r1]
	.loc	2 657 20                        @ source/app.c:657:20
	ldr	r1, .LCPI5_11
	adds	r1, #196
	str	r1, [sp, #96]                   @ 4-byte Spill
	ldrb	r1, [r1, r2]
	.loc	2 657 5                         @ source/app.c:657:5
	bl	fifo_write
	ldr	r1, [sp, #92]                   @ 4-byte Reload
	ldr	r0, [sp, #96]                   @ 4-byte Reload
	.loc	2 658 33 is_stmt 1              @ source/app.c:658:33
	ldrb	r1, [r1]
	.loc	2 658 15 is_stmt 0              @ source/app.c:658:15
	ldrb	r1, [r0, r1]
	.loc	2 658 12                        @ source/app.c:658:12
	ldr	r0, [sp, #232]
	adds	r0, r0, r1
	add	r1, sp, #232
	strb	r0, [r1]
	.loc	2 659 4 is_stmt 1               @ source/app.c:659:4
	b	.LBB5_64
.Ltmp275:
.LBB5_64:                               @   in Loop: Header=BB5_62 Depth=2
	.loc	2 656 35                        @ source/app.c:656:35
	ldr	r0, [sp, #236]
	adds	r0, r0, #1
	add	r1, sp, #236
	strb	r0, [r1]
	.loc	2 656 4 is_stmt 0               @ source/app.c:656:4
	b	.LBB5_62
.Ltmp276:
.LBB5_65:                               @   in Loop: Header=BB5_1 Depth=1
	.loc	2 660 15 is_stmt 1              @ source/app.c:660:15
	ldr	r0, [sp, #208]
	add	r1, sp, #232
	.loc	2 660 19 is_stmt 0              @ source/app.c:660:19
	str	r1, [sp, #88]                   @ 4-byte Spill
	ldrb	r1, [r1]
	.loc	2 660 4                         @ source/app.c:660:4
	bl	fifo_write
	ldr	r1, [sp, #88]                   @ 4-byte Reload
	.loc	2 661 14 is_stmt 1              @ source/app.c:661:14
	ldr	r0, [sp, #232]
	.loc	2 661 13 is_stmt 0              @ source/app.c:661:13
	mvns	r0, r0
	.loc	2 661 11                        @ source/app.c:661:11
	strb	r0, [r1]
	.loc	2 662 15 is_stmt 1              @ source/app.c:662:15
	ldr	r0, [sp, #208]
	.loc	2 662 19 is_stmt 0              @ source/app.c:662:19
	ldrb	r1, [r1]
	.loc	2 662 4                         @ source/app.c:662:4
	bl	fifo_write
	.loc	2 663 3 is_stmt 1               @ source/app.c:663:3
	b	.LBB5_119
.Ltmp277:
.LBB5_66:                               @   in Loop: Header=BB5_1 Depth=1
	.loc	2 0 3 is_stmt 0                 @ source/app.c:0:3
	add	r0, sp, #244
.Ltmp278:
	.loc	2 664 11 is_stmt 1              @ source/app.c:664:11
	ldrb	r0, [r0]
.Ltmp279:
	.loc	2 664 11 is_stmt 0              @ source/app.c:664:11
	cmp	r0, #173
	bne	.LBB5_68
	b	.LBB5_67
.LBB5_67:                               @   in Loop: Header=BB5_1 Depth=1
.Ltmp280:
	.loc	2 665 15 is_stmt 1              @ source/app.c:665:15
	ldr	r0, [sp, #208]
	.loc	2 665 29 is_stmt 0              @ source/app.c:665:29
	ldr	r1, __arm_cp.5_2
	str	r1, [sp, #80]                   @ 4-byte Spill
	ldrb	r1, [r1]
	lsls	r1, r1, #26
	lsrs	r1, r1, #30
	.loc	2 665 4                         @ source/app.c:665:4
	bl	fifo_write
	ldr	r0, [sp, #80]                   @ 4-byte Reload
	.loc	2 666 23 is_stmt 1              @ source/app.c:666:23
	ldrb	r0, [r0]
	lsls	r0, r0, #26
	lsrs	r0, r0, #30
	add	r1, sp, #232
	.loc	2 666 11 is_stmt 0              @ source/app.c:666:11
	str	r1, [sp, #84]                   @ 4-byte Spill
	strb	r0, [r1]
	.loc	2 667 15 is_stmt 1              @ source/app.c:667:15
	ldr	r0, [sp, #208]
	.loc	2 667 19 is_stmt 0              @ source/app.c:667:19
	ldrb	r1, [r1]
	.loc	2 667 4                         @ source/app.c:667:4
	bl	fifo_write
	ldr	r1, [sp, #84]                   @ 4-byte Reload
	.loc	2 668 14 is_stmt 1              @ source/app.c:668:14
	ldr	r0, [sp, #232]
	.loc	2 668 13 is_stmt 0              @ source/app.c:668:13
	mvns	r0, r0
	.loc	2 668 11                        @ source/app.c:668:11
	strb	r0, [r1]
	.loc	2 669 15 is_stmt 1              @ source/app.c:669:15
	ldr	r0, [sp, #208]
	.loc	2 669 19 is_stmt 0              @ source/app.c:669:19
	ldrb	r1, [r1]
	.loc	2 669 4                         @ source/app.c:669:4
	bl	fifo_write
	.loc	2 670 3 is_stmt 1               @ source/app.c:670:3
	b	.LBB5_118
.Ltmp281:
.LBB5_68:                               @   in Loop: Header=BB5_1 Depth=1
	.loc	2 0 3 is_stmt 0                 @ source/app.c:0:3
	add	r0, sp, #244
.Ltmp282:
	.loc	2 671 11 is_stmt 1              @ source/app.c:671:11
	ldrb	r0, [r0]
.Ltmp283:
	.loc	2 671 11 is_stmt 0              @ source/app.c:671:11
	cmp	r0, #180
	bne	.LBB5_82
	b	.LBB5_69
.LBB5_69:                               @   in Loop: Header=BB5_1 Depth=1
	.loc	2 0 11                          @ source/app.c:0:11
	add	r1, sp, #236
	movs	r0, #0
.Ltmp284:
	.loc	2 672 9 is_stmt 1               @ source/app.c:672:9
	strb	r0, [r1]
	.loc	2 672 8 is_stmt 0               @ source/app.c:672:8
	b	.LBB5_70
.LBB5_70:                               @   Parent Loop BB5_1 Depth=1
                                        @ =>  This Inner Loop Header: Depth=2
	.loc	2 0 8                           @ source/app.c:0:8
	add	r0, sp, #236
.Ltmp285:
	.loc	2 672 13                        @ source/app.c:672:13
	ldrb	r0, [r0]
.Ltmp286:
	.loc	2 672 4                         @ source/app.c:672:4
	cmp	r0, #1
	bhi	.LBB5_73
	b	.LBB5_71
.LBB5_71:                               @   in Loop: Header=BB5_70 Depth=2
.Ltmp287:
	.loc	2 673 15 is_stmt 1              @ source/app.c:673:15
	ldr	r0, [sp, #212]
	add	r1, sp, #236
	.loc	2 673 22 is_stmt 0              @ source/app.c:673:22
	str	r1, [sp, #72]                   @ 4-byte Spill
	ldrb	r2, [r1]
	add	r1, sp, #216
	.loc	2 673 20                        @ source/app.c:673:20
	str	r1, [sp, #76]                   @ 4-byte Spill
	adds	r1, r1, r2
	.loc	2 673 5                         @ source/app.c:673:5
	bl	fifo_read
	ldr	r1, [sp, #72]                   @ 4-byte Reload
	ldr	r0, [sp, #76]                   @ 4-byte Reload
	.loc	2 674 15 is_stmt 1              @ source/app.c:674:15
	ldrb	r1, [r1]
	.loc	2 674 13 is_stmt 0              @ source/app.c:674:13
	ldrb	r1, [r0, r1]
	.loc	2 674 11                        @ source/app.c:674:11
	ldr	r0, [sp, #232]
	adds	r0, r0, r1
	add	r1, sp, #232
	strb	r0, [r1]
	.loc	2 675 4 is_stmt 1               @ source/app.c:675:4
	b	.LBB5_72
.Ltmp288:
.LBB5_72:                               @   in Loop: Header=BB5_70 Depth=2
	.loc	2 672 39                        @ source/app.c:672:39
	ldr	r0, [sp, #236]
	adds	r0, r0, #1
	add	r1, sp, #236
	strb	r0, [r1]
	.loc	2 672 4 is_stmt 0               @ source/app.c:672:4
	b	.LBB5_70
.Ltmp289:
.LBB5_73:                               @   in Loop: Header=BB5_1 Depth=1
	.loc	2 677 14 is_stmt 1              @ source/app.c:677:14
	ldr	r0, [sp, #212]
	add	r1, sp, #228
	.loc	2 677 4 is_stmt 0               @ source/app.c:677:4
	str	r1, [sp, #68]                   @ 4-byte Spill
	bl	fifo_read
	.loc	2 678 14 is_stmt 1              @ source/app.c:678:14
	ldr	r0, [sp, #212]
	add	r1, sp, #224
	.loc	2 678 4 is_stmt 0               @ source/app.c:678:4
	str	r1, [sp, #64]                   @ 4-byte Spill
	bl	fifo_read
	ldr	r2, [sp, #64]                   @ 4-byte Reload
	ldr	r1, [sp, #68]                   @ 4-byte Reload
	.loc	2 679 12 is_stmt 1              @ source/app.c:679:12
	ldr	r0, [sp, #224]
	.loc	2 679 11 is_stmt 0              @ source/app.c:679:11
	mvns	r0, r0
	.loc	2 679 9                         @ source/app.c:679:9
	strb	r0, [r2]
	add	r0, sp, #232
.Ltmp290:
	.loc	2 680 8 is_stmt 1               @ source/app.c:680:8
	ldrb	r0, [r0]
	.loc	2 680 18 is_stmt 0              @ source/app.c:680:18
	ldrb	r1, [r1]
	.loc	2 680 21                        @ source/app.c:680:21
	cmp	r0, r1
	bne	.LBB5_80
	b	.LBB5_74
.LBB5_74:                               @   in Loop: Header=BB5_1 Depth=1
	.loc	2 0 21                          @ source/app.c:0:21
	add	r0, sp, #232
	.loc	2 680 25                        @ source/app.c:680:25
	ldrb	r0, [r0]
	add	r1, sp, #224
	.loc	2 680 35                        @ source/app.c:680:35
	ldrb	r1, [r1]
.Ltmp291:
	.loc	2 680 7                         @ source/app.c:680:7
	cmp	r0, r1
	bne	.LBB5_80
	b	.LBB5_75
.LBB5_75:                               @   in Loop: Header=BB5_1 Depth=1
.Ltmp292:
	.loc	2 681 16 is_stmt 1              @ source/app.c:681:16
	ldr	r0, [sp, #208]
	movs	r1, #170
	.loc	2 681 5 is_stmt 0               @ source/app.c:681:5
	str	r1, [sp, #56]                   @ 4-byte Spill
	bl	fifo_write
	ldr	r0, [sp, #56]                   @ 4-byte Reload
	add	r1, sp, #232
	.loc	2 682 12 is_stmt 1              @ source/app.c:682:12
	str	r1, [sp, #60]                   @ 4-byte Spill
	strb	r0, [r1]
	.loc	2 683 16                        @ source/app.c:683:16
	ldr	r0, [sp, #208]
	.loc	2 683 20 is_stmt 0              @ source/app.c:683:20
	ldrb	r1, [r1]
	.loc	2 683 5                         @ source/app.c:683:5
	bl	fifo_write
	ldr	r1, [sp, #60]                   @ 4-byte Reload
	.loc	2 684 16 is_stmt 1              @ source/app.c:684:16
	ldr	r0, [sp, #208]
	.loc	2 684 21 is_stmt 0              @ source/app.c:684:21
	ldrb	r1, [r1]
	movs	r2, #255
	.loc	2 684 5                         @ source/app.c:684:5
	eors	r1, r2
	bl	fifo_write
	add	r1, sp, #236
	movs	r0, #0
.Ltmp293:
	.loc	2 686 10 is_stmt 1              @ source/app.c:686:10
	strb	r0, [r1]
	.loc	2 686 9 is_stmt 0               @ source/app.c:686:9
	b	.LBB5_76
.LBB5_76:                               @   Parent Loop BB5_1 Depth=1
                                        @ =>  This Inner Loop Header: Depth=2
	.loc	2 0 9                           @ source/app.c:0:9
	add	r0, sp, #236
.Ltmp294:
	.loc	2 686 14                        @ source/app.c:686:14
	ldrb	r0, [r0]
.Ltmp295:
	.loc	2 686 5                         @ source/app.c:686:5
	cmp	r0, #1
	bhi	.LBB5_79
	b	.LBB5_77
.LBB5_77:                               @   in Loop: Header=BB5_76 Depth=2
	.loc	2 0 5                           @ source/app.c:0:5
	add	r0, sp, #236
.Ltmp296:
	.loc	2 687 27 is_stmt 1              @ source/app.c:687:27
	ldrb	r2, [r0]
	add	r0, sp, #216
	.loc	2 687 25 is_stmt 0              @ source/app.c:687:25
	ldrb	r0, [r0, r2]
	.loc	2 687 6                         @ source/app.c:687:6
	ldr	r1, __arm_cp.5_2
	.loc	2 687 23                        @ source/app.c:687:23
	strb	r0, [r1, r2]
	.loc	2 688 5 is_stmt 1               @ source/app.c:688:5
	b	.LBB5_78
.Ltmp297:
.LBB5_78:                               @   in Loop: Header=BB5_76 Depth=2
	.loc	2 686 40                        @ source/app.c:686:40
	ldr	r0, [sp, #236]
	adds	r0, r0, #1
	add	r1, sp, #236
	strb	r0, [r1]
	.loc	2 686 5 is_stmt 0               @ source/app.c:686:5
	b	.LBB5_76
.Ltmp298:
.LBB5_79:                               @   in Loop: Header=BB5_1 Depth=1
	.loc	2 689 4 is_stmt 1               @ source/app.c:689:4
	b	.LBB5_81
.Ltmp299:
.LBB5_80:                               @   in Loop: Header=BB5_1 Depth=1
	.loc	2 0 4 is_stmt 0                 @ source/app.c:0:4
	b	.LBB5_81
.LBB5_81:                               @   in Loop: Header=BB5_1 Depth=1
	.loc	2 694 3 is_stmt 1               @ source/app.c:694:3
	b	.LBB5_117
.Ltmp300:
.LBB5_82:                               @   in Loop: Header=BB5_1 Depth=1
	.loc	2 0 3 is_stmt 0                 @ source/app.c:0:3
	add	r0, sp, #244
.Ltmp301:
	.loc	2 695 11 is_stmt 1              @ source/app.c:695:11
	ldrb	r0, [r0]
.Ltmp302:
	.loc	2 695 11 is_stmt 0              @ source/app.c:695:11
	cmp	r0, #165
	bne	.LBB5_94
	b	.LBB5_83
.LBB5_83:                               @   in Loop: Header=BB5_1 Depth=1
.Ltmp303:
	.loc	2 696 14 is_stmt 1              @ source/app.c:696:14
	ldr	r0, [sp, #212]
	add	r1, sp, #240
	.loc	2 696 4 is_stmt 0               @ source/app.c:696:4
	str	r1, [sp, #52]                   @ 4-byte Spill
	bl	fifo_read
	ldr	r0, [sp, #52]                   @ 4-byte Reload
	.loc	2 697 13 is_stmt 1              @ source/app.c:697:13
	ldr	r2, [sp, #240]
	.loc	2 697 11 is_stmt 0              @ source/app.c:697:11
	ldr	r1, [sp, #232]
	adds	r1, r1, r2
	add	r2, sp, #232
	strb	r1, [r2]
.Ltmp304:
	.loc	2 698 7 is_stmt 1               @ source/app.c:698:7
	ldrb	r0, [r0]
.Ltmp305:
	.loc	2 698 7 is_stmt 0               @ source/app.c:698:7
	cmp	r0, #0
	bne	.LBB5_92
	b	.LBB5_84
.LBB5_84:                               @   in Loop: Header=BB5_1 Depth=1
.Ltmp306:
	.loc	2 699 15 is_stmt 1              @ source/app.c:699:15
	ldr	r0, [sp, #212]
	add	r1, sp, #244
	.loc	2 699 5 is_stmt 0               @ source/app.c:699:5
	bl	fifo_read
	.loc	2 700 15 is_stmt 1              @ source/app.c:700:15
	ldr	r1, [sp, #244]
	.loc	2 700 12 is_stmt 0              @ source/app.c:700:12
	ldr	r0, [sp, #232]
	adds	r0, r0, r1
	add	r1, sp, #232
	str	r1, [sp, #44]                   @ 4-byte Spill
	strb	r0, [r1]
	.loc	2 701 15 is_stmt 1              @ source/app.c:701:15
	ldr	r0, [sp, #212]
	add	r1, sp, #228
	.loc	2 701 5 is_stmt 0               @ source/app.c:701:5
	str	r1, [sp, #48]                   @ 4-byte Spill
	bl	fifo_read
	.loc	2 702 15 is_stmt 1              @ source/app.c:702:15
	ldr	r0, [sp, #212]
	add	r1, sp, #224
	.loc	2 702 5 is_stmt 0               @ source/app.c:702:5
	bl	fifo_read
	ldr	r0, [sp, #44]                   @ 4-byte Reload
	ldr	r1, [sp, #48]                   @ 4-byte Reload
.Ltmp307:
	.loc	2 703 9 is_stmt 1               @ source/app.c:703:9
	ldrb	r0, [r0]
	.loc	2 703 19 is_stmt 0              @ source/app.c:703:19
	ldrb	r1, [r1]
	.loc	2 703 22                        @ source/app.c:703:22
	cmp	r0, r1
	bne	.LBB5_86
	b	.LBB5_85
.LBB5_85:                               @   in Loop: Header=BB5_1 Depth=1
	.loc	2 0 22                          @ source/app.c:0:22
	add	r0, sp, #232
	.loc	2 703 26                        @ source/app.c:703:26
	ldrb	r0, [r0]
	add	r1, sp, #224
	.loc	2 703 38                        @ source/app.c:703:38
	ldrb	r1, [r1]
	.loc	2 703 37                        @ source/app.c:703:37
	mvns	r1, r1
.Ltmp308:
	.loc	2 703 8                         @ source/app.c:703:8
	cmp	r0, r1
	beq	.LBB5_87
	b	.LBB5_86
.LBB5_86:
.Ltmp309:
	.loc	2 703 47                        @ source/app.c:703:47
	b	.LBB5_128
.Ltmp310:
.LBB5_87:                               @   in Loop: Header=BB5_1 Depth=1
	.loc	2 0 47                          @ source/app.c:0:47
	b	.LBB5_88
.LBB5_88:                               @   in Loop: Header=BB5_1 Depth=1
	add	r0, sp, #244
.Ltmp311:
	.loc	2 709 10 is_stmt 1              @ source/app.c:709:10
	ldrb	r0, [r0]
.Ltmp312:
	.loc	2 709 9 is_stmt 0               @ source/app.c:709:9
	lsls	r0, r0, #31
	cbnz	r0, .LBB5_90
	b	.LBB5_89
.LBB5_89:                               @   in Loop: Header=BB5_1 Depth=1
	.loc	2 0 9                           @ source/app.c:0:9
	add	r0, sp, #244
.Ltmp313:
	.loc	2 710 21 is_stmt 1              @ source/app.c:710:21
	ldrb	r0, [r0]
	movs	r1, #254
	.loc	2 710 10 is_stmt 0              @ source/app.c:710:10
	ands	r0, r1
	lsls	r1, r0, #2
	ldr	r0, __arm_cp.5_1
	adds	r0, r0, r1
	ldrb	r0, [r0, #27]
	movs	r1, #1
	.loc	2 710 33                        @ source/app.c:710:33
	ands	r0, r1
	add	r1, sp, #236
	.loc	2 710 8                         @ source/app.c:710:8
	strb	r0, [r1]
	.loc	2 711 5 is_stmt 1               @ source/app.c:711:5
	b	.LBB5_91
.Ltmp314:
.LBB5_90:                               @   in Loop: Header=BB5_1 Depth=1
	.loc	2 0 5 is_stmt 0                 @ source/app.c:0:5
	add	r0, sp, #244
.Ltmp315:
	.loc	2 713 21 is_stmt 1              @ source/app.c:713:21
	ldrb	r0, [r0]
	movs	r1, #254
	.loc	2 713 10 is_stmt 0              @ source/app.c:713:10
	ands	r0, r1
	lsls	r1, r0, #2
	ldr	r0, __arm_cp.5_1
	adds	r0, r0, r1
	ldrb	r0, [r0, #27]
	movs	r1, #2
	.loc	2 713 33                        @ source/app.c:713:33
	ands	r0, r1
	add	r1, sp, #236
	.loc	2 713 8                         @ source/app.c:713:8
	strb	r0, [r1]
	b	.LBB5_91
.Ltmp316:
.LBB5_91:                               @   in Loop: Header=BB5_1 Depth=1
	.loc	2 0 8                           @ source/app.c:0:8
	add	r0, sp, #236
	.loc	2 715 11 is_stmt 1              @ source/app.c:715:11
	ldrb	r0, [r0]
	.loc	2 715 12 is_stmt 0              @ source/app.c:715:12
	subs	r1, r0, #1
	sbcs	r0, r1
	add	r1, sp, #244
	.loc	2 715 8                         @ source/app.c:715:8
	strb	r0, [r1]
	.loc	2 716 16 is_stmt 1              @ source/app.c:716:16
	ldr	r0, [sp, #208]
	.loc	2 716 20 is_stmt 0              @ source/app.c:716:20
	ldrb	r1, [r1]
	.loc	2 716 5                         @ source/app.c:716:5
	bl	fifo_write
	.loc	2 717 14 is_stmt 1              @ source/app.c:717:14
	ldr	r0, [sp, #244]
	add	r1, sp, #232
	.loc	2 717 12 is_stmt 0              @ source/app.c:717:12
	str	r1, [sp, #40]                   @ 4-byte Spill
	strb	r0, [r1]
	.loc	2 718 16 is_stmt 1              @ source/app.c:718:16
	ldr	r0, [sp, #208]
	.loc	2 718 20 is_stmt 0              @ source/app.c:718:20
	ldrb	r1, [r1]
	.loc	2 718 5                         @ source/app.c:718:5
	bl	fifo_write
	ldr	r1, [sp, #40]                   @ 4-byte Reload
	.loc	2 719 16 is_stmt 1              @ source/app.c:719:16
	ldr	r0, [sp, #208]
	.loc	2 719 21 is_stmt 0              @ source/app.c:719:21
	ldrb	r1, [r1]
	movs	r2, #255
	.loc	2 719 5                         @ source/app.c:719:5
	eors	r1, r2
	bl	fifo_write
	.loc	2 720 4 is_stmt 1               @ source/app.c:720:4
	b	.LBB5_93
.Ltmp317:
.LBB5_92:                               @   in Loop: Header=BB5_1 Depth=1
	.loc	2 0 4 is_stmt 0                 @ source/app.c:0:4
	b	.LBB5_93
.LBB5_93:                               @   in Loop: Header=BB5_1 Depth=1
	.loc	2 725 3 is_stmt 1               @ source/app.c:725:3
	b	.LBB5_116
.Ltmp318:
.LBB5_94:                               @   in Loop: Header=BB5_1 Depth=1
	.loc	2 0 3 is_stmt 0                 @ source/app.c:0:3
	add	r0, sp, #244
.Ltmp319:
	.loc	2 726 11 is_stmt 1              @ source/app.c:726:11
	ldrb	r0, [r0]
.Ltmp320:
	.loc	2 726 11 is_stmt 0              @ source/app.c:726:11
	cmp	r0, #177
	beq	.LBB5_95
	b	.LBB5_114
.LBB5_95:                               @   in Loop: Header=BB5_1 Depth=1
.Ltmp321:
	.loc	2 727 14 is_stmt 1              @ source/app.c:727:14
	ldr	r0, [sp, #212]
	add	r1, sp, #244
	.loc	2 727 4 is_stmt 0               @ source/app.c:727:4
	str	r1, [sp, #36]                   @ 4-byte Spill
	bl	fifo_read
	ldr	r0, [sp, #36]                   @ 4-byte Reload
	.loc	2 728 14 is_stmt 1              @ source/app.c:728:14
	ldr	r2, [sp, #244]
	.loc	2 728 11 is_stmt 0              @ source/app.c:728:11
	ldr	r1, [sp, #232]
	adds	r1, r1, r2
	add	r2, sp, #232
	strb	r1, [r2]
.Ltmp322:
	.loc	2 729 7 is_stmt 1               @ source/app.c:729:7
	ldrb	r0, [r0]
.Ltmp323:
	.loc	2 729 7 is_stmt 0               @ source/app.c:729:7
	cmp	r0, #0
	bne	.LBB5_104
	b	.LBB5_96
.LBB5_96:                               @   in Loop: Header=BB5_1 Depth=1
.Ltmp324:
	.loc	2 730 15 is_stmt 1              @ source/app.c:730:15
	ldr	r0, [sp, #212]
	add	r1, sp, #244
	.loc	2 730 5 is_stmt 0               @ source/app.c:730:5
	bl	fifo_read
	.loc	2 731 15 is_stmt 1              @ source/app.c:731:15
	ldr	r1, [sp, #244]
	.loc	2 731 12 is_stmt 0              @ source/app.c:731:12
	ldr	r0, [sp, #232]
	adds	r0, r0, r1
	add	r1, sp, #232
	str	r1, [sp, #28]                   @ 4-byte Spill
	strb	r0, [r1]
	.loc	2 732 15 is_stmt 1              @ source/app.c:732:15
	ldr	r0, [sp, #212]
	add	r1, sp, #236
	.loc	2 732 5 is_stmt 0               @ source/app.c:732:5
	bl	fifo_read
	ldr	r1, [sp, #28]                   @ 4-byte Reload
	.loc	2 733 15 is_stmt 1              @ source/app.c:733:15
	ldr	r2, [sp, #236]
	.loc	2 733 12 is_stmt 0              @ source/app.c:733:12
	ldr	r0, [sp, #232]
	adds	r0, r0, r2
	strb	r0, [r1]
	.loc	2 734 15 is_stmt 1              @ source/app.c:734:15
	ldr	r0, [sp, #212]
	add	r1, sp, #228
	.loc	2 734 5 is_stmt 0               @ source/app.c:734:5
	str	r1, [sp, #32]                   @ 4-byte Spill
	bl	fifo_read
	.loc	2 735 15 is_stmt 1              @ source/app.c:735:15
	ldr	r0, [sp, #212]
	add	r1, sp, #224
	.loc	2 735 5 is_stmt 0               @ source/app.c:735:5
	bl	fifo_read
	ldr	r0, [sp, #28]                   @ 4-byte Reload
	ldr	r1, [sp, #32]                   @ 4-byte Reload
.Ltmp325:
	.loc	2 736 9 is_stmt 1               @ source/app.c:736:9
	ldrb	r0, [r0]
	.loc	2 736 19 is_stmt 0              @ source/app.c:736:19
	ldrb	r1, [r1]
	.loc	2 736 22                        @ source/app.c:736:22
	cmp	r0, r1
	bne	.LBB5_98
	b	.LBB5_97
.LBB5_97:                               @   in Loop: Header=BB5_1 Depth=1
	.loc	2 0 22                          @ source/app.c:0:22
	add	r0, sp, #232
	.loc	2 736 26                        @ source/app.c:736:26
	ldrb	r0, [r0]
	add	r1, sp, #224
	.loc	2 736 38                        @ source/app.c:736:38
	ldrb	r1, [r1]
	.loc	2 736 37                        @ source/app.c:736:37
	mvns	r1, r1
.Ltmp326:
	.loc	2 736 8                         @ source/app.c:736:8
	cmp	r0, r1
	beq	.LBB5_99
	b	.LBB5_98
.LBB5_98:
.Ltmp327:
	.loc	2 736 47                        @ source/app.c:736:47
	b	.LBB5_128
.Ltmp328:
.LBB5_99:                               @   in Loop: Header=BB5_1 Depth=1
	.loc	2 0 47                          @ source/app.c:0:47
	b	.LBB5_100
.LBB5_100:                              @   in Loop: Header=BB5_1 Depth=1
	add	r0, sp, #244
.Ltmp329:
	.loc	2 742 10 is_stmt 1              @ source/app.c:742:10
	ldrb	r0, [r0]
.Ltmp330:
	.loc	2 742 9 is_stmt 0               @ source/app.c:742:9
	lsls	r0, r0, #31
	cbnz	r0, .LBB5_102
	b	.LBB5_101
.LBB5_101:                              @   in Loop: Header=BB5_1 Depth=1
	.loc	2 0 9                           @ source/app.c:0:9
	add	r1, sp, #244
.Ltmp331:
	.loc	2 743 17 is_stmt 1              @ source/app.c:743:17
	ldrb	r0, [r1]
	movs	r3, #254
	.loc	2 743 6 is_stmt 0               @ source/app.c:743:6
	ands	r0, r3
	lsls	r2, r0, #2
	ldr	r0, __arm_cp.5_1
	adds	r0, #24
	adds	r4, r0, r2
	.loc	2 743 29                        @ source/app.c:743:29
	ldrb	r2, [r4, #3]
	ands	r2, r3
	strb	r2, [r4, #3]
	add	r2, sp, #236
	.loc	2 744 43 is_stmt 1              @ source/app.c:744:43
	ldrb	r2, [r2]
	.loc	2 744 44 is_stmt 0              @ source/app.c:744:44
	subs	r4, r2, #1
	sbcs	r2, r4
	.loc	2 744 17                        @ source/app.c:744:17
	ldrb	r1, [r1]
	.loc	2 744 6                         @ source/app.c:744:6
	ands	r1, r3
	lsls	r1, r1, #2
	adds	r1, r0, r1
	.loc	2 744 29                        @ source/app.c:744:29
	ldrb	r0, [r1, #3]
	orrs	r0, r2
	strb	r0, [r1, #3]
	.loc	2 745 5 is_stmt 1               @ source/app.c:745:5
	b	.LBB5_103
.Ltmp332:
.LBB5_102:                              @   in Loop: Header=BB5_1 Depth=1
	.loc	2 0 5 is_stmt 0                 @ source/app.c:0:5
	add	r1, sp, #244
.Ltmp333:
	.loc	2 747 17 is_stmt 1              @ source/app.c:747:17
	ldrb	r0, [r1]
	movs	r3, #254
	.loc	2 747 6 is_stmt 0               @ source/app.c:747:6
	ands	r0, r3
	lsls	r2, r0, #2
	ldr	r0, __arm_cp.5_1
	adds	r0, #24
	adds	r4, r0, r2
	.loc	2 747 29                        @ source/app.c:747:29
	ldrb	r2, [r4, #3]
	movs	r5, #253
	ands	r2, r5
	strb	r2, [r4, #3]
	add	r2, sp, #236
	.loc	2 748 43 is_stmt 1              @ source/app.c:748:43
	ldrb	r2, [r2]
	subs	r4, r2, #1
	sbcs	r2, r4
	.loc	2 748 42 is_stmt 0              @ source/app.c:748:42
	lsls	r2, r2, #1
	.loc	2 748 17                        @ source/app.c:748:17
	ldrb	r1, [r1]
	.loc	2 748 6                         @ source/app.c:748:6
	ands	r1, r3
	lsls	r1, r1, #2
	adds	r1, r0, r1
	.loc	2 748 29                        @ source/app.c:748:29
	ldrb	r0, [r1, #3]
	orrs	r0, r2
	strb	r0, [r1, #3]
	b	.LBB5_103
.Ltmp334:
.LBB5_103:                              @   in Loop: Header=BB5_1 Depth=1
	.loc	2 750 16 is_stmt 1              @ source/app.c:750:16
	ldr	r0, [sp, #208]
	movs	r1, #170
	.loc	2 750 5 is_stmt 0               @ source/app.c:750:5
	str	r1, [sp, #20]                   @ 4-byte Spill
	bl	fifo_write
	ldr	r0, [sp, #20]                   @ 4-byte Reload
	add	r1, sp, #232
	.loc	2 751 12 is_stmt 1              @ source/app.c:751:12
	str	r1, [sp, #24]                   @ 4-byte Spill
	strb	r0, [r1]
	.loc	2 752 16                        @ source/app.c:752:16
	ldr	r0, [sp, #208]
	.loc	2 752 20 is_stmt 0              @ source/app.c:752:20
	ldrb	r1, [r1]
	.loc	2 752 5                         @ source/app.c:752:5
	bl	fifo_write
	ldr	r1, [sp, #24]                   @ 4-byte Reload
	.loc	2 753 16 is_stmt 1              @ source/app.c:753:16
	ldr	r0, [sp, #208]
	.loc	2 753 21 is_stmt 0              @ source/app.c:753:21
	ldrb	r1, [r1]
	movs	r2, #255
	.loc	2 753 5                         @ source/app.c:753:5
	eors	r1, r2
	bl	fifo_write
	.loc	2 754 4 is_stmt 1               @ source/app.c:754:4
	b	.LBB5_112
.Ltmp335:
.LBB5_104:                              @   in Loop: Header=BB5_1 Depth=1
	.loc	2 0 4 is_stmt 0                 @ source/app.c:0:4
	add	r0, sp, #244
.Ltmp336:
	.loc	2 755 12 is_stmt 1              @ source/app.c:755:12
	ldrb	r0, [r0]
.Ltmp337:
	.loc	2 755 12 is_stmt 0              @ source/app.c:755:12
	cmp	r0, #1
	bne	.LBB5_110
	b	.LBB5_105
.LBB5_105:                              @   in Loop: Header=BB5_1 Depth=1
.Ltmp338:
	.loc	2 756 15 is_stmt 1              @ source/app.c:756:15
	ldr	r0, [sp, #212]
	add	r1, sp, #236
	.loc	2 756 5 is_stmt 0               @ source/app.c:756:5
	bl	fifo_read
	.loc	2 757 15 is_stmt 1              @ source/app.c:757:15
	ldr	r1, [sp, #236]
	.loc	2 757 12 is_stmt 0              @ source/app.c:757:12
	ldr	r0, [sp, #232]
	adds	r0, r0, r1
	add	r1, sp, #232
	str	r1, [sp, #12]                   @ 4-byte Spill
	strb	r0, [r1]
	.loc	2 758 15 is_stmt 1              @ source/app.c:758:15
	ldr	r0, [sp, #212]
	add	r1, sp, #228
	.loc	2 758 5 is_stmt 0               @ source/app.c:758:5
	str	r1, [sp, #16]                   @ 4-byte Spill
	bl	fifo_read
	.loc	2 759 15 is_stmt 1              @ source/app.c:759:15
	ldr	r0, [sp, #212]
	add	r1, sp, #224
	.loc	2 759 5 is_stmt 0               @ source/app.c:759:5
	bl	fifo_read
	ldr	r0, [sp, #12]                   @ 4-byte Reload
	ldr	r1, [sp, #16]                   @ 4-byte Reload
.Ltmp339:
	.loc	2 760 9 is_stmt 1               @ source/app.c:760:9
	ldrb	r0, [r0]
	.loc	2 760 19 is_stmt 0              @ source/app.c:760:19
	ldrb	r1, [r1]
	.loc	2 760 22                        @ source/app.c:760:22
	cmp	r0, r1
	bne	.LBB5_107
	b	.LBB5_106
.LBB5_106:                              @   in Loop: Header=BB5_1 Depth=1
	.loc	2 0 22                          @ source/app.c:0:22
	add	r0, sp, #232
	.loc	2 760 26                        @ source/app.c:760:26
	ldrb	r0, [r0]
	add	r1, sp, #224
	.loc	2 760 38                        @ source/app.c:760:38
	ldrb	r1, [r1]
	.loc	2 760 37                        @ source/app.c:760:37
	mvns	r1, r1
.Ltmp340:
	.loc	2 760 8                         @ source/app.c:760:8
	cmp	r0, r1
	beq	.LBB5_108
	b	.LBB5_107
.LBB5_107:
.Ltmp341:
	.loc	2 760 47                        @ source/app.c:760:47
	b	.LBB5_129
.Ltmp342:
.LBB5_108:                              @   in Loop: Header=BB5_1 Depth=1
	.loc	2 0 47                          @ source/app.c:0:47
	b	.LBB5_109
.LBB5_109:                              @   in Loop: Header=BB5_1 Depth=1
	.loc	2 766 16 is_stmt 1              @ source/app.c:766:16
	ldr	r0, [sp, #208]
	movs	r1, #170
	.loc	2 766 5 is_stmt 0               @ source/app.c:766:5
	str	r1, [sp, #4]                    @ 4-byte Spill
	bl	fifo_write
	ldr	r0, [sp, #4]                    @ 4-byte Reload
	add	r1, sp, #232
	.loc	2 767 12 is_stmt 1              @ source/app.c:767:12
	str	r1, [sp, #8]                    @ 4-byte Spill
	strb	r0, [r1]
	.loc	2 768 16                        @ source/app.c:768:16
	ldr	r0, [sp, #208]
	.loc	2 768 20 is_stmt 0              @ source/app.c:768:20
	ldrb	r1, [r1]
	.loc	2 768 5                         @ source/app.c:768:5
	bl	fifo_write
	ldr	r1, [sp, #8]                    @ 4-byte Reload
	.loc	2 769 16 is_stmt 1              @ source/app.c:769:16
	ldr	r0, [sp, #208]
	.loc	2 769 21 is_stmt 0              @ source/app.c:769:21
	ldrb	r1, [r1]
	movs	r2, #255
	.loc	2 769 5                         @ source/app.c:769:5
	eors	r1, r2
	bl	fifo_write
	.loc	2 770 4 is_stmt 1               @ source/app.c:770:4
	b	.LBB5_111
.Ltmp343:
.LBB5_110:                              @   in Loop: Header=BB5_1 Depth=1
	.loc	2 0 4 is_stmt 0                 @ source/app.c:0:4
	b	.LBB5_111
.LBB5_111:                              @   in Loop: Header=BB5_1 Depth=1
	b	.LBB5_112
.LBB5_112:                              @   in Loop: Header=BB5_1 Depth=1
	.loc	2 775 3 is_stmt 1               @ source/app.c:775:3
	b	.LBB5_115
.Ltmp344:
	.loc	2 0 3 is_stmt 0                 @ :0:3
.Ltmp345:
	.p2align	2
@ %bb.113:
.LCPI5_11:
	.long	db
	.p2align	1
.LBB5_114:                              @   in Loop: Header=BB5_1 Depth=1
	b	.LBB5_115
.LBB5_115:                              @   in Loop: Header=BB5_1 Depth=1
	b	.LBB5_116
.LBB5_116:                              @   in Loop: Header=BB5_1 Depth=1
	b	.LBB5_117
.LBB5_117:                              @   in Loop: Header=BB5_1 Depth=1
	b	.LBB5_118
.LBB5_118:                              @   in Loop: Header=BB5_1 Depth=1
	b	.LBB5_119
.LBB5_119:                              @   in Loop: Header=BB5_1 Depth=1
	b	.LBB5_120
.LBB5_120:                              @   in Loop: Header=BB5_1 Depth=1
	b	.LBB5_121
.LBB5_121:                              @   in Loop: Header=BB5_1 Depth=1
	b	.LBB5_122
.LBB5_122:                              @   in Loop: Header=BB5_1 Depth=1
	b	.LBB5_123
.LBB5_123:                              @   in Loop: Header=BB5_1 Depth=1
	b	.LBB5_124
.LBB5_124:                              @   in Loop: Header=BB5_1 Depth=1
	b	.LBB5_125
.LBB5_125:                              @   in Loop: Header=BB5_1 Depth=1
	b	.LBB5_126
.LBB5_126:                              @   in Loop: Header=BB5_1 Depth=1
	b	.LBB5_127
.LBB5_127:                              @   in Loop: Header=BB5_1 Depth=1
	.loc	2 553 2 is_stmt 1               @ source/app.c:553:2
	bl	.LBB5_1
.LBB5_128:
	.loc	2 782 13                        @ source/app.c:782:13
	ldr	r0, [sp, #212]
	.loc	2 782 2 is_stmt 0               @ source/app.c:782:2
	bl	fifo_reset
	.loc	2 783 1 is_stmt 1               @ source/app.c:783:1
	b	.LBB5_129
.LBB5_129:
	.loc	2 783 1 epilogue_begin is_stmt 0 @ source/app.c:783:1
	add	sp, #248
	pop	{r4, r5, r7, pc}
.Ltmp346:
	.loc	2 0 1                           @ :0:1
.Ltmp347:
	.p2align	2
@ %bb.130:
__arm_cp.5_1:
	.long	db
.Lcpi_end42:
	.size	__arm_cp.5_1, .Lcpi_end42-__arm_cp.5_1
__arm_cp.5_2:
	.long	ctrls_u
.Lcpi_end43:
	.size	__arm_cp.5_2, .Lcpi_end43-__arm_cp.5_2
.Lfunc_end5:
	.size	spi_read_cb, .Lfunc_end5-spi_read_cb
	.cfi_endproc
	.cantunwind
	.fnend
                                        @ -- End function
	.type	cpu_state,%object               @ @cpu_state
	.section	.bss.cpu_state,"aw",%nobits
	.p2align	2, 0x0
cpu_state:
	.long	0                               @ 0x0
	.size	cpu_state, 4

	.type	db,%object                      @ @db
	.section	.bss.db,"aw",%nobits
	.p2align	2, 0x0
db:
	.zero	212
	.size	db, 212

	.hidden	ctrls_u                         @ @ctrls_u
	.type	ctrls_u,%object
	.section	.bss.ctrls_u,"aw",%nobits
	.globl	ctrls_u
ctrls_u:
	.zero	2
	.size	ctrls_u, 2

	.type	cpu_fpga_xfer.st_i,%object      @ @cpu_fpga_xfer.st_i
	.section	.bss.cpu_fpga_xfer.st_i,"aw",%nobits
cpu_fpga_xfer.st_i:
	.byte	0                               @ 0x0
	.size	cpu_fpga_xfer.st_i, 1

	.type	cpu_fpga_xfer.clk_last,%object  @ @cpu_fpga_xfer.clk_last
	.section	.bss.cpu_fpga_xfer.clk_last,"aw",%nobits
cpu_fpga_xfer.clk_last:
	.byte	0                               @ 0x0
	.size	cpu_fpga_xfer.clk_last, 1

	.type	cpu_fpga_xfer.sm_state,%object  @ @cpu_fpga_xfer.sm_state
	.section	.bss.cpu_fpga_xfer.sm_state,"aw",%nobits
cpu_fpga_xfer.sm_state:
	.byte	0                               @ 0x0
	.size	cpu_fpga_xfer.sm_state, 1

	.type	cpu_fpga_xfer.st_k,%object      @ @cpu_fpga_xfer.st_k
	.section	.bss.cpu_fpga_xfer.st_k,"aw",%nobits
cpu_fpga_xfer.st_k:
	.byte	0                               @ 0x0
	.size	cpu_fpga_xfer.st_k, 1

	.type	cpu_fpga_xfer.i_1,%object       @ @cpu_fpga_xfer.i_1
	.section	.bss.cpu_fpga_xfer.i_1,"aw",%nobits
cpu_fpga_xfer.i_1:
	.byte	0                               @ 0x0
	.size	cpu_fpga_xfer.i_1, 1

	.type	cpu_fpga_xfer.sm_state_1,%object @ @cpu_fpga_xfer.sm_state_1
	.section	.bss.cpu_fpga_xfer.sm_state_1,"aw",%nobits
cpu_fpga_xfer.sm_state_1:
	.byte	0                               @ 0x0
	.size	cpu_fpga_xfer.sm_state_1, 1

	.type	cpu_fpga_xfer.k_1,%object       @ @cpu_fpga_xfer.k_1
	.section	.bss.cpu_fpga_xfer.k_1,"aw",%nobits
cpu_fpga_xfer.k_1:
	.byte	0                               @ 0x0
	.size	cpu_fpga_xfer.k_1, 1

	.type	cpu_fpga_xfer.data_1,%object    @ @cpu_fpga_xfer.data_1
	.section	.bss.cpu_fpga_xfer.data_1,"aw",%nobits
cpu_fpga_xfer.data_1:
	.byte	0                               @ 0x0
	.size	cpu_fpga_xfer.data_1, 1

	.type	cpu_fpga_xfer.clks,%object      @ @cpu_fpga_xfer.clks
	.section	.bss.cpu_fpga_xfer.clks,"aw",%nobits
cpu_fpga_xfer.clks:
	.byte	0                               @ 0x0
	.size	cpu_fpga_xfer.clks, 1

	.type	vi_process.lstate,%object       @ @vi_process.lstate
	.section	.bss.vi_process.lstate,"aw",%nobits
vi_process.lstate:
	.byte	0                               @ 0x0
	.size	vi_process.lstate, 1

	.type	vi_process.relayidx,%object     @ @vi_process.relayidx
	.section	.bss.vi_process.relayidx,"aw",%nobits
vi_process.relayidx:
	.byte	0                               @ 0x0
	.size	vi_process.relayidx, 1

	.type	vi_process.read_gap,%object     @ @vi_process.read_gap
	.section	.data.vi_process.read_gap,"aw",%progbits
	.p2align	1, 0x0
vi_process.read_gap:
	.short	50                              @ 0x32
	.size	vi_process.read_gap, 2

	.type	get_flash_checksum.flash_addr,%object @ @get_flash_checksum.flash_addr
	.section	.bss.get_flash_checksum.flash_addr,"aw",%nobits
	.p2align	2, 0x0
get_flash_checksum.flash_addr:
	.long	0                               @ 0x0
	.size	get_flash_checksum.flash_addr, 4

	.file	5 "D:\\work\\dheeraj\\local\\CEL\\CCC\\CCC_CPU123\\Code" "source/Include\\fifo.h"
	.section	".note.GNU-stack","",%progbits
	.eabi_attribute	30, 6	@ Tag_ABI_optimization_goals
	.ARM_attribute	16, 1	@ Tag_AV_eba