	.text
	.syntax unified
	.eabi_attribute	67, "2.09"	@ Tag_conformance
	.cpu	cortex-m23
	.eabi_attribute	6, 16	@ Tag_CPU_arch
	.eabi_attribute	7, 77	@ Tag_CPU_arch_profile
	.eabi_attribute	8, 0	@ Tag_ARM_ISA_use
	.eabi_attribute	9, 3	@ Tag_THUMB_ISA_use
	.eabi_attribute	34, 0	@ Tag_CPU_unaligned_access
	.eabi_attribute	17, 1	@ Tag_ABI_PCS_GOT_use
	.eabi_attribute	20, 2	@ Tag_ABI_FP_denormal
	.eabi_attribute	21, 0	@ Tag_ABI_FP_exceptions
	.eabi_attribute	23, 1	@ Tag_ABI_FP_number_model
	.eabi_attribute	24, 1	@ Tag_ABI_align_needed
	.eabi_attribute	25, 1	@ Tag_ABI_align_preserved
	.eabi_attribute	38, 1	@ Tag_ABI_FP_16bit_format
	.eabi_attribute	18, 4	@ Tag_ABI_PCS_wchar_t
	.eabi_attribute	26, 2	@ Tag_ABI_enum_size
	.eabi_attribute	14, 0	@ Tag_ABI_PCS_R9_use
	.file	"bsp.c"
	.file	1 "C:\\Users\\Anaya\\AppData\\Local\\Keil_v5\\ARM\\ARMCLANG\\bin\\..\\include" "stdint.h"
	.file	2 "D:\\work\\dheeraj\\local\\CEL\\CCC\\CCC_CPU123\\Code" "source/Include\\fifo.h"
	.file	3 "D:\\work\\dheeraj\\local\\CEL\\CCC\\CCC_CPU123\\Code" "source/driver/include\\drvr_spi.h"
	.file	4 "D:\\work\\dheeraj\\local\\CEL\\CCC\\CCC_CPU123\\Code" "../../CCC_common/Library/Device/Nuvoton/M261/Include\\spi_reg.h"
	.file	5 "D:\\work\\dheeraj\\local\\CEL\\CCC\\CCC_CPU123\\Code" "source/bsp.c"
	.file	6 "D:\\work\\dheeraj\\local\\CEL\\CCC\\CCC_CPU123\\Code" "../../CCC_common/Library/Device/Nuvoton/M261/Include\\M261.h"
	.file	7 "D:\\work\\dheeraj\\local\\CEL\\CCC\\CCC_CPU123\\Code" "../../CCC_common/Library/Device/Nuvoton/M261/Include\\gpio_reg.h"
	.file	8 "D:\\work\\dheeraj\\local\\CEL\\CCC\\CCC_CPU123\\Code" "../../CCC_common/Library/Device/Nuvoton/M261/Include\\clk_reg.h"
	.file	9 "D:\\work\\dheeraj\\local\\CEL\\CCC\\CCC_CPU123\\Code" "../../CCC_common/Library/Device/Nuvoton/M261/Include\\fmc_reg.h"
	.file	10 "D:\\work\\dheeraj\\local\\CEL\\CCC\\CCC_CPU123\\Code" "../../CCC_common/Library/Device/Nuvoton/M261/Include\\scu_reg.h"
	.file	11 "D:\\work\\dheeraj\\local\\CEL\\CCC\\CCC_CPU123\\Code" "../../CCC_common/Library/CMSIS/Include\\core_armv8mbl.h"
	.file	12 "D:\\work\\dheeraj\\local\\CEL\\CCC\\CCC_CPU123\\Code" "../../CCC_common/Library/Device/Nuvoton/M261/Include\\timer_reg.h"
	.section	.text.wait_ms,"ax",%progbits
	.hidden	wait_ms                         @ -- Begin function wait_ms
	.globl	wait_ms
	.p2align	2
	.type	wait_ms,%function
	.code	16                              @ @wait_ms
	.thumb_func
wait_ms:
.Lfunc_begin0:
	.loc	5 56 0                          @ source/bsp.c:56:0
	.fnstart
	.cfi_sections .debug_frame
	.cfi_startproc
@ %bb.0:
	.pad	#4
	sub	sp, #4
	.cfi_def_cfa_offset 4
	str	r0, [sp]
.Ltmp0:
	.loc	5 57 15 prologue_end            @ source/bsp.c:57:15
	ldr	r0, [sp]
	.loc	5 57 16 is_stmt 0               @ source/bsp.c:57:16
	adds	r0, #9
	movs	r1, #10
	.loc	5 57 20                         @ source/bsp.c:57:20
	udiv	r0, r0, r1
	.loc	5 57 12                         @ source/bsp.c:57:12
	ldr	r1, __arm_cp.0_0
	str	r0, [r1]
	.loc	5 58 2 is_stmt 1                @ source/bsp.c:58:2
	b	.LBB0_1
.LBB0_1:                                @ =>This Inner Loop Header: Depth=1
	.loc	5 58 8 is_stmt 0                @ source/bsp.c:58:8
	ldr	r0, __arm_cp.0_0
	ldr	r0, [r0]
	.loc	5 58 2                          @ source/bsp.c:58:2
	cbz	r0, .LBB0_3
	b	.LBB0_2
.LBB0_2:                                @   in Loop: Header=BB0_1 Depth=1
	b	.LBB0_1
.LBB0_3:
	.loc	5 59 1 epilogue_begin is_stmt 1 @ source/bsp.c:59:1
	add	sp, #4
	bx	lr
.Ltmp1:
	.loc	5 0 1 is_stmt 0                 @ :0:1
.Ltmp2:
	.p2align	2
@ %bb.4:
__arm_cp.0_0:
	.long	wait_time
.Lcpi_end0:
	.size	__arm_cp.0_0, .Lcpi_end0-__arm_cp.0_0
.Lfunc_end0:
	.size	wait_ms, .Lfunc_end0-wait_ms
	.cfi_endproc
	.cantunwind
	.fnend
                                        @ -- End function
	.section	.text.bsp_ctor,"ax",%progbits
	.hidden	bsp_ctor                        @ -- Begin function bsp_ctor
	.globl	bsp_ctor
	.p2align	2
	.type	bsp_ctor,%function
	.code	16                              @ @bsp_ctor
	.thumb_func
bsp_ctor:
.Lfunc_begin1:
	.loc	5 81 0 is_stmt 1                @ source/bsp.c:81:0
	.fnstart
	.cfi_startproc
@ %bb.0:
	.save	{r7, lr}
	push	{r7, lr}
	.cfi_def_cfa_offset 8
	.cfi_offset lr, -4
	.cfi_offset r7, -8
	.pad	#48
	sub	sp, #48
	.cfi_def_cfa_offset 56
.Ltmp3:
	.loc	5 84 2 prologue_end             @ source/bsp.c:84:2
	bl	sysClock_Init
	.loc	5 85 2                          @ source/bsp.c:85:2
	ldr	r0, __arm_cp.1_0
	str	r0, [sp, #4]                    @ 4-byte Spill
	ldr	r1, __arm_cp.1_1
	movs	r2, #100
	str	r2, [sp]                        @ 4-byte Spill
	bl	fifo_init
	ldr	r2, [sp]                        @ 4-byte Reload
	.loc	5 86 2                          @ source/bsp.c:86:2
	ldr	r0, __arm_cp.1_2
	str	r0, [sp, #8]                    @ 4-byte Spill
	ldr	r1, __arm_cp.1_3
	bl	fifo_init
	ldr	r2, [sp, #4]                    @ 4-byte Reload
	ldr	r1, [sp, #8]                    @ 4-byte Reload
	.loc	5 88 15                         @ source/bsp.c:88:15
	ldr	r0, __arm_cp.1_4
	str	r2, [r0]
	.loc	5 89 15                         @ source/bsp.c:89:15
	str	r1, [r0, #4]
	movs	r1, #0
	.loc	5 90 17                         @ source/bsp.c:90:17
	str	r1, [sp, #20]                   @ 4-byte Spill
	strb	r1, [r0, #8]
	.loc	5 91 14                         @ source/bsp.c:91:14
	ldr	r2, __arm_cp.1_5
	str	r2, [r0, #12]
	.loc	5 92 21                         @ source/bsp.c:92:21
	strb	r1, [r0, #10]
	movs	r1, #1
	.loc	5 93 16                         @ source/bsp.c:93:16
	str	r1, [sp, #28]                   @ 4-byte Spill
	strb	r1, [r0, #9]
	.loc	5 94 4                          @ source/bsp.c:94:4
	bl	spi_ctor
	ldr	r2, [sp, #28]                   @ 4-byte Reload
	ldr	r0, __arm_cp.1_6
	movs	r1, #32
	.loc	5 96 2                          @ source/bsp.c:96:2
	str	r1, [sp, #12]                   @ 4-byte Spill
	bl	GPIO_SetMode
	ldr	r2, [sp, #28]                   @ 4-byte Reload
	ldr	r0, __arm_cp.1_7
	str	r0, [sp, #16]                   @ 4-byte Spill
	movs	r1, #4
	.loc	5 97 2                          @ source/bsp.c:97:2
	str	r1, [sp, #32]                   @ 4-byte Spill
	bl	GPIO_SetMode
	ldr	r0, [sp, #16]                   @ 4-byte Reload
	ldr	r2, [sp, #20]                   @ 4-byte Reload
	movs	r1, #8
	.loc	5 102 2                         @ source/bsp.c:102:2
	bl	GPIO_SetMode
	ldr	r0, [sp, #16]                   @ 4-byte Reload
	ldr	r2, [sp, #28]                   @ 4-byte Reload
	movs	r1, #16
	.loc	5 104 2                         @ source/bsp.c:104:2
	bl	GPIO_SetMode
	ldr	r1, [sp, #12]                   @ 4-byte Reload
	ldr	r0, [sp, #16]                   @ 4-byte Reload
	ldr	r2, [sp, #28]                   @ 4-byte Reload
	.loc	5 105 2                         @ source/bsp.c:105:2
	bl	GPIO_SetMode
	ldr	r0, [sp, #16]                   @ 4-byte Reload
	ldr	r2, [sp, #20]                   @ 4-byte Reload
	movw	r1, #4096
	.loc	5 106 2                         @ source/bsp.c:106:2
	bl	GPIO_SetMode
	ldr	r2, [sp, #20]                   @ 4-byte Reload
	ldr	r1, [sp, #28]                   @ 4-byte Reload
	ldr	r0, __arm_cp.1_8
	.loc	5 108 2                         @ source/bsp.c:108:2
	str	r0, [sp, #24]                   @ 4-byte Spill
	bl	GPIO_SetMode
	ldr	r2, [sp, #20]                   @ 4-byte Reload
	ldr	r0, [sp, #24]                   @ 4-byte Reload
	movs	r1, #2
	.loc	5 109 2                         @ source/bsp.c:109:2
	bl	GPIO_SetMode
	ldr	r0, [sp, #24]                   @ 4-byte Reload
	ldr	r2, [sp, #28]                   @ 4-byte Reload
	ldr	r1, [sp, #32]                   @ 4-byte Reload
	.loc	5 110 2                         @ source/bsp.c:110:2
	bl	GPIO_SetMode
	.loc	5 112 2                         @ source/bsp.c:112:2
	bl	sysTimer_Init
	ldr	r2, [sp, #32]                   @ 4-byte Reload
	ldr	r1, __arm_cp.1_9
	.loc	5 115 14                        @ source/bsp.c:115:14
	ldr	r0, [r1]
	orrs	r0, r2
	str	r0, [r1]
	ldr	r1, __arm_cp.1_10
	.loc	5 116 14                        @ source/bsp.c:116:14
	ldr	r0, [r1]
	movs	r2, #9
	orrs	r0, r2
	str	r0, [r1]
	.loc	5 119 16                        @ source/bsp.c:119:16
	bl	BL_EnableFMC
	.loc	5 119 14 is_stmt 0              @ source/bsp.c:119:14
	str	r0, [sp, #44]
	ldr	r0, __arm_cp.1_11
	.loc	5 120 25 is_stmt 1              @ source/bsp.c:120:25
	ldr	r0, [r0]
	.loc	5 120 18 is_stmt 0              @ source/bsp.c:120:18
	str	r0, [sp, #40]
.Ltmp4:
	.loc	5 122 5 is_stmt 1               @ source/bsp.c:122:5
	ldr	r0, [sp, #40]
	.loc	5 122 23 is_stmt 0              @ source/bsp.c:122:23
	ldr	r1, [sp, #44]
.Ltmp5:
	.loc	5 122 5                         @ source/bsp.c:122:5
	cmp	r0, r1
	bhs	.LBB1_2
	b	.LBB1_1
.LBB1_1:
.Ltmp6:
	.loc	5 124 22 is_stmt 1              @ source/bsp.c:124:22
	ldr	r0, [sp, #44]
	.loc	5 124 36 is_stmt 0              @ source/bsp.c:124:36
	ldr	r1, [sp, #40]
	.loc	5 124 34                        @ source/bsp.c:124:34
	subs	r0, r0, r1
	.loc	5 124 19                        @ source/bsp.c:124:19
	str	r0, [sp, #36]
	.loc	5 125 2 is_stmt 1               @ source/bsp.c:125:2
	b	.LBB1_3
.Ltmp7:
.LBB1_2:
	.loc	5 0 2 is_stmt 0                 @ source/bsp.c:0:2
	movs	r0, #0
.Ltmp8:
	.loc	5 128 19 is_stmt 1              @ source/bsp.c:128:19
	str	r0, [sp, #36]
	b	.LBB1_3
.Ltmp9:
.LBB1_3:
	.loc	5 132 27                        @ source/bsp.c:132:27
	ldr	r0, __arm_cp.1_12
	ldr	r1, [r0]
	ldr	r0, __arm_cp.1_13
	.loc	5 132 25 is_stmt 0              @ source/bsp.c:132:25
	muls	r0, r1, r0
	ldr	r1, __arm_cp.1_14
	.loc	5 132 16                        @ source/bsp.c:132:16
	str	r0, [r1]
	ldr	r1, __arm_cp.1_15
	movs	r0, #0
	.loc	5 133 16 is_stmt 1              @ source/bsp.c:133:16
	str	r0, [r1]
	ldr	r1, __arm_cp.1_16
	.loc	5 134 27                        @ source/bsp.c:134:27
	ldr	r0, [r1]
	movs	r2, #5
	.loc	5 134 61 is_stmt 0              @ source/bsp.c:134:61
	orrs	r0, r2
	.loc	5 134 16                        @ source/bsp.c:134:16
	str	r0, [r1]
	.loc	5 135 1 epilogue_begin is_stmt 1 @ source/bsp.c:135:1
	add	sp, #48
	pop	{r7, pc}
.Ltmp10:
	.loc	5 0 1 is_stmt 0                 @ :0:1
.Ltmp11:
	.p2align	2
@ %bb.4:
__arm_cp.1_0:
	.long	fifo_tx_cpux
.Lcpi_end1:
	.size	__arm_cp.1_0, .Lcpi_end1-__arm_cp.1_0
__arm_cp.1_1:
	.long	buf_tx_cpux
.Lcpi_end2:
	.size	__arm_cp.1_1, .Lcpi_end2-__arm_cp.1_1
__arm_cp.1_2:
	.long	fifo_rx_cpux
.Lcpi_end3:
	.size	__arm_cp.1_2, .Lcpi_end3-__arm_cp.1_2
__arm_cp.1_3:
	.long	buf_rx_cpux
.Lcpi_end4:
	.size	__arm_cp.1_3, .Lcpi_end4-__arm_cp.1_3
__arm_cp.1_4:
	.long	spi_cpux
.Lcpi_end5:
	.size	__arm_cp.1_4, .Lcpi_end5-__arm_cp.1_4
__arm_cp.1_5:
	.long	spi_read_cb
.Lcpi_end6:
	.size	__arm_cp.1_5, .Lcpi_end6-__arm_cp.1_5
__arm_cp.1_6:
	.long	1073758528                      @ 0x40004140
.Lcpi_end7:
	.size	__arm_cp.1_6, .Lcpi_end7-__arm_cp.1_6
__arm_cp.1_7:
	.long	1073758208                      @ 0x40004000
.Lcpi_end8:
	.size	__arm_cp.1_7, .Lcpi_end8-__arm_cp.1_7
__arm_cp.1_8:
	.long	1073758400                      @ 0x400040c0
.Lcpi_end9:
	.size	__arm_cp.1_8, .Lcpi_end9-__arm_cp.1_8
__arm_cp.1_9:
	.long	1073742340                      @ 0x40000204
.Lcpi_end10:
	.size	__arm_cp.1_9, .Lcpi_end10-__arm_cp.1_9
__arm_cp.1_10:
	.long	1073790976                      @ 0x4000c000
.Lcpi_end11:
	.size	__arm_cp.1_10, .Lcpi_end11-__arm_cp.1_10
__arm_cp.1_11:
	.long	1073934376                      @ 0x4002f028
.Lcpi_end12:
	.size	__arm_cp.1_11, .Lcpi_end12-__arm_cp.1_11
__arm_cp.1_12:
	.long	CyclesPerUs
.Lcpi_end13:
	.size	__arm_cp.1_12, .Lcpi_end13-__arm_cp.1_12
__arm_cp.1_13:
	.long	300000                          @ 0x493e0
.Lcpi_end14:
	.size	__arm_cp.1_13, .Lcpi_end14-__arm_cp.1_13
__arm_cp.1_14:
	.long	3758153748                      @ 0xe000e014
.Lcpi_end15:
	.size	__arm_cp.1_14, .Lcpi_end15-__arm_cp.1_14
__arm_cp.1_15:
	.long	3758153752                      @ 0xe000e018
.Lcpi_end16:
	.size	__arm_cp.1_15, .Lcpi_end16-__arm_cp.1_15
__arm_cp.1_16:
	.long	3758153744                      @ 0xe000e010
.Lcpi_end17:
	.size	__arm_cp.1_16, .Lcpi_end17-__arm_cp.1_16
.Lfunc_end1:
	.size	bsp_ctor, .Lfunc_end1-bsp_ctor
	.cfi_endproc
	.cantunwind
	.fnend
                                        @ -- End function
	.section	.text.sysClock_Init,"ax",%progbits
	.p2align	1                               @ -- Begin function sysClock_Init
	.type	sysClock_Init,%function
	.code	16                              @ @sysClock_Init
	.thumb_func
sysClock_Init:
.Lfunc_begin2:
	.loc	5 190 0 is_stmt 1               @ source/bsp.c:190:0
	.fnstart
	.cfi_startproc
@ %bb.0:
	.save	{r7, lr}
	push	{r7, lr}
	.cfi_def_cfa_offset 8
	.cfi_offset lr, -4
	.cfi_offset r7, -8
	movs	r0, #4
.Ltmp12:
	.loc	5 192 4 prologue_end            @ source/bsp.c:192:4
	bl	CLK_EnableXtalRC
	movs	r0, #16
	.loc	5 194 4                         @ source/bsp.c:194:4
	bl	CLK_WaitClockReady
	movs	r0, #7
	movs	r1, #0
	.loc	5 196 4                         @ source/bsp.c:196:4
	bl	CLK_SetHCLK
	.loc	5 198 2                         @ source/bsp.c:198:2
	bl	SystemCoreClockUpdate
	.loc	5 199 1 epilogue_begin          @ source/bsp.c:199:1
	pop	{r7, pc}
.Ltmp13:
.Lfunc_end2:
	.size	sysClock_Init, .Lfunc_end2-sysClock_Init
	.cfi_endproc
	.cantunwind
	.fnend
                                        @ -- End function
	.section	.text.sysTimer_Init,"ax",%progbits
	.p2align	2                               @ -- Begin function sysTimer_Init
	.type	sysTimer_Init,%function
	.code	16                              @ @sysTimer_Init
	.thumb_func
sysTimer_Init:
.Lfunc_begin3:
	.loc	5 156 0                         @ source/bsp.c:156:0
	.fnstart
	.cfi_startproc
@ %bb.0:
	.save	{r7, lr}
	push	{r7, lr}
	.cfi_def_cfa_offset 8
	.cfi_offset lr, -4
	.cfi_offset r7, -8
	.pad	#8
	sub	sp, #8
	.cfi_def_cfa_offset 16
	ldr	r1, __arm_cp.3_0
.Ltmp14:
	.loc	5 158 15 prologue_end           @ source/bsp.c:158:15
	ldr	r0, [r1]
	movs	r2, #32
	orrs	r0, r2
	str	r0, [r1]
	ldr	r1, __arm_cp.3_1
	.loc	5 160 23                        @ source/bsp.c:160:23
	ldr	r0, [r1]
	movs	r2, #7
	lsls	r2, r2, #20
	.loc	5 160 61 is_stmt 0              @ source/bsp.c:160:61
	orrs	r0, r2
	.loc	5 160 15                        @ source/bsp.c:160:15
	str	r0, [r1]
	movs	r0, #1
	lsls	r1, r0, #27
	ldr	r0, __arm_cp.3_2
	str	r0, [sp, #4]                    @ 4-byte Spill
	movw	r2, #1000
	.loc	5 162 2 is_stmt 1               @ source/bsp.c:162:2
	bl	TIMER_Open
                                        @ kill: def $r1 killed $r0
	.loc	5 164 2                         @ source/bsp.c:164:2
	ldr	r0, [sp, #4]                    @ 4-byte Reload
	bl	TIMER_EnableInt
	ldr	r0, [sp, #4]                    @ 4-byte Reload
	.loc	5 166 2                         @ source/bsp.c:166:2
	bl	TIMER_Start
	movs	r0, #35
	.loc	5 167 2                         @ source/bsp.c:167:2
	bl	__NVIC_EnableIRQ
	.loc	5 171 1 epilogue_begin          @ source/bsp.c:171:1
	add	sp, #8
	pop	{r7, pc}
.Ltmp15:
	.loc	5 0 1 is_stmt 0                 @ :0:1
.Ltmp16:
	.p2align	2
@ %bb.1:
__arm_cp.3_0:
	.long	1073742344                      @ 0x40000208
.Lcpi_end18:
	.size	__arm_cp.3_0, .Lcpi_end18-__arm_cp.3_0
__arm_cp.3_1:
	.long	1073742356                      @ 0x40000214
.Lcpi_end19:
	.size	__arm_cp.3_1, .Lcpi_end19-__arm_cp.3_1
__arm_cp.3_2:
	.long	1074073856                      @ 0x40051100
.Lcpi_end20:
	.size	__arm_cp.3_2, .Lcpi_end20-__arm_cp.3_2
.Lfunc_end3:
	.size	sysTimer_Init, .Lfunc_end3-sysTimer_Init
	.cfi_endproc
	.cantunwind
	.fnend
                                        @ -- End function
	.section	.text.TMR3_IRQHandler,"ax",%progbits
	.hidden	TMR3_IRQHandler                 @ -- Begin function TMR3_IRQHandler
	.globl	TMR3_IRQHandler
	.p2align	2
	.type	TMR3_IRQHandler,%function
	.code	16                              @ @TMR3_IRQHandler
	.thumb_func
TMR3_IRQHandler:
.Lfunc_begin4:
	.loc	5 233 0 is_stmt 1               @ source/bsp.c:233:0
	.fnstart
	.cfi_startproc
@ %bb.0:
	.save	{r7, lr}
	push	{r7, lr}
	.cfi_def_cfa_offset 8
	.cfi_offset lr, -4
	.cfi_offset r7, -8
	.pad	#8
	sub	sp, #8
	.cfi_def_cfa_offset 16
.Ltmp17:
	.loc	5 234 2 prologue_end            @ source/bsp.c:234:2
	@APP
	mrs	r0, primask
	cpsid i

	@NO_APP
	str	r0, [sp, #4]
	ldr	r0, __arm_cp.4_0
	.loc	5 236 2                         @ source/bsp.c:236:2
	bl	TIMER_ClearIntFlag
	.loc	5 238 2                         @ source/bsp.c:238:2
	ldr	r0, __arm_cp.4_1
	bl	spi_agent_sm
.Ltmp18:
	.loc	5 240 5                         @ source/bsp.c:240:5
	ldr	r0, __arm_cp.4_2
	ldr	r0, [r0]
.Ltmp19:
	.loc	5 240 5 is_stmt 0               @ source/bsp.c:240:5
	cbz	r0, .LBB4_2
	b	.LBB4_1
.LBB4_1:
.Ltmp20:
	.loc	5 240 30                        @ source/bsp.c:240:30
	ldr	r1, __arm_cp.4_2
	ldr	r0, [r1]
	subs	r0, r0, #1
	str	r0, [r1]
	.loc	5 240 33                        @ source/bsp.c:240:33
	b	.LBB4_2
.Ltmp21:
.LBB4_2:
	.loc	5 0 33                          @ source/bsp.c:0:33
	movs	r0, #0
	.loc	5 242 2 is_stmt 1               @ source/bsp.c:242:2
	cbnz	r0, .LBB4_14
	b	.LBB4_3
.LBB4_3:
.Ltmp22:
	.loc	5 243 3                         @ source/bsp.c:243:3
	ldr	r0, __arm_cp.4_3
	ldrh	r0, [r0]
.Ltmp23:
	.loc	5 243 3 is_stmt 0               @ source/bsp.c:243:3
	cbz	r0, .LBB4_5
	b	.LBB4_4
.LBB4_4:
.Ltmp24:
	.loc	5 243 3                         @ source/bsp.c:243:3
	ldr	r1, __arm_cp.4_3
	ldrh	r0, [r1]
	subs	r0, r0, #1
	strh	r0, [r1]
	b	.LBB4_5
.Ltmp25:
.LBB4_5:
	.loc	5 244 3 is_stmt 1               @ source/bsp.c:244:3
	ldr	r0, __arm_cp.4_4
	ldrh	r0, [r0]
.Ltmp26:
	.loc	5 244 3 is_stmt 0               @ source/bsp.c:244:3
	cbz	r0, .LBB4_7
	b	.LBB4_6
.LBB4_6:
.Ltmp27:
	.loc	5 244 3                         @ source/bsp.c:244:3
	ldr	r1, __arm_cp.4_4
	ldrh	r0, [r1]
	subs	r0, r0, #1
	strh	r0, [r1]
	b	.LBB4_7
.Ltmp28:
.LBB4_7:
	.loc	5 245 3 is_stmt 1               @ source/bsp.c:245:3
	ldr	r0, __arm_cp.4_5
	ldrh	r0, [r0]
.Ltmp29:
	.loc	5 245 3 is_stmt 0               @ source/bsp.c:245:3
	cbz	r0, .LBB4_9
	b	.LBB4_8
.LBB4_8:
.Ltmp30:
	.loc	5 245 3                         @ source/bsp.c:245:3
	ldr	r1, __arm_cp.4_5
	ldrh	r0, [r1]
	subs	r0, r0, #1
	strh	r0, [r1]
	b	.LBB4_9
.Ltmp31:
.LBB4_9:
	.loc	5 246 3 is_stmt 1               @ source/bsp.c:246:3
	ldr	r0, __arm_cp.4_6
	ldrh	r0, [r0]
.Ltmp32:
	.loc	5 246 3 is_stmt 0               @ source/bsp.c:246:3
	cbz	r0, .LBB4_11
	b	.LBB4_10
.LBB4_10:
.Ltmp33:
	.loc	5 246 3                         @ source/bsp.c:246:3
	ldr	r1, __arm_cp.4_6
	ldrh	r0, [r1]
	subs	r0, r0, #1
	strh	r0, [r1]
	b	.LBB4_11
.Ltmp34:
.LBB4_11:
	.loc	5 247 3 is_stmt 1               @ source/bsp.c:247:3
	ldr	r0, __arm_cp.4_7
	ldrh	r0, [r0]
.Ltmp35:
	.loc	5 247 3 is_stmt 0               @ source/bsp.c:247:3
	cbz	r0, .LBB4_13
	b	.LBB4_12
.LBB4_12:
.Ltmp36:
	.loc	5 247 3                         @ source/bsp.c:247:3
	ldr	r1, __arm_cp.4_7
	ldrh	r0, [r1]
	subs	r0, r0, #1
	strh	r0, [r1]
	b	.LBB4_13
.Ltmp37:
.LBB4_13:
	.loc	5 248 2 is_stmt 1               @ source/bsp.c:248:2
	b	.LBB4_14
.Ltmp38:
.LBB4_14:
	.loc	5 250 2                         @ source/bsp.c:250:2
	ldr	r0, __arm_cp.4_8
	ldr	r1, [r0]
	ldr	r0, __arm_cp.4_9
.Ltmp39:
	.loc	5 250 2 is_stmt 0               @ source/bsp.c:250:2
	muls	r0, r1, r0
	movs	r1, #2
	rors	r0, r1
	ldr	r1, __arm_cp.4_10
	cmp	r0, r1
	bhi	.LBB4_16
	b	.LBB4_15
.LBB4_15:
.Ltmp40:
	.loc	5 251 16 is_stmt 1              @ source/bsp.c:251:16
	ldr	r1, __arm_cp.4_11
	movs	r0, #1
	strb	r0, [r1]
	.loc	5 252 2                         @ source/bsp.c:252:2
	b	.LBB4_16
.Ltmp41:
.LBB4_16:
	.loc	5 254 2                         @ source/bsp.c:254:2
	ldr	r0, __arm_cp.4_8
	ldr	r1, [r0]
	ldr	r0, __arm_cp.4_9
.Ltmp42:
	.loc	5 254 2 is_stmt 0               @ source/bsp.c:254:2
	muls	r0, r1, r0
	movs	r1, #3
	rors	r0, r1
	ldr	r1, __arm_cp.4_12
	cmp	r0, r1
	bhi	.LBB4_20
	b	.LBB4_17
.LBB4_17:
.Ltmp43:
	.loc	5 255 6 is_stmt 1               @ source/bsp.c:255:6
	ldr	r0, __arm_cp.4_13
	ldrh	r0, [r0]
.Ltmp44:
	.loc	5 255 6 is_stmt 0               @ source/bsp.c:255:6
	cbz	r0, .LBB4_19
	b	.LBB4_18
.LBB4_18:
.Ltmp45:
	.loc	5 255 39                        @ source/bsp.c:255:39
	ldr	r1, __arm_cp.4_13
	ldrh	r0, [r1]
	subs	r0, r0, #1
	strh	r0, [r1]
	.loc	5 255 42                        @ source/bsp.c:255:42
	b	.LBB4_19
.Ltmp46:
.LBB4_19:
	.loc	5 256 2 is_stmt 1               @ source/bsp.c:256:2
	b	.LBB4_20
.Ltmp47:
.LBB4_20:
	.loc	5 258 2                         @ source/bsp.c:258:2
	ldr	r0, __arm_cp.4_8
	ldr	r1, [r0]
	ldr	r0, __arm_cp.4_14
.Ltmp48:
	.loc	5 258 2 is_stmt 0               @ source/bsp.c:258:2
	muls	r0, r1, r0
	movs	r1, #3
	rors	r0, r1
	ldr	r1, __arm_cp.4_15
	cmp	r0, r1
	bhi	.LBB4_22
	b	.LBB4_21
.LBB4_21:
	.loc	5 0 2                           @ source/bsp.c:0:2
	ldr	r1, __arm_cp.4_16
	movs	r0, #1
.Ltmp49:
	.loc	5 259 10 is_stmt 1              @ source/bsp.c:259:10
	str	r0, [r1]
	.loc	5 260 2                         @ source/bsp.c:260:2
	b	.LBB4_22
.Ltmp50:
.LBB4_22:
	.loc	5 261 2                         @ source/bsp.c:261:2
	ldr	r0, __arm_cp.4_8
	ldr	r1, [r0]
	ldr	r0, __arm_cp.4_9
.Ltmp51:
	.loc	5 261 2 is_stmt 0               @ source/bsp.c:261:2
	muls	r0, r1, r0
	movs	r1, #4
	rors	r0, r1
	ldr	r1, __arm_cp.4_17
	cmp	r0, r1
	bhi	.LBB4_24
	b	.LBB4_23
.LBB4_23:
	.loc	5 0 2                           @ source/bsp.c:0:2
	ldr	r1, __arm_cp.4_16
	movs	r0, #0
.Ltmp52:
	.loc	5 262 10 is_stmt 1              @ source/bsp.c:262:10
	str	r0, [r1]
	.loc	5 263 2                         @ source/bsp.c:263:2
	b	.LBB4_24
.Ltmp53:
.LBB4_24:
	.loc	5 265 2                         @ source/bsp.c:265:2
	bl	vi_process
	.loc	5 266 4                         @ source/bsp.c:266:4
	bl	cpu_fpga_xfer
	.loc	5 267 7                         @ source/bsp.c:267:7
	ldr	r1, __arm_cp.4_8
	ldr	r0, [r1]
	adds	r0, r0, #1
	str	r0, [r1]
	.loc	5 268 2                         @ source/bsp.c:268:2
	@APP
	cpsie i
	@NO_APP
	.loc	5 269 1 epilogue_begin          @ source/bsp.c:269:1
	add	sp, #8
	pop	{r7, pc}
.Ltmp54:
	.loc	5 0 1 is_stmt 0                 @ :0:1
.Ltmp55:
	.p2align	2
@ %bb.25:
__arm_cp.4_0:
	.long	1074073856                      @ 0x40051100
.Lcpi_end21:
	.size	__arm_cp.4_0, .Lcpi_end21-__arm_cp.4_0
__arm_cp.4_1:
	.long	spi_cpux
.Lcpi_end22:
	.size	__arm_cp.4_1, .Lcpi_end22-__arm_cp.4_1
__arm_cp.4_2:
	.long	wait_time
.Lcpi_end23:
	.size	__arm_cp.4_2, .Lcpi_end23-__arm_cp.4_2
__arm_cp.4_3:
	.long	g_TGT_ticks
.Lcpi_end24:
	.size	__arm_cp.4_3, .Lcpi_end24-__arm_cp.4_3
__arm_cp.4_4:
	.long	g_TCF_ticks
.Lcpi_end25:
	.size	__arm_cp.4_4, .Lcpi_end25-__arm_cp.4_4
__arm_cp.4_5:
	.long	g_ACKN_D_ticks
.Lcpi_end26:
	.size	__arm_cp.4_5, .Lcpi_end26-__arm_cp.4_5
__arm_cp.4_6:
	.long	g_ACKN_R_ticks
.Lcpi_end27:
	.size	__arm_cp.4_6, .Lcpi_end27-__arm_cp.4_6
__arm_cp.4_7:
	.long	g_SSBPAC_FAIL_ticks
.Lcpi_end28:
	.size	__arm_cp.4_7, .Lcpi_end28-__arm_cp.4_7
__arm_cp.4_8:
	.long	ticks
.Lcpi_end29:
	.size	__arm_cp.4_8, .Lcpi_end29-__arm_cp.4_8
__arm_cp.4_9:
	.long	652835029                       @ 0x26e978d5
.Lcpi_end30:
	.size	__arm_cp.4_9, .Lcpi_end30-__arm_cp.4_9
__arm_cp.4_10:
	.long	8589934                         @ 0x83126e
.Lcpi_end31:
	.size	__arm_cp.4_10, .Lcpi_end31-__arm_cp.4_10
__arm_cp.4_11:
	.long	onesec_pulse
.Lcpi_end32:
	.size	__arm_cp.4_11, .Lcpi_end32-__arm_cp.4_11
__arm_cp.4_12:
	.long	4294967                         @ 0x418937
.Lcpi_end33:
	.size	__arm_cp.4_12, .Lcpi_end33-__arm_cp.4_12
__arm_cp.4_13:
	.long	g_120s_ticks
.Lcpi_end34:
	.size	__arm_cp.4_13, .Lcpi_end34-__arm_cp.4_13
__arm_cp.4_14:
	.long	3264175145                      @ 0xc28f5c29
.Lcpi_end35:
	.size	__arm_cp.4_14, .Lcpi_end35-__arm_cp.4_14
__arm_cp.4_15:
	.long	21474836                        @ 0x147ae14
.Lcpi_end36:
	.size	__arm_cp.4_15, .Lcpi_end36-__arm_cp.4_15
__arm_cp.4_16:
	.long	1073760276                      @ 0x40004814
.Lcpi_end37:
	.size	__arm_cp.4_16, .Lcpi_end37-__arm_cp.4_16
__arm_cp.4_17:
	.long	2147483                         @ 0x20c49b
.Lcpi_end38:
	.size	__arm_cp.4_17, .Lcpi_end38-__arm_cp.4_17
.Lfunc_end4:
	.size	TMR3_IRQHandler, .Lfunc_end4-TMR3_IRQHandler
	.cfi_endproc
	.cantunwind
	.fnend
                                        @ -- End function
	.section	.text.TIMER_ClearIntFlag,"ax",%progbits
	.p2align	1                               @ -- Begin function TIMER_ClearIntFlag
	.type	TIMER_ClearIntFlag,%function
	.code	16                              @ @TIMER_ClearIntFlag
	.thumb_func
TIMER_ClearIntFlag:
.Lfunc_begin5:
	.file	13 "D:\\work\\dheeraj\\local\\CEL\\CCC\\CCC_CPU123\\Code" "../../CCC_common/Library/StdDriver/inc\\timer.h"
	.loc	13 380 0 is_stmt 1              @ ../../CCC_common/Library/StdDriver/inc\timer.h:380:0
	.fnstart
	.cfi_startproc
@ %bb.0:
	.pad	#4
	sub	sp, #4
	.cfi_def_cfa_offset 4
	str	r0, [sp]
.Ltmp56:
	.loc	13 381 5 prologue_end           @ ../../CCC_common/Library/StdDriver/inc\timer.h:381:5
	ldr	r1, [sp]
	movs	r0, #1
	.loc	13 381 19 is_stmt 0             @ ../../CCC_common/Library/StdDriver/inc\timer.h:381:19
	str	r0, [r1, #8]
	.loc	13 382 1 epilogue_begin is_stmt 1 @ ../../CCC_common/Library/StdDriver/inc\timer.h:382:1
	add	sp, #4
	bx	lr
.Ltmp57:
.Lfunc_end5:
	.size	TIMER_ClearIntFlag, .Lfunc_end5-TIMER_ClearIntFlag
	.cfi_endproc
	.cantunwind
	.fnend
                                        @ -- End function
	.section	.text.TIMER_EnableInt,"ax",%progbits
	.p2align	1                               @ -- Begin function TIMER_EnableInt
	.type	TIMER_EnableInt,%function
	.code	16                              @ @TIMER_EnableInt
	.thumb_func
TIMER_EnableInt:
.Lfunc_begin6:
	.loc	13 309 0                        @ ../../CCC_common/Library/StdDriver/inc\timer.h:309:0
	.fnstart
	.cfi_startproc
@ %bb.0:
	.pad	#4
	sub	sp, #4
	.cfi_def_cfa_offset 4
	str	r0, [sp]
.Ltmp58:
	.loc	13 310 5 prologue_end           @ ../../CCC_common/Library/StdDriver/inc\timer.h:310:5
	ldr	r1, [sp]
	.loc	13 310 16 is_stmt 0             @ ../../CCC_common/Library/StdDriver/inc\timer.h:310:16
	ldr	r0, [r1]
	movs	r2, #1
	lsls	r2, r2, #29
	orrs	r0, r2
	str	r0, [r1]
	.loc	13 311 1 epilogue_begin is_stmt 1 @ ../../CCC_common/Library/StdDriver/inc\timer.h:311:1
	add	sp, #4
	bx	lr
.Ltmp59:
.Lfunc_end6:
	.size	TIMER_EnableInt, .Lfunc_end6-TIMER_EnableInt
	.cfi_endproc
	.cantunwind
	.fnend
                                        @ -- End function
	.section	.text.TIMER_Start,"ax",%progbits
	.p2align	1                               @ -- Begin function TIMER_Start
	.type	TIMER_Start,%function
	.code	16                              @ @TIMER_Start
	.thumb_func
TIMER_Start:
.Lfunc_begin7:
	.loc	13 167 0                        @ ../../CCC_common/Library/StdDriver/inc\timer.h:167:0
	.fnstart
	.cfi_startproc
@ %bb.0:
	.pad	#4
	sub	sp, #4
	.cfi_def_cfa_offset 4
	str	r0, [sp]
.Ltmp60:
	.loc	13 168 5 prologue_end           @ ../../CCC_common/Library/StdDriver/inc\timer.h:168:5
	ldr	r1, [sp]
	.loc	13 168 16 is_stmt 0             @ ../../CCC_common/Library/StdDriver/inc\timer.h:168:16
	ldr	r0, [r1]
	movs	r2, #1
	lsls	r2, r2, #30
	orrs	r0, r2
	str	r0, [r1]
	.loc	13 169 1 epilogue_begin is_stmt 1 @ ../../CCC_common/Library/StdDriver/inc\timer.h:169:1
	add	sp, #4
	bx	lr
.Ltmp61:
.Lfunc_end7:
	.size	TIMER_Start, .Lfunc_end7-TIMER_Start
	.cfi_endproc
	.cantunwind
	.fnend
                                        @ -- End function
	.section	.text.__NVIC_EnableIRQ,"ax",%progbits
	.p2align	2                               @ -- Begin function __NVIC_EnableIRQ
	.type	__NVIC_EnableIRQ,%function
	.code	16                              @ @__NVIC_EnableIRQ
	.thumb_func
__NVIC_EnableIRQ:
.Lfunc_begin8:
	.loc	11 1276 0                       @ ../../CCC_common/Library/CMSIS/Include\core_armv8mbl.h:1276:0
	.fnstart
	.cfi_startproc
@ %bb.0:
	.pad	#4
	sub	sp, #4
	.cfi_def_cfa_offset 4
	str	r0, [sp]
.Ltmp62:
	.loc	11 1277 17 prologue_end         @ ../../CCC_common/Library/CMSIS/Include\core_armv8mbl.h:1277:17
	ldr	r0, [sp]
.Ltmp63:
	.loc	11 1277 7 is_stmt 0             @ ../../CCC_common/Library/CMSIS/Include\core_armv8mbl.h:1277:7
	cmp	r0, #0
	bmi	.LBB8_2
	b	.LBB8_1
.LBB8_1:
.Ltmp64:
	.loc	11 1279 93 is_stmt 1            @ ../../CCC_common/Library/CMSIS/Include\core_armv8mbl.h:1279:93
	ldr	r1, [sp]
	movs	r0, #31
	.loc	11 1279 99 is_stmt 0            @ ../../CCC_common/Library/CMSIS/Include\core_armv8mbl.h:1279:99
	mov	r2, r1
	ands	r2, r0
	movs	r0, #1
	.loc	11 1279 69                      @ ../../CCC_common/Library/CMSIS/Include\core_armv8mbl.h:1279:69
	lsls	r0, r2
	.loc	11 1279 5                       @ ../../CCC_common/Library/CMSIS/Include\core_armv8mbl.h:1279:5
	lsrs	r1, r1, #5
	lsls	r1, r1, #2
	ldr	r2, __arm_cp.8_0
	.loc	11 1279 52                      @ ../../CCC_common/Library/CMSIS/Include\core_armv8mbl.h:1279:52
	str	r0, [r1, r2]
	.loc	11 1280 3 is_stmt 1             @ ../../CCC_common/Library/CMSIS/Include\core_armv8mbl.h:1280:3
	b	.LBB8_2
.Ltmp65:
.LBB8_2:
	.loc	11 1281 1 epilogue_begin        @ ../../CCC_common/Library/CMSIS/Include\core_armv8mbl.h:1281:1
	add	sp, #4
	bx	lr
.Ltmp66:
	.loc	11 0 1 is_stmt 0                @ :0:1
.Ltmp67:
	.p2align	2
@ %bb.3:
__arm_cp.8_0:
	.long	3758153984                      @ 0xe000e100
.Lcpi_end39:
	.size	__arm_cp.8_0, .Lcpi_end39-__arm_cp.8_0
.Lfunc_end8:
	.size	__NVIC_EnableIRQ, .Lfunc_end8-__NVIC_EnableIRQ
	.cfi_endproc
	.cantunwind
	.fnend
                                        @ -- End function
	.hidden	spi_cpux                        @ @spi_cpux
	.type	spi_cpux,%object
	.section	.data.spi_cpux,"aw",%progbits
	.globl	spi_cpux
	.p2align	2, 0x0
spi_cpux:
	.long	0
	.long	0
	.byte	0                               @ 0x0
	.byte	0                               @ 0x0
	.byte	0                               @ 0x0
	.zero	1
	.long	0
	.byte	3                               @ 0x3
	.zero	3
	.long	0                               @ 0x0
	.long	0
	.byte	0                               @ 0x0
	.byte	1                               @ 0x1
	.zero	2
	.size	spi_cpux, 32

	.type	wait_time,%object               @ @wait_time
	.section	.bss.wait_time,"aw",%nobits
	.p2align	2, 0x0
wait_time:
	.long	0                               @ 0x0
	.size	wait_time, 4

	.type	fifo_tx_cpux,%object            @ @fifo_tx_cpux
	.section	.bss.fifo_tx_cpux,"aw",%nobits
	.p2align	2, 0x0
fifo_tx_cpux:
	.zero	16
	.size	fifo_tx_cpux, 16

	.type	buf_tx_cpux,%object             @ @buf_tx_cpux
	.section	.bss.buf_tx_cpux,"aw",%nobits
buf_tx_cpux:
	.zero	100
	.size	buf_tx_cpux, 100

	.type	fifo_rx_cpux,%object            @ @fifo_rx_cpux
	.section	.bss.fifo_rx_cpux,"aw",%nobits
	.p2align	2, 0x0
fifo_rx_cpux:
	.zero	16
	.size	fifo_rx_cpux, 16

	.type	buf_rx_cpux,%object             @ @buf_rx_cpux
	.section	.bss.buf_rx_cpux,"aw",%nobits
buf_rx_cpux:
	.zero	100
	.size	buf_rx_cpux, 100

	.hidden	onesec_pulse                    @ @onesec_pulse
	.type	onesec_pulse,%object
	.section	.bss.onesec_pulse,"aw",%nobits
	.globl	onesec_pulse
onesec_pulse:
	.byte	0                               @ 0x0
	.size	onesec_pulse, 1

	.hidden	g_TGT_ticks                     @ @g_TGT_ticks
	.type	g_TGT_ticks,%object
	.section	.bss.g_TGT_ticks,"aw",%nobits
	.globl	g_TGT_ticks
	.p2align	1, 0x0
g_TGT_ticks:
	.short	0                               @ 0x0
	.size	g_TGT_ticks, 2

	.hidden	g_TCF_ticks                     @ @g_TCF_ticks
	.type	g_TCF_ticks,%object
	.section	.bss.g_TCF_ticks,"aw",%nobits
	.globl	g_TCF_ticks
	.p2align	1, 0x0
g_TCF_ticks:
	.short	0                               @ 0x0
	.size	g_TCF_ticks, 2

	.hidden	g_120s_ticks                    @ @g_120s_ticks
	.type	g_120s_ticks,%object
	.section	.bss.g_120s_ticks,"aw",%nobits
	.globl	g_120s_ticks
	.p2align	1, 0x0
g_120s_ticks:
	.short	0                               @ 0x0
	.size	g_120s_ticks, 2

	.hidden	g_ACKN_D_ticks                  @ @g_ACKN_D_ticks
	.type	g_ACKN_D_ticks,%object
	.section	.bss.g_ACKN_D_ticks,"aw",%nobits
	.globl	g_ACKN_D_ticks
	.p2align	1, 0x0
g_ACKN_D_ticks:
	.short	0                               @ 0x0
	.size	g_ACKN_D_ticks, 2

	.hidden	g_ACKN_R_ticks                  @ @g_ACKN_R_ticks
	.type	g_ACKN_R_ticks,%object
	.section	.bss.g_ACKN_R_ticks,"aw",%nobits
	.globl	g_ACKN_R_ticks
	.p2align	1, 0x0
g_ACKN_R_ticks:
	.short	0                               @ 0x0
	.size	g_ACKN_R_ticks, 2

	.hidden	g_SSBPAC_FAIL_ticks             @ @g_SSBPAC_FAIL_ticks
	.type	g_SSBPAC_FAIL_ticks,%object
	.section	.bss.g_SSBPAC_FAIL_ticks,"aw",%nobits
	.globl	g_SSBPAC_FAIL_ticks
	.p2align	1, 0x0
g_SSBPAC_FAIL_ticks:
	.short	0                               @ 0x0
	.size	g_SSBPAC_FAIL_ticks, 2

	.type	ticks,%object                   @ @ticks
	.section	.bss.ticks,"aw",%nobits
	.p2align	2, 0x0
ticks:
	.long	0                               @ 0x0
	.size	ticks, 4

	.section	".note.GNU-stack","",%progbits
	.eabi_attribute	30, 6	@ Tag_ABI_optimization_goals
	.ARM_attribute	16, 1	@ Tag_AV_eba