	.text
	.syntax unified
	.eabi_attribute	67, "2.09"	@ Tag_conformance
	.cpu	cortex-m23
	.eabi_attribute	6, 16	@ Tag_CPU_arch
	.eabi_attribute	7, 77	@ Tag_CPU_arch_profile
	.eabi_attribute	8, 0	@ Tag_ARM_ISA_use
	.eabi_attribute	9, 3	@ Tag_THUMB_ISA_use
	.eabi_attribute	34, 0	@ Tag_CPU_unaligned_access
	.eabi_attribute	17, 1	@ Tag_ABI_PCS_GOT_use
	.eabi_attribute	20, 2	@ Tag_ABI_FP_denormal
	.eabi_attribute	21, 0	@ Tag_ABI_FP_exceptions
	.eabi_attribute	23, 1	@ Tag_ABI_FP_number_model
	.eabi_attribute	24, 1	@ Tag_ABI_align_needed
	.eabi_attribute	25, 1	@ Tag_ABI_align_preserved
	.eabi_attribute	38, 1	@ Tag_ABI_FP_16bit_format
	.eabi_attribute	18, 4	@ Tag_ABI_PCS_wchar_t
	.eabi_attribute	26, 2	@ Tag_ABI_enum_size
	.eabi_attribute	14, 0	@ Tag_ABI_PCS_R9_use
	.file	"drvr_spi.c"
	.file	1 "D:\\work\\dheeraj\\local\\CEL\\CCC\\CCC_CPU123\\Code" "source/driver/include\\drvr_spi.h"
	.file	2 "D:\\work\\dheeraj\\local\\CEL\\CCC\\CCC_CPU123\\Code" "../../CCC_common/Library/Device/Nuvoton/M261/Include\\M261.h"
	.file	3 "C:\\Users\\Anaya\\AppData\\Local\\Keil_v5\\ARM\\ARMCLANG\\bin\\..\\include" "stdint.h"
	.file	4 "D:\\work\\dheeraj\\local\\CEL\\CCC\\CCC_CPU123\\Code" "../../CCC_common/Library/Device/Nuvoton/M261/Include\\spi_reg.h"
	.file	5 "D:\\work\\dheeraj\\local\\CEL\\CCC\\CCC_CPU123\\Code" "../../CCC_common/Library/Device/Nuvoton/M261/Include\\sys_reg.h"
	.file	6 "D:\\work\\dheeraj\\local\\CEL\\CCC\\CCC_CPU123\\Code" "../../CCC_common/Library/Device/Nuvoton/M261/Include\\gpio_reg.h"
	.file	7 "D:\\work\\dheeraj\\local\\CEL\\CCC\\CCC_CPU123\\Code" "../../CCC_common/Library/CMSIS/Include\\core_armv8mbl.h"
	.section	.text.spi_ctor,"ax",%progbits
	.hidden	spi_ctor                        @ -- Begin function spi_ctor
	.globl	spi_ctor
	.p2align	2
	.type	spi_ctor,%function
	.code	16                              @ @spi_ctor
	.thumb_func
spi_ctor:
.Lfunc_begin0:
	.file	8 "D:\\work\\dheeraj\\local\\CEL\\CCC\\CCC_CPU123\\Code" "source/driver/drvr_spi.c"
	.loc	8 11 0                          @ source/driver/drvr_spi.c:11:0
	.fnstart
	.cfi_sections .debug_frame
	.cfi_startproc
@ %bb.0:
	.save	{r4, lr}
	push	{r4, lr}
	.cfi_def_cfa_offset 8
	.cfi_offset lr, -4
	.cfi_offset r4, -8
	.pad	#40
	sub	sp, #40
	.cfi_def_cfa_offset 48
	str	r0, [sp, #36]
.Ltmp0:
	.loc	8 15 10 prologue_end            @ source/driver/drvr_spi.c:15:10
	ldr	r0, [sp, #36]
	.loc	8 15 18 is_stmt 0               @ source/driver/drvr_spi.c:15:18
	ldrb	r0, [r0, #9]
	.loc	8 15 2                          @ source/driver/drvr_spi.c:15:2
	str	r0, [sp, #24]                   @ 4-byte Spill
	cmp	r0, #1
	beq	.LBB0_5
	b	.LBB0_1
.LBB0_1:
	ldr	r0, [sp, #24]                   @ 4-byte Reload
	cmp	r0, #2
	bne	.LBB0_8
	b	.LBB0_2
.LBB0_2:
	.loc	8 0 2                           @ source/driver/drvr_spi.c:0:2
	ldr	r0, __arm_cp.0_8
.Ltmp1:
	.loc	8 17 8 is_stmt 1                @ source/driver/drvr_spi.c:17:8
	str	r0, [sp, #32]
	ldr	r0, __arm_cp.0_9
	str	r0, [sp, #20]                   @ 4-byte Spill
	movw	r1, #2048
	movs	r2, #0
	.loc	8 20 6                          @ source/driver/drvr_spi.c:20:6
	bl	CLK_SetModuleClock
	ldr	r0, [sp, #20]                   @ 4-byte Reload
	.loc	8 22 6                          @ source/driver/drvr_spi.c:22:6
	bl	CLK_EnableModuleClock
	ldr	r1, __arm_cp.0_10
	.loc	8 28 20                         @ source/driver/drvr_spi.c:28:20
	ldr	r0, [r1]
	uxth	r0, r0
	str	r0, [r1]
	.loc	8 29 20                         @ source/driver/drvr_spi.c:29:20
	ldr	r0, [r1]
	ldr	r2, __arm_cp.0_11
	orrs	r0, r2
	str	r0, [r1]
	ldr	r1, __arm_cp.0_5
	.loc	8 31 16                         @ source/driver/drvr_spi.c:31:16
	ldr	r0, [r1]
	movw	r2, #8192
	orrs	r0, r2
	str	r0, [r1]
.Ltmp2:
	.loc	8 33 6                          @ source/driver/drvr_spi.c:33:6
	ldr	r0, [sp, #36]
	.loc	8 33 14 is_stmt 0               @ source/driver/drvr_spi.c:33:14
	ldrb	r0, [r0, #10]
.Ltmp3:
	.loc	8 33 6                          @ source/driver/drvr_spi.c:33:6
	cmp	r0, #1
	bne	.LBB0_4
	b	.LBB0_3
.LBB0_3:
	.loc	8 0 6                           @ source/driver/drvr_spi.c:0:6
	ldr	r0, __arm_cp.0_6
	movs	r1, #32
	movs	r2, #1
.Ltmp4:
	.loc	8 35 4 is_stmt 1                @ source/driver/drvr_spi.c:35:4
	str	r2, [sp, #16]                   @ 4-byte Spill
	bl	GPIO_SetMode
	ldr	r0, [sp, #16]                   @ 4-byte Reload
	ldr	r1, __arm_cp.0_12
	.loc	8 36 4                          @ source/driver/drvr_spi.c:36:4
	str	r0, [r1]
	.loc	8 37 3                          @ source/driver/drvr_spi.c:37:3
	b	.LBB0_4
.Ltmp5:
.LBB0_4:
	.loc	8 0 3 is_stmt 0                 @ source/driver/drvr_spi.c:0:3
	add	r1, sp, #28
	movs	r0, #52
	.loc	8 38 13 is_stmt 1               @ source/driver/drvr_spi.c:38:13
	strb	r0, [r1]
	.loc	8 39 3                          @ source/driver/drvr_spi.c:39:3
	b	.LBB0_9
.LBB0_5:
	.loc	8 0 3 is_stmt 0                 @ source/driver/drvr_spi.c:0:3
	ldr	r0, __arm_cp.0_0
	.loc	8 41 8 is_stmt 1                @ source/driver/drvr_spi.c:41:8
	str	r0, [sp, #32]
	ldr	r0, __arm_cp.0_1
	str	r0, [sp, #8]                    @ 4-byte Spill
	movs	r1, #128
	str	r1, [sp, #12]                   @ 4-byte Spill
	movs	r2, #0
	.loc	8 44 6                          @ source/driver/drvr_spi.c:44:6
	bl	CLK_SetModuleClock
	ldr	r0, [sp, #8]                    @ 4-byte Reload
	.loc	8 46 6                          @ source/driver/drvr_spi.c:46:6
	bl	CLK_EnableModuleClock
	ldr	r2, [sp, #12]                   @ 4-byte Reload
	ldr	r1, __arm_cp.0_2
	.loc	8 52 20                         @ source/driver/drvr_spi.c:52:20
	ldr	r0, [r1]
	ldr	r4, __arm_cp.0_3
	ands	r0, r4
	str	r0, [r1]
	.loc	8 53 20                         @ source/driver/drvr_spi.c:53:20
	ldr	r0, [r1]
	movs	r3, #17
	lsls	r3, r3, #26
	orrs	r0, r3
	str	r0, [r1]
	ldr	r1, __arm_cp.0_4
	.loc	8 54 20                         @ source/driver/drvr_spi.c:54:20
	ldr	r0, [r1]
	ands	r0, r4
	str	r0, [r1]
	.loc	8 55 20                         @ source/driver/drvr_spi.c:55:20
	ldr	r0, [r1]
	orrs	r0, r3
	str	r0, [r1]
	ldr	r1, __arm_cp.0_5
	.loc	8 57 16                         @ source/driver/drvr_spi.c:57:16
	ldr	r0, [r1]
	orrs	r0, r2
	str	r0, [r1]
.Ltmp6:
	.loc	8 59 6                          @ source/driver/drvr_spi.c:59:6
	ldr	r0, [sp, #36]
	.loc	8 59 14 is_stmt 0               @ source/driver/drvr_spi.c:59:14
	ldrb	r0, [r0, #10]
.Ltmp7:
	.loc	8 59 6                          @ source/driver/drvr_spi.c:59:6
	cmp	r0, #1
	bne	.LBB0_7
	b	.LBB0_6
.LBB0_6:
	.loc	8 0 6                           @ source/driver/drvr_spi.c:0:6
	ldr	r0, __arm_cp.0_6
	movs	r1, #16
	movs	r2, #1
.Ltmp8:
	.loc	8 60 4 is_stmt 1                @ source/driver/drvr_spi.c:60:4
	str	r2, [sp, #4]                    @ 4-byte Spill
	bl	GPIO_SetMode
	ldr	r0, [sp, #4]                    @ 4-byte Reload
	ldr	r1, __arm_cp.0_7
	.loc	8 61 4                          @ source/driver/drvr_spi.c:61:4
	str	r0, [r1]
	.loc	8 62 3                          @ source/driver/drvr_spi.c:62:3
	b	.LBB0_7
.Ltmp9:
.LBB0_7:
	.loc	8 0 3 is_stmt 0                 @ source/driver/drvr_spi.c:0:3
	add	r1, sp, #28
	movs	r0, #51
	.loc	8 63 13 is_stmt 1               @ source/driver/drvr_spi.c:63:13
	strb	r0, [r1]
	.loc	8 64 3                          @ source/driver/drvr_spi.c:64:3
	b	.LBB0_9
.LBB0_8:
	.loc	8 0 3 is_stmt 0                 @ source/driver/drvr_spi.c:0:3
	movs	r0, #0
	.loc	8 66 8 is_stmt 1                @ source/driver/drvr_spi.c:66:8
	str	r0, [sp, #32]
	.loc	8 68 3                          @ source/driver/drvr_spi.c:68:3
	b	.LBB0_9
.Ltmp10:
.LBB0_9:
	.loc	8 71 5                          @ source/driver/drvr_spi.c:71:5
	ldr	r0, [sp, #36]
	.loc	8 71 13 is_stmt 0               @ source/driver/drvr_spi.c:71:13
	ldrb	r0, [r0, #8]
.Ltmp11:
	.loc	8 71 5                          @ source/driver/drvr_spi.c:71:5
	cmp	r0, #1
	bne	.LBB0_11
	b	.LBB0_10
.LBB0_10:
	.loc	8 0 5                           @ source/driver/drvr_spi.c:0:5
	add	r0, sp, #28
.Ltmp12:
	.loc	8 72 21 is_stmt 1               @ source/driver/drvr_spi.c:72:21
	ldrb	r0, [r0]
	.loc	8 72 6 is_stmt 0                @ source/driver/drvr_spi.c:72:6
	bl	__NVIC_EnableIRQ
	.loc	8 73 2 is_stmt 1                @ source/driver/drvr_spi.c:73:2
	b	.LBB0_12
.Ltmp13:
.LBB0_11:
	.loc	8 0 2 is_stmt 0                 @ source/driver/drvr_spi.c:0:2
	add	r0, sp, #28
.Ltmp14:
	.loc	8 75 22 is_stmt 1               @ source/driver/drvr_spi.c:75:22
	ldrb	r0, [r0]
	.loc	8 75 6 is_stmt 0                @ source/driver/drvr_spi.c:75:6
	bl	__NVIC_DisableIRQ
	b	.LBB0_12
.Ltmp15:
.LBB0_12:
	.loc	8 79 5 is_stmt 1                @ source/driver/drvr_spi.c:79:5
	ldr	r0, [sp, #32]
.Ltmp16:
	.loc	8 79 5 is_stmt 0                @ source/driver/drvr_spi.c:79:5
	cbz	r0, .LBB0_17
	b	.LBB0_13
.LBB0_13:
.Ltmp17:
	.loc	8 80 15 is_stmt 1               @ source/driver/drvr_spi.c:80:15
	ldr	r0, [sp, #32]
	movs	r2, #4
	.loc	8 80 3 is_stmt 0                @ source/driver/drvr_spi.c:80:3
	mov	r1, r2
	bl	SPI_SetFIFO
.Ltmp18:
	.loc	8 84 6 is_stmt 1                @ source/driver/drvr_spi.c:84:6
	ldr	r0, [sp, #36]
	.loc	8 84 14 is_stmt 0               @ source/driver/drvr_spi.c:84:14
	ldrb	r0, [r0, #10]
.Ltmp19:
	.loc	8 84 6                          @ source/driver/drvr_spi.c:84:6
	cmp	r0, #1
	bne	.LBB0_15
	b	.LBB0_14
.LBB0_14:
.Ltmp20:
	.loc	8 85 13 is_stmt 1               @ source/driver/drvr_spi.c:85:13
	ldr	r0, [sp, #32]
	ldr	r1, __arm_cp.0_13
	.loc	8 85 4 is_stmt 0                @ source/driver/drvr_spi.c:85:4
	str	r1, [sp]
	movs	r1, #0
	movs	r2, #4
	movs	r3, #8
	bl	SPI_Open
	.loc	8 87 22 is_stmt 1               @ source/driver/drvr_spi.c:87:22
	ldr	r0, [sp, #32]
	.loc	8 87 4 is_stmt 0                @ source/driver/drvr_spi.c:87:4
	bl	SPI_DisableAutoSS
	.loc	8 88 3 is_stmt 1                @ source/driver/drvr_spi.c:88:3
	b	.LBB0_16
.Ltmp21:
.LBB0_15:
	.loc	8 90 13                         @ source/driver/drvr_spi.c:90:13
	ldr	r0, [sp, #32]
	ldr	r1, __arm_cp.0_13
	.loc	8 90 4 is_stmt 0                @ source/driver/drvr_spi.c:90:4
	str	r1, [sp]
	movs	r1, #1
	lsls	r1, r1, #18
	movs	r2, #4
	movs	r3, #8
	bl	SPI_Open
	b	.LBB0_16
.Ltmp22:
.LBB0_16:
	.loc	8 93 18 is_stmt 1               @ source/driver/drvr_spi.c:93:18
	ldr	r0, [sp, #32]
	.loc	8 93 3 is_stmt 0                @ source/driver/drvr_spi.c:93:3
	ldr	r1, [sp, #36]
	.loc	8 93 16                         @ source/driver/drvr_spi.c:93:16
	str	r0, [r1, #24]
	.loc	8 94 2 is_stmt 1                @ source/driver/drvr_spi.c:94:2
	b	.LBB0_18
.Ltmp23:
.LBB0_17:
	.loc	8 0 2 is_stmt 0                 @ source/driver/drvr_spi.c:0:2
	b	.LBB0_18
.LBB0_18:
	.loc	8 96 1 epilogue_begin is_stmt 1 @ source/driver/drvr_spi.c:96:1
	add	sp, #40
	pop	{r4, pc}
.Ltmp24:
	.loc	8 0 1 is_stmt 0                 @ :0:1
.Ltmp25:
	.p2align	2
@ %bb.19:
__arm_cp.0_0:
	.long	1074143232                      @ 0x40062000
.Lcpi_end0:
	.size	__arm_cp.0_0, .Lcpi_end0-__arm_cp.0_0
__arm_cp.0_1:
	.long	1717567502                      @ 0x6660000e
.Lcpi_end1:
	.size	__arm_cp.0_1, .Lcpi_end1-__arm_cp.0_1
__arm_cp.0_2:
	.long	1073741872                      @ 0x40000030
.Lcpi_end2:
	.size	__arm_cp.0_2, .Lcpi_end2-__arm_cp.0_2
__arm_cp.0_3:
	.long	16777215                        @ 0xffffff
.Lcpi_end3:
	.size	__arm_cp.0_3, .Lcpi_end3-__arm_cp.0_3
__arm_cp.0_4:
	.long	1073741888                      @ 0x40000040
.Lcpi_end4:
	.size	__arm_cp.0_4, .Lcpi_end4-__arm_cp.0_4
__arm_cp.0_5:
	.long	1073758244                      @ 0x40004024
.Lcpi_end5:
	.size	__arm_cp.0_5, .Lcpi_end5-__arm_cp.0_5
__arm_cp.0_6:
	.long	1073758336                      @ 0x40004080
.Lcpi_end6:
	.size	__arm_cp.0_6, .Lcpi_end6-__arm_cp.0_6
__arm_cp.0_7:
	.long	1073760400                      @ 0x40004890
.Lcpi_end7:
	.size	__arm_cp.0_7, .Lcpi_end7-__arm_cp.0_7
__arm_cp.0_8:
	.long	1074147328                      @ 0x40063000
.Lcpi_end8:
	.size	__arm_cp.0_8, .Lcpi_end8-__arm_cp.0_8
__arm_cp.0_9:
	.long	1721761807                      @ 0x66a0000f
.Lcpi_end9:
	.size	__arm_cp.0_9, .Lcpi_end9-__arm_cp.0_9
__arm_cp.0_10:
	.long	1073741876                      @ 0x40000034
.Lcpi_end10:
	.size	__arm_cp.0_10, .Lcpi_end10-__arm_cp.0_10
__arm_cp.0_11:
	.long	1431633920                      @ 0x55550000
.Lcpi_end11:
	.size	__arm_cp.0_11, .Lcpi_end11-__arm_cp.0_11
__arm_cp.0_12:
	.long	1073760404                      @ 0x40004894
.Lcpi_end12:
	.size	__arm_cp.0_12, .Lcpi_end12-__arm_cp.0_12
__arm_cp.0_13:
	.long	12000000                        @ 0xb71b00
.Lcpi_end13:
	.size	__arm_cp.0_13, .Lcpi_end13-__arm_cp.0_13
.Lfunc_end0:
	.size	spi_ctor, .Lfunc_end0-spi_ctor
	.cfi_endproc
	.cantunwind
	.fnend
                                        @ -- End function
	.section	.text.__NVIC_EnableIRQ,"ax",%progbits
	.p2align	2                               @ -- Begin function __NVIC_EnableIRQ
	.type	__NVIC_EnableIRQ,%function
	.code	16                              @ @__NVIC_EnableIRQ
	.thumb_func
__NVIC_EnableIRQ:
.Lfunc_begin1:
	.loc	7 1276 0 is_stmt 1              @ ../../CCC_common/Library/CMSIS/Include\core_armv8mbl.h:1276:0
	.fnstart
	.cfi_startproc
@ %bb.0:
	.pad	#4
	sub	sp, #4
	.cfi_def_cfa_offset 4
	str	r0, [sp]
.Ltmp26:
	.loc	7 1277 17 prologue_end          @ ../../CCC_common/Library/CMSIS/Include\core_armv8mbl.h:1277:17
	ldr	r0, [sp]
.Ltmp27:
	.loc	7 1277 7 is_stmt 0              @ ../../CCC_common/Library/CMSIS/Include\core_armv8mbl.h:1277:7
	cmp	r0, #0
	bmi	.LBB1_2
	b	.LBB1_1
.LBB1_1:
.Ltmp28:
	.loc	7 1279 93 is_stmt 1             @ ../../CCC_common/Library/CMSIS/Include\core_armv8mbl.h:1279:93
	ldr	r1, [sp]
	movs	r0, #31
	.loc	7 1279 99 is_stmt 0             @ ../../CCC_common/Library/CMSIS/Include\core_armv8mbl.h:1279:99
	mov	r2, r1
	ands	r2, r0
	movs	r0, #1
	.loc	7 1279 69                       @ ../../CCC_common/Library/CMSIS/Include\core_armv8mbl.h:1279:69
	lsls	r0, r2
	.loc	7 1279 5                        @ ../../CCC_common/Library/CMSIS/Include\core_armv8mbl.h:1279:5
	lsrs	r1, r1, #5
	lsls	r1, r1, #2
	ldr	r2, __arm_cp.1_0
	.loc	7 1279 52                       @ ../../CCC_common/Library/CMSIS/Include\core_armv8mbl.h:1279:52
	str	r0, [r1, r2]
	.loc	7 1280 3 is_stmt 1              @ ../../CCC_common/Library/CMSIS/Include\core_armv8mbl.h:1280:3
	b	.LBB1_2
.Ltmp29:
.LBB1_2:
	.loc	7 1281 1 epilogue_begin         @ ../../CCC_common/Library/CMSIS/Include\core_armv8mbl.h:1281:1
	add	sp, #4
	bx	lr
.Ltmp30:
	.loc	7 0 1 is_stmt 0                 @ :0:1
.Ltmp31:
	.p2align	2
@ %bb.3:
__arm_cp.1_0:
	.long	3758153984                      @ 0xe000e100
.Lcpi_end14:
	.size	__arm_cp.1_0, .Lcpi_end14-__arm_cp.1_0
.Lfunc_end1:
	.size	__NVIC_EnableIRQ, .Lfunc_end1-__NVIC_EnableIRQ
	.cfi_endproc
	.cantunwind
	.fnend
                                        @ -- End function
	.section	.text.__NVIC_DisableIRQ,"ax",%progbits
	.p2align	2                               @ -- Begin function __NVIC_DisableIRQ
	.type	__NVIC_DisableIRQ,%function
	.code	16                              @ @__NVIC_DisableIRQ
	.thumb_func
__NVIC_DisableIRQ:
.Lfunc_begin2:
	.loc	7 1312 0 is_stmt 1              @ ../../CCC_common/Library/CMSIS/Include\core_armv8mbl.h:1312:0
	.fnstart
	.cfi_startproc
@ %bb.0:
	.pad	#4
	sub	sp, #4
	.cfi_def_cfa_offset 4
	str	r0, [sp]
.Ltmp32:
	.loc	7 1313 17 prologue_end          @ ../../CCC_common/Library/CMSIS/Include\core_armv8mbl.h:1313:17
	ldr	r0, [sp]
.Ltmp33:
	.loc	7 1313 7 is_stmt 0              @ ../../CCC_common/Library/CMSIS/Include\core_armv8mbl.h:1313:7
	cmp	r0, #0
	bmi	.LBB2_2
	b	.LBB2_1
.LBB2_1:
.Ltmp34:
	.loc	7 1315 93 is_stmt 1             @ ../../CCC_common/Library/CMSIS/Include\core_armv8mbl.h:1315:93
	ldr	r1, [sp]
	movs	r0, #31
	.loc	7 1315 99 is_stmt 0             @ ../../CCC_common/Library/CMSIS/Include\core_armv8mbl.h:1315:99
	mov	r2, r1
	ands	r2, r0
	movs	r0, #1
	.loc	7 1315 69                       @ ../../CCC_common/Library/CMSIS/Include\core_armv8mbl.h:1315:69
	lsls	r0, r2
	.loc	7 1315 5                        @ ../../CCC_common/Library/CMSIS/Include\core_armv8mbl.h:1315:5
	lsrs	r1, r1, #5
	lsls	r1, r1, #2
	ldr	r2, __arm_cp.2_0
	.loc	7 1315 52                       @ ../../CCC_common/Library/CMSIS/Include\core_armv8mbl.h:1315:52
	str	r0, [r1, r2]
	.loc	7 1316 5 is_stmt 1              @ ../../CCC_common/Library/CMSIS/Include\core_armv8mbl.h:1316:5
	dsb	sy
	.loc	7 1317 5                        @ ../../CCC_common/Library/CMSIS/Include\core_armv8mbl.h:1317:5
	isb	sy
	.loc	7 1318 3                        @ ../../CCC_common/Library/CMSIS/Include\core_armv8mbl.h:1318:3
	b	.LBB2_2
.Ltmp35:
.LBB2_2:
	.loc	7 1319 1 epilogue_begin         @ ../../CCC_common/Library/CMSIS/Include\core_armv8mbl.h:1319:1
	add	sp, #4
	bx	lr
.Ltmp36:
	.loc	7 0 1 is_stmt 0                 @ :0:1
.Ltmp37:
	.p2align	2
@ %bb.3:
__arm_cp.2_0:
	.long	3758154112                      @ 0xe000e180
.Lcpi_end15:
	.size	__arm_cp.2_0, .Lcpi_end15-__arm_cp.2_0
.Lfunc_end2:
	.size	__NVIC_DisableIRQ, .Lfunc_end2-__NVIC_DisableIRQ
	.cfi_endproc
	.cantunwind
	.fnend
                                        @ -- End function
	.section	.text.spi_agent_sm,"ax",%progbits
	.hidden	spi_agent_sm                    @ -- Begin function spi_agent_sm
	.globl	spi_agent_sm
	.p2align	2
	.type	spi_agent_sm,%function
	.code	16                              @ @spi_agent_sm
	.thumb_func
spi_agent_sm:
.Lfunc_begin3:
	.loc	8 203 0 is_stmt 1               @ source/driver/drvr_spi.c:203:0
	.fnstart
	.cfi_startproc
@ %bb.0:
	.save	{r7, lr}
	push	{r7, lr}
	.cfi_def_cfa_offset 8
	.cfi_offset lr, -4
	.cfi_offset r7, -8
	.pad	#24
	sub	sp, #24
	.cfi_def_cfa_offset 32
	str	r0, [sp, #20]
.Ltmp38:
	.loc	8 204 16 prologue_end           @ source/driver/drvr_spi.c:204:16
	ldr	r0, [sp, #20]
	.loc	8 204 24 is_stmt 0              @ source/driver/drvr_spi.c:204:24
	ldr	r0, [r0, #24]
	.loc	8 204 9                         @ source/driver/drvr_spi.c:204:9
	str	r0, [sp, #16]
	.loc	8 207 10 is_stmt 1              @ source/driver/drvr_spi.c:207:10
	ldr	r0, [sp, #20]
	.loc	8 207 18 is_stmt 0              @ source/driver/drvr_spi.c:207:18
	ldr	r0, [r0, #20]
	.loc	8 207 2                         @ source/driver/drvr_spi.c:207:2
	str	r0, [sp, #8]                    @ 4-byte Spill
	cmp	r0, #5
	bhi	.LBB3_22
@ %bb.1:
	ldr	r1, [sp, #8]                    @ 4-byte Reload
	lsls	r2, r1, #2
	adr	r0, .LJTI3_0
	adds	r0, r0, r2
	mov	pc, r0
@ %bb.2:
	.loc	8 0 2                           @ source/driver/drvr_spi.c:0:2
	.p2align	2
.LJTI3_0:
	b.w	.LBB3_3
	b.w	.LBB3_22
	b.w	.LBB3_22
	b.w	.LBB3_21
	b.w	.LBB3_7
	b.w	.LBB3_14
.LBB3_3:
.Ltmp39:
	.loc	8 210 8 is_stmt 1               @ source/driver/drvr_spi.c:210:8
	ldr	r0, [sp, #16]
	.loc	8 210 14 is_stmt 0              @ source/driver/drvr_spi.c:210:14
	ldr	r0, [r0, #20]
.Ltmp40:
	.loc	8 210 7                         @ source/driver/drvr_spi.c:210:7
	lsls	r0, r0, #29
	cmp	r0, #0
	bpl	.LBB3_5
	b	.LBB3_4
.LBB3_4:
.Ltmp41:
	.loc	8 212 5 is_stmt 1               @ source/driver/drvr_spi.c:212:5
	ldr	r2, [sp, #16]
	.loc	8 212 18 is_stmt 0              @ source/driver/drvr_spi.c:212:18
	ldr	r1, [r2, #20]
	movs	r0, #4
	orrs	r1, r0
	str	r1, [r2, #20]
	.loc	8 213 5 is_stmt 1               @ source/driver/drvr_spi.c:213:5
	ldr	r1, [sp, #20]
	.loc	8 213 19 is_stmt 0              @ source/driver/drvr_spi.c:213:19
	str	r0, [r1, #20]
	.loc	8 214 4 is_stmt 1               @ source/driver/drvr_spi.c:214:4
	b	.LBB3_6
.Ltmp42:
.LBB3_5:
	.loc	8 215 10                        @ source/driver/drvr_spi.c:215:10
	b	.LBB3_23
.Ltmp43:
.LBB3_6:
	.loc	8 210 50                        @ source/driver/drvr_spi.c:210:50
	b	.LBB3_7
.Ltmp44:
.LBB3_7:
	.loc	8 218 4                         @ source/driver/drvr_spi.c:218:4
	b	.LBB3_8
.LBB3_8:                                @ =>This Inner Loop Header: Depth=1
	.loc	8 218 10 is_stmt 0              @ source/driver/drvr_spi.c:218:10
	ldr	r0, [sp, #16]
	ldr	r0, [r0, #20]
	movw	r1, #256
	ands	r0, r1
	lsrs	r0, r0, #8
	.loc	8 218 4                         @ source/driver/drvr_spi.c:218:4
	cbnz	r0, .LBB3_10
	b	.LBB3_9
.LBB3_9:                                @   in Loop: Header=BB3_8 Depth=1
.Ltmp45:
	.loc	8 219 10 is_stmt 1              @ source/driver/drvr_spi.c:219:10
	ldr	r0, [sp, #20]
	ldr	r0, [r0, #24]
	ldr	r0, [r0, #48]
	add	r1, sp, #12
	.loc	8 219 8 is_stmt 0               @ source/driver/drvr_spi.c:219:8
	strb	r0, [r1]
	.loc	8 220 16 is_stmt 1              @ source/driver/drvr_spi.c:220:16
	ldr	r0, [sp, #20]
	.loc	8 220 24 is_stmt 0              @ source/driver/drvr_spi.c:220:24
	ldr	r0, [r0, #4]
	.loc	8 220 28                        @ source/driver/drvr_spi.c:220:28
	ldrb	r1, [r1]
	.loc	8 220 5                         @ source/driver/drvr_spi.c:220:5
	bl	fifo_write
.Ltmp46:
	.loc	8 218 4 is_stmt 1               @ source/driver/drvr_spi.c:218:4
	b	.LBB3_8
.LBB3_10:
.Ltmp47:
	.loc	8 222 8                         @ source/driver/drvr_spi.c:222:8
	ldr	r0, [sp, #16]
	.loc	8 222 14 is_stmt 0              @ source/driver/drvr_spi.c:222:14
	ldr	r0, [r0, #20]
.Ltmp48:
	.loc	8 222 7                         @ source/driver/drvr_spi.c:222:7
	lsls	r0, r0, #28
	cmp	r0, #0
	bpl	.LBB3_12
	b	.LBB3_11
.LBB3_11:
.Ltmp49:
	.loc	8 224 5 is_stmt 1               @ source/driver/drvr_spi.c:224:5
	ldr	r1, [sp, #16]
	.loc	8 224 18 is_stmt 0              @ source/driver/drvr_spi.c:224:18
	ldr	r0, [r1, #20]
	movs	r2, #8
	orrs	r0, r2
	str	r0, [r1, #20]
	.loc	8 226 5 is_stmt 1               @ source/driver/drvr_spi.c:226:5
	ldr	r0, [sp, #20]
	.loc	8 226 13 is_stmt 0              @ source/driver/drvr_spi.c:226:13
	ldr	r0, [r0, #12]
	.loc	8 226 5                         @ source/driver/drvr_spi.c:226:5
	blx	r0
	.loc	8 228 5 is_stmt 1               @ source/driver/drvr_spi.c:228:5
	ldr	r1, [sp, #16]
	.loc	8 228 19 is_stmt 0              @ source/driver/drvr_spi.c:228:19
	ldr	r0, [r1, #16]
	movw	r2, #768
	orrs	r0, r2
	str	r0, [r1, #16]
	.loc	8 229 5 is_stmt 1               @ source/driver/drvr_spi.c:229:5
	ldr	r1, [sp, #20]
	movs	r0, #5
	.loc	8 229 19 is_stmt 0              @ source/driver/drvr_spi.c:229:19
	str	r0, [r1, #20]
	.loc	8 230 4 is_stmt 1               @ source/driver/drvr_spi.c:230:4
	b	.LBB3_13
.Ltmp50:
.LBB3_12:
	.loc	8 231 10                        @ source/driver/drvr_spi.c:231:10
	b	.LBB3_23
.Ltmp51:
.LBB3_13:
	.loc	8 222 50                        @ source/driver/drvr_spi.c:222:50
	b	.LBB3_14
.Ltmp52:
.LBB3_14:
	.loc	8 234 4                         @ source/driver/drvr_spi.c:234:4
	b	.LBB3_15
.LBB3_15:                               @ =>This Inner Loop Header: Depth=1
	.loc	8 234 10 is_stmt 0              @ source/driver/drvr_spi.c:234:10
	ldr	r0, [sp, #20]
	.loc	8 234 18                        @ source/driver/drvr_spi.c:234:18
	ldr	r0, [r0]
	.loc	8 234 23                        @ source/driver/drvr_spi.c:234:23
	ldrb	r0, [r0, #8]
	.loc	8 234 4                         @ source/driver/drvr_spi.c:234:4
	lsls	r0, r0, #31
	cbnz	r0, .LBB3_20
	b	.LBB3_16
.LBB3_16:                               @   in Loop: Header=BB3_15 Depth=1
.Ltmp53:
	.loc	8 235 8 is_stmt 1               @ source/driver/drvr_spi.c:235:8
	ldr	r0, [sp, #20]
	ldr	r0, [r0, #24]
	ldr	r0, [r0, #20]
	movs	r1, #1
	lsls	r1, r1, #17
	ands	r0, r1
	lsrs	r0, r0, #17
.Ltmp54:
	.loc	8 235 8 is_stmt 0               @ source/driver/drvr_spi.c:235:8
	cbnz	r0, .LBB3_18
	b	.LBB3_17
.LBB3_17:                               @   in Loop: Header=BB3_15 Depth=1
.Ltmp55:
	.loc	8 236 16 is_stmt 1              @ source/driver/drvr_spi.c:236:16
	ldr	r0, [sp, #20]
	.loc	8 236 24 is_stmt 0              @ source/driver/drvr_spi.c:236:24
	ldr	r0, [r0]
	add	r1, sp, #12
	.loc	8 236 6                         @ source/driver/drvr_spi.c:236:6
	str	r1, [sp, #4]                    @ 4-byte Spill
	bl	fifo_read
	ldr	r0, [sp, #4]                    @ 4-byte Reload
	.loc	8 237 6 is_stmt 1               @ source/driver/drvr_spi.c:237:6
	ldrb	r0, [r0]
	ldr	r1, [sp, #20]
	ldr	r1, [r1, #24]
	str	r0, [r1, #32]
	.loc	8 238 5                         @ source/driver/drvr_spi.c:238:5
	b	.LBB3_19
.Ltmp56:
.LBB3_18:
	.loc	8 239 11                        @ source/driver/drvr_spi.c:239:11
	b	.LBB3_23
.Ltmp57:
.LBB3_19:                               @   in Loop: Header=BB3_15 Depth=1
	.loc	8 234 4                         @ source/driver/drvr_spi.c:234:4
	b	.LBB3_15
.LBB3_20:
	.loc	8 241 4                         @ source/driver/drvr_spi.c:241:4
	ldr	r1, [sp, #20]
	movs	r0, #0
	.loc	8 241 18 is_stmt 0              @ source/driver/drvr_spi.c:241:18
	str	r0, [r1, #20]
	.loc	8 242 4 is_stmt 1               @ source/driver/drvr_spi.c:242:4
	b	.LBB3_23
.LBB3_21:
	.loc	8 244 4                         @ source/driver/drvr_spi.c:244:4
	b	.LBB3_23
.LBB3_22:
	.loc	8 247 4                         @ source/driver/drvr_spi.c:247:4
	b	.LBB3_23
.Ltmp58:
.LBB3_23:
	.loc	8 249 1 epilogue_begin          @ source/driver/drvr_spi.c:249:1
	add	sp, #24
	pop	{r7, pc}
.Ltmp59:
.Lfunc_end3:
	.size	spi_agent_sm, .Lfunc_end3-spi_agent_sm
	.cfi_endproc
	.cantunwind
	.fnend
                                        @ -- End function
	.file	9 "D:\\work\\dheeraj\\local\\CEL\\CCC\\CCC_CPU123\\Code" "source/Include\\fifo.h"
	.section	".note.GNU-stack","",%progbits
	.eabi_attribute	30, 6	@ Tag_ABI_optimization_goals
	.ARM_attribute	16, 1	@ Tag_AV_eba