	.text
	.syntax unified
	.eabi_attribute	67, "2.09"	@ Tag_conformance
	.cpu	cortex-m23
	.eabi_attribute	6, 16	@ Tag_CPU_arch
	.eabi_attribute	7, 77	@ Tag_CPU_arch_profile
	.eabi_attribute	8, 0	@ Tag_ARM_ISA_use
	.eabi_attribute	9, 3	@ Tag_THUMB_ISA_use
	.eabi_attribute	34, 0	@ Tag_CPU_unaligned_access
	.eabi_attribute	17, 1	@ Tag_ABI_PCS_GOT_use
	.eabi_attribute	20, 2	@ Tag_ABI_FP_denormal
	.eabi_attribute	21, 0	@ Tag_ABI_FP_exceptions
	.eabi_attribute	23, 1	@ Tag_ABI_FP_number_model
	.eabi_attribute	24, 1	@ Tag_ABI_align_needed
	.eabi_attribute	25, 1	@ Tag_ABI_align_preserved
	.eabi_attribute	38, 1	@ Tag_ABI_FP_16bit_format
	.eabi_attribute	18, 4	@ Tag_ABI_PCS_wchar_t
	.eabi_attribute	26, 2	@ Tag_ABI_enum_size
	.eabi_attribute	14, 0	@ Tag_ABI_PCS_R9_use
	.file	"fmc.c"
	.file	1 "C:\\Users\\Anaya\\AppData\\Local\\Keil_v5\\ARM\\ARMCLANG\\bin\\..\\include" "stdint.h"
	.file	2 "D:\\work\\dheeraj\\local\\CEL\\CCC\\CCC_CPU123\\Code" "../../CCC_common/Library/StdDriver/src/fmc.c"
	.file	3 "D:\\work\\dheeraj\\local\\CEL\\CCC\\CCC_CPU123\\Code" "../../CCC_common/Library/Device/Nuvoton/M261/Include\\fmc_reg.h"
	.section	.text.FMC_CheckAllOne,"ax",%progbits
	.hidden	FMC_CheckAllOne                 @ -- Begin function FMC_CheckAllOne
	.globl	FMC_CheckAllOne
	.p2align	2
	.type	FMC_CheckAllOne,%function
	.code	16                              @ @FMC_CheckAllOne
	.thumb_func
FMC_CheckAllOne:
.Lfunc_begin0:
	.loc	2 46 0                          @ ../../CCC_common/Library/StdDriver/src/fmc.c:46:0
	.fnstart
	.cfi_sections .debug_frame
	.cfi_startproc
@ %bb.0:
	.pad	#24
	sub	sp, #24
	.cfi_def_cfa_offset 24
	str	r0, [sp, #20]
	str	r1, [sp, #16]
	movs	r0, #0
	mvns	r1, r0
.Ltmp0:
	.loc	2 47 15 prologue_end            @ ../../CCC_common/Library/StdDriver/src/fmc.c:47:15
	str	r1, [sp, #12]
	.loc	2 50 22                         @ ../../CCC_common/Library/StdDriver/src/fmc.c:50:22
	ldr	r1, __arm_cp.0_0
	str	r0, [r1]
	ldr	r1, __arm_cp.0_1
	movs	r0, #128
	.loc	2 52 17                         @ ../../CCC_common/Library/StdDriver/src/fmc.c:52:17
	str	r0, [r1]
	ldr	r1, __arm_cp.0_2
	movs	r0, #40
	.loc	2 54 19                         @ ../../CCC_common/Library/StdDriver/src/fmc.c:54:19
	str	r0, [r1]
	.loc	2 55 21                         @ ../../CCC_common/Library/StdDriver/src/fmc.c:55:21
	ldr	r0, [sp, #20]
	ldr	r1, __arm_cp.0_3
	.loc	2 55 19 is_stmt 0               @ ../../CCC_common/Library/StdDriver/src/fmc.c:55:19
	str	r0, [r1]
	.loc	2 56 21 is_stmt 1               @ ../../CCC_common/Library/StdDriver/src/fmc.c:56:21
	ldr	r0, [sp, #16]
	ldr	r1, __arm_cp.0_4
	.loc	2 56 19 is_stmt 0               @ ../../CCC_common/Library/StdDriver/src/fmc.c:56:19
	str	r0, [r1]
	ldr	r1, __arm_cp.0_5
	movs	r0, #1
	.loc	2 57 19 is_stmt 1               @ ../../CCC_common/Library/StdDriver/src/fmc.c:57:19
	str	r0, [r1]
	.loc	2 59 22                         @ ../../CCC_common/Library/StdDriver/src/fmc.c:59:22
	ldr	r0, __arm_cp.0_6
	ldr	r0, [r0]
	lsls	r0, r0, #1
	.loc	2 59 20 is_stmt 0               @ ../../CCC_common/Library/StdDriver/src/fmc.c:59:20
	str	r0, [sp, #8]
	.loc	2 60 5 is_stmt 1                @ ../../CCC_common/Library/StdDriver/src/fmc.c:60:5
	b	.LBB0_1
.LBB0_1:                                @ =>This Inner Loop Header: Depth=1
	.loc	2 0 5 is_stmt 0                 @ ../../CCC_common/Library/StdDriver/src/fmc.c:0:5
	ldr	r0, __arm_cp.0_1
	.loc	2 60 16                         @ ../../CCC_common/Library/StdDriver/src/fmc.c:60:16
	ldr	r0, [r0]
	.loc	2 60 5                          @ ../../CCC_common/Library/StdDriver/src/fmc.c:60:5
	lsls	r0, r0, #31
	cbz	r0, .LBB0_5
	b	.LBB0_2
.LBB0_2:                                @   in Loop: Header=BB0_1 Depth=1
.Ltmp1:
	.loc	2 62 27 is_stmt 1               @ ../../CCC_common/Library/StdDriver/src/fmc.c:62:27
	ldr	r0, [sp, #8]
	subs	r1, r0, #1
	str	r1, [sp, #8]
.Ltmp2:
	.loc	2 62 13 is_stmt 0               @ ../../CCC_common/Library/StdDriver/src/fmc.c:62:13
	cmp	r0, #0
	bgt	.LBB0_4
	b	.LBB0_3
.LBB0_3:
.Ltmp3:
	.loc	2 64 30 is_stmt 1               @ ../../CCC_common/Library/StdDriver/src/fmc.c:64:30
	ldr	r1, __arm_cp.0_0
	movs	r0, #0
	mvns	r0, r0
	str	r0, [r1]
	.loc	2 65 13                         @ ../../CCC_common/Library/StdDriver/src/fmc.c:65:13
	b	.LBB0_5
.Ltmp4:
.LBB0_4:                                @   in Loop: Header=BB0_1 Depth=1
	.loc	2 60 5                          @ ../../CCC_common/Library/StdDriver/src/fmc.c:60:5
	b	.LBB0_1
.LBB0_5:
.Ltmp5:
	.loc	2 69 8                          @ ../../CCC_common/Library/StdDriver/src/fmc.c:69:8
	ldr	r0, __arm_cp.0_0
	ldr	r0, [r0]
.Ltmp6:
	.loc	2 69 8 is_stmt 0                @ ../../CCC_common/Library/StdDriver/src/fmc.c:69:8
	cmp	r0, #0
	bne	.LBB0_19
	b	.LBB0_6
.LBB0_6:
.Ltmp7:
	.loc	2 71 26 is_stmt 1               @ ../../CCC_common/Library/StdDriver/src/fmc.c:71:26
	ldr	r0, __arm_cp.0_6
	ldr	r0, [r0]
	lsls	r0, r0, #1
	.loc	2 71 24 is_stmt 0               @ ../../CCC_common/Library/StdDriver/src/fmc.c:71:24
	str	r0, [sp, #4]
	.loc	2 72 9 is_stmt 1                @ ../../CCC_common/Library/StdDriver/src/fmc.c:72:9
	b	.LBB0_7
.LBB0_7:                                @ =>This Loop Header: Depth=1
                                        @     Child Loop BB0_8 Depth 2
	.loc	2 0 9 is_stmt 0                 @ ../../CCC_common/Library/StdDriver/src/fmc.c:0:9
	ldr	r1, __arm_cp.0_2
	movs	r0, #8
.Ltmp8:
	.loc	2 74 25 is_stmt 1               @ ../../CCC_common/Library/StdDriver/src/fmc.c:74:25
	str	r0, [r1]
	.loc	2 75 28                         @ ../../CCC_common/Library/StdDriver/src/fmc.c:75:28
	ldr	r0, [sp, #20]
	ldr	r1, __arm_cp.0_3
	.loc	2 75 26 is_stmt 0               @ ../../CCC_common/Library/StdDriver/src/fmc.c:75:26
	str	r0, [r1]
	ldr	r1, __arm_cp.0_5
	movs	r0, #1
	.loc	2 76 25 is_stmt 1               @ ../../CCC_common/Library/StdDriver/src/fmc.c:76:25
	str	r0, [r1]
	.loc	2 78 30                         @ ../../CCC_common/Library/StdDriver/src/fmc.c:78:30
	ldr	r0, __arm_cp.0_6
	ldr	r0, [r0]
	lsls	r0, r0, #1
	.loc	2 78 28 is_stmt 0               @ ../../CCC_common/Library/StdDriver/src/fmc.c:78:28
	str	r0, [sp, #8]
	.loc	2 79 13 is_stmt 1               @ ../../CCC_common/Library/StdDriver/src/fmc.c:79:13
	b	.LBB0_8
.LBB0_8:                                @   Parent Loop BB0_7 Depth=1
                                        @ =>  This Inner Loop Header: Depth=2
	.loc	2 0 13 is_stmt 0                @ ../../CCC_common/Library/StdDriver/src/fmc.c:0:13
	ldr	r0, __arm_cp.0_1
	.loc	2 79 24                         @ ../../CCC_common/Library/StdDriver/src/fmc.c:79:24
	ldr	r0, [r0]
	.loc	2 79 13                         @ ../../CCC_common/Library/StdDriver/src/fmc.c:79:13
	lsls	r0, r0, #31
	cbz	r0, .LBB0_12
	b	.LBB0_9
.LBB0_9:                                @   in Loop: Header=BB0_8 Depth=2
.Ltmp9:
	.loc	2 81 35 is_stmt 1               @ ../../CCC_common/Library/StdDriver/src/fmc.c:81:35
	ldr	r0, [sp, #8]
	subs	r1, r0, #1
	str	r1, [sp, #8]
.Ltmp10:
	.loc	2 81 21 is_stmt 0               @ ../../CCC_common/Library/StdDriver/src/fmc.c:81:21
	cmp	r0, #0
	bgt	.LBB0_11
	b	.LBB0_10
.LBB0_10:                               @   in Loop: Header=BB0_7 Depth=1
.Ltmp11:
	.loc	2 83 38 is_stmt 1               @ ../../CCC_common/Library/StdDriver/src/fmc.c:83:38
	ldr	r1, __arm_cp.0_0
	movs	r0, #0
	mvns	r0, r0
	str	r0, [r1]
	.loc	2 84 21                         @ ../../CCC_common/Library/StdDriver/src/fmc.c:84:21
	b	.LBB0_12
.Ltmp12:
.LBB0_11:                               @   in Loop: Header=BB0_8 Depth=2
	.loc	2 79 13                         @ ../../CCC_common/Library/StdDriver/src/fmc.c:79:13
	b	.LBB0_8
.LBB0_12:                               @   in Loop: Header=BB0_7 Depth=1
.Ltmp13:
	.loc	2 88 31                         @ ../../CCC_common/Library/StdDriver/src/fmc.c:88:31
	ldr	r0, [sp, #4]
	subs	r1, r0, #1
	str	r1, [sp, #4]
.Ltmp14:
	.loc	2 88 17 is_stmt 0               @ ../../CCC_common/Library/StdDriver/src/fmc.c:88:17
	cmp	r0, #0
	bgt	.LBB0_14
	b	.LBB0_13
.LBB0_13:                               @   in Loop: Header=BB0_7 Depth=1
.Ltmp15:
	.loc	2 90 34 is_stmt 1               @ ../../CCC_common/Library/StdDriver/src/fmc.c:90:34
	ldr	r1, __arm_cp.0_0
	movs	r0, #0
	mvns	r0, r0
	str	r0, [r1]
	.loc	2 91 13                         @ ../../CCC_common/Library/StdDriver/src/fmc.c:91:13
	b	.LBB0_14
.Ltmp16:
.LBB0_14:                               @   in Loop: Header=BB0_7 Depth=1
	.loc	2 92 9                          @ ../../CCC_common/Library/StdDriver/src/fmc.c:92:9
	b	.LBB0_15
.Ltmp17:
.LBB0_15:                               @   in Loop: Header=BB0_7 Depth=1
	.loc	2 0 9 is_stmt 0                 @ ../../CCC_common/Library/StdDriver/src/fmc.c:0:9
	ldr	r0, __arm_cp.0_4
	.loc	2 93 22 is_stmt 1               @ ../../CCC_common/Library/StdDriver/src/fmc.c:93:22
	ldr	r1, [r0]
	movs	r0, #0
	.loc	2 93 37 is_stmt 0               @ ../../CCC_common/Library/StdDriver/src/fmc.c:93:37
	str	r0, [sp]                        @ 4-byte Spill
	cbnz	r1, .LBB0_17
	b	.LBB0_16
.LBB0_16:                               @   in Loop: Header=BB0_7 Depth=1
	.loc	2 93 41                         @ ../../CCC_common/Library/StdDriver/src/fmc.c:93:41
	ldr	r0, __arm_cp.0_0
	ldr	r0, [r0]
	.loc	2 93 58                         @ ../../CCC_common/Library/StdDriver/src/fmc.c:93:58
	rsbs	r1, r0, #0
	adcs	r0, r1
	str	r0, [sp]                        @ 4-byte Spill
	b	.LBB0_17
.LBB0_17:                               @   in Loop: Header=BB0_7 Depth=1
	.loc	2 0 0                           @ ../../CCC_common/Library/StdDriver/src/fmc.c:0:0
	ldr	r0, [sp]                        @ 4-byte Reload
.Ltmp18:
	.loc	2 92 9 is_stmt 1                @ ../../CCC_common/Library/StdDriver/src/fmc.c:92:9
	lsls	r0, r0, #31
	cmp	r0, #0
	bne	.LBB0_7
	b	.LBB0_18
.Ltmp19:
.LBB0_18:
	.loc	2 94 5                          @ ../../CCC_common/Library/StdDriver/src/fmc.c:94:5
	b	.LBB0_19
.Ltmp20:
.LBB0_19:
	.loc	2 96 9                          @ ../../CCC_common/Library/StdDriver/src/fmc.c:96:9
	ldr	r0, __arm_cp.0_0
	ldr	r0, [r0]
.Ltmp21:
	.loc	2 96 9 is_stmt 0                @ ../../CCC_common/Library/StdDriver/src/fmc.c:96:9
	cbnz	r0, .LBB0_27
	b	.LBB0_20
.LBB0_20:
	.loc	2 0 9                           @ ../../CCC_common/Library/StdDriver/src/fmc.c:0:9
	ldr	r0, __arm_cp.0_4
.Ltmp22:
	.loc	2 98 17 is_stmt 1               @ ../../CCC_common/Library/StdDriver/src/fmc.c:98:17
	ldr	r0, [r0]
	ldr	r1, __arm_cp.0_7
.Ltmp23:
	.loc	2 98 12 is_stmt 0               @ ../../CCC_common/Library/StdDriver/src/fmc.c:98:12
	cmp	r0, r1
	bne	.LBB0_22
	b	.LBB0_21
.LBB0_21:
	.loc	2 0 12                          @ ../../CCC_common/Library/StdDriver/src/fmc.c:0:12
	ldr	r0, __arm_cp.0_7
.Ltmp24:
	.loc	2 99 17 is_stmt 1               @ ../../CCC_common/Library/StdDriver/src/fmc.c:99:17
	str	r0, [sp, #12]
	.loc	2 99 13 is_stmt 0               @ ../../CCC_common/Library/StdDriver/src/fmc.c:99:13
	b	.LBB0_26
.LBB0_22:
	.loc	2 0 13                          @ ../../CCC_common/Library/StdDriver/src/fmc.c:0:13
	ldr	r0, __arm_cp.0_4
.Ltmp25:
	.loc	2 100 22 is_stmt 1              @ ../../CCC_common/Library/StdDriver/src/fmc.c:100:22
	ldr	r0, [r0]
	ldr	r1, __arm_cp.0_8
.Ltmp26:
	.loc	2 100 17 is_stmt 0              @ ../../CCC_common/Library/StdDriver/src/fmc.c:100:17
	cmp	r0, r1
	bne	.LBB0_24
	b	.LBB0_23
.LBB0_23:
	.loc	2 0 17                          @ ../../CCC_common/Library/StdDriver/src/fmc.c:0:17
	ldr	r0, __arm_cp.0_8
.Ltmp27:
	.loc	2 101 17 is_stmt 1              @ ../../CCC_common/Library/StdDriver/src/fmc.c:101:17
	str	r0, [sp, #12]
	.loc	2 101 13 is_stmt 0              @ ../../CCC_common/Library/StdDriver/src/fmc.c:101:13
	b	.LBB0_25
.LBB0_24:
	.loc	2 103 30 is_stmt 1              @ ../../CCC_common/Library/StdDriver/src/fmc.c:103:30
	ldr	r1, __arm_cp.0_0
	movs	r0, #0
	mvns	r0, r0
	str	r0, [r1]
	b	.LBB0_25
.Ltmp28:
.LBB0_25:
	.loc	2 0 30 is_stmt 0                @ ../../CCC_common/Library/StdDriver/src/fmc.c:0:30
	b	.LBB0_26
.LBB0_26:
	.loc	2 104 5 is_stmt 1               @ ../../CCC_common/Library/StdDriver/src/fmc.c:104:5
	b	.LBB0_27
.Ltmp29:
.LBB0_27:
	.loc	2 106 12                        @ ../../CCC_common/Library/StdDriver/src/fmc.c:106:12
	ldr	r0, [sp, #12]
	.loc	2 106 5 epilogue_begin is_stmt 0 @ ../../CCC_common/Library/StdDriver/src/fmc.c:106:5
	add	sp, #24
	bx	lr
.Ltmp30:
	.loc	2 0 5                           @ :0:5
.Ltmp31:
	.p2align	2
@ %bb.28:
__arm_cp.0_0:
	.long	g_FMC_i32ErrCode
.Lcpi_end0:
	.size	__arm_cp.0_0, .Lcpi_end0-__arm_cp.0_0
__arm_cp.0_1:
	.long	1073791040                      @ 0x4000c040
.Lcpi_end1:
	.size	__arm_cp.0_1, .Lcpi_end1-__arm_cp.0_1
__arm_cp.0_2:
	.long	1073790988                      @ 0x4000c00c
.Lcpi_end2:
	.size	__arm_cp.0_2, .Lcpi_end2-__arm_cp.0_2
__arm_cp.0_3:
	.long	1073790980                      @ 0x4000c004
.Lcpi_end3:
	.size	__arm_cp.0_3, .Lcpi_end3-__arm_cp.0_3
__arm_cp.0_4:
	.long	1073790984                      @ 0x4000c008
.Lcpi_end4:
	.size	__arm_cp.0_4, .Lcpi_end4-__arm_cp.0_4
__arm_cp.0_5:
	.long	1073790992                      @ 0x4000c010
.Lcpi_end5:
	.size	__arm_cp.0_5, .Lcpi_end5-__arm_cp.0_5
__arm_cp.0_6:
	.long	SystemCoreClock
.Lcpi_end6:
	.size	__arm_cp.0_6, .Lcpi_end6-__arm_cp.0_6
__arm_cp.0_7:
	.long	2703228927                      @ 0xa11fffff
.Lcpi_end7:
	.size	__arm_cp.0_7, .Lcpi_end7-__arm_cp.0_7
__arm_cp.0_8:
	.long	2702180352                      @ 0xa1100000
.Lcpi_end8:
	.size	__arm_cp.0_8, .Lcpi_end8-__arm_cp.0_8
.Lfunc_end0:
	.size	FMC_CheckAllOne, .Lfunc_end0-FMC_CheckAllOne
	.cfi_endproc
	.cantunwind
	.fnend
                                        @ -- End function
	.section	.text.FMC_Close,"ax",%progbits
	.hidden	FMC_Close                       @ -- Begin function FMC_Close
	.globl	FMC_Close
	.p2align	2
	.type	FMC_Close,%function
	.code	16                              @ @FMC_Close
	.thumb_func
FMC_Close:
.Lfunc_begin1:
	.loc	2 120 0 is_stmt 1               @ ../../CCC_common/Library/StdDriver/src/fmc.c:120:0
	.fnstart
	.cfi_startproc
@ %bb.0:
	ldr	r1, __arm_cp.1_0
.Ltmp32:
	.loc	2 121 17 prologue_end           @ ../../CCC_common/Library/StdDriver/src/fmc.c:121:17
	ldr	r0, [r1]
	movs	r2, #1
	bics	r0, r2
	str	r0, [r1]
	.loc	2 122 1                         @ ../../CCC_common/Library/StdDriver/src/fmc.c:122:1
	bx	lr
.Ltmp33:
	.loc	2 0 1 is_stmt 0                 @ :0:1
.Ltmp34:
	.p2align	2
@ %bb.1:
__arm_cp.1_0:
	.long	1073790976                      @ 0x4000c000
.Lcpi_end9:
	.size	__arm_cp.1_0, .Lcpi_end9-__arm_cp.1_0
.Lfunc_end1:
	.size	FMC_Close, .Lfunc_end1-FMC_Close
	.cfi_endproc
	.cantunwind
	.fnend
                                        @ -- End function
	.section	.text.FMC_ConfigXOM,"ax",%progbits
	.hidden	FMC_ConfigXOM                   @ -- Begin function FMC_ConfigXOM
	.globl	FMC_ConfigXOM
	.p2align	2
	.type	FMC_ConfigXOM,%function
	.code	16                              @ @FMC_ConfigXOM
	.thumb_func
FMC_ConfigXOM:
.Lfunc_begin2:
	.loc	2 142 0 is_stmt 1               @ ../../CCC_common/Library/StdDriver/src/fmc.c:142:0
	.fnstart
	.cfi_startproc
@ %bb.0:
	.save	{r7, lr}
	push	{r7, lr}
	.cfi_def_cfa_offset 8
	.cfi_offset lr, -4
	.cfi_offset r7, -8
	.pad	#24
	sub	sp, #24
	.cfi_def_cfa_offset 32
                                        @ kill: def $r3 killed $r2
	str	r0, [sp, #20]
	str	r1, [sp, #16]
	add	r0, sp, #12
	strb	r2, [r0]
	movs	r0, #0
.Ltmp35:
	.loc	2 143 14 prologue_end           @ ../../CCC_common/Library/StdDriver/src/fmc.c:143:14
	str	r0, [sp, #8]
	.loc	2 146 22                        @ ../../CCC_common/Library/StdDriver/src/fmc.c:146:22
	ldr	r1, __arm_cp.2_0
	str	r0, [r1]
.Ltmp36:
	.loc	2 148 8                         @ ../../CCC_common/Library/StdDriver/src/fmc.c:148:8
	ldr	r0, [sp, #20]
.Ltmp37:
	.loc	2 148 8 is_stmt 0               @ ../../CCC_common/Library/StdDriver/src/fmc.c:148:8
	cmp	r0, #4
	blo	.LBB2_2
	b	.LBB2_1
.LBB2_1:
.Ltmp38:
	.loc	2 150 26 is_stmt 1              @ ../../CCC_common/Library/StdDriver/src/fmc.c:150:26
	ldr	r1, __arm_cp.2_0
	movs	r0, #1
	mvns	r0, r0
	str	r0, [r1]
	.loc	2 151 13                        @ ../../CCC_common/Library/StdDriver/src/fmc.c:151:13
	str	r0, [sp, #8]
	.loc	2 152 5                         @ ../../CCC_common/Library/StdDriver/src/fmc.c:152:5
	b	.LBB2_2
.Ltmp39:
.LBB2_2:
	.loc	2 154 8                         @ ../../CCC_common/Library/StdDriver/src/fmc.c:154:8
	ldr	r0, [sp, #8]
.Ltmp40:
	.loc	2 154 8 is_stmt 0               @ ../../CCC_common/Library/StdDriver/src/fmc.c:154:8
	cbnz	r0, .LBB2_4
	b	.LBB2_3
.LBB2_3:
.Ltmp41:
	.loc	2 156 31 is_stmt 1              @ ../../CCC_common/Library/StdDriver/src/fmc.c:156:31
	ldr	r0, [sp, #20]
	.loc	2 156 15 is_stmt 0              @ ../../CCC_common/Library/StdDriver/src/fmc.c:156:15
	bl	FMC_GetXOMState
	.loc	2 156 13                        @ ../../CCC_common/Library/StdDriver/src/fmc.c:156:13
	str	r0, [sp, #8]
	.loc	2 157 5 is_stmt 1               @ ../../CCC_common/Library/StdDriver/src/fmc.c:157:5
	b	.LBB2_4
.Ltmp42:
.LBB2_4:
	.loc	2 159 8                         @ ../../CCC_common/Library/StdDriver/src/fmc.c:159:8
	ldr	r0, [sp, #8]
.Ltmp43:
	.loc	2 159 8 is_stmt 0               @ ../../CCC_common/Library/StdDriver/src/fmc.c:159:8
	cbnz	r0, .LBB2_13
	b	.LBB2_5
.LBB2_5:
	.loc	2 0 8                           @ ../../CCC_common/Library/StdDriver/src/fmc.c:0:8
	ldr	r1, __arm_cp.2_1
	movs	r0, #33
.Ltmp44:
	.loc	2 161 21 is_stmt 1              @ ../../CCC_common/Library/StdDriver/src/fmc.c:161:21
	str	r0, [r1]
	.loc	2 162 40                        @ ../../CCC_common/Library/StdDriver/src/fmc.c:162:40
	ldr	r0, [sp, #20]
	.loc	2 162 50 is_stmt 0              @ ../../CCC_common/Library/StdDriver/src/fmc.c:162:50
	lsls	r1, r0, #4
	movs	r0, #1
	lsls	r2, r0, #21
	.loc	2 162 37                        @ ../../CCC_common/Library/StdDriver/src/fmc.c:162:37
	adds	r1, r1, r2
	ldr	r2, __arm_cp.2_2
	.loc	2 162 22                        @ ../../CCC_common/Library/StdDriver/src/fmc.c:162:22
	str	r1, [r2]
	.loc	2 163 23 is_stmt 1              @ ../../CCC_common/Library/StdDriver/src/fmc.c:163:23
	ldr	r1, [sp, #16]
	ldr	r2, __arm_cp.2_3
	.loc	2 163 21 is_stmt 0              @ ../../CCC_common/Library/StdDriver/src/fmc.c:163:21
	str	r1, [r2]
	ldr	r1, __arm_cp.2_4
	.loc	2 164 21 is_stmt 1              @ ../../CCC_common/Library/StdDriver/src/fmc.c:164:21
	str	r0, [r1]
	.loc	2 165 25                        @ ../../CCC_common/Library/StdDriver/src/fmc.c:165:25
	ldr	r0, __arm_cp.2_5
	ldr	r0, [r0]
	lsrs	r0, r0, #3
	.loc	2 165 23 is_stmt 0              @ ../../CCC_common/Library/StdDriver/src/fmc.c:165:23
	str	r0, [sp, #4]
	.loc	2 166 9 is_stmt 1               @ ../../CCC_common/Library/StdDriver/src/fmc.c:166:9
	b	.LBB2_6
.LBB2_6:                                @ =>This Inner Loop Header: Depth=1
	.loc	2 0 9 is_stmt 0                 @ ../../CCC_common/Library/StdDriver/src/fmc.c:0:9
	ldr	r0, __arm_cp.2_4
	.loc	2 166 20                        @ ../../CCC_common/Library/StdDriver/src/fmc.c:166:20
	ldr	r0, [r0]
	.loc	2 166 9                         @ ../../CCC_common/Library/StdDriver/src/fmc.c:166:9
	lsls	r0, r0, #31
	cbz	r0, .LBB2_10
	b	.LBB2_7
.LBB2_7:                                @   in Loop: Header=BB2_6 Depth=1
.Ltmp45:
	.loc	2 168 30 is_stmt 1              @ ../../CCC_common/Library/StdDriver/src/fmc.c:168:30
	ldr	r0, [sp, #4]
	subs	r1, r0, #1
	str	r1, [sp, #4]
.Ltmp46:
	.loc	2 168 17 is_stmt 0              @ ../../CCC_common/Library/StdDriver/src/fmc.c:168:17
	cmp	r0, #0
	bgt	.LBB2_9
	b	.LBB2_8
.LBB2_8:
.Ltmp47:
	.loc	2 170 34 is_stmt 1              @ ../../CCC_common/Library/StdDriver/src/fmc.c:170:34
	ldr	r1, __arm_cp.2_0
	movs	r0, #0
	mvns	r0, r0
	str	r0, [r1]
	.loc	2 171 21                        @ ../../CCC_common/Library/StdDriver/src/fmc.c:171:21
	str	r0, [sp, #8]
	.loc	2 172 17                        @ ../../CCC_common/Library/StdDriver/src/fmc.c:172:17
	b	.LBB2_10
.Ltmp48:
.LBB2_9:                                @   in Loop: Header=BB2_6 Depth=1
	.loc	2 166 9                         @ ../../CCC_common/Library/StdDriver/src/fmc.c:166:9
	b	.LBB2_6
.LBB2_10:
	.loc	2 0 9 is_stmt 0                 @ ../../CCC_common/Library/StdDriver/src/fmc.c:0:9
	ldr	r0, __arm_cp.2_6
.Ltmp49:
	.loc	2 176 17 is_stmt 1              @ ../../CCC_common/Library/StdDriver/src/fmc.c:176:17
	ldr	r0, [r0]
.Ltmp50:
	.loc	2 176 12 is_stmt 0              @ ../../CCC_common/Library/StdDriver/src/fmc.c:176:12
	lsls	r0, r0, #25
	cmp	r0, #0
	bpl	.LBB2_12
	b	.LBB2_11
.LBB2_11:
	.loc	2 0 12                          @ ../../CCC_common/Library/StdDriver/src/fmc.c:0:12
	ldr	r1, __arm_cp.2_6
.Ltmp51:
	.loc	2 178 25 is_stmt 1              @ ../../CCC_common/Library/StdDriver/src/fmc.c:178:25
	ldr	r0, [r1]
	movs	r2, #64
	orrs	r0, r2
	str	r0, [r1]
	.loc	2 179 30                        @ ../../CCC_common/Library/StdDriver/src/fmc.c:179:30
	ldr	r1, __arm_cp.2_0
	movs	r0, #0
	mvns	r0, r0
	str	r0, [r1]
	.loc	2 180 17                        @ ../../CCC_common/Library/StdDriver/src/fmc.c:180:17
	str	r0, [sp, #8]
	.loc	2 181 9                         @ ../../CCC_common/Library/StdDriver/src/fmc.c:181:9
	b	.LBB2_12
.Ltmp52:
.LBB2_12:
	.loc	2 182 5                         @ ../../CCC_common/Library/StdDriver/src/fmc.c:182:5
	b	.LBB2_13
.Ltmp53:
.LBB2_13:
	.loc	2 184 8                         @ ../../CCC_common/Library/StdDriver/src/fmc.c:184:8
	ldr	r0, [sp, #8]
.Ltmp54:
	.loc	2 184 8 is_stmt 0               @ ../../CCC_common/Library/StdDriver/src/fmc.c:184:8
	cbnz	r0, .LBB2_22
	b	.LBB2_14
.LBB2_14:
	.loc	2 0 8                           @ ../../CCC_common/Library/StdDriver/src/fmc.c:0:8
	ldr	r1, __arm_cp.2_1
	movs	r0, #33
.Ltmp55:
	.loc	2 186 21 is_stmt 1              @ ../../CCC_common/Library/StdDriver/src/fmc.c:186:21
	str	r0, [r1]
	.loc	2 187 40                        @ ../../CCC_common/Library/StdDriver/src/fmc.c:187:40
	ldr	r0, [sp, #20]
	.loc	2 187 50 is_stmt 0              @ ../../CCC_common/Library/StdDriver/src/fmc.c:187:50
	lsls	r0, r0, #4
	ldr	r1, __arm_cp.2_7
	.loc	2 187 37                        @ ../../CCC_common/Library/StdDriver/src/fmc.c:187:37
	adds	r0, r0, r1
	ldr	r1, __arm_cp.2_2
	.loc	2 187 22                        @ ../../CCC_common/Library/StdDriver/src/fmc.c:187:22
	str	r0, [r1]
	add	r0, sp, #12
	.loc	2 188 23 is_stmt 1              @ ../../CCC_common/Library/StdDriver/src/fmc.c:188:23
	ldrb	r0, [r0]
	ldr	r1, __arm_cp.2_3
	.loc	2 188 21 is_stmt 0              @ ../../CCC_common/Library/StdDriver/src/fmc.c:188:21
	str	r0, [r1]
	ldr	r1, __arm_cp.2_4
	movs	r0, #1
	.loc	2 189 21 is_stmt 1              @ ../../CCC_common/Library/StdDriver/src/fmc.c:189:21
	str	r0, [r1]
	.loc	2 190 25                        @ ../../CCC_common/Library/StdDriver/src/fmc.c:190:25
	ldr	r0, __arm_cp.2_5
	ldr	r0, [r0]
	lsrs	r0, r0, #3
	.loc	2 190 23 is_stmt 0              @ ../../CCC_common/Library/StdDriver/src/fmc.c:190:23
	str	r0, [sp, #4]
	.loc	2 191 9 is_stmt 1               @ ../../CCC_common/Library/StdDriver/src/fmc.c:191:9
	b	.LBB2_15
.LBB2_15:                               @ =>This Inner Loop Header: Depth=1
	.loc	2 0 9 is_stmt 0                 @ ../../CCC_common/Library/StdDriver/src/fmc.c:0:9
	ldr	r0, __arm_cp.2_4
	.loc	2 191 20                        @ ../../CCC_common/Library/StdDriver/src/fmc.c:191:20
	ldr	r0, [r0]
	.loc	2 191 9                         @ ../../CCC_common/Library/StdDriver/src/fmc.c:191:9
	lsls	r0, r0, #31
	cbz	r0, .LBB2_19
	b	.LBB2_16
.LBB2_16:                               @   in Loop: Header=BB2_15 Depth=1
.Ltmp56:
	.loc	2 193 30 is_stmt 1              @ ../../CCC_common/Library/StdDriver/src/fmc.c:193:30
	ldr	r0, [sp, #4]
	subs	r1, r0, #1
	str	r1, [sp, #4]
.Ltmp57:
	.loc	2 193 17 is_stmt 0              @ ../../CCC_common/Library/StdDriver/src/fmc.c:193:17
	cmp	r0, #0
	bgt	.LBB2_18
	b	.LBB2_17
.LBB2_17:
.Ltmp58:
	.loc	2 195 34 is_stmt 1              @ ../../CCC_common/Library/StdDriver/src/fmc.c:195:34
	ldr	r1, __arm_cp.2_0
	movs	r0, #0
	mvns	r0, r0
	str	r0, [r1]
	.loc	2 196 21                        @ ../../CCC_common/Library/StdDriver/src/fmc.c:196:21
	str	r0, [sp, #8]
	.loc	2 197 17                        @ ../../CCC_common/Library/StdDriver/src/fmc.c:197:17
	b	.LBB2_19
.Ltmp59:
.LBB2_18:                               @   in Loop: Header=BB2_15 Depth=1
	.loc	2 191 9                         @ ../../CCC_common/Library/StdDriver/src/fmc.c:191:9
	b	.LBB2_15
.LBB2_19:
	.loc	2 0 9 is_stmt 0                 @ ../../CCC_common/Library/StdDriver/src/fmc.c:0:9
	ldr	r0, __arm_cp.2_6
.Ltmp60:
	.loc	2 201 17 is_stmt 1              @ ../../CCC_common/Library/StdDriver/src/fmc.c:201:17
	ldr	r0, [r0]
.Ltmp61:
	.loc	2 201 12 is_stmt 0              @ ../../CCC_common/Library/StdDriver/src/fmc.c:201:12
	lsls	r0, r0, #25
	cmp	r0, #0
	bpl	.LBB2_21
	b	.LBB2_20
.LBB2_20:
	.loc	2 0 12                          @ ../../CCC_common/Library/StdDriver/src/fmc.c:0:12
	ldr	r1, __arm_cp.2_6
.Ltmp62:
	.loc	2 203 25 is_stmt 1              @ ../../CCC_common/Library/StdDriver/src/fmc.c:203:25
	ldr	r0, [r1]
	movs	r2, #64
	orrs	r0, r2
	str	r0, [r1]
	.loc	2 204 30                        @ ../../CCC_common/Library/StdDriver/src/fmc.c:204:30
	ldr	r1, __arm_cp.2_0
	movs	r0, #0
	mvns	r0, r0
	str	r0, [r1]
	.loc	2 205 17                        @ ../../CCC_common/Library/StdDriver/src/fmc.c:205:17
	str	r0, [sp, #8]
	.loc	2 206 9                         @ ../../CCC_common/Library/StdDriver/src/fmc.c:206:9
	b	.LBB2_21
.Ltmp63:
.LBB2_21:
	.loc	2 207 5                         @ ../../CCC_common/Library/StdDriver/src/fmc.c:207:5
	b	.LBB2_22
.Ltmp64:
.LBB2_22:
	.loc	2 209 8                         @ ../../CCC_common/Library/StdDriver/src/fmc.c:209:8
	ldr	r0, [sp, #8]
.Ltmp65:
	.loc	2 209 8 is_stmt 0               @ ../../CCC_common/Library/StdDriver/src/fmc.c:209:8
	cbnz	r0, .LBB2_31
	b	.LBB2_23
.LBB2_23:
	.loc	2 0 8                           @ ../../CCC_common/Library/StdDriver/src/fmc.c:0:8
	ldr	r1, __arm_cp.2_1
	movs	r0, #33
.Ltmp66:
	.loc	2 211 21 is_stmt 1              @ ../../CCC_common/Library/StdDriver/src/fmc.c:211:21
	str	r0, [r1]
	.loc	2 212 40                        @ ../../CCC_common/Library/StdDriver/src/fmc.c:212:40
	ldr	r0, [sp, #20]
	.loc	2 212 50 is_stmt 0              @ ../../CCC_common/Library/StdDriver/src/fmc.c:212:50
	lsls	r0, r0, #4
	ldr	r1, __arm_cp.2_8
	.loc	2 212 37                        @ ../../CCC_common/Library/StdDriver/src/fmc.c:212:37
	adds	r0, r0, r1
	ldr	r1, __arm_cp.2_2
	.loc	2 212 22                        @ ../../CCC_common/Library/StdDriver/src/fmc.c:212:22
	str	r0, [r1]
	ldr	r1, __arm_cp.2_3
	movs	r0, #0
	.loc	2 213 21 is_stmt 1              @ ../../CCC_common/Library/StdDriver/src/fmc.c:213:21
	str	r0, [r1]
	ldr	r1, __arm_cp.2_4
	movs	r0, #1
	.loc	2 214 21                        @ ../../CCC_common/Library/StdDriver/src/fmc.c:214:21
	str	r0, [r1]
	.loc	2 215 25                        @ ../../CCC_common/Library/StdDriver/src/fmc.c:215:25
	ldr	r0, __arm_cp.2_5
	ldr	r0, [r0]
	lsrs	r0, r0, #3
	.loc	2 215 23 is_stmt 0              @ ../../CCC_common/Library/StdDriver/src/fmc.c:215:23
	str	r0, [sp, #4]
	.loc	2 216 9 is_stmt 1               @ ../../CCC_common/Library/StdDriver/src/fmc.c:216:9
	b	.LBB2_24
.LBB2_24:                               @ =>This Inner Loop Header: Depth=1
	.loc	2 0 9 is_stmt 0                 @ ../../CCC_common/Library/StdDriver/src/fmc.c:0:9
	ldr	r0, __arm_cp.2_4
	.loc	2 216 20                        @ ../../CCC_common/Library/StdDriver/src/fmc.c:216:20
	ldr	r0, [r0]
	.loc	2 216 9                         @ ../../CCC_common/Library/StdDriver/src/fmc.c:216:9
	lsls	r0, r0, #31
	cbz	r0, .LBB2_28
	b	.LBB2_25
.LBB2_25:                               @   in Loop: Header=BB2_24 Depth=1
.Ltmp67:
	.loc	2 218 30 is_stmt 1              @ ../../CCC_common/Library/StdDriver/src/fmc.c:218:30
	ldr	r0, [sp, #4]
	subs	r1, r0, #1
	str	r1, [sp, #4]
.Ltmp68:
	.loc	2 218 17 is_stmt 0              @ ../../CCC_common/Library/StdDriver/src/fmc.c:218:17
	cmp	r0, #0
	bgt	.LBB2_27
	b	.LBB2_26
.LBB2_26:
.Ltmp69:
	.loc	2 220 34 is_stmt 1              @ ../../CCC_common/Library/StdDriver/src/fmc.c:220:34
	ldr	r1, __arm_cp.2_0
	movs	r0, #0
	mvns	r0, r0
	str	r0, [r1]
	.loc	2 221 21                        @ ../../CCC_common/Library/StdDriver/src/fmc.c:221:21
	str	r0, [sp, #8]
	.loc	2 222 17                        @ ../../CCC_common/Library/StdDriver/src/fmc.c:222:17
	b	.LBB2_28
.Ltmp70:
.LBB2_27:                               @   in Loop: Header=BB2_24 Depth=1
	.loc	2 216 9                         @ ../../CCC_common/Library/StdDriver/src/fmc.c:216:9
	b	.LBB2_24
.LBB2_28:
	.loc	2 0 9 is_stmt 0                 @ ../../CCC_common/Library/StdDriver/src/fmc.c:0:9
	ldr	r0, __arm_cp.2_6
.Ltmp71:
	.loc	2 226 17 is_stmt 1              @ ../../CCC_common/Library/StdDriver/src/fmc.c:226:17
	ldr	r0, [r0]
.Ltmp72:
	.loc	2 226 12 is_stmt 0              @ ../../CCC_common/Library/StdDriver/src/fmc.c:226:12
	lsls	r0, r0, #25
	cmp	r0, #0
	bpl	.LBB2_30
	b	.LBB2_29
.LBB2_29:
	.loc	2 0 12                          @ ../../CCC_common/Library/StdDriver/src/fmc.c:0:12
	ldr	r1, __arm_cp.2_6
.Ltmp73:
	.loc	2 228 25 is_stmt 1              @ ../../CCC_common/Library/StdDriver/src/fmc.c:228:25
	ldr	r0, [r1]
	movs	r2, #64
	orrs	r0, r2
	str	r0, [r1]
	.loc	2 229 30                        @ ../../CCC_common/Library/StdDriver/src/fmc.c:229:30
	ldr	r1, __arm_cp.2_0
	movs	r0, #0
	mvns	r0, r0
	str	r0, [r1]
	.loc	2 230 17                        @ ../../CCC_common/Library/StdDriver/src/fmc.c:230:17
	str	r0, [sp, #8]
	.loc	2 231 9                         @ ../../CCC_common/Library/StdDriver/src/fmc.c:231:9
	b	.LBB2_30
.Ltmp74:
.LBB2_30:
	.loc	2 232 5                         @ ../../CCC_common/Library/StdDriver/src/fmc.c:232:5
	b	.LBB2_31
.Ltmp75:
.LBB2_31:
	.loc	2 234 12                        @ ../../CCC_common/Library/StdDriver/src/fmc.c:234:12
	ldr	r0, [sp, #8]
	.loc	2 234 5 epilogue_begin is_stmt 0 @ ../../CCC_common/Library/StdDriver/src/fmc.c:234:5
	add	sp, #24
	pop	{r7, pc}
.Ltmp76:
	.loc	2 0 5                           @ :0:5
.Ltmp77:
	.p2align	2
@ %bb.32:
__arm_cp.2_0:
	.long	g_FMC_i32ErrCode
.Lcpi_end10:
	.size	__arm_cp.2_0, .Lcpi_end10-__arm_cp.2_0
__arm_cp.2_1:
	.long	1073790988                      @ 0x4000c00c
.Lcpi_end11:
	.size	__arm_cp.2_1, .Lcpi_end11-__arm_cp.2_1
__arm_cp.2_2:
	.long	1073790980                      @ 0x4000c004
.Lcpi_end12:
	.size	__arm_cp.2_2, .Lcpi_end12-__arm_cp.2_2
__arm_cp.2_3:
	.long	1073790984                      @ 0x4000c008
.Lcpi_end13:
	.size	__arm_cp.2_3, .Lcpi_end13-__arm_cp.2_3
__arm_cp.2_4:
	.long	1073790992                      @ 0x4000c010
.Lcpi_end14:
	.size	__arm_cp.2_4, .Lcpi_end14-__arm_cp.2_4
__arm_cp.2_5:
	.long	SystemCoreClock
.Lcpi_end15:
	.size	__arm_cp.2_5, .Lcpi_end15-__arm_cp.2_5
__arm_cp.2_6:
	.long	1073791040                      @ 0x4000c040
.Lcpi_end16:
	.size	__arm_cp.2_6, .Lcpi_end16-__arm_cp.2_6
__arm_cp.2_7:
	.long	2097156                         @ 0x200004
.Lcpi_end17:
	.size	__arm_cp.2_7, .Lcpi_end17-__arm_cp.2_7
__arm_cp.2_8:
	.long	2097160                         @ 0x200008
.Lcpi_end18:
	.size	__arm_cp.2_8, .Lcpi_end18-__arm_cp.2_8
.Lfunc_end2:
	.size	FMC_ConfigXOM, .Lfunc_end2-FMC_ConfigXOM
	.cfi_endproc
	.cantunwind
	.fnend
                                        @ -- End function
	.section	.text.FMC_GetXOMState,"ax",%progbits
	.hidden	FMC_GetXOMState                 @ -- Begin function FMC_GetXOMState
	.globl	FMC_GetXOMState
	.p2align	2
	.type	FMC_GetXOMState,%function
	.code	16                              @ @FMC_GetXOMState
	.thumb_func
FMC_GetXOMState:
.Lfunc_begin3:
	.loc	2 627 0 is_stmt 1               @ ../../CCC_common/Library/StdDriver/src/fmc.c:627:0
	.fnstart
	.cfi_startproc
@ %bb.0:
	.pad	#12
	sub	sp, #12
	.cfi_def_cfa_offset 12
	str	r0, [sp, #8]
	movs	r0, #0
.Ltmp78:
	.loc	2 629 14 prologue_end           @ ../../CCC_common/Library/StdDriver/src/fmc.c:629:14
	str	r0, [sp]
.Ltmp79:
	.loc	2 631 8                         @ ../../CCC_common/Library/StdDriver/src/fmc.c:631:8
	ldr	r0, [sp, #8]
.Ltmp80:
	.loc	2 631 8 is_stmt 0               @ ../../CCC_common/Library/StdDriver/src/fmc.c:631:8
	cmp	r0, #4
	blo	.LBB3_2
	b	.LBB3_1
.LBB3_1:
	.loc	2 0 8                           @ ../../CCC_common/Library/StdDriver/src/fmc.c:0:8
	movs	r0, #1
	mvns	r0, r0
.Ltmp81:
	.loc	2 633 13 is_stmt 1              @ ../../CCC_common/Library/StdDriver/src/fmc.c:633:13
	str	r0, [sp]
	.loc	2 634 5                         @ ../../CCC_common/Library/StdDriver/src/fmc.c:634:5
	b	.LBB3_2
.Ltmp82:
.LBB3_2:
	.loc	2 636 8                         @ ../../CCC_common/Library/StdDriver/src/fmc.c:636:8
	ldr	r0, [sp]
.Ltmp83:
	.loc	2 636 8 is_stmt 0               @ ../../CCC_common/Library/StdDriver/src/fmc.c:636:8
	cmp	r0, #0
	bmi	.LBB3_4
	b	.LBB3_3
.LBB3_3:
	.loc	2 0 8                           @ ../../CCC_common/Library/StdDriver/src/fmc.c:0:8
	ldr	r0, __arm_cp.3_0
.Ltmp84:
	.loc	2 638 26 is_stmt 1              @ ../../CCC_common/Library/StdDriver/src/fmc.c:638:26
	ldr	r0, [r0]
	.loc	2 638 53 is_stmt 0              @ ../../CCC_common/Library/StdDriver/src/fmc.c:638:53
	ldr	r1, [sp, #8]
	movs	r2, #1
	.loc	2 638 50                        @ ../../CCC_common/Library/StdDriver/src/fmc.c:638:50
	lsls	r2, r1
	.loc	2 638 34                        @ ../../CCC_common/Library/StdDriver/src/fmc.c:638:34
	ands	r0, r2
	movs	r2, #15
	.loc	2 638 43                        @ ../../CCC_common/Library/StdDriver/src/fmc.c:638:43
	ands	r0, r2
	.loc	2 638 65                        @ ../../CCC_common/Library/StdDriver/src/fmc.c:638:65
	lsrs	r0, r1
	.loc	2 638 16                        @ ../../CCC_common/Library/StdDriver/src/fmc.c:638:16
	str	r0, [sp, #4]
	.loc	2 639 24 is_stmt 1              @ ../../CCC_common/Library/StdDriver/src/fmc.c:639:24
	ldr	r0, [sp, #4]
	.loc	2 639 13 is_stmt 0              @ ../../CCC_common/Library/StdDriver/src/fmc.c:639:13
	str	r0, [sp]
	.loc	2 640 5 is_stmt 1               @ ../../CCC_common/Library/StdDriver/src/fmc.c:640:5
	b	.LBB3_4
.Ltmp85:
.LBB3_4:
	.loc	2 641 12                        @ ../../CCC_common/Library/StdDriver/src/fmc.c:641:12
	ldr	r0, [sp]
	.loc	2 641 5 epilogue_begin is_stmt 0 @ ../../CCC_common/Library/StdDriver/src/fmc.c:641:5
	add	sp, #12
	bx	lr
.Ltmp86:
	.loc	2 0 5                           @ :0:5
.Ltmp87:
	.p2align	2
@ %bb.5:
__arm_cp.3_0:
	.long	1073791200                      @ 0x4000c0e0
.Lcpi_end19:
	.size	__arm_cp.3_0, .Lcpi_end19-__arm_cp.3_0
.Lfunc_end3:
	.size	FMC_GetXOMState, .Lfunc_end3-FMC_GetXOMState
	.cfi_endproc
	.cantunwind
	.fnend
                                        @ -- End function
	.section	.text.FMC_Erase,"ax",%progbits
	.hidden	FMC_Erase                       @ -- Begin function FMC_Erase
	.globl	FMC_Erase
	.p2align	2
	.type	FMC_Erase,%function
	.code	16                              @ @FMC_Erase
	.thumb_func
FMC_Erase:
.Lfunc_begin4:
	.loc	2 253 0 is_stmt 1               @ ../../CCC_common/Library/StdDriver/src/fmc.c:253:0
	.fnstart
	.cfi_startproc
@ %bb.0:
	.pad	#12
	sub	sp, #12
	.cfi_def_cfa_offset 12
	str	r0, [sp, #8]
	movs	r0, #0
.Ltmp88:
	.loc	2 254 14 prologue_end           @ ../../CCC_common/Library/StdDriver/src/fmc.c:254:14
	str	r0, [sp, #4]
	.loc	2 257 22                        @ ../../CCC_common/Library/StdDriver/src/fmc.c:257:22
	ldr	r1, __arm_cp.4_0
	str	r0, [r1]
.Ltmp89:
	.loc	2 259 8                         @ ../../CCC_common/Library/StdDriver/src/fmc.c:259:8
	ldr	r0, [sp, #4]
.Ltmp90:
	.loc	2 259 8 is_stmt 0               @ ../../CCC_common/Library/StdDriver/src/fmc.c:259:8
	cbnz	r0, .LBB4_9
	b	.LBB4_1
.LBB4_1:
	.loc	2 0 8                           @ ../../CCC_common/Library/StdDriver/src/fmc.c:0:8
	ldr	r1, __arm_cp.4_1
	movs	r0, #34
.Ltmp91:
	.loc	2 261 21 is_stmt 1              @ ../../CCC_common/Library/StdDriver/src/fmc.c:261:21
	str	r0, [r1]
	.loc	2 262 24                        @ ../../CCC_common/Library/StdDriver/src/fmc.c:262:24
	ldr	r0, [sp, #8]
	ldr	r1, __arm_cp.4_2
	.loc	2 262 22 is_stmt 0              @ ../../CCC_common/Library/StdDriver/src/fmc.c:262:22
	str	r0, [r1]
	ldr	r1, __arm_cp.4_3
	movs	r0, #1
	.loc	2 263 21 is_stmt 1              @ ../../CCC_common/Library/StdDriver/src/fmc.c:263:21
	str	r0, [r1]
	.loc	2 265 25                        @ ../../CCC_common/Library/StdDriver/src/fmc.c:265:25
	ldr	r0, __arm_cp.4_4
	ldr	r0, [r0]
	lsrs	r0, r0, #2
	.loc	2 265 23 is_stmt 0              @ ../../CCC_common/Library/StdDriver/src/fmc.c:265:23
	str	r0, [sp]
	.loc	2 266 9 is_stmt 1               @ ../../CCC_common/Library/StdDriver/src/fmc.c:266:9
	b	.LBB4_2
.LBB4_2:                                @ =>This Inner Loop Header: Depth=1
	.loc	2 0 9 is_stmt 0                 @ ../../CCC_common/Library/StdDriver/src/fmc.c:0:9
	ldr	r0, __arm_cp.4_3
	.loc	2 266 20                        @ ../../CCC_common/Library/StdDriver/src/fmc.c:266:20
	ldr	r0, [r0]
	.loc	2 266 9                         @ ../../CCC_common/Library/StdDriver/src/fmc.c:266:9
	lsls	r0, r0, #31
	cbz	r0, .LBB4_6
	b	.LBB4_3
.LBB4_3:                                @   in Loop: Header=BB4_2 Depth=1
.Ltmp92:
	.loc	2 268 30 is_stmt 1              @ ../../CCC_common/Library/StdDriver/src/fmc.c:268:30
	ldr	r0, [sp]
	subs	r1, r0, #1
	str	r1, [sp]
.Ltmp93:
	.loc	2 268 17 is_stmt 0              @ ../../CCC_common/Library/StdDriver/src/fmc.c:268:17
	cmp	r0, #0
	bgt	.LBB4_5
	b	.LBB4_4
.LBB4_4:
.Ltmp94:
	.loc	2 270 34 is_stmt 1              @ ../../CCC_common/Library/StdDriver/src/fmc.c:270:34
	ldr	r1, __arm_cp.4_0
	movs	r0, #0
	mvns	r0, r0
	str	r0, [r1]
	.loc	2 271 21                        @ ../../CCC_common/Library/StdDriver/src/fmc.c:271:21
	str	r0, [sp, #4]
	.loc	2 272 17                        @ ../../CCC_common/Library/StdDriver/src/fmc.c:272:17
	b	.LBB4_6
.Ltmp95:
.LBB4_5:                                @   in Loop: Header=BB4_2 Depth=1
	.loc	2 266 9                         @ ../../CCC_common/Library/StdDriver/src/fmc.c:266:9
	b	.LBB4_2
.LBB4_6:
	.loc	2 0 9 is_stmt 0                 @ ../../CCC_common/Library/StdDriver/src/fmc.c:0:9
	ldr	r0, __arm_cp.4_5
.Ltmp96:
	.loc	2 276 17 is_stmt 1              @ ../../CCC_common/Library/StdDriver/src/fmc.c:276:17
	ldr	r0, [r0]
.Ltmp97:
	.loc	2 276 12 is_stmt 0              @ ../../CCC_common/Library/StdDriver/src/fmc.c:276:12
	lsls	r0, r0, #25
	cmp	r0, #0
	bpl	.LBB4_8
	b	.LBB4_7
.LBB4_7:
	.loc	2 0 12                          @ ../../CCC_common/Library/StdDriver/src/fmc.c:0:12
	ldr	r1, __arm_cp.4_5
.Ltmp98:
	.loc	2 278 25 is_stmt 1              @ ../../CCC_common/Library/StdDriver/src/fmc.c:278:25
	ldr	r0, [r1]
	movs	r2, #64
	orrs	r0, r2
	str	r0, [r1]
	.loc	2 279 30                        @ ../../CCC_common/Library/StdDriver/src/fmc.c:279:30
	ldr	r1, __arm_cp.4_0
	movs	r0, #0
	mvns	r0, r0
	str	r0, [r1]
	.loc	2 280 17                        @ ../../CCC_common/Library/StdDriver/src/fmc.c:280:17
	str	r0, [sp, #4]
	.loc	2 281 9                         @ ../../CCC_common/Library/StdDriver/src/fmc.c:281:9
	b	.LBB4_8
.Ltmp99:
.LBB4_8:
	.loc	2 282 5                         @ ../../CCC_common/Library/StdDriver/src/fmc.c:282:5
	b	.LBB4_9
.Ltmp100:
.LBB4_9:
	.loc	2 283 12                        @ ../../CCC_common/Library/StdDriver/src/fmc.c:283:12
	ldr	r0, [sp, #4]
	.loc	2 283 5 epilogue_begin is_stmt 0 @ ../../CCC_common/Library/StdDriver/src/fmc.c:283:5
	add	sp, #12
	bx	lr
.Ltmp101:
	.loc	2 0 5                           @ :0:5
.Ltmp102:
	.p2align	2
@ %bb.10:
__arm_cp.4_0:
	.long	g_FMC_i32ErrCode
.Lcpi_end20:
	.size	__arm_cp.4_0, .Lcpi_end20-__arm_cp.4_0
__arm_cp.4_1:
	.long	1073790988                      @ 0x4000c00c
.Lcpi_end21:
	.size	__arm_cp.4_1, .Lcpi_end21-__arm_cp.4_1
__arm_cp.4_2:
	.long	1073790980                      @ 0x4000c004
.Lcpi_end22:
	.size	__arm_cp.4_2, .Lcpi_end22-__arm_cp.4_2
__arm_cp.4_3:
	.long	1073790992                      @ 0x4000c010
.Lcpi_end23:
	.size	__arm_cp.4_3, .Lcpi_end23-__arm_cp.4_3
__arm_cp.4_4:
	.long	SystemCoreClock
.Lcpi_end24:
	.size	__arm_cp.4_4, .Lcpi_end24-__arm_cp.4_4
__arm_cp.4_5:
	.long	1073790976                      @ 0x4000c000
.Lcpi_end25:
	.size	__arm_cp.4_5, .Lcpi_end25-__arm_cp.4_5
.Lfunc_end4:
	.size	FMC_Erase, .Lfunc_end4-FMC_Erase
	.cfi_endproc
	.cantunwind
	.fnend
                                        @ -- End function
	.section	.text.FMC_Erase_Bank,"ax",%progbits
	.hidden	FMC_Erase_Bank                  @ -- Begin function FMC_Erase_Bank
	.globl	FMC_Erase_Bank
	.p2align	2
	.type	FMC_Erase_Bank,%function
	.code	16                              @ @FMC_Erase_Bank
	.thumb_func
FMC_Erase_Bank:
.Lfunc_begin5:
	.loc	2 301 0 is_stmt 1               @ ../../CCC_common/Library/StdDriver/src/fmc.c:301:0
	.fnstart
	.cfi_startproc
@ %bb.0:
	.pad	#12
	sub	sp, #12
	.cfi_def_cfa_offset 12
	str	r0, [sp, #8]
	movs	r0, #0
.Ltmp103:
	.loc	2 302 14 prologue_end           @ ../../CCC_common/Library/StdDriver/src/fmc.c:302:14
	str	r0, [sp, #4]
	.loc	2 305 22                        @ ../../CCC_common/Library/StdDriver/src/fmc.c:305:22
	ldr	r1, __arm_cp.5_0
	str	r0, [r1]
	ldr	r1, __arm_cp.5_1
	movs	r0, #35
	.loc	2 307 17                        @ ../../CCC_common/Library/StdDriver/src/fmc.c:307:17
	str	r0, [r1]
	.loc	2 308 20                        @ ../../CCC_common/Library/StdDriver/src/fmc.c:308:20
	ldr	r0, [sp, #8]
	ldr	r1, __arm_cp.5_2
	.loc	2 308 18 is_stmt 0              @ ../../CCC_common/Library/StdDriver/src/fmc.c:308:18
	str	r0, [r1]
	ldr	r1, __arm_cp.5_3
	movs	r0, #1
	.loc	2 309 17 is_stmt 1              @ ../../CCC_common/Library/StdDriver/src/fmc.c:309:17
	str	r0, [r1]
	.loc	2 311 21                        @ ../../CCC_common/Library/StdDriver/src/fmc.c:311:21
	ldr	r0, __arm_cp.5_4
	ldr	r0, [r0]
	lsrs	r0, r0, #2
	.loc	2 311 19 is_stmt 0              @ ../../CCC_common/Library/StdDriver/src/fmc.c:311:19
	str	r0, [sp]
	.loc	2 312 5 is_stmt 1               @ ../../CCC_common/Library/StdDriver/src/fmc.c:312:5
	b	.LBB5_1
.LBB5_1:                                @ =>This Inner Loop Header: Depth=1
	.loc	2 0 5 is_stmt 0                 @ ../../CCC_common/Library/StdDriver/src/fmc.c:0:5
	ldr	r0, __arm_cp.5_3
	.loc	2 312 16                        @ ../../CCC_common/Library/StdDriver/src/fmc.c:312:16
	ldr	r0, [r0]
	.loc	2 312 5                         @ ../../CCC_common/Library/StdDriver/src/fmc.c:312:5
	lsls	r0, r0, #31
	cbz	r0, .LBB5_5
	b	.LBB5_2
.LBB5_2:                                @   in Loop: Header=BB5_1 Depth=1
.Ltmp104:
	.loc	2 314 26 is_stmt 1              @ ../../CCC_common/Library/StdDriver/src/fmc.c:314:26
	ldr	r0, [sp]
	subs	r1, r0, #1
	str	r1, [sp]
.Ltmp105:
	.loc	2 314 13 is_stmt 0              @ ../../CCC_common/Library/StdDriver/src/fmc.c:314:13
	cmp	r0, #0
	bgt	.LBB5_4
	b	.LBB5_3
.LBB5_3:
.Ltmp106:
	.loc	2 316 30 is_stmt 1              @ ../../CCC_common/Library/StdDriver/src/fmc.c:316:30
	ldr	r1, __arm_cp.5_0
	movs	r0, #0
	mvns	r0, r0
	str	r0, [r1]
	.loc	2 317 17                        @ ../../CCC_common/Library/StdDriver/src/fmc.c:317:17
	str	r0, [sp, #4]
	.loc	2 318 13                        @ ../../CCC_common/Library/StdDriver/src/fmc.c:318:13
	b	.LBB5_5
.Ltmp107:
.LBB5_4:                                @   in Loop: Header=BB5_1 Depth=1
	.loc	2 312 5                         @ ../../CCC_common/Library/StdDriver/src/fmc.c:312:5
	b	.LBB5_1
.LBB5_5:
	.loc	2 0 5 is_stmt 0                 @ ../../CCC_common/Library/StdDriver/src/fmc.c:0:5
	ldr	r0, __arm_cp.5_5
.Ltmp108:
	.loc	2 322 13 is_stmt 1              @ ../../CCC_common/Library/StdDriver/src/fmc.c:322:13
	ldr	r0, [r0]
.Ltmp109:
	.loc	2 322 8 is_stmt 0               @ ../../CCC_common/Library/StdDriver/src/fmc.c:322:8
	lsls	r0, r0, #25
	cmp	r0, #0
	bpl	.LBB5_7
	b	.LBB5_6
.LBB5_6:
	.loc	2 0 8                           @ ../../CCC_common/Library/StdDriver/src/fmc.c:0:8
	ldr	r1, __arm_cp.5_5
.Ltmp110:
	.loc	2 324 21 is_stmt 1              @ ../../CCC_common/Library/StdDriver/src/fmc.c:324:21
	ldr	r0, [r1]
	movs	r2, #64
	orrs	r0, r2
	str	r0, [r1]
	.loc	2 325 26                        @ ../../CCC_common/Library/StdDriver/src/fmc.c:325:26
	ldr	r1, __arm_cp.5_0
	movs	r0, #0
	mvns	r0, r0
	str	r0, [r1]
	.loc	2 326 13                        @ ../../CCC_common/Library/StdDriver/src/fmc.c:326:13
	str	r0, [sp, #4]
	.loc	2 327 5                         @ ../../CCC_common/Library/StdDriver/src/fmc.c:327:5
	b	.LBB5_7
.Ltmp111:
.LBB5_7:
	.loc	2 328 12                        @ ../../CCC_common/Library/StdDriver/src/fmc.c:328:12
	ldr	r0, [sp, #4]
	.loc	2 328 5 epilogue_begin is_stmt 0 @ ../../CCC_common/Library/StdDriver/src/fmc.c:328:5
	add	sp, #12
	bx	lr
.Ltmp112:
	.loc	2 0 5                           @ :0:5
.Ltmp113:
	.p2align	2
@ %bb.8:
__arm_cp.5_0:
	.long	g_FMC_i32ErrCode
.Lcpi_end26:
	.size	__arm_cp.5_0, .Lcpi_end26-__arm_cp.5_0
__arm_cp.5_1:
	.long	1073790988                      @ 0x4000c00c
.Lcpi_end27:
	.size	__arm_cp.5_1, .Lcpi_end27-__arm_cp.5_1
__arm_cp.5_2:
	.long	1073790980                      @ 0x4000c004
.Lcpi_end28:
	.size	__arm_cp.5_2, .Lcpi_end28-__arm_cp.5_2
__arm_cp.5_3:
	.long	1073790992                      @ 0x4000c010
.Lcpi_end29:
	.size	__arm_cp.5_3, .Lcpi_end29-__arm_cp.5_3
__arm_cp.5_4:
	.long	SystemCoreClock
.Lcpi_end30:
	.size	__arm_cp.5_4, .Lcpi_end30-__arm_cp.5_4
__arm_cp.5_5:
	.long	1073790976                      @ 0x4000c000
.Lcpi_end31:
	.size	__arm_cp.5_5, .Lcpi_end31-__arm_cp.5_5
.Lfunc_end5:
	.size	FMC_Erase_Bank, .Lfunc_end5-FMC_Erase_Bank
	.cfi_endproc
	.cantunwind
	.fnend
                                        @ -- End function
	.section	.text.FMC_Erase_Block,"ax",%progbits
	.hidden	FMC_Erase_Block                 @ -- Begin function FMC_Erase_Block
	.globl	FMC_Erase_Block
	.p2align	2
	.type	FMC_Erase_Block,%function
	.code	16                              @ @FMC_Erase_Block
	.thumb_func
FMC_Erase_Block:
.Lfunc_begin6:
	.loc	2 347 0 is_stmt 1               @ ../../CCC_common/Library/StdDriver/src/fmc.c:347:0
	.fnstart
	.cfi_startproc
@ %bb.0:
	.pad	#12
	sub	sp, #12
	.cfi_def_cfa_offset 12
	str	r0, [sp, #8]
	movs	r0, #0
.Ltmp114:
	.loc	2 348 14 prologue_end           @ ../../CCC_common/Library/StdDriver/src/fmc.c:348:14
	str	r0, [sp, #4]
	.loc	2 351 22                        @ ../../CCC_common/Library/StdDriver/src/fmc.c:351:22
	ldr	r1, __arm_cp.6_0
	str	r0, [r1]
	ldr	r1, __arm_cp.6_1
	movs	r0, #37
	.loc	2 353 17                        @ ../../CCC_common/Library/StdDriver/src/fmc.c:353:17
	str	r0, [r1]
	.loc	2 354 20                        @ ../../CCC_common/Library/StdDriver/src/fmc.c:354:20
	ldr	r0, [sp, #8]
	ldr	r1, __arm_cp.6_2
	.loc	2 354 18 is_stmt 0              @ ../../CCC_common/Library/StdDriver/src/fmc.c:354:18
	str	r0, [r1]
	ldr	r1, __arm_cp.6_3
	movs	r0, #1
	.loc	2 355 17 is_stmt 1              @ ../../CCC_common/Library/StdDriver/src/fmc.c:355:17
	str	r0, [r1]
	.loc	2 357 21                        @ ../../CCC_common/Library/StdDriver/src/fmc.c:357:21
	ldr	r0, __arm_cp.6_4
	ldr	r0, [r0]
	lsrs	r0, r0, #2
	.loc	2 357 19 is_stmt 0              @ ../../CCC_common/Library/StdDriver/src/fmc.c:357:19
	str	r0, [sp]
	.loc	2 358 5 is_stmt 1               @ ../../CCC_common/Library/StdDriver/src/fmc.c:358:5
	b	.LBB6_1
.LBB6_1:                                @ =>This Inner Loop Header: Depth=1
	.loc	2 0 5 is_stmt 0                 @ ../../CCC_common/Library/StdDriver/src/fmc.c:0:5
	ldr	r0, __arm_cp.6_3
	.loc	2 358 16                        @ ../../CCC_common/Library/StdDriver/src/fmc.c:358:16
	ldr	r0, [r0]
	.loc	2 358 5                         @ ../../CCC_common/Library/StdDriver/src/fmc.c:358:5
	lsls	r0, r0, #31
	cbz	r0, .LBB6_5
	b	.LBB6_2
.LBB6_2:                                @   in Loop: Header=BB6_1 Depth=1
.Ltmp115:
	.loc	2 360 26 is_stmt 1              @ ../../CCC_common/Library/StdDriver/src/fmc.c:360:26
	ldr	r0, [sp]
	subs	r1, r0, #1
	str	r1, [sp]
.Ltmp116:
	.loc	2 360 13 is_stmt 0              @ ../../CCC_common/Library/StdDriver/src/fmc.c:360:13
	cmp	r0, #0
	bgt	.LBB6_4
	b	.LBB6_3
.LBB6_3:
.Ltmp117:
	.loc	2 362 30 is_stmt 1              @ ../../CCC_common/Library/StdDriver/src/fmc.c:362:30
	ldr	r1, __arm_cp.6_0
	movs	r0, #0
	mvns	r0, r0
	str	r0, [r1]
	.loc	2 363 17                        @ ../../CCC_common/Library/StdDriver/src/fmc.c:363:17
	str	r0, [sp, #4]
	.loc	2 364 13                        @ ../../CCC_common/Library/StdDriver/src/fmc.c:364:13
	b	.LBB6_5
.Ltmp118:
.LBB6_4:                                @   in Loop: Header=BB6_1 Depth=1
	.loc	2 358 5                         @ ../../CCC_common/Library/StdDriver/src/fmc.c:358:5
	b	.LBB6_1
.LBB6_5:
	.loc	2 0 5 is_stmt 0                 @ ../../CCC_common/Library/StdDriver/src/fmc.c:0:5
	ldr	r0, __arm_cp.6_5
.Ltmp119:
	.loc	2 368 13 is_stmt 1              @ ../../CCC_common/Library/StdDriver/src/fmc.c:368:13
	ldr	r0, [r0]
.Ltmp120:
	.loc	2 368 8 is_stmt 0               @ ../../CCC_common/Library/StdDriver/src/fmc.c:368:8
	lsls	r0, r0, #25
	cmp	r0, #0
	bpl	.LBB6_7
	b	.LBB6_6
.LBB6_6:
	.loc	2 0 8                           @ ../../CCC_common/Library/StdDriver/src/fmc.c:0:8
	ldr	r1, __arm_cp.6_5
.Ltmp121:
	.loc	2 370 21 is_stmt 1              @ ../../CCC_common/Library/StdDriver/src/fmc.c:370:21
	ldr	r0, [r1]
	movs	r2, #64
	orrs	r0, r2
	str	r0, [r1]
	.loc	2 371 26                        @ ../../CCC_common/Library/StdDriver/src/fmc.c:371:26
	ldr	r1, __arm_cp.6_0
	movs	r0, #0
	mvns	r0, r0
	str	r0, [r1]
	.loc	2 372 13                        @ ../../CCC_common/Library/StdDriver/src/fmc.c:372:13
	str	r0, [sp, #4]
	.loc	2 373 5                         @ ../../CCC_common/Library/StdDriver/src/fmc.c:373:5
	b	.LBB6_7
.Ltmp122:
.LBB6_7:
	.loc	2 374 12                        @ ../../CCC_common/Library/StdDriver/src/fmc.c:374:12
	ldr	r0, [sp, #4]
	.loc	2 374 5 epilogue_begin is_stmt 0 @ ../../CCC_common/Library/StdDriver/src/fmc.c:374:5
	add	sp, #12
	bx	lr
.Ltmp123:
	.loc	2 0 5                           @ :0:5
.Ltmp124:
	.p2align	2
@ %bb.8:
__arm_cp.6_0:
	.long	g_FMC_i32ErrCode
.Lcpi_end32:
	.size	__arm_cp.6_0, .Lcpi_end32-__arm_cp.6_0
__arm_cp.6_1:
	.long	1073790988                      @ 0x4000c00c
.Lcpi_end33:
	.size	__arm_cp.6_1, .Lcpi_end33-__arm_cp.6_1
__arm_cp.6_2:
	.long	1073790980                      @ 0x4000c004
.Lcpi_end34:
	.size	__arm_cp.6_2, .Lcpi_end34-__arm_cp.6_2
__arm_cp.6_3:
	.long	1073790992                      @ 0x4000c010
.Lcpi_end35:
	.size	__arm_cp.6_3, .Lcpi_end35-__arm_cp.6_3
__arm_cp.6_4:
	.long	SystemCoreClock
.Lcpi_end36:
	.size	__arm_cp.6_4, .Lcpi_end36-__arm_cp.6_4
__arm_cp.6_5:
	.long	1073790976                      @ 0x4000c000
.Lcpi_end37:
	.size	__arm_cp.6_5, .Lcpi_end37-__arm_cp.6_5
.Lfunc_end6:
	.size	FMC_Erase_Block, .Lfunc_end6-FMC_Erase_Block
	.cfi_endproc
	.cantunwind
	.fnend
                                        @ -- End function
	.section	.text.FMC_EraseXOM,"ax",%progbits
	.hidden	FMC_EraseXOM                    @ -- Begin function FMC_EraseXOM
	.globl	FMC_EraseXOM
	.p2align	2
	.type	FMC_EraseXOM,%function
	.code	16                              @ @FMC_EraseXOM
	.thumb_func
FMC_EraseXOM:
.Lfunc_begin7:
	.loc	2 394 0 is_stmt 1               @ ../../CCC_common/Library/StdDriver/src/fmc.c:394:0
	.fnstart
	.cfi_startproc
@ %bb.0:
	.save	{r7, lr}
	push	{r7, lr}
	.cfi_def_cfa_offset 8
	.cfi_offset lr, -4
	.cfi_offset r7, -8
	.pad	#24
	sub	sp, #24
	.cfi_def_cfa_offset 32
	str	r0, [sp, #20]
	movs	r0, #0
.Ltmp125:
	.loc	2 396 24 prologue_end           @ ../../CCC_common/Library/StdDriver/src/fmc.c:396:24
	str	r0, [sp, #8]
	.loc	2 399 22                        @ ../../CCC_common/Library/StdDriver/src/fmc.c:399:22
	ldr	r1, __arm_cp.7_0
	str	r0, [r1]
.Ltmp126:
	.loc	2 401 8                         @ ../../CCC_common/Library/StdDriver/src/fmc.c:401:8
	ldr	r0, [sp, #20]
.Ltmp127:
	.loc	2 401 8 is_stmt 0               @ ../../CCC_common/Library/StdDriver/src/fmc.c:401:8
	cmp	r0, #4
	blo	.LBB7_2
	b	.LBB7_1
.LBB7_1:
	.loc	2 0 8                           @ ../../CCC_common/Library/StdDriver/src/fmc.c:0:8
	movs	r0, #1
	mvns	r0, r0
.Ltmp128:
	.loc	2 403 13 is_stmt 1              @ ../../CCC_common/Library/StdDriver/src/fmc.c:403:13
	str	r0, [sp, #8]
	.loc	2 404 5                         @ ../../CCC_common/Library/StdDriver/src/fmc.c:404:5
	b	.LBB7_2
.Ltmp129:
.LBB7_2:
	.loc	2 406 8                         @ ../../CCC_common/Library/StdDriver/src/fmc.c:406:8
	ldr	r0, [sp, #8]
.Ltmp130:
	.loc	2 406 8 is_stmt 0               @ ../../CCC_common/Library/StdDriver/src/fmc.c:406:8
	cmp	r0, #0
	bne	.LBB7_22
	b	.LBB7_3
.LBB7_3:
.Ltmp131:
	.loc	2 408 37 is_stmt 1              @ ../../CCC_common/Library/StdDriver/src/fmc.c:408:37
	ldr	r0, [sp, #20]
	.loc	2 408 21 is_stmt 0              @ ../../CCC_common/Library/StdDriver/src/fmc.c:408:21
	bl	FMC_GetXOMState
	.loc	2 408 19                        @ ../../CCC_common/Library/StdDriver/src/fmc.c:408:19
	str	r0, [sp, #12]
.Ltmp132:
	.loc	2 410 12 is_stmt 1              @ ../../CCC_common/Library/StdDriver/src/fmc.c:410:12
	ldr	r0, [sp, #12]
.Ltmp133:
	.loc	2 410 12 is_stmt 0              @ ../../CCC_common/Library/StdDriver/src/fmc.c:410:12
	cmp	r0, #0
	beq	.LBB7_20
	b	.LBB7_4
.LBB7_4:
.Ltmp134:
	.loc	2 412 20 is_stmt 1              @ ../../CCC_common/Library/StdDriver/src/fmc.c:412:20
	ldr	r0, [sp, #20]
	.loc	2 412 13 is_stmt 0              @ ../../CCC_common/Library/StdDriver/src/fmc.c:412:13
	str	r0, [sp]                        @ 4-byte Spill
	cmp	r0, #3
	bhi	.LBB7_11
@ %bb.5:
	ldr	r1, [sp]                        @ 4-byte Reload
	lsls	r2, r1, #2
	adr	r0, .LJTI7_0
	adds	r0, r0, r2
	mov	pc, r0
@ %bb.6:
	.loc	2 0 13                          @ ../../CCC_common/Library/StdDriver/src/fmc.c:0:13
	.p2align	2
.LJTI7_0:
	b.w	.LBB7_7
	b.w	.LBB7_8
	b.w	.LBB7_9
	b.w	.LBB7_10
.LBB7_7:
	ldr	r0, __arm_cp.7_4
.Ltmp135:
	.loc	2 415 37 is_stmt 1              @ ../../CCC_common/Library/StdDriver/src/fmc.c:415:37
	ldr	r0, [r0]
	.loc	2 415 61 is_stmt 0              @ ../../CCC_common/Library/StdDriver/src/fmc.c:415:61
	lsrs	r0, r0, #8
	.loc	2 415 29                        @ ../../CCC_common/Library/StdDriver/src/fmc.c:415:29
	str	r0, [sp, #16]
	.loc	2 416 21 is_stmt 1              @ ../../CCC_common/Library/StdDriver/src/fmc.c:416:21
	b	.LBB7_12
.LBB7_8:
	.loc	2 0 21 is_stmt 0                @ ../../CCC_common/Library/StdDriver/src/fmc.c:0:21
	ldr	r0, __arm_cp.7_3
	.loc	2 418 37 is_stmt 1              @ ../../CCC_common/Library/StdDriver/src/fmc.c:418:37
	ldr	r0, [r0]
	.loc	2 418 61 is_stmt 0              @ ../../CCC_common/Library/StdDriver/src/fmc.c:418:61
	lsrs	r0, r0, #8
	.loc	2 418 29                        @ ../../CCC_common/Library/StdDriver/src/fmc.c:418:29
	str	r0, [sp, #16]
	.loc	2 419 21 is_stmt 1              @ ../../CCC_common/Library/StdDriver/src/fmc.c:419:21
	b	.LBB7_12
.LBB7_9:
	.loc	2 0 21 is_stmt 0                @ ../../CCC_common/Library/StdDriver/src/fmc.c:0:21
	ldr	r0, __arm_cp.7_2
	.loc	2 421 37 is_stmt 1              @ ../../CCC_common/Library/StdDriver/src/fmc.c:421:37
	ldr	r0, [r0]
	.loc	2 421 61 is_stmt 0              @ ../../CCC_common/Library/StdDriver/src/fmc.c:421:61
	lsrs	r0, r0, #8
	.loc	2 421 29                        @ ../../CCC_common/Library/StdDriver/src/fmc.c:421:29
	str	r0, [sp, #16]
	.loc	2 422 21 is_stmt 1              @ ../../CCC_common/Library/StdDriver/src/fmc.c:422:21
	b	.LBB7_12
.LBB7_10:
	.loc	2 0 21 is_stmt 0                @ ../../CCC_common/Library/StdDriver/src/fmc.c:0:21
	ldr	r0, __arm_cp.7_1
	.loc	2 424 37 is_stmt 1              @ ../../CCC_common/Library/StdDriver/src/fmc.c:424:37
	ldr	r0, [r0]
	.loc	2 424 61 is_stmt 0              @ ../../CCC_common/Library/StdDriver/src/fmc.c:424:61
	lsrs	r0, r0, #8
	.loc	2 424 29                        @ ../../CCC_common/Library/StdDriver/src/fmc.c:424:29
	str	r0, [sp, #16]
	.loc	2 425 21 is_stmt 1              @ ../../CCC_common/Library/StdDriver/src/fmc.c:425:21
	b	.LBB7_12
.LBB7_11:
	.loc	2 427 21                        @ ../../CCC_common/Library/StdDriver/src/fmc.c:427:21
	b	.LBB7_12
.Ltmp136:
.LBB7_12:
	.loc	2 0 21 is_stmt 0                @ ../../CCC_common/Library/StdDriver/src/fmc.c:0:21
	ldr	r1, __arm_cp.7_5
	movs	r0, #34
	.loc	2 429 25 is_stmt 1              @ ../../CCC_common/Library/StdDriver/src/fmc.c:429:25
	str	r0, [r1]
	.loc	2 430 28                        @ ../../CCC_common/Library/StdDriver/src/fmc.c:430:28
	ldr	r0, [sp, #16]
	ldr	r1, __arm_cp.7_6
	.loc	2 430 26 is_stmt 0              @ ../../CCC_common/Library/StdDriver/src/fmc.c:430:26
	str	r0, [r1]
	ldr	r1, __arm_cp.7_7
	ldr	r0, __arm_cp.7_8
	.loc	2 431 25 is_stmt 1              @ ../../CCC_common/Library/StdDriver/src/fmc.c:431:25
	str	r0, [r1]
	ldr	r1, __arm_cp.7_9
	movs	r0, #1
	.loc	2 432 25                        @ ../../CCC_common/Library/StdDriver/src/fmc.c:432:25
	str	r0, [r1]
	.loc	2 436 29                        @ ../../CCC_common/Library/StdDriver/src/fmc.c:436:29
	ldr	r0, __arm_cp.7_10
	ldr	r0, [r0]
	lsrs	r0, r0, #2
	.loc	2 436 27 is_stmt 0              @ ../../CCC_common/Library/StdDriver/src/fmc.c:436:27
	str	r0, [sp, #4]
	.loc	2 437 13 is_stmt 1              @ ../../CCC_common/Library/StdDriver/src/fmc.c:437:13
	b	.LBB7_13
.LBB7_13:                               @ =>This Inner Loop Header: Depth=1
	.loc	2 0 13 is_stmt 0                @ ../../CCC_common/Library/StdDriver/src/fmc.c:0:13
	ldr	r0, __arm_cp.7_9
	.loc	2 437 24                        @ ../../CCC_common/Library/StdDriver/src/fmc.c:437:24
	ldr	r0, [r0]
	.loc	2 437 13                        @ ../../CCC_common/Library/StdDriver/src/fmc.c:437:13
	cbz	r0, .LBB7_17
	b	.LBB7_14
.LBB7_14:                               @   in Loop: Header=BB7_13 Depth=1
.Ltmp137:
	.loc	2 439 34 is_stmt 1              @ ../../CCC_common/Library/StdDriver/src/fmc.c:439:34
	ldr	r0, [sp, #4]
	subs	r1, r0, #1
	str	r1, [sp, #4]
.Ltmp138:
	.loc	2 439 21 is_stmt 0              @ ../../CCC_common/Library/StdDriver/src/fmc.c:439:21
	cmp	r0, #0
	bgt	.LBB7_16
	b	.LBB7_15
.LBB7_15:
	.loc	2 0 21                          @ ../../CCC_common/Library/StdDriver/src/fmc.c:0:21
	movs	r0, #0
	mvns	r0, r0
.Ltmp139:
	.loc	2 441 25 is_stmt 1              @ ../../CCC_common/Library/StdDriver/src/fmc.c:441:25
	str	r0, [sp, #8]
	.loc	2 442 21                        @ ../../CCC_common/Library/StdDriver/src/fmc.c:442:21
	b	.LBB7_17
.Ltmp140:
.LBB7_16:                               @   in Loop: Header=BB7_13 Depth=1
	.loc	2 437 13                        @ ../../CCC_common/Library/StdDriver/src/fmc.c:437:13
	b	.LBB7_13
.LBB7_17:
	.loc	2 0 13 is_stmt 0                @ ../../CCC_common/Library/StdDriver/src/fmc.c:0:13
	ldr	r0, __arm_cp.7_11
.Ltmp141:
	.loc	2 447 21 is_stmt 1              @ ../../CCC_common/Library/StdDriver/src/fmc.c:447:21
	ldr	r0, [r0]
.Ltmp142:
	.loc	2 447 16 is_stmt 0              @ ../../CCC_common/Library/StdDriver/src/fmc.c:447:16
	lsls	r0, r0, #25
	cmp	r0, #0
	bpl	.LBB7_19
	b	.LBB7_18
.LBB7_18:
	.loc	2 0 16                          @ ../../CCC_common/Library/StdDriver/src/fmc.c:0:16
	ldr	r1, __arm_cp.7_11
.Ltmp143:
	.loc	2 449 29 is_stmt 1              @ ../../CCC_common/Library/StdDriver/src/fmc.c:449:29
	ldr	r0, [r1]
	movs	r2, #64
	orrs	r0, r2
	str	r0, [r1]
	movs	r0, #0
	mvns	r0, r0
	.loc	2 450 21                        @ ../../CCC_common/Library/StdDriver/src/fmc.c:450:21
	str	r0, [sp, #8]
	.loc	2 451 13                        @ ../../CCC_common/Library/StdDriver/src/fmc.c:451:13
	b	.LBB7_19
.Ltmp144:
.LBB7_19:
	.loc	2 452 9                         @ ../../CCC_common/Library/StdDriver/src/fmc.c:452:9
	b	.LBB7_21
.Ltmp145:
.LBB7_20:
	.loc	2 0 9 is_stmt 0                 @ ../../CCC_common/Library/StdDriver/src/fmc.c:0:9
	movs	r0, #0
	mvns	r0, r0
.Ltmp146:
	.loc	2 455 17 is_stmt 1              @ ../../CCC_common/Library/StdDriver/src/fmc.c:455:17
	str	r0, [sp, #8]
	b	.LBB7_21
.Ltmp147:
.LBB7_21:
	.loc	2 457 5                         @ ../../CCC_common/Library/StdDriver/src/fmc.c:457:5
	b	.LBB7_22
.Ltmp148:
.LBB7_22:
	.loc	2 458 24                        @ ../../CCC_common/Library/StdDriver/src/fmc.c:458:24
	ldr	r0, [sp, #8]
	.loc	2 458 22 is_stmt 0              @ ../../CCC_common/Library/StdDriver/src/fmc.c:458:22
	ldr	r1, __arm_cp.7_0
	str	r0, [r1]
	.loc	2 459 12 is_stmt 1              @ ../../CCC_common/Library/StdDriver/src/fmc.c:459:12
	ldr	r0, [sp, #8]
	.loc	2 459 5 epilogue_begin is_stmt 0 @ ../../CCC_common/Library/StdDriver/src/fmc.c:459:5
	add	sp, #24
	pop	{r7, pc}
.Ltmp149:
	.loc	2 0 5                           @ :0:5
.Ltmp150:
	.p2align	2
@ %bb.23:
__arm_cp.7_0:
	.long	g_FMC_i32ErrCode
.Lcpi_end38:
	.size	__arm_cp.7_0, .Lcpi_end38-__arm_cp.7_0
__arm_cp.7_1:
	.long	1073791196                      @ 0x4000c0dc
.Lcpi_end39:
	.size	__arm_cp.7_1, .Lcpi_end39-__arm_cp.7_1
__arm_cp.7_2:
	.long	1073791192                      @ 0x4000c0d8
.Lcpi_end40:
	.size	__arm_cp.7_2, .Lcpi_end40-__arm_cp.7_2
__arm_cp.7_3:
	.long	1073791188                      @ 0x4000c0d4
.Lcpi_end41:
	.size	__arm_cp.7_3, .Lcpi_end41-__arm_cp.7_3
__arm_cp.7_4:
	.long	1073791184                      @ 0x4000c0d0
.Lcpi_end42:
	.size	__arm_cp.7_4, .Lcpi_end42-__arm_cp.7_4
__arm_cp.7_5:
	.long	1073790988                      @ 0x4000c00c
.Lcpi_end43:
	.size	__arm_cp.7_5, .Lcpi_end43-__arm_cp.7_5
__arm_cp.7_6:
	.long	1073790980                      @ 0x4000c004
.Lcpi_end44:
	.size	__arm_cp.7_6, .Lcpi_end44-__arm_cp.7_6
__arm_cp.7_7:
	.long	1073790984                      @ 0x4000c008
.Lcpi_end45:
	.size	__arm_cp.7_7, .Lcpi_end45-__arm_cp.7_7
__arm_cp.7_8:
	.long	5614083                         @ 0x55aa03
.Lcpi_end46:
	.size	__arm_cp.7_8, .Lcpi_end46-__arm_cp.7_8
__arm_cp.7_9:
	.long	1073790992                      @ 0x4000c010
.Lcpi_end47:
	.size	__arm_cp.7_9, .Lcpi_end47-__arm_cp.7_9
__arm_cp.7_10:
	.long	SystemCoreClock
.Lcpi_end48:
	.size	__arm_cp.7_10, .Lcpi_end48-__arm_cp.7_10
__arm_cp.7_11:
	.long	1073790976                      @ 0x4000c000
.Lcpi_end49:
	.size	__arm_cp.7_11, .Lcpi_end49-__arm_cp.7_11
.Lfunc_end7:
	.size	FMC_EraseXOM, .Lfunc_end7-FMC_EraseXOM
	.cfi_endproc
	.cantunwind
	.fnend
                                        @ -- End function
	.section	.text.FMC_GetBootSource,"ax",%progbits
	.hidden	FMC_GetBootSource               @ -- Begin function FMC_GetBootSource
	.globl	FMC_GetBootSource
	.p2align	2
	.type	FMC_GetBootSource,%function
	.code	16                              @ @FMC_GetBootSource
	.thumb_func
FMC_GetBootSource:
.Lfunc_begin8:
	.loc	2 475 0 is_stmt 1               @ ../../CCC_common/Library/StdDriver/src/fmc.c:475:0
	.fnstart
	.cfi_startproc
@ %bb.0:
	.pad	#4
	sub	sp, #4
	.cfi_def_cfa_offset 4
	movs	r0, #0
.Ltmp151:
	.loc	2 476 14 prologue_end           @ ../../CCC_common/Library/StdDriver/src/fmc.c:476:14
	str	r0, [sp]
	ldr	r0, __arm_cp.8_0
.Ltmp152:
	.loc	2 478 13                        @ ../../CCC_common/Library/StdDriver/src/fmc.c:478:13
	ldr	r0, [r0]
.Ltmp153:
	.loc	2 478 8 is_stmt 0               @ ../../CCC_common/Library/StdDriver/src/fmc.c:478:8
	lsls	r0, r0, #30
	cmp	r0, #0
	bpl	.LBB8_2
	b	.LBB8_1
.LBB8_1:
	.loc	2 0 8                           @ ../../CCC_common/Library/StdDriver/src/fmc.c:0:8
	movs	r0, #1
.Ltmp154:
	.loc	2 480 13 is_stmt 1              @ ../../CCC_common/Library/StdDriver/src/fmc.c:480:13
	str	r0, [sp]
	.loc	2 481 5                         @ ../../CCC_common/Library/StdDriver/src/fmc.c:481:5
	b	.LBB8_2
.Ltmp155:
.LBB8_2:
	.loc	2 483 12                        @ ../../CCC_common/Library/StdDriver/src/fmc.c:483:12
	ldr	r0, [sp]
	.loc	2 483 5 epilogue_begin is_stmt 0 @ ../../CCC_common/Library/StdDriver/src/fmc.c:483:5
	add	sp, #4
	bx	lr
.Ltmp156:
	.loc	2 0 5                           @ :0:5
.Ltmp157:
	.p2align	2
@ %bb.3:
__arm_cp.8_0:
	.long	1073790976                      @ 0x4000c000
.Lcpi_end50:
	.size	__arm_cp.8_0, .Lcpi_end50-__arm_cp.8_0
.Lfunc_end8:
	.size	FMC_GetBootSource, .Lfunc_end8-FMC_GetBootSource
	.cfi_endproc
	.cantunwind
	.fnend
                                        @ -- End function
	.section	.text.FMC_GetChkSum,"ax",%progbits
	.hidden	FMC_GetChkSum                   @ -- Begin function FMC_GetChkSum
	.globl	FMC_GetChkSum
	.p2align	2
	.type	FMC_GetChkSum,%function
	.code	16                              @ @FMC_GetChkSum
	.thumb_func
FMC_GetChkSum:
.Lfunc_begin9:
	.loc	2 503 0 is_stmt 1               @ ../../CCC_common/Library/StdDriver/src/fmc.c:503:0
	.fnstart
	.cfi_startproc
@ %bb.0:
	.pad	#20
	sub	sp, #20
	.cfi_def_cfa_offset 20
	str	r0, [sp, #12]
	str	r1, [sp, #8]
.Ltmp158:
	.loc	2 507 22 prologue_end           @ ../../CCC_common/Library/StdDriver/src/fmc.c:507:22
	ldr	r1, __arm_cp.9_0
	movs	r0, #0
	str	r0, [r1]
	add	r0, sp, #12
.Ltmp159:
	.loc	2 509 27                        @ ../../CCC_common/Library/StdDriver/src/fmc.c:509:27
	ldrh	r0, [r0]
	lsls	r0, r0, #21
	cbnz	r0, .LBB9_2
	b	.LBB9_1
.Ltmp160:
.LBB9_1:
	.loc	2 0 27 is_stmt 0                @ ../../CCC_common/Library/StdDriver/src/fmc.c:0:27
	add	r0, sp, #8
	.loc	2 509 8                         @ ../../CCC_common/Library/StdDriver/src/fmc.c:509:8
	ldrh	r0, [r0]
	lsls	r0, r0, #21
	cbz	r0, .LBB9_3
	b	.LBB9_2
.LBB9_2:
.Ltmp161:
	.loc	2 511 26 is_stmt 1              @ ../../CCC_common/Library/StdDriver/src/fmc.c:511:26
	ldr	r1, __arm_cp.9_0
	movs	r0, #1
	mvns	r0, r0
	str	r0, [r1]
	movs	r0, #0
	mvns	r0, r0
	.loc	2 512 13                        @ ../../CCC_common/Library/StdDriver/src/fmc.c:512:13
	str	r0, [sp, #4]
	.loc	2 513 5                         @ ../../CCC_common/Library/StdDriver/src/fmc.c:513:5
	b	.LBB9_14
.Ltmp162:
.LBB9_3:
	.loc	2 0 5 is_stmt 0                 @ ../../CCC_common/Library/StdDriver/src/fmc.c:0:5
	ldr	r1, __arm_cp.9_1
	movs	r0, #45
.Ltmp163:
	.loc	2 516 22 is_stmt 1              @ ../../CCC_common/Library/StdDriver/src/fmc.c:516:22
	str	r0, [r1]
	.loc	2 517 24                        @ ../../CCC_common/Library/StdDriver/src/fmc.c:517:24
	ldr	r0, [sp, #12]
	ldr	r1, __arm_cp.9_2
	.loc	2 517 22 is_stmt 0              @ ../../CCC_common/Library/StdDriver/src/fmc.c:517:22
	str	r0, [r1]
	.loc	2 518 24 is_stmt 1              @ ../../CCC_common/Library/StdDriver/src/fmc.c:518:24
	ldr	r0, [sp, #8]
	ldr	r1, __arm_cp.9_3
	.loc	2 518 22 is_stmt 0              @ ../../CCC_common/Library/StdDriver/src/fmc.c:518:22
	str	r0, [r1]
	ldr	r1, __arm_cp.9_4
	movs	r0, #1
	.loc	2 519 22 is_stmt 1              @ ../../CCC_common/Library/StdDriver/src/fmc.c:519:22
	str	r0, [r1]
	.loc	2 521 25                        @ ../../CCC_common/Library/StdDriver/src/fmc.c:521:25
	ldr	r0, __arm_cp.9_5
	ldr	r0, [r0]
	lsls	r0, r0, #1
	.loc	2 521 23 is_stmt 0              @ ../../CCC_common/Library/StdDriver/src/fmc.c:521:23
	str	r0, [sp]
	.loc	2 522 9 is_stmt 1               @ ../../CCC_common/Library/StdDriver/src/fmc.c:522:9
	b	.LBB9_4
.LBB9_4:                                @ =>This Inner Loop Header: Depth=1
	.loc	2 0 9 is_stmt 0                 @ ../../CCC_common/Library/StdDriver/src/fmc.c:0:9
	ldr	r0, __arm_cp.9_6
	.loc	2 522 20                        @ ../../CCC_common/Library/StdDriver/src/fmc.c:522:20
	ldr	r0, [r0]
	.loc	2 522 9                         @ ../../CCC_common/Library/StdDriver/src/fmc.c:522:9
	lsls	r0, r0, #31
	cbz	r0, .LBB9_8
	b	.LBB9_5
.LBB9_5:                                @   in Loop: Header=BB9_4 Depth=1
.Ltmp164:
	.loc	2 524 30 is_stmt 1              @ ../../CCC_common/Library/StdDriver/src/fmc.c:524:30
	ldr	r0, [sp]
	subs	r1, r0, #1
	str	r1, [sp]
.Ltmp165:
	.loc	2 524 17 is_stmt 0              @ ../../CCC_common/Library/StdDriver/src/fmc.c:524:17
	cmp	r0, #0
	bgt	.LBB9_7
	b	.LBB9_6
.LBB9_6:
.Ltmp166:
	.loc	2 526 34 is_stmt 1              @ ../../CCC_common/Library/StdDriver/src/fmc.c:526:34
	ldr	r1, __arm_cp.9_0
	movs	r0, #0
	mvns	r0, r0
	str	r0, [r1]
	.loc	2 527 17                        @ ../../CCC_common/Library/StdDriver/src/fmc.c:527:17
	str	r0, [sp, #16]
	b	.LBB9_15
.Ltmp167:
.LBB9_7:                                @   in Loop: Header=BB9_4 Depth=1
	.loc	2 522 9                         @ ../../CCC_common/Library/StdDriver/src/fmc.c:522:9
	b	.LBB9_4
.LBB9_8:
	.loc	2 0 9 is_stmt 0                 @ ../../CCC_common/Library/StdDriver/src/fmc.c:0:9
	ldr	r1, __arm_cp.9_1
	movs	r0, #13
	.loc	2 531 21 is_stmt 1              @ ../../CCC_common/Library/StdDriver/src/fmc.c:531:21
	str	r0, [r1]
	.loc	2 532 27                        @ ../../CCC_common/Library/StdDriver/src/fmc.c:532:27
	ldr	r0, [sp, #12]
	ldr	r1, __arm_cp.9_2
	.loc	2 532 25 is_stmt 0              @ ../../CCC_common/Library/StdDriver/src/fmc.c:532:25
	str	r0, [r1]
	ldr	r1, __arm_cp.9_4
	movs	r0, #1
	.loc	2 533 21 is_stmt 1              @ ../../CCC_common/Library/StdDriver/src/fmc.c:533:21
	str	r0, [r1]
	.loc	2 535 25                        @ ../../CCC_common/Library/StdDriver/src/fmc.c:535:25
	ldr	r0, __arm_cp.9_5
	ldr	r0, [r0]
	lsls	r0, r0, #1
	.loc	2 535 23 is_stmt 0              @ ../../CCC_common/Library/StdDriver/src/fmc.c:535:23
	str	r0, [sp]
	.loc	2 536 9 is_stmt 1               @ ../../CCC_common/Library/StdDriver/src/fmc.c:536:9
	b	.LBB9_9
.LBB9_9:                                @ =>This Inner Loop Header: Depth=1
	.loc	2 0 9 is_stmt 0                 @ ../../CCC_common/Library/StdDriver/src/fmc.c:0:9
	ldr	r0, __arm_cp.9_6
	.loc	2 536 20                        @ ../../CCC_common/Library/StdDriver/src/fmc.c:536:20
	ldr	r0, [r0]
	.loc	2 536 9                         @ ../../CCC_common/Library/StdDriver/src/fmc.c:536:9
	lsls	r0, r0, #31
	cbz	r0, .LBB9_13
	b	.LBB9_10
.LBB9_10:                               @   in Loop: Header=BB9_9 Depth=1
.Ltmp168:
	.loc	2 538 30 is_stmt 1              @ ../../CCC_common/Library/StdDriver/src/fmc.c:538:30
	ldr	r0, [sp]
	subs	r1, r0, #1
	str	r1, [sp]
.Ltmp169:
	.loc	2 538 17 is_stmt 0              @ ../../CCC_common/Library/StdDriver/src/fmc.c:538:17
	cmp	r0, #0
	bgt	.LBB9_12
	b	.LBB9_11
.LBB9_11:
.Ltmp170:
	.loc	2 540 34 is_stmt 1              @ ../../CCC_common/Library/StdDriver/src/fmc.c:540:34
	ldr	r1, __arm_cp.9_0
	movs	r0, #0
	mvns	r0, r0
	str	r0, [r1]
	.loc	2 541 17                        @ ../../CCC_common/Library/StdDriver/src/fmc.c:541:17
	str	r0, [sp, #16]
	b	.LBB9_15
.Ltmp171:
.LBB9_12:                               @   in Loop: Header=BB9_9 Depth=1
	.loc	2 536 9                         @ ../../CCC_common/Library/StdDriver/src/fmc.c:536:9
	b	.LBB9_9
.LBB9_13:
	.loc	2 0 9 is_stmt 0                 @ ../../CCC_common/Library/StdDriver/src/fmc.c:0:9
	ldr	r0, __arm_cp.9_3
	.loc	2 545 20 is_stmt 1              @ ../../CCC_common/Library/StdDriver/src/fmc.c:545:20
	ldr	r0, [r0]
	.loc	2 545 13 is_stmt 0              @ ../../CCC_common/Library/StdDriver/src/fmc.c:545:13
	str	r0, [sp, #4]
	b	.LBB9_14
.Ltmp172:
.LBB9_14:
	.loc	2 548 12 is_stmt 1              @ ../../CCC_common/Library/StdDriver/src/fmc.c:548:12
	ldr	r0, [sp, #4]
	.loc	2 548 5 is_stmt 0               @ ../../CCC_common/Library/StdDriver/src/fmc.c:548:5
	str	r0, [sp, #16]
	b	.LBB9_15
.LBB9_15:
	.loc	2 549 1 is_stmt 1               @ ../../CCC_common/Library/StdDriver/src/fmc.c:549:1
	ldr	r0, [sp, #16]
	.loc	2 549 1 epilogue_begin is_stmt 0 @ ../../CCC_common/Library/StdDriver/src/fmc.c:549:1
	add	sp, #20
	bx	lr
.Ltmp173:
	.loc	2 0 1                           @ :0:1
.Ltmp174:
	.p2align	2
@ %bb.16:
__arm_cp.9_0:
	.long	g_FMC_i32ErrCode
.Lcpi_end51:
	.size	__arm_cp.9_0, .Lcpi_end51-__arm_cp.9_0
__arm_cp.9_1:
	.long	1073790988                      @ 0x4000c00c
.Lcpi_end52:
	.size	__arm_cp.9_1, .Lcpi_end52-__arm_cp.9_1
__arm_cp.9_2:
	.long	1073790980                      @ 0x4000c004
.Lcpi_end53:
	.size	__arm_cp.9_2, .Lcpi_end53-__arm_cp.9_2
__arm_cp.9_3:
	.long	1073790984                      @ 0x4000c008
.Lcpi_end54:
	.size	__arm_cp.9_3, .Lcpi_end54-__arm_cp.9_3
__arm_cp.9_4:
	.long	1073790992                      @ 0x4000c010
.Lcpi_end55:
	.size	__arm_cp.9_4, .Lcpi_end55-__arm_cp.9_4
__arm_cp.9_5:
	.long	SystemCoreClock
.Lcpi_end56:
	.size	__arm_cp.9_5, .Lcpi_end56-__arm_cp.9_5
__arm_cp.9_6:
	.long	1073791040                      @ 0x4000c040
.Lcpi_end57:
	.size	__arm_cp.9_6, .Lcpi_end57-__arm_cp.9_6
.Lfunc_end9:
	.size	FMC_GetChkSum, .Lfunc_end9-FMC_GetChkSum
	.cfi_endproc
	.cantunwind
	.fnend
                                        @ -- End function
	.section	.text.FMC_Is_OTP_Locked,"ax",%progbits
	.hidden	FMC_Is_OTP_Locked               @ -- Begin function FMC_Is_OTP_Locked
	.globl	FMC_Is_OTP_Locked
	.p2align	2
	.type	FMC_Is_OTP_Locked,%function
	.code	16                              @ @FMC_Is_OTP_Locked
	.thumb_func
FMC_Is_OTP_Locked:
.Lfunc_begin10:
	.loc	2 568 0 is_stmt 1               @ ../../CCC_common/Library/StdDriver/src/fmc.c:568:0
	.fnstart
	.cfi_startproc
@ %bb.0:
	.pad	#12
	sub	sp, #12
	.cfi_def_cfa_offset 12
	str	r0, [sp, #8]
	movs	r0, #0
.Ltmp175:
	.loc	2 569 14 prologue_end           @ ../../CCC_common/Library/StdDriver/src/fmc.c:569:14
	str	r0, [sp, #4]
	.loc	2 572 22                        @ ../../CCC_common/Library/StdDriver/src/fmc.c:572:22
	ldr	r1, __arm_cp.10_0
	str	r0, [r1]
.Ltmp176:
	.loc	2 574 8                         @ ../../CCC_common/Library/StdDriver/src/fmc.c:574:8
	ldr	r0, [sp, #8]
.Ltmp177:
	.loc	2 574 8 is_stmt 0               @ ../../CCC_common/Library/StdDriver/src/fmc.c:574:8
	lsrs	r0, r0, #8
	cbz	r0, .LBB10_2
	b	.LBB10_1
.LBB10_1:
.Ltmp178:
	.loc	2 576 26 is_stmt 1              @ ../../CCC_common/Library/StdDriver/src/fmc.c:576:26
	ldr	r1, __arm_cp.10_0
	movs	r0, #1
	mvns	r0, r0
	str	r0, [r1]
	.loc	2 577 13                        @ ../../CCC_common/Library/StdDriver/src/fmc.c:577:13
	str	r0, [sp, #4]
	.loc	2 578 5                         @ ../../CCC_common/Library/StdDriver/src/fmc.c:578:5
	b	.LBB10_2
.Ltmp179:
.LBB10_2:
	.loc	2 580 8                         @ ../../CCC_common/Library/StdDriver/src/fmc.c:580:8
	ldr	r0, [sp, #4]
.Ltmp180:
	.loc	2 580 8 is_stmt 0               @ ../../CCC_common/Library/StdDriver/src/fmc.c:580:8
	cmp	r0, #0
	bne	.LBB10_14
	b	.LBB10_3
.LBB10_3:
	.loc	2 0 8                           @ ../../CCC_common/Library/StdDriver/src/fmc.c:0:8
	ldr	r1, __arm_cp.10_1
	movs	r0, #0
.Ltmp181:
	.loc	2 582 21 is_stmt 1              @ ../../CCC_common/Library/StdDriver/src/fmc.c:582:21
	str	r0, [r1]
	.loc	2 583 49                        @ ../../CCC_common/Library/StdDriver/src/fmc.c:583:49
	ldr	r0, [sp, #8]
	.loc	2 583 59 is_stmt 0              @ ../../CCC_common/Library/StdDriver/src/fmc.c:583:59
	lsls	r0, r0, #2
	ldr	r1, __arm_cp.10_2
	.loc	2 583 47                        @ ../../CCC_common/Library/StdDriver/src/fmc.c:583:47
	adds	r0, r0, r1
	ldr	r1, __arm_cp.10_3
	.loc	2 583 22                        @ ../../CCC_common/Library/StdDriver/src/fmc.c:583:22
	str	r0, [r1]
	ldr	r1, __arm_cp.10_4
	movs	r0, #1
	.loc	2 584 21 is_stmt 1              @ ../../CCC_common/Library/StdDriver/src/fmc.c:584:21
	str	r0, [r1]
	.loc	2 586 25                        @ ../../CCC_common/Library/StdDriver/src/fmc.c:586:25
	ldr	r0, __arm_cp.10_5
	ldr	r0, [r0]
	lsrs	r0, r0, #3
	.loc	2 586 23 is_stmt 0              @ ../../CCC_common/Library/StdDriver/src/fmc.c:586:23
	str	r0, [sp]
	.loc	2 587 9 is_stmt 1               @ ../../CCC_common/Library/StdDriver/src/fmc.c:587:9
	b	.LBB10_4
.LBB10_4:                               @ =>This Inner Loop Header: Depth=1
	.loc	2 0 9 is_stmt 0                 @ ../../CCC_common/Library/StdDriver/src/fmc.c:0:9
	ldr	r0, __arm_cp.10_4
	.loc	2 587 20                        @ ../../CCC_common/Library/StdDriver/src/fmc.c:587:20
	ldr	r0, [r0]
	.loc	2 587 9                         @ ../../CCC_common/Library/StdDriver/src/fmc.c:587:9
	lsls	r0, r0, #31
	cbz	r0, .LBB10_8
	b	.LBB10_5
.LBB10_5:                               @   in Loop: Header=BB10_4 Depth=1
.Ltmp182:
	.loc	2 589 30 is_stmt 1              @ ../../CCC_common/Library/StdDriver/src/fmc.c:589:30
	ldr	r0, [sp]
	subs	r1, r0, #1
	str	r1, [sp]
.Ltmp183:
	.loc	2 589 17 is_stmt 0              @ ../../CCC_common/Library/StdDriver/src/fmc.c:589:17
	cmp	r0, #0
	bgt	.LBB10_7
	b	.LBB10_6
.LBB10_6:
.Ltmp184:
	.loc	2 591 34 is_stmt 1              @ ../../CCC_common/Library/StdDriver/src/fmc.c:591:34
	ldr	r1, __arm_cp.10_0
	movs	r0, #0
	mvns	r0, r0
	str	r0, [r1]
	.loc	2 592 21                        @ ../../CCC_common/Library/StdDriver/src/fmc.c:592:21
	str	r0, [sp, #4]
	.loc	2 593 17                        @ ../../CCC_common/Library/StdDriver/src/fmc.c:593:17
	b	.LBB10_8
.Ltmp185:
.LBB10_7:                               @   in Loop: Header=BB10_4 Depth=1
	.loc	2 587 9                         @ ../../CCC_common/Library/StdDriver/src/fmc.c:587:9
	b	.LBB10_4
.LBB10_8:
	.loc	2 0 9 is_stmt 0                 @ ../../CCC_common/Library/StdDriver/src/fmc.c:0:9
	ldr	r0, __arm_cp.10_6
.Ltmp186:
	.loc	2 597 17 is_stmt 1              @ ../../CCC_common/Library/StdDriver/src/fmc.c:597:17
	ldr	r0, [r0]
.Ltmp187:
	.loc	2 597 12 is_stmt 0              @ ../../CCC_common/Library/StdDriver/src/fmc.c:597:12
	lsls	r0, r0, #25
	cmp	r0, #0
	bpl	.LBB10_10
	b	.LBB10_9
.LBB10_9:
	.loc	2 0 12                          @ ../../CCC_common/Library/StdDriver/src/fmc.c:0:12
	ldr	r1, __arm_cp.10_6
.Ltmp188:
	.loc	2 599 25 is_stmt 1              @ ../../CCC_common/Library/StdDriver/src/fmc.c:599:25
	ldr	r0, [r1]
	movs	r2, #64
	orrs	r0, r2
	str	r0, [r1]
	.loc	2 600 30                        @ ../../CCC_common/Library/StdDriver/src/fmc.c:600:30
	ldr	r1, __arm_cp.10_0
	movs	r0, #0
	mvns	r0, r0
	str	r0, [r1]
	.loc	2 601 17                        @ ../../CCC_common/Library/StdDriver/src/fmc.c:601:17
	str	r0, [sp, #4]
	.loc	2 602 9                         @ ../../CCC_common/Library/StdDriver/src/fmc.c:602:9
	b	.LBB10_13
.Ltmp189:
.LBB10_10:
	.loc	2 0 9 is_stmt 0                 @ ../../CCC_common/Library/StdDriver/src/fmc.c:0:9
	ldr	r0, __arm_cp.10_7
.Ltmp190:
	.loc	2 605 21 is_stmt 1              @ ../../CCC_common/Library/StdDriver/src/fmc.c:605:21
	ldr	r0, [r0]
.Ltmp191:
	.loc	2 605 16 is_stmt 0              @ ../../CCC_common/Library/StdDriver/src/fmc.c:605:16
	adds	r0, r0, #1
	cbz	r0, .LBB10_12
	b	.LBB10_11
.LBB10_11:
.Ltmp192:
	.loc	2 607 34 is_stmt 1              @ ../../CCC_common/Library/StdDriver/src/fmc.c:607:34
	ldr	r1, __arm_cp.10_0
	movs	r0, #0
	mvns	r0, r0
	str	r0, [r1]
	movs	r0, #1
	.loc	2 608 21                        @ ../../CCC_common/Library/StdDriver/src/fmc.c:608:21
	str	r0, [sp, #4]
	.loc	2 609 13                        @ ../../CCC_common/Library/StdDriver/src/fmc.c:609:13
	b	.LBB10_12
.Ltmp193:
.LBB10_12:
	.loc	2 0 13 is_stmt 0                @ ../../CCC_common/Library/StdDriver/src/fmc.c:0:13
	b	.LBB10_13
.LBB10_13:
	.loc	2 611 5 is_stmt 1               @ ../../CCC_common/Library/StdDriver/src/fmc.c:611:5
	b	.LBB10_14
.Ltmp194:
.LBB10_14:
	.loc	2 612 12                        @ ../../CCC_common/Library/StdDriver/src/fmc.c:612:12
	ldr	r0, [sp, #4]
	.loc	2 612 5 epilogue_begin is_stmt 0 @ ../../CCC_common/Library/StdDriver/src/fmc.c:612:5
	add	sp, #12
	bx	lr
.Ltmp195:
	.loc	2 0 5                           @ :0:5
.Ltmp196:
	.p2align	2
@ %bb.15:
__arm_cp.10_0:
	.long	g_FMC_i32ErrCode
.Lcpi_end58:
	.size	__arm_cp.10_0, .Lcpi_end58-__arm_cp.10_0
__arm_cp.10_1:
	.long	1073790988                      @ 0x4000c00c
.Lcpi_end59:
	.size	__arm_cp.10_1, .Lcpi_end59-__arm_cp.10_1
__arm_cp.10_2:
	.long	3213312                         @ 0x310800
.Lcpi_end60:
	.size	__arm_cp.10_2, .Lcpi_end60-__arm_cp.10_2
__arm_cp.10_3:
	.long	1073790980                      @ 0x4000c004
.Lcpi_end61:
	.size	__arm_cp.10_3, .Lcpi_end61-__arm_cp.10_3
__arm_cp.10_4:
	.long	1073790992                      @ 0x4000c010
.Lcpi_end62:
	.size	__arm_cp.10_4, .Lcpi_end62-__arm_cp.10_4
__arm_cp.10_5:
	.long	SystemCoreClock
.Lcpi_end63:
	.size	__arm_cp.10_5, .Lcpi_end63-__arm_cp.10_5
__arm_cp.10_6:
	.long	1073791040                      @ 0x4000c040
.Lcpi_end64:
	.size	__arm_cp.10_6, .Lcpi_end64-__arm_cp.10_6
__arm_cp.10_7:
	.long	1073790984                      @ 0x4000c008
.Lcpi_end65:
	.size	__arm_cp.10_7, .Lcpi_end65-__arm_cp.10_7
.Lfunc_end10:
	.size	FMC_Is_OTP_Locked, .Lfunc_end10-FMC_Is_OTP_Locked
	.cfi_endproc
	.cantunwind
	.fnend
                                        @ -- End function
	.section	.text.FMC_Lock_OTP,"ax",%progbits
	.hidden	FMC_Lock_OTP                    @ -- Begin function FMC_Lock_OTP
	.globl	FMC_Lock_OTP
	.p2align	2
	.type	FMC_Lock_OTP,%function
	.code	16                              @ @FMC_Lock_OTP
	.thumb_func
FMC_Lock_OTP:
.Lfunc_begin11:
	.loc	2 660 0 is_stmt 1               @ ../../CCC_common/Library/StdDriver/src/fmc.c:660:0
	.fnstart
	.cfi_startproc
@ %bb.0:
	.pad	#12
	sub	sp, #12
	.cfi_def_cfa_offset 12
	str	r0, [sp, #8]
	movs	r0, #0
.Ltmp197:
	.loc	2 661 14 prologue_end           @ ../../CCC_common/Library/StdDriver/src/fmc.c:661:14
	str	r0, [sp, #4]
	.loc	2 664 22                        @ ../../CCC_common/Library/StdDriver/src/fmc.c:664:22
	ldr	r1, __arm_cp.11_0
	str	r0, [r1]
.Ltmp198:
	.loc	2 666 8                         @ ../../CCC_common/Library/StdDriver/src/fmc.c:666:8
	ldr	r0, [sp, #8]
.Ltmp199:
	.loc	2 666 8 is_stmt 0               @ ../../CCC_common/Library/StdDriver/src/fmc.c:666:8
	lsrs	r0, r0, #8
	cbz	r0, .LBB11_2
	b	.LBB11_1
.LBB11_1:
.Ltmp200:
	.loc	2 668 26 is_stmt 1              @ ../../CCC_common/Library/StdDriver/src/fmc.c:668:26
	ldr	r1, __arm_cp.11_0
	movs	r0, #1
	mvns	r0, r0
	str	r0, [r1]
	.loc	2 669 13                        @ ../../CCC_common/Library/StdDriver/src/fmc.c:669:13
	str	r0, [sp, #4]
	.loc	2 670 5                         @ ../../CCC_common/Library/StdDriver/src/fmc.c:670:5
	b	.LBB11_2
.Ltmp201:
.LBB11_2:
	.loc	2 672 8                         @ ../../CCC_common/Library/StdDriver/src/fmc.c:672:8
	ldr	r0, [sp, #4]
.Ltmp202:
	.loc	2 672 8 is_stmt 0               @ ../../CCC_common/Library/StdDriver/src/fmc.c:672:8
	cbnz	r0, .LBB11_11
	b	.LBB11_3
.LBB11_3:
	.loc	2 0 8                           @ ../../CCC_common/Library/StdDriver/src/fmc.c:0:8
	ldr	r1, __arm_cp.11_1
	movs	r0, #33
.Ltmp203:
	.loc	2 674 21 is_stmt 1              @ ../../CCC_common/Library/StdDriver/src/fmc.c:674:21
	str	r0, [r1]
	.loc	2 675 49                        @ ../../CCC_common/Library/StdDriver/src/fmc.c:675:49
	ldr	r0, [sp, #8]
	.loc	2 675 59 is_stmt 0              @ ../../CCC_common/Library/StdDriver/src/fmc.c:675:59
	lsls	r0, r0, #2
	ldr	r1, __arm_cp.11_2
	.loc	2 675 47                        @ ../../CCC_common/Library/StdDriver/src/fmc.c:675:47
	adds	r0, r0, r1
	ldr	r1, __arm_cp.11_3
	.loc	2 675 22                        @ ../../CCC_common/Library/StdDriver/src/fmc.c:675:22
	str	r0, [r1]
	ldr	r1, __arm_cp.11_4
	movs	r0, #0
	.loc	2 676 21 is_stmt 1              @ ../../CCC_common/Library/StdDriver/src/fmc.c:676:21
	str	r0, [r1]
	ldr	r1, __arm_cp.11_5
	movs	r0, #1
	.loc	2 677 21                        @ ../../CCC_common/Library/StdDriver/src/fmc.c:677:21
	str	r0, [r1]
	.loc	2 679 25                        @ ../../CCC_common/Library/StdDriver/src/fmc.c:679:25
	ldr	r0, __arm_cp.11_6
	ldr	r0, [r0]
	lsrs	r0, r0, #3
	.loc	2 679 23 is_stmt 0              @ ../../CCC_common/Library/StdDriver/src/fmc.c:679:23
	str	r0, [sp]
	.loc	2 680 9 is_stmt 1               @ ../../CCC_common/Library/StdDriver/src/fmc.c:680:9
	b	.LBB11_4
.LBB11_4:                               @ =>This Inner Loop Header: Depth=1
	.loc	2 0 9 is_stmt 0                 @ ../../CCC_common/Library/StdDriver/src/fmc.c:0:9
	ldr	r0, __arm_cp.11_5
	.loc	2 680 20                        @ ../../CCC_common/Library/StdDriver/src/fmc.c:680:20
	ldr	r0, [r0]
	.loc	2 680 9                         @ ../../CCC_common/Library/StdDriver/src/fmc.c:680:9
	lsls	r0, r0, #31
	cbz	r0, .LBB11_8
	b	.LBB11_5
.LBB11_5:                               @   in Loop: Header=BB11_4 Depth=1
.Ltmp204:
	.loc	2 682 30 is_stmt 1              @ ../../CCC_common/Library/StdDriver/src/fmc.c:682:30
	ldr	r0, [sp]
	subs	r1, r0, #1
	str	r1, [sp]
.Ltmp205:
	.loc	2 682 17 is_stmt 0              @ ../../CCC_common/Library/StdDriver/src/fmc.c:682:17
	cmp	r0, #0
	bgt	.LBB11_7
	b	.LBB11_6
.LBB11_6:
.Ltmp206:
	.loc	2 684 34 is_stmt 1              @ ../../CCC_common/Library/StdDriver/src/fmc.c:684:34
	ldr	r1, __arm_cp.11_0
	movs	r0, #0
	mvns	r0, r0
	str	r0, [r1]
	.loc	2 685 21                        @ ../../CCC_common/Library/StdDriver/src/fmc.c:685:21
	str	r0, [sp, #4]
	.loc	2 686 17                        @ ../../CCC_common/Library/StdDriver/src/fmc.c:686:17
	b	.LBB11_8
.Ltmp207:
.LBB11_7:                               @   in Loop: Header=BB11_4 Depth=1
	.loc	2 680 9                         @ ../../CCC_common/Library/StdDriver/src/fmc.c:680:9
	b	.LBB11_4
.LBB11_8:
	.loc	2 0 9 is_stmt 0                 @ ../../CCC_common/Library/StdDriver/src/fmc.c:0:9
	ldr	r0, __arm_cp.11_7
.Ltmp208:
	.loc	2 690 17 is_stmt 1              @ ../../CCC_common/Library/StdDriver/src/fmc.c:690:17
	ldr	r0, [r0]
.Ltmp209:
	.loc	2 690 12 is_stmt 0              @ ../../CCC_common/Library/StdDriver/src/fmc.c:690:12
	lsls	r0, r0, #25
	cmp	r0, #0
	bpl	.LBB11_10
	b	.LBB11_9
.LBB11_9:
	.loc	2 0 12                          @ ../../CCC_common/Library/StdDriver/src/fmc.c:0:12
	ldr	r1, __arm_cp.11_7
.Ltmp210:
	.loc	2 692 25 is_stmt 1              @ ../../CCC_common/Library/StdDriver/src/fmc.c:692:25
	ldr	r0, [r1]
	movs	r2, #64
	orrs	r0, r2
	str	r0, [r1]
	.loc	2 693 30                        @ ../../CCC_common/Library/StdDriver/src/fmc.c:693:30
	ldr	r1, __arm_cp.11_0
	movs	r0, #0
	mvns	r0, r0
	str	r0, [r1]
	.loc	2 694 17                        @ ../../CCC_common/Library/StdDriver/src/fmc.c:694:17
	str	r0, [sp, #4]
	.loc	2 695 9                         @ ../../CCC_common/Library/StdDriver/src/fmc.c:695:9
	b	.LBB11_10
.Ltmp211:
.LBB11_10:
	.loc	2 696 5                         @ ../../CCC_common/Library/StdDriver/src/fmc.c:696:5
	b	.LBB11_11
.Ltmp212:
.LBB11_11:
	.loc	2 697 12                        @ ../../CCC_common/Library/StdDriver/src/fmc.c:697:12
	ldr	r0, [sp, #4]
	.loc	2 697 5 epilogue_begin is_stmt 0 @ ../../CCC_common/Library/StdDriver/src/fmc.c:697:5
	add	sp, #12
	bx	lr
.Ltmp213:
	.loc	2 0 5                           @ :0:5
.Ltmp214:
	.p2align	2
@ %bb.12:
__arm_cp.11_0:
	.long	g_FMC_i32ErrCode
.Lcpi_end66:
	.size	__arm_cp.11_0, .Lcpi_end66-__arm_cp.11_0
__arm_cp.11_1:
	.long	1073790988                      @ 0x4000c00c
.Lcpi_end67:
	.size	__arm_cp.11_1, .Lcpi_end67-__arm_cp.11_1
__arm_cp.11_2:
	.long	3213312                         @ 0x310800
.Lcpi_end68:
	.size	__arm_cp.11_2, .Lcpi_end68-__arm_cp.11_2
__arm_cp.11_3:
	.long	1073790980                      @ 0x4000c004
.Lcpi_end69:
	.size	__arm_cp.11_3, .Lcpi_end69-__arm_cp.11_3
__arm_cp.11_4:
	.long	1073790984                      @ 0x4000c008
.Lcpi_end70:
	.size	__arm_cp.11_4, .Lcpi_end70-__arm_cp.11_4
__arm_cp.11_5:
	.long	1073790992                      @ 0x4000c010
.Lcpi_end71:
	.size	__arm_cp.11_5, .Lcpi_end71-__arm_cp.11_5
__arm_cp.11_6:
	.long	SystemCoreClock
.Lcpi_end72:
	.size	__arm_cp.11_6, .Lcpi_end72-__arm_cp.11_6
__arm_cp.11_7:
	.long	1073791040                      @ 0x4000c040
.Lcpi_end73:
	.size	__arm_cp.11_7, .Lcpi_end73-__arm_cp.11_7
.Lfunc_end11:
	.size	FMC_Lock_OTP, .Lfunc_end11-FMC_Lock_OTP
	.cfi_endproc
	.cantunwind
	.fnend
                                        @ -- End function
	.section	.text.FMC_Open,"ax",%progbits
	.hidden	FMC_Open                        @ -- Begin function FMC_Open
	.globl	FMC_Open
	.p2align	2
	.type	FMC_Open,%function
	.code	16                              @ @FMC_Open
	.thumb_func
FMC_Open:
.Lfunc_begin12:
	.loc	2 714 0 is_stmt 1               @ ../../CCC_common/Library/StdDriver/src/fmc.c:714:0
	.fnstart
	.cfi_startproc
@ %bb.0:
	ldr	r1, __arm_cp.12_0
.Ltmp215:
	.loc	2 715 17 prologue_end           @ ../../CCC_common/Library/StdDriver/src/fmc.c:715:17
	ldr	r0, [r1]
	movs	r2, #1
	orrs	r0, r2
	str	r0, [r1]
	.loc	2 716 1                         @ ../../CCC_common/Library/StdDriver/src/fmc.c:716:1
	bx	lr
.Ltmp216:
	.loc	2 0 1 is_stmt 0                 @ :0:1
.Ltmp217:
	.p2align	2
@ %bb.1:
__arm_cp.12_0:
	.long	1073790976                      @ 0x4000c000
.Lcpi_end74:
	.size	__arm_cp.12_0, .Lcpi_end74-__arm_cp.12_0
.Lfunc_end12:
	.size	FMC_Open, .Lfunc_end12-FMC_Open
	.cfi_endproc
	.cantunwind
	.fnend
                                        @ -- End function
	.section	.text.FMC_Read,"ax",%progbits
	.hidden	FMC_Read                        @ -- Begin function FMC_Read
	.globl	FMC_Read
	.p2align	2
	.type	FMC_Read,%function
	.code	16                              @ @FMC_Read
	.thumb_func
FMC_Read:
.Lfunc_begin13:
	.loc	2 734 0 is_stmt 1               @ ../../CCC_common/Library/StdDriver/src/fmc.c:734:0
	.fnstart
	.cfi_startproc
@ %bb.0:
	.pad	#12
	sub	sp, #12
	.cfi_def_cfa_offset 12
	str	r0, [sp, #4]
.Ltmp218:
	.loc	2 737 22 prologue_end           @ ../../CCC_common/Library/StdDriver/src/fmc.c:737:22
	ldr	r1, __arm_cp.13_0
	movs	r0, #0
	str	r0, [r1]
	ldr	r1, __arm_cp.13_1
	.loc	2 739 17                        @ ../../CCC_common/Library/StdDriver/src/fmc.c:739:17
	str	r0, [r1]
	.loc	2 740 20                        @ ../../CCC_common/Library/StdDriver/src/fmc.c:740:20
	ldr	r0, [sp, #4]
	ldr	r1, __arm_cp.13_2
	.loc	2 740 18 is_stmt 0              @ ../../CCC_common/Library/StdDriver/src/fmc.c:740:18
	str	r0, [r1]
	ldr	r1, __arm_cp.13_3
	movs	r0, #1
	.loc	2 741 17 is_stmt 1              @ ../../CCC_common/Library/StdDriver/src/fmc.c:741:17
	str	r0, [r1]
	.loc	2 742 21                        @ ../../CCC_common/Library/StdDriver/src/fmc.c:742:21
	ldr	r0, __arm_cp.13_4
	ldr	r0, [r0]
	lsrs	r0, r0, #3
	.loc	2 742 19 is_stmt 0              @ ../../CCC_common/Library/StdDriver/src/fmc.c:742:19
	str	r0, [sp]
	.loc	2 743 5 is_stmt 1               @ ../../CCC_common/Library/StdDriver/src/fmc.c:743:5
	b	.LBB13_1
.LBB13_1:                               @ =>This Inner Loop Header: Depth=1
	.loc	2 0 5 is_stmt 0                 @ ../../CCC_common/Library/StdDriver/src/fmc.c:0:5
	ldr	r0, __arm_cp.13_3
	.loc	2 743 16                        @ ../../CCC_common/Library/StdDriver/src/fmc.c:743:16
	ldr	r0, [r0]
	.loc	2 743 5                         @ ../../CCC_common/Library/StdDriver/src/fmc.c:743:5
	lsls	r0, r0, #31
	cbz	r0, .LBB13_5
	b	.LBB13_2
.LBB13_2:                               @   in Loop: Header=BB13_1 Depth=1
.Ltmp219:
	.loc	2 745 26 is_stmt 1              @ ../../CCC_common/Library/StdDriver/src/fmc.c:745:26
	ldr	r0, [sp]
	subs	r1, r0, #1
	str	r1, [sp]
.Ltmp220:
	.loc	2 745 13 is_stmt 0              @ ../../CCC_common/Library/StdDriver/src/fmc.c:745:13
	cmp	r0, #0
	bgt	.LBB13_4
	b	.LBB13_3
.LBB13_3:
.Ltmp221:
	.loc	2 747 30 is_stmt 1              @ ../../CCC_common/Library/StdDriver/src/fmc.c:747:30
	ldr	r1, __arm_cp.13_0
	movs	r0, #0
	mvns	r0, r0
	str	r0, [r1]
	.loc	2 748 13                        @ ../../CCC_common/Library/StdDriver/src/fmc.c:748:13
	str	r0, [sp, #8]
	b	.LBB13_6
.Ltmp222:
.LBB13_4:                               @   in Loop: Header=BB13_1 Depth=1
	.loc	2 743 5                         @ ../../CCC_common/Library/StdDriver/src/fmc.c:743:5
	b	.LBB13_1
.LBB13_5:
	.loc	2 0 5 is_stmt 0                 @ ../../CCC_common/Library/StdDriver/src/fmc.c:0:5
	ldr	r0, __arm_cp.13_5
	.loc	2 752 17 is_stmt 1              @ ../../CCC_common/Library/StdDriver/src/fmc.c:752:17
	ldr	r0, [r0]
	.loc	2 752 5 is_stmt 0               @ ../../CCC_common/Library/StdDriver/src/fmc.c:752:5
	str	r0, [sp, #8]
	b	.LBB13_6
.LBB13_6:
	.loc	2 753 1 is_stmt 1               @ ../../CCC_common/Library/StdDriver/src/fmc.c:753:1
	ldr	r0, [sp, #8]
	.loc	2 753 1 epilogue_begin is_stmt 0 @ ../../CCC_common/Library/StdDriver/src/fmc.c:753:1
	add	sp, #12
	bx	lr
.Ltmp223:
	.loc	2 0 1                           @ :0:1
.Ltmp224:
	.p2align	2
@ %bb.7:
__arm_cp.13_0:
	.long	g_FMC_i32ErrCode
.Lcpi_end75:
	.size	__arm_cp.13_0, .Lcpi_end75-__arm_cp.13_0
__arm_cp.13_1:
	.long	1073790988                      @ 0x4000c00c
.Lcpi_end76:
	.size	__arm_cp.13_1, .Lcpi_end76-__arm_cp.13_1
__arm_cp.13_2:
	.long	1073790980                      @ 0x4000c004
.Lcpi_end77:
	.size	__arm_cp.13_2, .Lcpi_end77-__arm_cp.13_2
__arm_cp.13_3:
	.long	1073790992                      @ 0x4000c010
.Lcpi_end78:
	.size	__arm_cp.13_3, .Lcpi_end78-__arm_cp.13_3
__arm_cp.13_4:
	.long	SystemCoreClock
.Lcpi_end79:
	.size	__arm_cp.13_4, .Lcpi_end79-__arm_cp.13_4
__arm_cp.13_5:
	.long	1073790984                      @ 0x4000c008
.Lcpi_end80:
	.size	__arm_cp.13_5, .Lcpi_end80-__arm_cp.13_5
.Lfunc_end13:
	.size	FMC_Read, .Lfunc_end13-FMC_Read
	.cfi_endproc
	.cantunwind
	.fnend
                                        @ -- End function
	.section	.text.FMC_Read_64,"ax",%progbits
	.hidden	FMC_Read_64                     @ -- Begin function FMC_Read_64
	.globl	FMC_Read_64
	.p2align	2
	.type	FMC_Read_64,%function
	.code	16                              @ @FMC_Read_64
	.thumb_func
FMC_Read_64:
.Lfunc_begin14:
	.loc	2 773 0 is_stmt 1               @ ../../CCC_common/Library/StdDriver/src/fmc.c:773:0
	.fnstart
	.cfi_startproc
@ %bb.0:
	.pad	#20
	sub	sp, #20
	.cfi_def_cfa_offset 20
	str	r0, [sp, #16]
	str	r1, [sp, #12]
	str	r2, [sp, #8]
	movs	r0, #0
.Ltmp225:
	.loc	2 774 14 prologue_end           @ ../../CCC_common/Library/StdDriver/src/fmc.c:774:14
	str	r0, [sp, #4]
	.loc	2 777 22                        @ ../../CCC_common/Library/StdDriver/src/fmc.c:777:22
	ldr	r1, __arm_cp.14_0
	str	r0, [r1]
	ldr	r2, __arm_cp.14_1
	movs	r1, #64
	.loc	2 779 17                        @ ../../CCC_common/Library/StdDriver/src/fmc.c:779:17
	str	r1, [r2]
	.loc	2 780 20                        @ ../../CCC_common/Library/StdDriver/src/fmc.c:780:20
	ldr	r1, [sp, #16]
	ldr	r2, __arm_cp.14_2
	.loc	2 780 18 is_stmt 0              @ ../../CCC_common/Library/StdDriver/src/fmc.c:780:18
	str	r1, [r2]
	ldr	r1, __arm_cp.14_3
	.loc	2 781 17 is_stmt 1              @ ../../CCC_common/Library/StdDriver/src/fmc.c:781:17
	str	r0, [r1]
	ldr	r1, __arm_cp.14_4
	movs	r0, #1
	.loc	2 782 17                        @ ../../CCC_common/Library/StdDriver/src/fmc.c:782:17
	str	r0, [r1]
	.loc	2 784 21                        @ ../../CCC_common/Library/StdDriver/src/fmc.c:784:21
	ldr	r0, __arm_cp.14_5
	ldr	r0, [r0]
	lsrs	r0, r0, #3
	.loc	2 784 19 is_stmt 0              @ ../../CCC_common/Library/StdDriver/src/fmc.c:784:19
	str	r0, [sp]
	.loc	2 785 5 is_stmt 1               @ ../../CCC_common/Library/StdDriver/src/fmc.c:785:5
	b	.LBB14_1
.LBB14_1:                               @ =>This Inner Loop Header: Depth=1
	.loc	2 0 5 is_stmt 0                 @ ../../CCC_common/Library/StdDriver/src/fmc.c:0:5
	ldr	r0, __arm_cp.14_6
	.loc	2 785 16                        @ ../../CCC_common/Library/StdDriver/src/fmc.c:785:16
	ldr	r0, [r0]
	.loc	2 785 5                         @ ../../CCC_common/Library/StdDriver/src/fmc.c:785:5
	lsls	r0, r0, #31
	cbz	r0, .LBB14_5
	b	.LBB14_2
.LBB14_2:                               @   in Loop: Header=BB14_1 Depth=1
.Ltmp226:
	.loc	2 787 26 is_stmt 1              @ ../../CCC_common/Library/StdDriver/src/fmc.c:787:26
	ldr	r0, [sp]
	subs	r1, r0, #1
	str	r1, [sp]
.Ltmp227:
	.loc	2 787 13 is_stmt 0              @ ../../CCC_common/Library/StdDriver/src/fmc.c:787:13
	cmp	r0, #0
	bgt	.LBB14_4
	b	.LBB14_3
.LBB14_3:
.Ltmp228:
	.loc	2 789 30 is_stmt 1              @ ../../CCC_common/Library/StdDriver/src/fmc.c:789:30
	ldr	r1, __arm_cp.14_0
	movs	r0, #0
	mvns	r0, r0
	str	r0, [r1]
	.loc	2 790 17                        @ ../../CCC_common/Library/StdDriver/src/fmc.c:790:17
	str	r0, [sp, #4]
	.loc	2 791 13                        @ ../../CCC_common/Library/StdDriver/src/fmc.c:791:13
	b	.LBB14_5
.Ltmp229:
.LBB14_4:                               @   in Loop: Header=BB14_1 Depth=1
	.loc	2 785 5                         @ ../../CCC_common/Library/StdDriver/src/fmc.c:785:5
	b	.LBB14_1
.LBB14_5:
	.loc	2 0 5 is_stmt 0                 @ ../../CCC_common/Library/StdDriver/src/fmc.c:0:5
	ldr	r0, __arm_cp.14_6
.Ltmp230:
	.loc	2 795 13 is_stmt 1              @ ../../CCC_common/Library/StdDriver/src/fmc.c:795:13
	ldr	r0, [r0]
.Ltmp231:
	.loc	2 795 8 is_stmt 0               @ ../../CCC_common/Library/StdDriver/src/fmc.c:795:8
	lsls	r0, r0, #25
	cmp	r0, #0
	bpl	.LBB14_7
	b	.LBB14_6
.LBB14_6:
	.loc	2 0 8                           @ ../../CCC_common/Library/StdDriver/src/fmc.c:0:8
	ldr	r1, __arm_cp.14_6
.Ltmp232:
	.loc	2 797 21 is_stmt 1              @ ../../CCC_common/Library/StdDriver/src/fmc.c:797:21
	ldr	r0, [r1]
	movs	r2, #64
	orrs	r0, r2
	str	r0, [r1]
	.loc	2 798 26                        @ ../../CCC_common/Library/StdDriver/src/fmc.c:798:26
	ldr	r1, __arm_cp.14_0
	movs	r0, #0
	mvns	r0, r0
	str	r0, [r1]
	.loc	2 799 13                        @ ../../CCC_common/Library/StdDriver/src/fmc.c:799:13
	str	r0, [sp, #4]
	.loc	2 800 5                         @ ../../CCC_common/Library/StdDriver/src/fmc.c:800:5
	b	.LBB14_8
.Ltmp233:
.LBB14_7:
	.loc	2 0 5 is_stmt 0                 @ ../../CCC_common/Library/StdDriver/src/fmc.c:0:5
	ldr	r0, __arm_cp.14_7
.Ltmp234:
	.loc	2 803 26 is_stmt 1              @ ../../CCC_common/Library/StdDriver/src/fmc.c:803:26
	ldr	r0, [r0]
	.loc	2 803 10 is_stmt 0              @ ../../CCC_common/Library/StdDriver/src/fmc.c:803:10
	ldr	r1, [sp, #12]
	.loc	2 803 19                        @ ../../CCC_common/Library/StdDriver/src/fmc.c:803:19
	str	r0, [r1]
	ldr	r0, __arm_cp.14_8
	.loc	2 804 26 is_stmt 1              @ ../../CCC_common/Library/StdDriver/src/fmc.c:804:26
	ldr	r0, [r0]
	.loc	2 804 10 is_stmt 0              @ ../../CCC_common/Library/StdDriver/src/fmc.c:804:10
	ldr	r1, [sp, #8]
	.loc	2 804 19                        @ ../../CCC_common/Library/StdDriver/src/fmc.c:804:19
	str	r0, [r1]
	b	.LBB14_8
.Ltmp235:
.LBB14_8:
	.loc	2 806 12 is_stmt 1              @ ../../CCC_common/Library/StdDriver/src/fmc.c:806:12
	ldr	r0, [sp, #4]
	.loc	2 806 5 epilogue_begin is_stmt 0 @ ../../CCC_common/Library/StdDriver/src/fmc.c:806:5
	add	sp, #20
	bx	lr
.Ltmp236:
	.loc	2 0 5                           @ :0:5
.Ltmp237:
	.p2align	2
@ %bb.9:
__arm_cp.14_0:
	.long	g_FMC_i32ErrCode
.Lcpi_end81:
	.size	__arm_cp.14_0, .Lcpi_end81-__arm_cp.14_0
__arm_cp.14_1:
	.long	1073790988                      @ 0x4000c00c
.Lcpi_end82:
	.size	__arm_cp.14_1, .Lcpi_end82-__arm_cp.14_1
__arm_cp.14_2:
	.long	1073790980                      @ 0x4000c004
.Lcpi_end83:
	.size	__arm_cp.14_2, .Lcpi_end83-__arm_cp.14_2
__arm_cp.14_3:
	.long	1073790984                      @ 0x4000c008
.Lcpi_end84:
	.size	__arm_cp.14_3, .Lcpi_end84-__arm_cp.14_3
__arm_cp.14_4:
	.long	1073790992                      @ 0x4000c010
.Lcpi_end85:
	.size	__arm_cp.14_4, .Lcpi_end85-__arm_cp.14_4
__arm_cp.14_5:
	.long	SystemCoreClock
.Lcpi_end86:
	.size	__arm_cp.14_5, .Lcpi_end86-__arm_cp.14_5
__arm_cp.14_6:
	.long	1073791040                      @ 0x4000c040
.Lcpi_end87:
	.size	__arm_cp.14_6, .Lcpi_end87-__arm_cp.14_6
__arm_cp.14_7:
	.long	1073791104                      @ 0x4000c080
.Lcpi_end88:
	.size	__arm_cp.14_7, .Lcpi_end88-__arm_cp.14_7
__arm_cp.14_8:
	.long	1073791108                      @ 0x4000c084
.Lcpi_end89:
	.size	__arm_cp.14_8, .Lcpi_end89-__arm_cp.14_8
.Lfunc_end14:
	.size	FMC_Read_64, .Lfunc_end14-FMC_Read_64
	.cfi_endproc
	.cantunwind
	.fnend
                                        @ -- End function
	.section	.text.FMC_Read_OTP,"ax",%progbits
	.hidden	FMC_Read_OTP                    @ -- Begin function FMC_Read_OTP
	.globl	FMC_Read_OTP
	.p2align	2
	.type	FMC_Read_OTP,%function
	.code	16                              @ @FMC_Read_OTP
	.thumb_func
FMC_Read_OTP:
.Lfunc_begin15:
	.loc	2 827 0 is_stmt 1               @ ../../CCC_common/Library/StdDriver/src/fmc.c:827:0
	.fnstart
	.cfi_startproc
@ %bb.0:
	.pad	#20
	sub	sp, #20
	.cfi_def_cfa_offset 20
	str	r0, [sp, #16]
	str	r1, [sp, #12]
	str	r2, [sp, #8]
	movs	r0, #0
.Ltmp238:
	.loc	2 828 14 prologue_end           @ ../../CCC_common/Library/StdDriver/src/fmc.c:828:14
	str	r0, [sp, #4]
	.loc	2 831 22                        @ ../../CCC_common/Library/StdDriver/src/fmc.c:831:22
	ldr	r1, __arm_cp.15_0
	str	r0, [r1]
.Ltmp239:
	.loc	2 833 8                         @ ../../CCC_common/Library/StdDriver/src/fmc.c:833:8
	ldr	r0, [sp, #16]
.Ltmp240:
	.loc	2 833 8 is_stmt 0               @ ../../CCC_common/Library/StdDriver/src/fmc.c:833:8
	lsrs	r0, r0, #8
	cbz	r0, .LBB15_2
	b	.LBB15_1
.LBB15_1:
.Ltmp241:
	.loc	2 835 26 is_stmt 1              @ ../../CCC_common/Library/StdDriver/src/fmc.c:835:26
	ldr	r1, __arm_cp.15_0
	movs	r0, #1
	mvns	r0, r0
	str	r0, [r1]
	.loc	2 836 13                        @ ../../CCC_common/Library/StdDriver/src/fmc.c:836:13
	str	r0, [sp, #4]
	.loc	2 837 5                         @ ../../CCC_common/Library/StdDriver/src/fmc.c:837:5
	b	.LBB15_2
.Ltmp242:
.LBB15_2:
	.loc	2 839 8                         @ ../../CCC_common/Library/StdDriver/src/fmc.c:839:8
	ldr	r0, [sp, #4]
.Ltmp243:
	.loc	2 839 8 is_stmt 0               @ ../../CCC_common/Library/StdDriver/src/fmc.c:839:8
	cmp	r0, #0
	bne	.LBB15_12
	b	.LBB15_3
.LBB15_3:
	.loc	2 0 8                           @ ../../CCC_common/Library/StdDriver/src/fmc.c:0:8
	ldr	r1, __arm_cp.15_1
	movs	r0, #64
.Ltmp244:
	.loc	2 841 21 is_stmt 1              @ ../../CCC_common/Library/StdDriver/src/fmc.c:841:21
	str	r0, [r1]
	.loc	2 842 39                        @ ../../CCC_common/Library/StdDriver/src/fmc.c:842:39
	ldr	r0, [sp, #16]
	.loc	2 842 49 is_stmt 0              @ ../../CCC_common/Library/StdDriver/src/fmc.c:842:49
	lsls	r0, r0, #3
	movs	r1, #49
	lsls	r1, r1, #16
	.loc	2 842 37                        @ ../../CCC_common/Library/StdDriver/src/fmc.c:842:37
	adds	r0, r0, r1
	ldr	r1, __arm_cp.15_2
	.loc	2 842 22                        @ ../../CCC_common/Library/StdDriver/src/fmc.c:842:22
	str	r0, [r1]
	ldr	r1, __arm_cp.15_3
	movs	r0, #0
	.loc	2 843 21 is_stmt 1              @ ../../CCC_common/Library/StdDriver/src/fmc.c:843:21
	str	r0, [r1]
	ldr	r1, __arm_cp.15_4
	movs	r0, #1
	.loc	2 844 21                        @ ../../CCC_common/Library/StdDriver/src/fmc.c:844:21
	str	r0, [r1]
	.loc	2 846 25                        @ ../../CCC_common/Library/StdDriver/src/fmc.c:846:25
	ldr	r0, __arm_cp.15_5
	ldr	r0, [r0]
	lsrs	r0, r0, #3
	.loc	2 846 23 is_stmt 0              @ ../../CCC_common/Library/StdDriver/src/fmc.c:846:23
	str	r0, [sp]
	.loc	2 847 9 is_stmt 1               @ ../../CCC_common/Library/StdDriver/src/fmc.c:847:9
	b	.LBB15_4
.LBB15_4:                               @ =>This Inner Loop Header: Depth=1
	.loc	2 0 9 is_stmt 0                 @ ../../CCC_common/Library/StdDriver/src/fmc.c:0:9
	ldr	r0, __arm_cp.15_6
	.loc	2 847 20                        @ ../../CCC_common/Library/StdDriver/src/fmc.c:847:20
	ldr	r0, [r0]
	.loc	2 847 9                         @ ../../CCC_common/Library/StdDriver/src/fmc.c:847:9
	lsls	r0, r0, #31
	cbz	r0, .LBB15_8
	b	.LBB15_5
.LBB15_5:                               @   in Loop: Header=BB15_4 Depth=1
.Ltmp245:
	.loc	2 849 30 is_stmt 1              @ ../../CCC_common/Library/StdDriver/src/fmc.c:849:30
	ldr	r0, [sp]
	subs	r1, r0, #1
	str	r1, [sp]
.Ltmp246:
	.loc	2 849 17 is_stmt 0              @ ../../CCC_common/Library/StdDriver/src/fmc.c:849:17
	cmp	r0, #0
	bgt	.LBB15_7
	b	.LBB15_6
.LBB15_6:
.Ltmp247:
	.loc	2 851 34 is_stmt 1              @ ../../CCC_common/Library/StdDriver/src/fmc.c:851:34
	ldr	r1, __arm_cp.15_0
	movs	r0, #0
	mvns	r0, r0
	str	r0, [r1]
	.loc	2 852 21                        @ ../../CCC_common/Library/StdDriver/src/fmc.c:852:21
	str	r0, [sp, #4]
	.loc	2 853 17                        @ ../../CCC_common/Library/StdDriver/src/fmc.c:853:17
	b	.LBB15_8
.Ltmp248:
.LBB15_7:                               @   in Loop: Header=BB15_4 Depth=1
	.loc	2 847 9                         @ ../../CCC_common/Library/StdDriver/src/fmc.c:847:9
	b	.LBB15_4
.LBB15_8:
	.loc	2 0 9 is_stmt 0                 @ ../../CCC_common/Library/StdDriver/src/fmc.c:0:9
	ldr	r0, __arm_cp.15_6
.Ltmp249:
	.loc	2 857 17 is_stmt 1              @ ../../CCC_common/Library/StdDriver/src/fmc.c:857:17
	ldr	r0, [r0]
.Ltmp250:
	.loc	2 857 12 is_stmt 0              @ ../../CCC_common/Library/StdDriver/src/fmc.c:857:12
	lsls	r0, r0, #25
	cmp	r0, #0
	bpl	.LBB15_10
	b	.LBB15_9
.LBB15_9:
	.loc	2 0 12                          @ ../../CCC_common/Library/StdDriver/src/fmc.c:0:12
	ldr	r1, __arm_cp.15_6
.Ltmp251:
	.loc	2 859 25 is_stmt 1              @ ../../CCC_common/Library/StdDriver/src/fmc.c:859:25
	ldr	r0, [r1]
	movs	r2, #64
	orrs	r0, r2
	str	r0, [r1]
	.loc	2 860 30                        @ ../../CCC_common/Library/StdDriver/src/fmc.c:860:30
	ldr	r1, __arm_cp.15_0
	movs	r0, #0
	mvns	r0, r0
	str	r0, [r1]
	.loc	2 861 17                        @ ../../CCC_common/Library/StdDriver/src/fmc.c:861:17
	str	r0, [sp, #4]
	.loc	2 862 9                         @ ../../CCC_common/Library/StdDriver/src/fmc.c:862:9
	b	.LBB15_11
.Ltmp252:
.LBB15_10:
	.loc	2 0 9 is_stmt 0                 @ ../../CCC_common/Library/StdDriver/src/fmc.c:0:9
	ldr	r0, __arm_cp.15_7
.Ltmp253:
	.loc	2 865 32 is_stmt 1              @ ../../CCC_common/Library/StdDriver/src/fmc.c:865:32
	ldr	r0, [r0]
	.loc	2 865 14 is_stmt 0              @ ../../CCC_common/Library/StdDriver/src/fmc.c:865:14
	ldr	r1, [sp, #12]
	.loc	2 865 25                        @ ../../CCC_common/Library/StdDriver/src/fmc.c:865:25
	str	r0, [r1]
	ldr	r0, __arm_cp.15_8
	.loc	2 866 33 is_stmt 1              @ ../../CCC_common/Library/StdDriver/src/fmc.c:866:33
	ldr	r0, [r0]
	.loc	2 866 14 is_stmt 0              @ ../../CCC_common/Library/StdDriver/src/fmc.c:866:14
	ldr	r1, [sp, #8]
	.loc	2 866 26                        @ ../../CCC_common/Library/StdDriver/src/fmc.c:866:26
	str	r0, [r1]
	b	.LBB15_11
.Ltmp254:
.LBB15_11:
	.loc	2 868 5 is_stmt 1               @ ../../CCC_common/Library/StdDriver/src/fmc.c:868:5
	b	.LBB15_12
.Ltmp255:
.LBB15_12:
	.loc	2 869 12                        @ ../../CCC_common/Library/StdDriver/src/fmc.c:869:12
	ldr	r0, [sp, #4]
	.loc	2 869 5 epilogue_begin is_stmt 0 @ ../../CCC_common/Library/StdDriver/src/fmc.c:869:5
	add	sp, #20
	bx	lr
.Ltmp256:
	.loc	2 0 5                           @ :0:5
.Ltmp257:
	.p2align	2
@ %bb.13:
__arm_cp.15_0:
	.long	g_FMC_i32ErrCode
.Lcpi_end90:
	.size	__arm_cp.15_0, .Lcpi_end90-__arm_cp.15_0
__arm_cp.15_1:
	.long	1073790988                      @ 0x4000c00c
.Lcpi_end91:
	.size	__arm_cp.15_1, .Lcpi_end91-__arm_cp.15_1
__arm_cp.15_2:
	.long	1073790980                      @ 0x4000c004
.Lcpi_end92:
	.size	__arm_cp.15_2, .Lcpi_end92-__arm_cp.15_2
__arm_cp.15_3:
	.long	1073790984                      @ 0x4000c008
.Lcpi_end93:
	.size	__arm_cp.15_3, .Lcpi_end93-__arm_cp.15_3
__arm_cp.15_4:
	.long	1073790992                      @ 0x4000c010
.Lcpi_end94:
	.size	__arm_cp.15_4, .Lcpi_end94-__arm_cp.15_4
__arm_cp.15_5:
	.long	SystemCoreClock
.Lcpi_end95:
	.size	__arm_cp.15_5, .Lcpi_end95-__arm_cp.15_5
__arm_cp.15_6:
	.long	1073791040                      @ 0x4000c040
.Lcpi_end96:
	.size	__arm_cp.15_6, .Lcpi_end96-__arm_cp.15_6
__arm_cp.15_7:
	.long	1073791104                      @ 0x4000c080
.Lcpi_end97:
	.size	__arm_cp.15_7, .Lcpi_end97-__arm_cp.15_7
__arm_cp.15_8:
	.long	1073791108                      @ 0x4000c084
.Lcpi_end98:
	.size	__arm_cp.15_8, .Lcpi_end98-__arm_cp.15_8
.Lfunc_end15:
	.size	FMC_Read_OTP, .Lfunc_end15-FMC_Read_OTP
	.cfi_endproc
	.cantunwind
	.fnend
                                        @ -- End function
	.section	.text.FMC_ReadConfig,"ax",%progbits
	.hidden	FMC_ReadConfig                  @ -- Begin function FMC_ReadConfig
	.globl	FMC_ReadConfig
	.p2align	2
	.type	FMC_ReadConfig,%function
	.code	16                              @ @FMC_ReadConfig
	.thumb_func
FMC_ReadConfig:
.Lfunc_begin16:
	.loc	2 890 0 is_stmt 1               @ ../../CCC_common/Library/StdDriver/src/fmc.c:890:0
	.fnstart
	.cfi_startproc
@ %bb.0:
	.save	{r7, lr}
	push	{r7, lr}
	.cfi_def_cfa_offset 8
	.cfi_offset lr, -4
	.cfi_offset r7, -8
	.pad	#16
	sub	sp, #16
	.cfi_def_cfa_offset 24
	str	r0, [sp, #12]
	str	r1, [sp, #8]
	movs	r0, #0
.Ltmp258:
	.loc	2 892 13 prologue_end           @ ../../CCC_common/Library/StdDriver/src/fmc.c:892:13
	str	r0, [sp]
.Ltmp259:
	.loc	2 894 11                        @ ../../CCC_common/Library/StdDriver/src/fmc.c:894:11
	str	r0, [sp, #4]
	.loc	2 894 9 is_stmt 0               @ ../../CCC_common/Library/StdDriver/src/fmc.c:894:9
	b	.LBB16_1
.LBB16_1:                               @ =>This Inner Loop Header: Depth=1
.Ltmp260:
	.loc	2 894 17                        @ ../../CCC_common/Library/StdDriver/src/fmc.c:894:17
	ldr	r0, [sp, #4]
	.loc	2 894 21                        @ ../../CCC_common/Library/StdDriver/src/fmc.c:894:21
	ldr	r1, [sp, #8]
.Ltmp261:
	.loc	2 894 5                         @ ../../CCC_common/Library/StdDriver/src/fmc.c:894:5
	cmp	r0, r1
	bhs	.LBB16_4
	b	.LBB16_2
.LBB16_2:                               @   in Loop: Header=BB16_1 Depth=1
.Ltmp262:
	.loc	2 896 51 is_stmt 1              @ ../../CCC_common/Library/StdDriver/src/fmc.c:896:51
	ldr	r0, [sp, #4]
	.loc	2 896 53 is_stmt 0              @ ../../CCC_common/Library/StdDriver/src/fmc.c:896:53
	lsls	r0, r0, #2
	movs	r1, #3
	lsls	r1, r1, #20
	.loc	2 896 49                        @ ../../CCC_common/Library/StdDriver/src/fmc.c:896:49
	adds	r0, r0, r1
	.loc	2 896 24                        @ ../../CCC_common/Library/StdDriver/src/fmc.c:896:24
	bl	FMC_Read
	.loc	2 896 9                         @ ../../CCC_common/Library/StdDriver/src/fmc.c:896:9
	ldr	r1, [sp, #12]
	.loc	2 896 19                        @ ../../CCC_common/Library/StdDriver/src/fmc.c:896:19
	ldr	r2, [sp, #4]
	.loc	2 896 9                         @ ../../CCC_common/Library/StdDriver/src/fmc.c:896:9
	lsls	r2, r2, #2
	.loc	2 896 22                        @ ../../CCC_common/Library/StdDriver/src/fmc.c:896:22
	str	r0, [r1, r2]
	.loc	2 897 5 is_stmt 1               @ ../../CCC_common/Library/StdDriver/src/fmc.c:897:5
	b	.LBB16_3
.Ltmp263:
.LBB16_3:                               @   in Loop: Header=BB16_1 Depth=1
	.loc	2 894 32                        @ ../../CCC_common/Library/StdDriver/src/fmc.c:894:32
	ldr	r0, [sp, #4]
	adds	r0, r0, #1
	str	r0, [sp, #4]
	.loc	2 894 5 is_stmt 0               @ ../../CCC_common/Library/StdDriver/src/fmc.c:894:5
	b	.LBB16_1
.Ltmp264:
.LBB16_4:
	.loc	2 899 9 is_stmt 1               @ ../../CCC_common/Library/StdDriver/src/fmc.c:899:9
	ldr	r0, __arm_cp.16_0
	ldr	r0, [r0]
.Ltmp265:
	.loc	2 899 9 is_stmt 0               @ ../../CCC_common/Library/StdDriver/src/fmc.c:899:9
	cbz	r0, .LBB16_6
	b	.LBB16_5
.LBB16_5:
.Ltmp266:
	.loc	2 899 38                        @ ../../CCC_common/Library/StdDriver/src/fmc.c:899:38
	ldr	r0, __arm_cp.16_0
	ldr	r0, [r0]
	.loc	2 899 36                        @ ../../CCC_common/Library/StdDriver/src/fmc.c:899:36
	str	r0, [sp]
	.loc	2 899 32                        @ ../../CCC_common/Library/StdDriver/src/fmc.c:899:32
	b	.LBB16_6
.Ltmp267:
.LBB16_6:
	.loc	2 901 12 is_stmt 1              @ ../../CCC_common/Library/StdDriver/src/fmc.c:901:12
	ldr	r0, [sp]
	.loc	2 901 5 epilogue_begin is_stmt 0 @ ../../CCC_common/Library/StdDriver/src/fmc.c:901:5
	add	sp, #16
	pop	{r7, pc}
.Ltmp268:
	.loc	2 0 5                           @ :0:5
.Ltmp269:
	.p2align	2
@ %bb.7:
__arm_cp.16_0:
	.long	g_FMC_i32ErrCode
.Lcpi_end99:
	.size	__arm_cp.16_0, .Lcpi_end99-__arm_cp.16_0
.Lfunc_end16:
	.size	FMC_ReadConfig, .Lfunc_end16-FMC_ReadConfig
	.cfi_endproc
	.cantunwind
	.fnend
                                        @ -- End function
	.section	.text.FMC_SetBootSource,"ax",%progbits
	.hidden	FMC_SetBootSource               @ -- Begin function FMC_SetBootSource
	.globl	FMC_SetBootSource
	.p2align	2
	.type	FMC_SetBootSource,%function
	.code	16                              @ @FMC_SetBootSource
	.thumb_func
FMC_SetBootSource:
.Lfunc_begin17:
	.loc	2 919 0 is_stmt 1               @ ../../CCC_common/Library/StdDriver/src/fmc.c:919:0
	.fnstart
	.cfi_startproc
@ %bb.0:
	.pad	#4
	sub	sp, #4
	.cfi_def_cfa_offset 4
	str	r0, [sp]
.Ltmp270:
	.loc	2 920 8 prologue_end            @ ../../CCC_common/Library/StdDriver/src/fmc.c:920:8
	ldr	r0, [sp]
.Ltmp271:
	.loc	2 920 8 is_stmt 0               @ ../../CCC_common/Library/StdDriver/src/fmc.c:920:8
	cbz	r0, .LBB17_2
	b	.LBB17_1
.LBB17_1:
	.loc	2 0 8                           @ ../../CCC_common/Library/StdDriver/src/fmc.c:0:8
	ldr	r1, __arm_cp.17_0
.Ltmp272:
	.loc	2 922 21 is_stmt 1              @ ../../CCC_common/Library/StdDriver/src/fmc.c:922:21
	ldr	r0, [r1]
	movs	r2, #2
	orrs	r0, r2
	str	r0, [r1]
	.loc	2 923 5                         @ ../../CCC_common/Library/StdDriver/src/fmc.c:923:5
	b	.LBB17_3
.Ltmp273:
.LBB17_2:
	.loc	2 0 5 is_stmt 0                 @ ../../CCC_common/Library/StdDriver/src/fmc.c:0:5
	ldr	r1, __arm_cp.17_0
.Ltmp274:
	.loc	2 926 21 is_stmt 1              @ ../../CCC_common/Library/StdDriver/src/fmc.c:926:21
	ldr	r0, [r1]
	movs	r2, #2
	bics	r0, r2
	str	r0, [r1]
	b	.LBB17_3
.Ltmp275:
.LBB17_3:
	.loc	2 928 1 epilogue_begin          @ ../../CCC_common/Library/StdDriver/src/fmc.c:928:1
	add	sp, #4
	bx	lr
.Ltmp276:
	.loc	2 0 1 is_stmt 0                 @ :0:1
.Ltmp277:
	.p2align	2
@ %bb.4:
__arm_cp.17_0:
	.long	1073790976                      @ 0x4000c000
.Lcpi_end100:
	.size	__arm_cp.17_0, .Lcpi_end100-__arm_cp.17_0
.Lfunc_end17:
	.size	FMC_SetBootSource, .Lfunc_end17-FMC_SetBootSource
	.cfi_endproc
	.cantunwind
	.fnend
                                        @ -- End function
	.section	.text.FMC_CompareSPKey,"ax",%progbits
	.hidden	FMC_CompareSPKey                @ -- Begin function FMC_CompareSPKey
	.globl	FMC_CompareSPKey
	.p2align	2
	.type	FMC_CompareSPKey,%function
	.code	16                              @ @FMC_CompareSPKey
	.thumb_func
FMC_CompareSPKey:
.Lfunc_begin18:
	.loc	2 948 0 is_stmt 1               @ ../../CCC_common/Library/StdDriver/src/fmc.c:948:0
	.fnstart
	.cfi_startproc
@ %bb.0:
	.pad	#16
	sub	sp, #16
	.cfi_def_cfa_offset 16
	str	r0, [sp, #12]
	movs	r0, #0
.Ltmp278:
	.loc	2 950 15 prologue_end           @ ../../CCC_common/Library/StdDriver/src/fmc.c:950:15
	str	r0, [sp, #4]
	.loc	2 952 22                        @ ../../CCC_common/Library/StdDriver/src/fmc.c:952:22
	ldr	r1, __arm_cp.18_0
	str	r0, [r1]
	ldr	r0, __arm_cp.18_1
.Ltmp279:
	.loc	2 954 13                        @ ../../CCC_common/Library/StdDriver/src/fmc.c:954:13
	ldr	r0, [r0]
.Ltmp280:
	.loc	2 954 8 is_stmt 0               @ ../../CCC_common/Library/StdDriver/src/fmc.c:954:8
	lsls	r0, r0, #28
	cmp	r0, #0
	bpl	.LBB18_2
	b	.LBB18_1
.LBB18_1:
	.loc	2 0 8                           @ ../../CCC_common/Library/StdDriver/src/fmc.c:0:8
	movs	r0, #1
	mvns	r0, r0
.Ltmp281:
	.loc	2 957 13 is_stmt 1              @ ../../CCC_common/Library/StdDriver/src/fmc.c:957:13
	str	r0, [sp, #4]
	.loc	2 958 5                         @ ../../CCC_common/Library/StdDriver/src/fmc.c:958:5
	b	.LBB18_2
.Ltmp282:
.LBB18_2:
	.loc	2 0 5 is_stmt 0                 @ ../../CCC_common/Library/StdDriver/src/fmc.c:0:5
	ldr	r0, __arm_cp.18_1
.Ltmp283:
	.loc	2 960 15 is_stmt 1              @ ../../CCC_common/Library/StdDriver/src/fmc.c:960:15
	ldr	r0, [r0]
.Ltmp284:
	.loc	2 960 8 is_stmt 0               @ ../../CCC_common/Library/StdDriver/src/fmc.c:960:8
	lsls	r0, r0, #30
	cmp	r0, #0
	bmi	.LBB18_4
	b	.LBB18_3
.LBB18_3:
	.loc	2 0 8                           @ ../../CCC_common/Library/StdDriver/src/fmc.c:0:8
	movs	r0, #3
	mvns	r0, r0
.Ltmp285:
	.loc	2 963 13 is_stmt 1              @ ../../CCC_common/Library/StdDriver/src/fmc.c:963:13
	str	r0, [sp, #4]
	.loc	2 964 5                         @ ../../CCC_common/Library/StdDriver/src/fmc.c:964:5
	b	.LBB18_4
.Ltmp286:
.LBB18_4:
	.loc	2 966 8                         @ ../../CCC_common/Library/StdDriver/src/fmc.c:966:8
	ldr	r0, [sp, #4]
.Ltmp287:
	.loc	2 966 8 is_stmt 0               @ ../../CCC_common/Library/StdDriver/src/fmc.c:966:8
	cbnz	r0, .LBB18_16
	b	.LBB18_5
.LBB18_5:
.Ltmp288:
	.loc	2 968 23 is_stmt 1              @ ../../CCC_common/Library/StdDriver/src/fmc.c:968:23
	ldr	r0, [sp, #12]
	ldr	r0, [r0]
	ldr	r1, __arm_cp.18_2
	.loc	2 968 21 is_stmt 0              @ ../../CCC_common/Library/StdDriver/src/fmc.c:968:21
	str	r0, [r1]
	.loc	2 969 23 is_stmt 1              @ ../../CCC_common/Library/StdDriver/src/fmc.c:969:23
	ldr	r0, [sp, #12]
	ldr	r0, [r0, #4]
	ldr	r1, __arm_cp.18_3
	.loc	2 969 21 is_stmt 0              @ ../../CCC_common/Library/StdDriver/src/fmc.c:969:21
	str	r0, [r1]
	.loc	2 970 23 is_stmt 1              @ ../../CCC_common/Library/StdDriver/src/fmc.c:970:23
	ldr	r0, [sp, #12]
	ldr	r0, [r0, #8]
	ldr	r1, __arm_cp.18_4
	.loc	2 970 21 is_stmt 0              @ ../../CCC_common/Library/StdDriver/src/fmc.c:970:21
	str	r0, [r1]
	ldr	r1, __arm_cp.18_5
	movs	r0, #3
	.loc	2 971 23 is_stmt 1              @ ../../CCC_common/Library/StdDriver/src/fmc.c:971:23
	str	r0, [r1]
	.loc	2 973 25                        @ ../../CCC_common/Library/StdDriver/src/fmc.c:973:25
	ldr	r0, __arm_cp.18_6
	ldr	r0, [r0]
	lsrs	r0, r0, #3
	.loc	2 973 23 is_stmt 0              @ ../../CCC_common/Library/StdDriver/src/fmc.c:973:23
	str	r0, [sp]
	.loc	2 974 9 is_stmt 1               @ ../../CCC_common/Library/StdDriver/src/fmc.c:974:9
	b	.LBB18_6
.LBB18_6:                               @ =>This Inner Loop Header: Depth=1
	.loc	2 0 9 is_stmt 0                 @ ../../CCC_common/Library/StdDriver/src/fmc.c:0:9
	ldr	r0, __arm_cp.18_1
	.loc	2 974 20                        @ ../../CCC_common/Library/StdDriver/src/fmc.c:974:20
	ldr	r0, [r0]
	.loc	2 974 9                         @ ../../CCC_common/Library/StdDriver/src/fmc.c:974:9
	lsls	r0, r0, #31
	cbz	r0, .LBB18_10
	b	.LBB18_7
.LBB18_7:                               @   in Loop: Header=BB18_6 Depth=1
.Ltmp289:
	.loc	2 976 30 is_stmt 1              @ ../../CCC_common/Library/StdDriver/src/fmc.c:976:30
	ldr	r0, [sp]
	subs	r1, r0, #1
	str	r1, [sp]
.Ltmp290:
	.loc	2 976 17 is_stmt 0              @ ../../CCC_common/Library/StdDriver/src/fmc.c:976:17
	cmp	r0, #0
	bgt	.LBB18_9
	b	.LBB18_8
.LBB18_8:
	.loc	2 0 17                          @ ../../CCC_common/Library/StdDriver/src/fmc.c:0:17
	movs	r0, #0
	mvns	r0, r0
.Ltmp291:
	.loc	2 978 21 is_stmt 1              @ ../../CCC_common/Library/StdDriver/src/fmc.c:978:21
	str	r0, [sp, #4]
	.loc	2 979 17                        @ ../../CCC_common/Library/StdDriver/src/fmc.c:979:17
	b	.LBB18_10
.Ltmp292:
.LBB18_9:                               @   in Loop: Header=BB18_6 Depth=1
	.loc	2 974 9                         @ ../../CCC_common/Library/StdDriver/src/fmc.c:974:9
	b	.LBB18_6
.LBB18_10:
	.loc	2 0 9 is_stmt 0                 @ ../../CCC_common/Library/StdDriver/src/fmc.c:0:9
	ldr	r0, __arm_cp.18_1
	.loc	2 983 26 is_stmt 1              @ ../../CCC_common/Library/StdDriver/src/fmc.c:983:26
	ldr	r0, [r0]
	.loc	2 983 19 is_stmt 0              @ ../../CCC_common/Library/StdDriver/src/fmc.c:983:19
	str	r0, [sp, #8]
	add	r0, sp, #8
	.loc	2 985 12 is_stmt 1              @ ../../CCC_common/Library/StdDriver/src/fmc.c:985:12
	ldrb	r0, [r0]
	lsls	r0, r0, #29
	cmp	r0, #0
	bmi	.LBB18_12
	b	.LBB18_11
.LBB18_11:
	.loc	2 0 12 is_stmt 0                @ ../../CCC_common/Library/StdDriver/src/fmc.c:0:12
	movs	r0, #2
	mvns	r0, r0
.Ltmp293:
	.loc	2 988 17 is_stmt 1              @ ../../CCC_common/Library/StdDriver/src/fmc.c:988:17
	str	r0, [sp, #4]
	.loc	2 989 9                         @ ../../CCC_common/Library/StdDriver/src/fmc.c:989:9
	b	.LBB18_15
.Ltmp294:
.LBB18_12:
	.loc	2 0 9 is_stmt 0                 @ ../../CCC_common/Library/StdDriver/src/fmc.c:0:9
	add	r0, sp, #8
	.loc	2 990 17 is_stmt 1              @ ../../CCC_common/Library/StdDriver/src/fmc.c:990:17
	ldrb	r0, [r0]
	lsls	r0, r0, #30
	cmp	r0, #0
	bpl	.LBB18_14
	b	.LBB18_13
.LBB18_13:
	.loc	2 0 17 is_stmt 0                @ ../../CCC_common/Library/StdDriver/src/fmc.c:0:17
	movs	r0, #4
	mvns	r0, r0
.Ltmp295:
	.loc	2 993 17 is_stmt 1              @ ../../CCC_common/Library/StdDriver/src/fmc.c:993:17
	str	r0, [sp, #4]
	.loc	2 994 9                         @ ../../CCC_common/Library/StdDriver/src/fmc.c:994:9
	b	.LBB18_14
.Ltmp296:
.LBB18_14:
	.loc	2 0 9 is_stmt 0                 @ ../../CCC_common/Library/StdDriver/src/fmc.c:0:9
	b	.LBB18_15
.LBB18_15:
	.loc	2 995 5 is_stmt 1               @ ../../CCC_common/Library/StdDriver/src/fmc.c:995:5
	b	.LBB18_16
.Ltmp297:
.LBB18_16:
	.loc	2 997 24                        @ ../../CCC_common/Library/StdDriver/src/fmc.c:997:24
	ldr	r0, [sp, #4]
	.loc	2 997 22 is_stmt 0              @ ../../CCC_common/Library/StdDriver/src/fmc.c:997:22
	ldr	r1, __arm_cp.18_0
	str	r0, [r1]
	.loc	2 999 12 is_stmt 1              @ ../../CCC_common/Library/StdDriver/src/fmc.c:999:12
	ldr	r0, [sp, #4]
	.loc	2 999 5 epilogue_begin is_stmt 0 @ ../../CCC_common/Library/StdDriver/src/fmc.c:999:5
	add	sp, #16
	bx	lr
.Ltmp298:
	.loc	2 0 5                           @ :0:5
.Ltmp299:
	.p2align	2
@ %bb.17:
__arm_cp.18_0:
	.long	g_FMC_i32ErrCode
.Lcpi_end101:
	.size	__arm_cp.18_0, .Lcpi_end101-__arm_cp.18_0
__arm_cp.18_1:
	.long	1073791072                      @ 0x4000c060
.Lcpi_end102:
	.size	__arm_cp.18_1, .Lcpi_end102-__arm_cp.18_1
__arm_cp.18_2:
	.long	1073791056                      @ 0x4000c050
.Lcpi_end103:
	.size	__arm_cp.18_2, .Lcpi_end103-__arm_cp.18_2
__arm_cp.18_3:
	.long	1073791060                      @ 0x4000c054
.Lcpi_end104:
	.size	__arm_cp.18_3, .Lcpi_end104-__arm_cp.18_3
__arm_cp.18_4:
	.long	1073791064                      @ 0x4000c058
.Lcpi_end105:
	.size	__arm_cp.18_4, .Lcpi_end105-__arm_cp.18_4
__arm_cp.18_5:
	.long	1073791068                      @ 0x4000c05c
.Lcpi_end106:
	.size	__arm_cp.18_5, .Lcpi_end106-__arm_cp.18_5
__arm_cp.18_6:
	.long	SystemCoreClock
.Lcpi_end107:
	.size	__arm_cp.18_6, .Lcpi_end107-__arm_cp.18_6
.Lfunc_end18:
	.size	FMC_CompareSPKey, .Lfunc_end18-FMC_CompareSPKey
	.cfi_endproc
	.cantunwind
	.fnend
                                        @ -- End function
	.section	.text.FMC_SetSPKey,"ax",%progbits
	.hidden	FMC_SetSPKey                    @ -- Begin function FMC_SetSPKey
	.globl	FMC_SetSPKey
	.p2align	2
	.type	FMC_SetSPKey,%function
	.code	16                              @ @FMC_SetSPKey
	.thumb_func
FMC_SetSPKey:
.Lfunc_begin19:
	.loc	2 1028 0 is_stmt 1              @ ../../CCC_common/Library/StdDriver/src/fmc.c:1028:0
	.fnstart
	.cfi_startproc
@ %bb.0:
	.save	{r4, lr}
	push	{r4, lr}
	.cfi_def_cfa_offset 8
	.cfi_offset lr, -4
	.cfi_offset r4, -8
	.pad	#32
	sub	sp, #32
	.cfi_def_cfa_offset 40
	ldr	r4, [sp, #40]
	str	r0, [sp, #28]
	str	r1, [sp, #24]
	str	r2, [sp, #20]
	str	r3, [sp, #16]
	movs	r0, #0
.Ltmp300:
	.loc	2 1029 15 prologue_end          @ ../../CCC_common/Library/StdDriver/src/fmc.c:1029:15
	str	r0, [sp, #12]
	.loc	2 1031 15                       @ ../../CCC_common/Library/StdDriver/src/fmc.c:1031:15
	str	r0, [sp, #4]
	ldr	r0, __arm_cp.19_0
.Ltmp301:
	.loc	2 1033 13                       @ ../../CCC_common/Library/StdDriver/src/fmc.c:1033:13
	ldr	r0, [r0]
	movw	r1, #512
.Ltmp302:
	.loc	2 1033 8 is_stmt 0              @ ../../CCC_common/Library/StdDriver/src/fmc.c:1033:8
	cmp	r0, r1
	beq	.LBB19_2
	b	.LBB19_1
.LBB19_1:
	.loc	2 0 8                           @ ../../CCC_common/Library/StdDriver/src/fmc.c:0:8
	movs	r0, #0
	mvns	r0, r0
.Ltmp303:
	.loc	2 1035 13 is_stmt 1             @ ../../CCC_common/Library/StdDriver/src/fmc.c:1035:13
	str	r0, [sp, #4]
	.loc	2 1036 5                        @ ../../CCC_common/Library/StdDriver/src/fmc.c:1036:5
	b	.LBB19_2
.Ltmp304:
.LBB19_2:
	.loc	2 0 5 is_stmt 0                 @ ../../CCC_common/Library/StdDriver/src/fmc.c:0:5
	ldr	r0, __arm_cp.19_1
.Ltmp305:
	.loc	2 1038 8 is_stmt 1              @ ../../CCC_common/Library/StdDriver/src/fmc.c:1038:8
	bl	FMC_Erase
.Ltmp306:
	.loc	2 1038 8 is_stmt 0              @ ../../CCC_common/Library/StdDriver/src/fmc.c:1038:8
	cbz	r0, .LBB19_4
	b	.LBB19_3
.LBB19_3:
	.loc	2 0 8                           @ ../../CCC_common/Library/StdDriver/src/fmc.c:0:8
	movs	r0, #1
	mvns	r0, r0
.Ltmp307:
	.loc	2 1040 13 is_stmt 1             @ ../../CCC_common/Library/StdDriver/src/fmc.c:1040:13
	str	r0, [sp, #4]
	.loc	2 1041 5                        @ ../../CCC_common/Library/StdDriver/src/fmc.c:1041:5
	b	.LBB19_4
.Ltmp308:
.LBB19_4:
	.loc	2 0 5 is_stmt 0                 @ ../../CCC_common/Library/StdDriver/src/fmc.c:0:5
	ldr	r0, __arm_cp.19_2
.Ltmp309:
	.loc	2 1043 8 is_stmt 1              @ ../../CCC_common/Library/StdDriver/src/fmc.c:1043:8
	bl	FMC_Erase
.Ltmp310:
	.loc	2 1043 8 is_stmt 0              @ ../../CCC_common/Library/StdDriver/src/fmc.c:1043:8
	cbz	r0, .LBB19_6
	b	.LBB19_5
.LBB19_5:
	.loc	2 0 8                           @ ../../CCC_common/Library/StdDriver/src/fmc.c:0:8
	movs	r0, #2
	mvns	r0, r0
.Ltmp311:
	.loc	2 1045 13 is_stmt 1             @ ../../CCC_common/Library/StdDriver/src/fmc.c:1045:13
	str	r0, [sp, #4]
	.loc	2 1046 5                        @ ../../CCC_common/Library/StdDriver/src/fmc.c:1046:5
	b	.LBB19_6
.Ltmp312:
.LBB19_6:
	.loc	2 1048 9                        @ ../../CCC_common/Library/StdDriver/src/fmc.c:1048:9
	ldr	r0, [sp, #16]
.Ltmp313:
	.loc	2 1048 8 is_stmt 0              @ ../../CCC_common/Library/StdDriver/src/fmc.c:1048:8
	cbnz	r0, .LBB19_8
	b	.LBB19_7
.LBB19_7:
.Ltmp314:
	.loc	2 1050 19 is_stmt 1             @ ../../CCC_common/Library/StdDriver/src/fmc.c:1050:19
	ldr	r0, [sp, #12]
	movs	r1, #1
	orrs	r0, r1
	str	r0, [sp, #12]
	.loc	2 1051 5                        @ ../../CCC_common/Library/StdDriver/src/fmc.c:1051:5
	b	.LBB19_8
.Ltmp315:
.LBB19_8:
	.loc	2 1053 9                        @ ../../CCC_common/Library/StdDriver/src/fmc.c:1053:9
	ldr	r0, [sp, #40]
.Ltmp316:
	.loc	2 1053 8 is_stmt 0              @ ../../CCC_common/Library/StdDriver/src/fmc.c:1053:8
	cbnz	r0, .LBB19_10
	b	.LBB19_9
.LBB19_9:
.Ltmp317:
	.loc	2 1055 19 is_stmt 1             @ ../../CCC_common/Library/StdDriver/src/fmc.c:1055:19
	ldr	r0, [sp, #12]
	movs	r1, #2
	orrs	r0, r1
	str	r0, [sp, #12]
	.loc	2 1056 5                        @ ../../CCC_common/Library/StdDriver/src/fmc.c:1056:5
	b	.LBB19_10
.Ltmp318:
.LBB19_10:
	.loc	2 1058 8                        @ ../../CCC_common/Library/StdDriver/src/fmc.c:1058:8
	ldr	r0, [sp, #4]
.Ltmp319:
	.loc	2 1058 8 is_stmt 0              @ ../../CCC_common/Library/StdDriver/src/fmc.c:1058:8
	cmp	r0, #0
	bne	.LBB19_31
	b	.LBB19_11
.LBB19_11:
.Ltmp320:
	.loc	2 1060 35 is_stmt 1             @ ../../CCC_common/Library/StdDriver/src/fmc.c:1060:35
	ldr	r0, [sp, #28]
	ldr	r1, [r0]
	ldr	r0, __arm_cp.19_1
	.loc	2 1060 9 is_stmt 0              @ ../../CCC_common/Library/StdDriver/src/fmc.c:1060:9
	bl	FMC_Write
	.loc	2 1061 43 is_stmt 1             @ ../../CCC_common/Library/StdDriver/src/fmc.c:1061:43
	ldr	r0, [sp, #28]
	ldr	r1, [r0, #4]
	ldr	r0, __arm_cp.19_3
	.loc	2 1061 9 is_stmt 0              @ ../../CCC_common/Library/StdDriver/src/fmc.c:1061:9
	bl	FMC_Write
	.loc	2 1062 43 is_stmt 1             @ ../../CCC_common/Library/StdDriver/src/fmc.c:1062:43
	ldr	r0, [sp, #28]
	ldr	r1, [r0, #8]
	ldr	r0, __arm_cp.19_4
	.loc	2 1062 9 is_stmt 0              @ ../../CCC_common/Library/StdDriver/src/fmc.c:1062:9
	bl	FMC_Write
	.loc	2 1063 43 is_stmt 1             @ ../../CCC_common/Library/StdDriver/src/fmc.c:1063:43
	ldr	r1, [sp, #24]
	ldr	r0, __arm_cp.19_5
	.loc	2 1063 9 is_stmt 0              @ ../../CCC_common/Library/StdDriver/src/fmc.c:1063:9
	bl	FMC_Write
	.loc	2 1064 44 is_stmt 1             @ ../../CCC_common/Library/StdDriver/src/fmc.c:1064:44
	ldr	r1, [sp, #20]
	ldr	r0, __arm_cp.19_6
	.loc	2 1064 9 is_stmt 0              @ ../../CCC_common/Library/StdDriver/src/fmc.c:1064:9
	bl	FMC_Write
	.loc	2 1065 44 is_stmt 1             @ ../../CCC_common/Library/StdDriver/src/fmc.c:1065:44
	ldr	r1, [sp, #12]
	ldr	r0, __arm_cp.19_7
	.loc	2 1065 9 is_stmt 0              @ ../../CCC_common/Library/StdDriver/src/fmc.c:1065:9
	bl	FMC_Write
	.loc	2 1067 25 is_stmt 1             @ ../../CCC_common/Library/StdDriver/src/fmc.c:1067:25
	ldr	r0, __arm_cp.19_8
	ldr	r0, [r0]
	lsrs	r0, r0, #3
	.loc	2 1067 23 is_stmt 0             @ ../../CCC_common/Library/StdDriver/src/fmc.c:1067:23
	str	r0, [sp]
	.loc	2 1068 9 is_stmt 1              @ ../../CCC_common/Library/StdDriver/src/fmc.c:1068:9
	b	.LBB19_12
.LBB19_12:                              @ =>This Inner Loop Header: Depth=1
	.loc	2 0 9 is_stmt 0                 @ ../../CCC_common/Library/StdDriver/src/fmc.c:0:9
	ldr	r0, __arm_cp.19_0
	.loc	2 1068 20                       @ ../../CCC_common/Library/StdDriver/src/fmc.c:1068:20
	ldr	r0, [r0]
	.loc	2 1068 9                        @ ../../CCC_common/Library/StdDriver/src/fmc.c:1068:9
	lsls	r0, r0, #31
	cbz	r0, .LBB19_16
	b	.LBB19_13
.LBB19_13:                              @   in Loop: Header=BB19_12 Depth=1
.Ltmp321:
	.loc	2 1070 30 is_stmt 1             @ ../../CCC_common/Library/StdDriver/src/fmc.c:1070:30
	ldr	r0, [sp]
	subs	r1, r0, #1
	str	r1, [sp]
.Ltmp322:
	.loc	2 1070 17 is_stmt 0             @ ../../CCC_common/Library/StdDriver/src/fmc.c:1070:17
	cmp	r0, #0
	bgt	.LBB19_15
	b	.LBB19_14
.LBB19_14:
	.loc	2 0 17                          @ ../../CCC_common/Library/StdDriver/src/fmc.c:0:17
	movs	r0, #0
	mvns	r0, r0
.Ltmp323:
	.loc	2 1072 21 is_stmt 1             @ ../../CCC_common/Library/StdDriver/src/fmc.c:1072:21
	str	r0, [sp, #4]
	.loc	2 1073 17                       @ ../../CCC_common/Library/StdDriver/src/fmc.c:1073:17
	b	.LBB19_16
.Ltmp324:
.LBB19_15:                              @   in Loop: Header=BB19_12 Depth=1
	.loc	2 1068 9                        @ ../../CCC_common/Library/StdDriver/src/fmc.c:1068:9
	b	.LBB19_12
.LBB19_16:
	.loc	2 0 9 is_stmt 0                 @ ../../CCC_common/Library/StdDriver/src/fmc.c:0:9
	ldr	r0, __arm_cp.19_0
	.loc	2 1077 26 is_stmt 1             @ ../../CCC_common/Library/StdDriver/src/fmc.c:1077:26
	ldr	r0, [r0]
	.loc	2 1077 19 is_stmt 0             @ ../../CCC_common/Library/StdDriver/src/fmc.c:1077:19
	str	r0, [sp, #8]
	add	r0, sp, #8
	.loc	2 1079 12 is_stmt 1             @ ../../CCC_common/Library/StdDriver/src/fmc.c:1079:12
	ldrb	r0, [r0]
	lsls	r0, r0, #30
	cmp	r0, #0
	bmi	.LBB19_18
	b	.LBB19_17
.LBB19_17:
	.loc	2 0 12 is_stmt 0                @ ../../CCC_common/Library/StdDriver/src/fmc.c:0:12
	movs	r0, #3
	mvns	r0, r0
.Ltmp325:
	.loc	2 1082 17 is_stmt 1             @ ../../CCC_common/Library/StdDriver/src/fmc.c:1082:17
	str	r0, [sp, #4]
	.loc	2 1083 9                        @ ../../CCC_common/Library/StdDriver/src/fmc.c:1083:9
	b	.LBB19_30
.Ltmp326:
.LBB19_18:
	.loc	2 1084 18                       @ ../../CCC_common/Library/StdDriver/src/fmc.c:1084:18
	ldr	r0, [sp, #16]
	.loc	2 1084 32 is_stmt 0             @ ../../CCC_common/Library/StdDriver/src/fmc.c:1084:32
	cbz	r0, .LBB19_20
	b	.LBB19_19
.LBB19_19:
	.loc	2 0 32                          @ ../../CCC_common/Library/StdDriver/src/fmc.c:0:32
	add	r0, sp, #8
	.loc	2 1084 78                       @ ../../CCC_common/Library/StdDriver/src/fmc.c:1084:78
	ldrb	r0, [r0]
	lsls	r0, r0, #26
	cmp	r0, #0
	bpl	.LBB19_22
	b	.LBB19_20
.LBB19_20:
	.loc	2 1085 20 is_stmt 1             @ ../../CCC_common/Library/StdDriver/src/fmc.c:1085:20
	ldr	r0, [sp, #16]
	.loc	2 1085 35 is_stmt 0             @ ../../CCC_common/Library/StdDriver/src/fmc.c:1085:35
	cbnz	r0, .LBB19_23
	b	.LBB19_21
.Ltmp327:
.LBB19_21:
	.loc	2 0 35                          @ ../../CCC_common/Library/StdDriver/src/fmc.c:0:35
	add	r0, sp, #8
	.loc	2 1084 17 is_stmt 1             @ ../../CCC_common/Library/StdDriver/src/fmc.c:1084:17
	ldrb	r0, [r0]
	lsls	r0, r0, #26
	cmp	r0, #0
	bpl	.LBB19_23
	b	.LBB19_22
.LBB19_22:
	.loc	2 0 17 is_stmt 0                @ ../../CCC_common/Library/StdDriver/src/fmc.c:0:17
	movs	r0, #4
	mvns	r0, r0
.Ltmp328:
	.loc	2 1088 17 is_stmt 1             @ ../../CCC_common/Library/StdDriver/src/fmc.c:1088:17
	str	r0, [sp, #4]
	.loc	2 1089 9                        @ ../../CCC_common/Library/StdDriver/src/fmc.c:1089:9
	b	.LBB19_29
.Ltmp329:
.LBB19_23:
	.loc	2 0 9 is_stmt 0                 @ ../../CCC_common/Library/StdDriver/src/fmc.c:0:9
	ldr	r0, __arm_cp.19_9
.Ltmp330:
	.loc	2 1090 24 is_stmt 1             @ ../../CCC_common/Library/StdDriver/src/fmc.c:1090:24
	ldr	r0, [r0]
	movw	r1, #3840
	.loc	2 1090 30 is_stmt 0             @ ../../CCC_common/Library/StdDriver/src/fmc.c:1090:30
	ands	r0, r1
	.loc	2 1090 53                       @ ../../CCC_common/Library/StdDriver/src/fmc.c:1090:53
	lsrs	r1, r0, #8
	.loc	2 1090 80                       @ ../../CCC_common/Library/StdDriver/src/fmc.c:1090:80
	ldr	r0, [sp, #24]
.Ltmp331:
	.loc	2 1090 17                       @ ../../CCC_common/Library/StdDriver/src/fmc.c:1090:17
	cmp	r0, r1
	beq	.LBB19_25
	b	.LBB19_24
.LBB19_24:
	.loc	2 0 17                          @ ../../CCC_common/Library/StdDriver/src/fmc.c:0:17
	movs	r0, #6
	mvns	r0, r0
.Ltmp332:
	.loc	2 1093 17 is_stmt 1             @ ../../CCC_common/Library/StdDriver/src/fmc.c:1093:17
	str	r0, [sp, #4]
	.loc	2 1094 9                        @ ../../CCC_common/Library/StdDriver/src/fmc.c:1094:9
	b	.LBB19_28
.Ltmp333:
.LBB19_25:
	.loc	2 0 9 is_stmt 0                 @ ../../CCC_common/Library/StdDriver/src/fmc.c:0:9
	ldr	r0, __arm_cp.19_10
.Ltmp334:
	.loc	2 1095 24 is_stmt 1             @ ../../CCC_common/Library/StdDriver/src/fmc.c:1095:24
	ldr	r0, [r0]
	movw	r1, #16128
	.loc	2 1095 33 is_stmt 0             @ ../../CCC_common/Library/StdDriver/src/fmc.c:1095:33
	ands	r0, r1
	.loc	2 1095 61                       @ ../../CCC_common/Library/StdDriver/src/fmc.c:1095:61
	lsrs	r1, r0, #8
	.loc	2 1095 93                       @ ../../CCC_common/Library/StdDriver/src/fmc.c:1095:93
	ldr	r0, [sp, #20]
.Ltmp335:
	.loc	2 1095 17                       @ ../../CCC_common/Library/StdDriver/src/fmc.c:1095:17
	cmp	r0, r1
	beq	.LBB19_27
	b	.LBB19_26
.LBB19_26:
	.loc	2 0 17                          @ ../../CCC_common/Library/StdDriver/src/fmc.c:0:17
	movs	r0, #7
	mvns	r0, r0
.Ltmp336:
	.loc	2 1098 17 is_stmt 1             @ ../../CCC_common/Library/StdDriver/src/fmc.c:1098:17
	str	r0, [sp, #4]
	.loc	2 1099 9                        @ ../../CCC_common/Library/StdDriver/src/fmc.c:1099:9
	b	.LBB19_27
.Ltmp337:
.LBB19_27:
	.loc	2 0 9 is_stmt 0                 @ ../../CCC_common/Library/StdDriver/src/fmc.c:0:9
	b	.LBB19_28
.LBB19_28:
	b	.LBB19_29
.LBB19_29:
	b	.LBB19_30
.LBB19_30:
	.loc	2 1100 5 is_stmt 1              @ ../../CCC_common/Library/StdDriver/src/fmc.c:1100:5
	b	.LBB19_31
.Ltmp338:
.LBB19_31:
	.loc	2 1102 24                       @ ../../CCC_common/Library/StdDriver/src/fmc.c:1102:24
	ldr	r0, [sp, #4]
	.loc	2 1102 22 is_stmt 0             @ ../../CCC_common/Library/StdDriver/src/fmc.c:1102:22
	ldr	r1, __arm_cp.19_11
	str	r0, [r1]
	.loc	2 1104 12 is_stmt 1             @ ../../CCC_common/Library/StdDriver/src/fmc.c:1104:12
	ldr	r0, [sp, #4]
	.loc	2 1104 5 epilogue_begin is_stmt 0 @ ../../CCC_common/Library/StdDriver/src/fmc.c:1104:5
	add	sp, #32
	pop	{r4, pc}
.Ltmp339:
	.loc	2 0 5                           @ :0:5
.Ltmp340:
	.p2align	2
@ %bb.32:
__arm_cp.19_0:
	.long	1073791072                      @ 0x4000c060
.Lcpi_end108:
	.size	__arm_cp.19_0, .Lcpi_end108-__arm_cp.19_0
__arm_cp.19_1:
	.long	3215360                         @ 0x311000
.Lcpi_end109:
	.size	__arm_cp.19_1, .Lcpi_end109-__arm_cp.19_1
__arm_cp.19_2:
	.long	3217408                         @ 0x311800
.Lcpi_end110:
	.size	__arm_cp.19_2, .Lcpi_end110-__arm_cp.19_2
__arm_cp.19_3:
	.long	3215364                         @ 0x311004
.Lcpi_end111:
	.size	__arm_cp.19_3, .Lcpi_end111-__arm_cp.19_3
__arm_cp.19_4:
	.long	3215368                         @ 0x311008
.Lcpi_end112:
	.size	__arm_cp.19_4, .Lcpi_end112-__arm_cp.19_4
__arm_cp.19_5:
	.long	3215372                         @ 0x31100c
.Lcpi_end113:
	.size	__arm_cp.19_5, .Lcpi_end113-__arm_cp.19_5
__arm_cp.19_6:
	.long	3215376                         @ 0x311010
.Lcpi_end114:
	.size	__arm_cp.19_6, .Lcpi_end114-__arm_cp.19_6
__arm_cp.19_7:
	.long	3215380                         @ 0x311014
.Lcpi_end115:
	.size	__arm_cp.19_7, .Lcpi_end115-__arm_cp.19_7
__arm_cp.19_8:
	.long	SystemCoreClock
.Lcpi_end116:
	.size	__arm_cp.19_8, .Lcpi_end116-__arm_cp.19_8
__arm_cp.19_9:
	.long	1073791080                      @ 0x4000c068
.Lcpi_end117:
	.size	__arm_cp.19_9, .Lcpi_end117-__arm_cp.19_9
__arm_cp.19_10:
	.long	1073791076                      @ 0x4000c064
.Lcpi_end118:
	.size	__arm_cp.19_10, .Lcpi_end118-__arm_cp.19_10
__arm_cp.19_11:
	.long	g_FMC_i32ErrCode
.Lcpi_end119:
	.size	__arm_cp.19_11, .Lcpi_end119-__arm_cp.19_11
.Lfunc_end19:
	.size	FMC_SetSPKey, .Lfunc_end19-FMC_SetSPKey
	.cfi_endproc
	.cantunwind
	.fnend
                                        @ -- End function
	.section	.text.FMC_Write,"ax",%progbits
	.hidden	FMC_Write                       @ -- Begin function FMC_Write
	.globl	FMC_Write
	.p2align	2
	.type	FMC_Write,%function
	.code	16                              @ @FMC_Write
	.thumb_func
FMC_Write:
.Lfunc_begin20:
	.loc	2 1123 0 is_stmt 1              @ ../../CCC_common/Library/StdDriver/src/fmc.c:1123:0
	.fnstart
	.cfi_startproc
@ %bb.0:
	.pad	#16
	sub	sp, #16
	.cfi_def_cfa_offset 16
	str	r0, [sp, #8]
	str	r1, [sp, #4]
.Ltmp341:
	.loc	2 1126 22 prologue_end          @ ../../CCC_common/Library/StdDriver/src/fmc.c:1126:22
	ldr	r1, __arm_cp.20_0
	movs	r0, #0
	str	r0, [r1]
	ldr	r1, __arm_cp.20_1
	movs	r0, #33
	.loc	2 1128 17                       @ ../../CCC_common/Library/StdDriver/src/fmc.c:1128:17
	str	r0, [r1]
	.loc	2 1129 20                       @ ../../CCC_common/Library/StdDriver/src/fmc.c:1129:20
	ldr	r0, [sp, #8]
	ldr	r1, __arm_cp.20_2
	.loc	2 1129 18 is_stmt 0             @ ../../CCC_common/Library/StdDriver/src/fmc.c:1129:18
	str	r0, [r1]
	.loc	2 1130 19 is_stmt 1             @ ../../CCC_common/Library/StdDriver/src/fmc.c:1130:19
	ldr	r0, [sp, #4]
	ldr	r1, __arm_cp.20_3
	.loc	2 1130 17 is_stmt 0             @ ../../CCC_common/Library/StdDriver/src/fmc.c:1130:17
	str	r0, [r1]
	ldr	r1, __arm_cp.20_4
	movs	r0, #1
	.loc	2 1131 17 is_stmt 1             @ ../../CCC_common/Library/StdDriver/src/fmc.c:1131:17
	str	r0, [r1]
	.loc	2 1133 21                       @ ../../CCC_common/Library/StdDriver/src/fmc.c:1133:21
	ldr	r0, __arm_cp.20_5
	ldr	r0, [r0]
	lsrs	r0, r0, #3
	.loc	2 1133 19 is_stmt 0             @ ../../CCC_common/Library/StdDriver/src/fmc.c:1133:19
	str	r0, [sp]
	.loc	2 1134 5 is_stmt 1              @ ../../CCC_common/Library/StdDriver/src/fmc.c:1134:5
	b	.LBB20_1
.LBB20_1:                               @ =>This Inner Loop Header: Depth=1
	.loc	2 0 5 is_stmt 0                 @ ../../CCC_common/Library/StdDriver/src/fmc.c:0:5
	ldr	r0, __arm_cp.20_4
	.loc	2 1134 16                       @ ../../CCC_common/Library/StdDriver/src/fmc.c:1134:16
	ldr	r0, [r0]
	.loc	2 1134 5                        @ ../../CCC_common/Library/StdDriver/src/fmc.c:1134:5
	lsls	r0, r0, #31
	cbz	r0, .LBB20_5
	b	.LBB20_2
.LBB20_2:                               @   in Loop: Header=BB20_1 Depth=1
.Ltmp342:
	.loc	2 1136 26 is_stmt 1             @ ../../CCC_common/Library/StdDriver/src/fmc.c:1136:26
	ldr	r0, [sp]
	subs	r1, r0, #1
	str	r1, [sp]
.Ltmp343:
	.loc	2 1136 13 is_stmt 0             @ ../../CCC_common/Library/StdDriver/src/fmc.c:1136:13
	cmp	r0, #0
	bgt	.LBB20_4
	b	.LBB20_3
.LBB20_3:
.Ltmp344:
	.loc	2 1138 30 is_stmt 1             @ ../../CCC_common/Library/StdDriver/src/fmc.c:1138:30
	ldr	r1, __arm_cp.20_0
	movs	r0, #0
	mvns	r0, r0
	str	r0, [r1]
	.loc	2 1139 13                       @ ../../CCC_common/Library/StdDriver/src/fmc.c:1139:13
	str	r0, [sp, #12]
	b	.LBB20_6
.Ltmp345:
.LBB20_4:                               @   in Loop: Header=BB20_1 Depth=1
	.loc	2 1134 5                        @ ../../CCC_common/Library/StdDriver/src/fmc.c:1134:5
	b	.LBB20_1
.LBB20_5:
	.loc	2 0 5 is_stmt 0                 @ ../../CCC_common/Library/StdDriver/src/fmc.c:0:5
	movs	r0, #0
	.loc	2 1143 5 is_stmt 1              @ ../../CCC_common/Library/StdDriver/src/fmc.c:1143:5
	str	r0, [sp, #12]
	b	.LBB20_6
.LBB20_6:
	.loc	2 1144 1                        @ ../../CCC_common/Library/StdDriver/src/fmc.c:1144:1
	ldr	r0, [sp, #12]
	.loc	2 1144 1 epilogue_begin is_stmt 0 @ ../../CCC_common/Library/StdDriver/src/fmc.c:1144:1
	add	sp, #16
	bx	lr
.Ltmp346:
	.loc	2 0 1                           @ :0:1
.Ltmp347:
	.p2align	2
@ %bb.7:
__arm_cp.20_0:
	.long	g_FMC_i32ErrCode
.Lcpi_end120:
	.size	__arm_cp.20_0, .Lcpi_end120-__arm_cp.20_0
__arm_cp.20_1:
	.long	1073790988                      @ 0x4000c00c
.Lcpi_end121:
	.size	__arm_cp.20_1, .Lcpi_end121-__arm_cp.20_1
__arm_cp.20_2:
	.long	1073790980                      @ 0x4000c004
.Lcpi_end122:
	.size	__arm_cp.20_2, .Lcpi_end122-__arm_cp.20_2
__arm_cp.20_3:
	.long	1073790984                      @ 0x4000c008
.Lcpi_end123:
	.size	__arm_cp.20_3, .Lcpi_end123-__arm_cp.20_3
__arm_cp.20_4:
	.long	1073790992                      @ 0x4000c010
.Lcpi_end124:
	.size	__arm_cp.20_4, .Lcpi_end124-__arm_cp.20_4
__arm_cp.20_5:
	.long	SystemCoreClock
.Lcpi_end125:
	.size	__arm_cp.20_5, .Lcpi_end125-__arm_cp.20_5
.Lfunc_end20:
	.size	FMC_Write, .Lfunc_end20-FMC_Write
	.cfi_endproc
	.cantunwind
	.fnend
                                        @ -- End function
	.section	.text.FMC_Write8Bytes,"ax",%progbits
	.hidden	FMC_Write8Bytes                 @ -- Begin function FMC_Write8Bytes
	.globl	FMC_Write8Bytes
	.p2align	2
	.type	FMC_Write8Bytes,%function
	.code	16                              @ @FMC_Write8Bytes
	.thumb_func
FMC_Write8Bytes:
.Lfunc_begin21:
	.loc	2 1163 0 is_stmt 1              @ ../../CCC_common/Library/StdDriver/src/fmc.c:1163:0
	.fnstart
	.cfi_startproc
@ %bb.0:
	.pad	#24
	sub	sp, #24
	.cfi_def_cfa_offset 24
	str	r0, [sp, #16]
	str	r1, [sp, #12]
	str	r2, [sp, #8]
	movs	r0, #0
.Ltmp348:
	.loc	2 1164 14 prologue_end          @ ../../CCC_common/Library/StdDriver/src/fmc.c:1164:14
	str	r0, [sp, #4]
	.loc	2 1167 22                       @ ../../CCC_common/Library/StdDriver/src/fmc.c:1167:22
	ldr	r1, __arm_cp.21_0
	str	r0, [r1]
	ldr	r1, __arm_cp.21_1
	movs	r0, #97
	.loc	2 1169 18                       @ ../../CCC_common/Library/StdDriver/src/fmc.c:1169:18
	str	r0, [r1]
	.loc	2 1170 20                       @ ../../CCC_common/Library/StdDriver/src/fmc.c:1170:20
	ldr	r0, [sp, #16]
	ldr	r1, __arm_cp.21_2
	.loc	2 1170 18 is_stmt 0             @ ../../CCC_common/Library/StdDriver/src/fmc.c:1170:18
	str	r0, [r1]
	.loc	2 1171 20 is_stmt 1             @ ../../CCC_common/Library/StdDriver/src/fmc.c:1171:20
	ldr	r0, [sp, #12]
	ldr	r1, __arm_cp.21_3
	.loc	2 1171 18 is_stmt 0             @ ../../CCC_common/Library/StdDriver/src/fmc.c:1171:18
	str	r0, [r1]
	.loc	2 1172 20 is_stmt 1             @ ../../CCC_common/Library/StdDriver/src/fmc.c:1172:20
	ldr	r0, [sp, #8]
	ldr	r1, __arm_cp.21_4
	.loc	2 1172 18 is_stmt 0             @ ../../CCC_common/Library/StdDriver/src/fmc.c:1172:18
	str	r0, [r1]
	ldr	r1, __arm_cp.21_5
	movs	r0, #1
	.loc	2 1173 18 is_stmt 1             @ ../../CCC_common/Library/StdDriver/src/fmc.c:1173:18
	str	r0, [r1]
	.loc	2 1175 21                       @ ../../CCC_common/Library/StdDriver/src/fmc.c:1175:21
	ldr	r0, __arm_cp.21_6
	ldr	r0, [r0]
	lsrs	r0, r0, #3
	.loc	2 1175 19 is_stmt 0             @ ../../CCC_common/Library/StdDriver/src/fmc.c:1175:19
	str	r0, [sp]
	.loc	2 1176 5 is_stmt 1              @ ../../CCC_common/Library/StdDriver/src/fmc.c:1176:5
	b	.LBB21_1
.LBB21_1:                               @ =>This Inner Loop Header: Depth=1
	.loc	2 0 5 is_stmt 0                 @ ../../CCC_common/Library/StdDriver/src/fmc.c:0:5
	ldr	r0, __arm_cp.21_7
	.loc	2 1176 16                       @ ../../CCC_common/Library/StdDriver/src/fmc.c:1176:16
	ldr	r0, [r0]
	.loc	2 1176 5                        @ ../../CCC_common/Library/StdDriver/src/fmc.c:1176:5
	lsls	r0, r0, #31
	cbz	r0, .LBB21_5
	b	.LBB21_2
.LBB21_2:                               @   in Loop: Header=BB21_1 Depth=1
.Ltmp349:
	.loc	2 1178 26 is_stmt 1             @ ../../CCC_common/Library/StdDriver/src/fmc.c:1178:26
	ldr	r0, [sp]
	subs	r1, r0, #1
	str	r1, [sp]
.Ltmp350:
	.loc	2 1178 13 is_stmt 0             @ ../../CCC_common/Library/StdDriver/src/fmc.c:1178:13
	cmp	r0, #0
	bgt	.LBB21_4
	b	.LBB21_3
.LBB21_3:
.Ltmp351:
	.loc	2 1180 30 is_stmt 1             @ ../../CCC_common/Library/StdDriver/src/fmc.c:1180:30
	ldr	r1, __arm_cp.21_0
	movs	r0, #0
	mvns	r0, r0
	str	r0, [r1]
	.loc	2 1181 13                       @ ../../CCC_common/Library/StdDriver/src/fmc.c:1181:13
	str	r0, [sp, #20]
	b	.LBB21_8
.Ltmp352:
.LBB21_4:                               @   in Loop: Header=BB21_1 Depth=1
	.loc	2 1176 5                        @ ../../CCC_common/Library/StdDriver/src/fmc.c:1176:5
	b	.LBB21_1
.LBB21_5:
	.loc	2 0 5 is_stmt 0                 @ ../../CCC_common/Library/StdDriver/src/fmc.c:0:5
	ldr	r0, __arm_cp.21_7
.Ltmp353:
	.loc	2 1185 13 is_stmt 1             @ ../../CCC_common/Library/StdDriver/src/fmc.c:1185:13
	ldr	r0, [r0]
.Ltmp354:
	.loc	2 1185 8 is_stmt 0              @ ../../CCC_common/Library/StdDriver/src/fmc.c:1185:8
	lsls	r0, r0, #25
	cmp	r0, #0
	bpl	.LBB21_7
	b	.LBB21_6
.LBB21_6:
	.loc	2 0 8                           @ ../../CCC_common/Library/StdDriver/src/fmc.c:0:8
	ldr	r1, __arm_cp.21_7
.Ltmp355:
	.loc	2 1187 21 is_stmt 1             @ ../../CCC_common/Library/StdDriver/src/fmc.c:1187:21
	ldr	r0, [r1]
	movs	r2, #64
	orrs	r0, r2
	str	r0, [r1]
	.loc	2 1188 26                       @ ../../CCC_common/Library/StdDriver/src/fmc.c:1188:26
	ldr	r1, __arm_cp.21_0
	movs	r0, #0
	mvns	r0, r0
	str	r0, [r1]
	.loc	2 1189 13                       @ ../../CCC_common/Library/StdDriver/src/fmc.c:1189:13
	str	r0, [sp, #4]
	.loc	2 1190 5                        @ ../../CCC_common/Library/StdDriver/src/fmc.c:1190:5
	b	.LBB21_7
.Ltmp356:
.LBB21_7:
	.loc	2 1191 12                       @ ../../CCC_common/Library/StdDriver/src/fmc.c:1191:12
	ldr	r0, [sp, #4]
	.loc	2 1191 5 is_stmt 0              @ ../../CCC_common/Library/StdDriver/src/fmc.c:1191:5
	str	r0, [sp, #20]
	b	.LBB21_8
.LBB21_8:
	.loc	2 1192 1 is_stmt 1              @ ../../CCC_common/Library/StdDriver/src/fmc.c:1192:1
	ldr	r0, [sp, #20]
	.loc	2 1192 1 epilogue_begin is_stmt 0 @ ../../CCC_common/Library/StdDriver/src/fmc.c:1192:1
	add	sp, #24
	bx	lr
.Ltmp357:
	.loc	2 0 1                           @ :0:1
.Ltmp358:
	.p2align	2
@ %bb.9:
__arm_cp.21_0:
	.long	g_FMC_i32ErrCode
.Lcpi_end126:
	.size	__arm_cp.21_0, .Lcpi_end126-__arm_cp.21_0
__arm_cp.21_1:
	.long	1073790988                      @ 0x4000c00c
.Lcpi_end127:
	.size	__arm_cp.21_1, .Lcpi_end127-__arm_cp.21_1
__arm_cp.21_2:
	.long	1073790980                      @ 0x4000c004
.Lcpi_end128:
	.size	__arm_cp.21_2, .Lcpi_end128-__arm_cp.21_2
__arm_cp.21_3:
	.long	1073791104                      @ 0x4000c080
.Lcpi_end129:
	.size	__arm_cp.21_3, .Lcpi_end129-__arm_cp.21_3
__arm_cp.21_4:
	.long	1073791108                      @ 0x4000c084
.Lcpi_end130:
	.size	__arm_cp.21_4, .Lcpi_end130-__arm_cp.21_4
__arm_cp.21_5:
	.long	1073790992                      @ 0x4000c010
.Lcpi_end131:
	.size	__arm_cp.21_5, .Lcpi_end131-__arm_cp.21_5
__arm_cp.21_6:
	.long	SystemCoreClock
.Lcpi_end132:
	.size	__arm_cp.21_6, .Lcpi_end132-__arm_cp.21_6
__arm_cp.21_7:
	.long	1073791040                      @ 0x4000c040
.Lcpi_end133:
	.size	__arm_cp.21_7, .Lcpi_end133-__arm_cp.21_7
.Lfunc_end21:
	.size	FMC_Write8Bytes, .Lfunc_end21-FMC_Write8Bytes
	.cfi_endproc
	.cantunwind
	.fnend
                                        @ -- End function
	.section	.text.FMC_WriteConfig,"ax",%progbits
	.hidden	FMC_WriteConfig                 @ -- Begin function FMC_WriteConfig
	.globl	FMC_WriteConfig
	.p2align	2
	.type	FMC_WriteConfig,%function
	.code	16                              @ @FMC_WriteConfig
	.thumb_func
FMC_WriteConfig:
.Lfunc_begin22:
	.loc	2 1212 0 is_stmt 1              @ ../../CCC_common/Library/StdDriver/src/fmc.c:1212:0
	.fnstart
	.cfi_startproc
@ %bb.0:
	.save	{r7, lr}
	push	{r7, lr}
	.cfi_def_cfa_offset 8
	.cfi_offset lr, -4
	.cfi_offset r7, -8
	.pad	#16
	sub	sp, #16
	.cfi_def_cfa_offset 24
	str	r0, [sp, #12]
	str	r1, [sp, #8]
	movs	r0, #0
.Ltmp359:
	.loc	2 1213 14 prologue_end          @ ../../CCC_common/Library/StdDriver/src/fmc.c:1213:14
	str	r0, [sp, #4]
	ldr	r2, __arm_cp.22_0
	.loc	2 1216 5                        @ ../../CCC_common/Library/StdDriver/src/fmc.c:1216:5
	ldr	r1, [r2]
	movs	r3, #16
	orrs	r1, r3
	str	r1, [r2]
.Ltmp360:
	.loc	2 1217 11                       @ ../../CCC_common/Library/StdDriver/src/fmc.c:1217:11
	str	r0, [sp]
	.loc	2 1217 9 is_stmt 0              @ ../../CCC_common/Library/StdDriver/src/fmc.c:1217:9
	b	.LBB22_1
.LBB22_1:                               @ =>This Inner Loop Header: Depth=1
.Ltmp361:
	.loc	2 1217 17                       @ ../../CCC_common/Library/StdDriver/src/fmc.c:1217:17
	ldr	r0, [sp]
	.loc	2 1217 21                       @ ../../CCC_common/Library/StdDriver/src/fmc.c:1217:21
	ldr	r1, [sp, #8]
.Ltmp362:
	.loc	2 1217 5                        @ ../../CCC_common/Library/StdDriver/src/fmc.c:1217:5
	cmp	r0, r1
	bhs	.LBB22_8
	b	.LBB22_2
.LBB22_2:                               @   in Loop: Header=BB22_1 Depth=1
.Ltmp363:
	.loc	2 1219 37 is_stmt 1             @ ../../CCC_common/Library/StdDriver/src/fmc.c:1219:37
	ldr	r0, [sp]
	.loc	2 1219 39 is_stmt 0             @ ../../CCC_common/Library/StdDriver/src/fmc.c:1219:39
	lsls	r2, r0, #2
	movs	r0, #3
	lsls	r0, r0, #20
	.loc	2 1219 35                       @ ../../CCC_common/Library/StdDriver/src/fmc.c:1219:35
	adds	r0, r2, r0
	.loc	2 1219 45                       @ ../../CCC_common/Library/StdDriver/src/fmc.c:1219:45
	ldr	r1, [sp, #12]
	ldr	r1, [r1, r2]
	.loc	2 1219 9                        @ ../../CCC_common/Library/StdDriver/src/fmc.c:1219:9
	bl	FMC_Write
.Ltmp364:
	.loc	2 1220 13 is_stmt 1             @ ../../CCC_common/Library/StdDriver/src/fmc.c:1220:13
	ldr	r0, __arm_cp.22_1
	ldr	r0, [r0]
.Ltmp365:
	.loc	2 1220 13 is_stmt 0             @ ../../CCC_common/Library/StdDriver/src/fmc.c:1220:13
	cbz	r0, .LBB22_4
	b	.LBB22_3
.LBB22_3:                               @   in Loop: Header=BB22_1 Depth=1
	.loc	2 0 13                          @ ../../CCC_common/Library/StdDriver/src/fmc.c:0:13
	movs	r0, #0
	mvns	r0, r0
.Ltmp366:
	.loc	2 1222 17 is_stmt 1             @ ../../CCC_common/Library/StdDriver/src/fmc.c:1222:17
	str	r0, [sp, #4]
	.loc	2 1223 9                        @ ../../CCC_common/Library/StdDriver/src/fmc.c:1223:9
	b	.LBB22_4
.Ltmp367:
.LBB22_4:                               @   in Loop: Header=BB22_1 Depth=1
	.loc	2 1224 39                       @ ../../CCC_common/Library/StdDriver/src/fmc.c:1224:39
	ldr	r0, [sp]
	.loc	2 1224 41 is_stmt 0             @ ../../CCC_common/Library/StdDriver/src/fmc.c:1224:41
	lsls	r0, r0, #2
	movs	r1, #3
	lsls	r1, r1, #20
	.loc	2 1224 37                       @ ../../CCC_common/Library/StdDriver/src/fmc.c:1224:37
	adds	r0, r0, r1
	.loc	2 1224 12                       @ ../../CCC_common/Library/StdDriver/src/fmc.c:1224:12
	bl	FMC_Read
	.loc	2 1224 50                       @ ../../CCC_common/Library/StdDriver/src/fmc.c:1224:50
	ldr	r1, [sp, #12]
	.loc	2 1224 61                       @ ../../CCC_common/Library/StdDriver/src/fmc.c:1224:61
	ldr	r2, [sp]
	.loc	2 1224 50                       @ ../../CCC_common/Library/StdDriver/src/fmc.c:1224:50
	lsls	r2, r2, #2
	ldr	r1, [r1, r2]
.Ltmp368:
	.loc	2 1224 12                       @ ../../CCC_common/Library/StdDriver/src/fmc.c:1224:12
	cmp	r0, r1
	beq	.LBB22_6
	b	.LBB22_5
.LBB22_5:                               @   in Loop: Header=BB22_1 Depth=1
	.loc	2 0 12                          @ ../../CCC_common/Library/StdDriver/src/fmc.c:0:12
	movs	r0, #0
	mvns	r0, r0
.Ltmp369:
	.loc	2 1226 17 is_stmt 1             @ ../../CCC_common/Library/StdDriver/src/fmc.c:1226:17
	str	r0, [sp, #4]
	.loc	2 1227 9                        @ ../../CCC_common/Library/StdDriver/src/fmc.c:1227:9
	b	.LBB22_6
.Ltmp370:
.LBB22_6:                               @   in Loop: Header=BB22_1 Depth=1
	.loc	2 1228 5                        @ ../../CCC_common/Library/StdDriver/src/fmc.c:1228:5
	b	.LBB22_7
.Ltmp371:
.LBB22_7:                               @   in Loop: Header=BB22_1 Depth=1
	.loc	2 1217 32                       @ ../../CCC_common/Library/StdDriver/src/fmc.c:1217:32
	ldr	r0, [sp]
	adds	r0, r0, #1
	str	r0, [sp]
	.loc	2 1217 5 is_stmt 0              @ ../../CCC_common/Library/StdDriver/src/fmc.c:1217:5
	b	.LBB22_1
.Ltmp372:
.LBB22_8:
	.loc	2 0 5                           @ ../../CCC_common/Library/StdDriver/src/fmc.c:0:5
	ldr	r1, __arm_cp.22_0
	.loc	2 1229 5 is_stmt 1              @ ../../CCC_common/Library/StdDriver/src/fmc.c:1229:5
	ldr	r0, [r1]
	movs	r2, #16
	bics	r0, r2
	str	r0, [r1]
	.loc	2 1230 12                       @ ../../CCC_common/Library/StdDriver/src/fmc.c:1230:12
	ldr	r0, [sp, #4]
	.loc	2 1230 5 epilogue_begin is_stmt 0 @ ../../CCC_common/Library/StdDriver/src/fmc.c:1230:5
	add	sp, #16
	pop	{r7, pc}
.Ltmp373:
	.loc	2 0 5                           @ :0:5
.Ltmp374:
	.p2align	2
@ %bb.9:
__arm_cp.22_0:
	.long	1073790976                      @ 0x4000c000
.Lcpi_end134:
	.size	__arm_cp.22_0, .Lcpi_end134-__arm_cp.22_0
__arm_cp.22_1:
	.long	g_FMC_i32ErrCode
.Lcpi_end135:
	.size	__arm_cp.22_1, .Lcpi_end135-__arm_cp.22_1
.Lfunc_end22:
	.size	FMC_WriteConfig, .Lfunc_end22-FMC_WriteConfig
	.cfi_endproc
	.cantunwind
	.fnend
                                        @ -- End function
	.section	.text.FMC_WriteMultiple,"ax",%progbits
	.hidden	FMC_WriteMultiple               @ -- Begin function FMC_WriteMultiple
	.globl	FMC_WriteMultiple
	.p2align	2
	.type	FMC_WriteMultiple,%function
	.code	16                              @ @FMC_WriteMultiple
	.thumb_func
FMC_WriteMultiple:
.Lfunc_begin23:
	.loc	2 1253 0 is_stmt 1              @ ../../CCC_common/Library/StdDriver/src/fmc.c:1253:0
	.fnstart
	.cfi_startproc
@ %bb.0:
	.pad	#72
	sub	sp, #72
	.cfi_def_cfa_offset 72
	str	r0, [sp, #40]
	str	r1, [sp, #36]
	str	r2, [sp, #32]
	movs	r0, #0
.Ltmp375:
	.loc	2 1255 33 prologue_end          @ ../../CCC_common/Library/StdDriver/src/fmc.c:1255:33
	str	r0, [sp, #16]
	.loc	2 1258 22                       @ ../../CCC_common/Library/StdDriver/src/fmc.c:1258:22
	ldr	r1, __arm_cp.23_0
	str	r0, [r1]
.Ltmp376:
	.loc	2 1260 9                        @ ../../CCC_common/Library/StdDriver/src/fmc.c:1260:9
	ldr	r0, [sp, #40]
	.loc	2 1260 35 is_stmt 0             @ ../../CCC_common/Library/StdDriver/src/fmc.c:1260:35
	lsrs	r0, r0, #19
	cbnz	r0, .LBB23_2
	b	.LBB23_1
.Ltmp377:
.LBB23_1:
	.loc	2 0 35                          @ ../../CCC_common/Library/StdDriver/src/fmc.c:0:35
	add	r0, sp, #40
	.loc	2 1260 8                        @ ../../CCC_common/Library/StdDriver/src/fmc.c:1260:8
	ldrb	r0, [r0]
	lsls	r0, r0, #29
	cbz	r0, .LBB23_3
	b	.LBB23_2
.LBB23_2:
.Ltmp378:
	.loc	2 1262 26 is_stmt 1             @ ../../CCC_common/Library/StdDriver/src/fmc.c:1262:26
	ldr	r1, __arm_cp.23_0
	movs	r0, #1
	mvns	r0, r0
	str	r0, [r1]
	.loc	2 1263 9                        @ ../../CCC_common/Library/StdDriver/src/fmc.c:1263:9
	str	r0, [sp, #44]
	b	.LBB23_42
.Ltmp379:
.LBB23_3:
	.loc	2 0 9 is_stmt 0                 @ ../../CCC_common/Library/StdDriver/src/fmc.c:0:9
	movs	r0, #0
	.loc	2 1266 9 is_stmt 1              @ ../../CCC_common/Library/StdDriver/src/fmc.c:1266:9
	str	r0, [sp, #24]
	ldr	r1, __arm_cp.23_1
	movs	r0, #39
	.loc	2 1267 17                       @ ../../CCC_common/Library/StdDriver/src/fmc.c:1267:17
	str	r0, [r1]
	.loc	2 1268 20                       @ ../../CCC_common/Library/StdDriver/src/fmc.c:1268:20
	ldr	r0, [sp, #40]
	ldr	r1, __arm_cp.23_2
	.loc	2 1268 18 is_stmt 0             @ ../../CCC_common/Library/StdDriver/src/fmc.c:1268:18
	str	r0, [r1]
	.loc	2 1269 12 is_stmt 1             @ ../../CCC_common/Library/StdDriver/src/fmc.c:1269:12
	ldr	r0, [sp, #16]
	adds	r0, #16
	str	r0, [sp, #16]
	.loc	2 1270 5                        @ ../../CCC_common/Library/StdDriver/src/fmc.c:1270:5
	b	.LBB23_4
.LBB23_4:                               @ =>This Loop Header: Depth=1
                                        @     Child Loop BB23_5 Depth 2
                                        @       Child Loop BB23_7 Depth 3
                                        @       Child Loop BB23_17 Depth 3
                                        @     Child Loop BB23_34 Depth 2
	.loc	2 0 5 is_stmt 0                 @ ../../CCC_common/Library/StdDriver/src/fmc.c:0:5
	movs	r0, #0
.Ltmp380:
	.loc	2 1272 13 is_stmt 1             @ ../../CCC_common/Library/StdDriver/src/fmc.c:1272:13
	str	r0, [sp, #12]
	movs	r0, #1
	.loc	2 1273 19                       @ ../../CCC_common/Library/StdDriver/src/fmc.c:1273:19
	str	r0, [sp, #20]
	.loc	2 1274 23                       @ ../../CCC_common/Library/StdDriver/src/fmc.c:1274:23
	ldr	r1, [sp, #36]
	.loc	2 1274 31 is_stmt 0             @ ../../CCC_common/Library/StdDriver/src/fmc.c:1274:31
	ldr	r2, [sp, #24]
	.loc	2 1274 23                       @ ../../CCC_common/Library/StdDriver/src/fmc.c:1274:23
	lsls	r2, r2, #2
	ldr	r1, [r1, r2]
	ldr	r2, __arm_cp.23_3
	.loc	2 1274 21                       @ ../../CCC_common/Library/StdDriver/src/fmc.c:1274:21
	str	r1, [r2]
	.loc	2 1275 23 is_stmt 1             @ ../../CCC_common/Library/StdDriver/src/fmc.c:1275:23
	ldr	r2, [sp, #36]
	.loc	2 1275 31 is_stmt 0             @ ../../CCC_common/Library/StdDriver/src/fmc.c:1275:31
	ldr	r1, [sp, #24]
	.loc	2 1275 35                       @ ../../CCC_common/Library/StdDriver/src/fmc.c:1275:35
	lsls	r1, r1, #2
	.loc	2 1275 23                       @ ../../CCC_common/Library/StdDriver/src/fmc.c:1275:23
	adds	r1, r1, r2
	ldr	r1, [r1, #4]
	ldr	r2, __arm_cp.23_4
	.loc	2 1275 21                       @ ../../CCC_common/Library/StdDriver/src/fmc.c:1275:21
	str	r1, [r2]
	.loc	2 1276 23 is_stmt 1             @ ../../CCC_common/Library/StdDriver/src/fmc.c:1276:23
	ldr	r2, [sp, #36]
	.loc	2 1276 31 is_stmt 0             @ ../../CCC_common/Library/StdDriver/src/fmc.c:1276:31
	ldr	r1, [sp, #24]
	.loc	2 1276 35                       @ ../../CCC_common/Library/StdDriver/src/fmc.c:1276:35
	lsls	r1, r1, #2
	.loc	2 1276 23                       @ ../../CCC_common/Library/StdDriver/src/fmc.c:1276:23
	adds	r1, r1, r2
	ldr	r1, [r1, #8]
	ldr	r2, __arm_cp.23_5
	.loc	2 1276 21                       @ ../../CCC_common/Library/StdDriver/src/fmc.c:1276:21
	str	r1, [r2]
	.loc	2 1277 23 is_stmt 1             @ ../../CCC_common/Library/StdDriver/src/fmc.c:1277:23
	ldr	r2, [sp, #36]
	.loc	2 1277 31 is_stmt 0             @ ../../CCC_common/Library/StdDriver/src/fmc.c:1277:31
	ldr	r1, [sp, #24]
	.loc	2 1277 35                       @ ../../CCC_common/Library/StdDriver/src/fmc.c:1277:35
	lsls	r1, r1, #2
	.loc	2 1277 23                       @ ../../CCC_common/Library/StdDriver/src/fmc.c:1277:23
	adds	r1, r1, r2
	ldr	r1, [r1, #12]
	ldr	r2, __arm_cp.23_6
	.loc	2 1277 21                       @ ../../CCC_common/Library/StdDriver/src/fmc.c:1277:21
	str	r1, [r2]
	ldr	r1, __arm_cp.23_7
	.loc	2 1278 21 is_stmt 1             @ ../../CCC_common/Library/StdDriver/src/fmc.c:1278:21
	str	r0, [r1]
	.loc	2 1279 13                       @ ../../CCC_common/Library/StdDriver/src/fmc.c:1279:13
	ldr	r0, [sp, #24]
	adds	r0, r0, #4
	str	r0, [sp, #24]
.Ltmp381:
	.loc	2 1281 17                       @ ../../CCC_common/Library/StdDriver/src/fmc.c:1281:17
	ldr	r0, [sp, #24]
	.loc	2 1281 15 is_stmt 0             @ ../../CCC_common/Library/StdDriver/src/fmc.c:1281:15
	str	r0, [sp, #28]
	.loc	2 1281 13                       @ ../../CCC_common/Library/StdDriver/src/fmc.c:1281:13
	b	.LBB23_5
.LBB23_5:                               @   Parent Loop BB23_4 Depth=1
                                        @ =>  This Loop Header: Depth=2
                                        @       Child Loop BB23_7 Depth 3
                                        @       Child Loop BB23_17 Depth 3
.Ltmp382:
	.loc	2 1281 22                       @ ../../CCC_common/Library/StdDriver/src/fmc.c:1281:22
	ldr	r0, [sp, #28]
.Ltmp383:
	.loc	2 1281 9                        @ ../../CCC_common/Library/StdDriver/src/fmc.c:1281:9
	cmp	r0, #127
	bls	.LBB23_6
	b	.LBB23_32
.LBB23_6:                               @   in Loop: Header=BB23_5 Depth=2
.Ltmp384:
	.loc	2 1283 29 is_stmt 1             @ ../../CCC_common/Library/StdDriver/src/fmc.c:1283:29
	ldr	r0, __arm_cp.23_8
	ldr	r0, [r0]
	lsrs	r0, r0, #3
	.loc	2 1283 27 is_stmt 0             @ ../../CCC_common/Library/StdDriver/src/fmc.c:1283:27
	str	r0, [sp, #8]
	movs	r0, #1
	str	r0, [sp, #68]
.Ltmp385:
	.file	4 "D:\\work\\dheeraj\\local\\CEL\\CCC\\CCC_CPU123\\Code" "../../CCC_common/Library/CMSIS/Include\\cmsis_armclang.h"
	.loc	4 400 46 is_stmt 1              @ ../../CCC_common/Library/CMSIS/Include\cmsis_armclang.h:400:46
	ldr	r0, [sp, #68]
	.loc	4 400 3 is_stmt 0               @ ../../CCC_common/Library/CMSIS/Include\cmsis_armclang.h:400:3
	@APP
	msr	primask, r0
	@NO_APP
.Ltmp386:
	.loc	2 1285 13 is_stmt 1             @ ../../CCC_common/Library/StdDriver/src/fmc.c:1285:13
	b	.LBB23_7
.LBB23_7:                               @   Parent Loop BB23_4 Depth=1
                                        @     Parent Loop BB23_5 Depth=2
                                        @ =>    This Inner Loop Header: Depth=3
	.loc	2 0 13 is_stmt 0                @ ../../CCC_common/Library/StdDriver/src/fmc.c:0:13
	ldr	r0, __arm_cp.23_9
.Ltmp387:
	.loc	2 1287 26 is_stmt 1             @ ../../CCC_common/Library/StdDriver/src/fmc.c:1287:26
	ldr	r0, [r0]
.Ltmp388:
	.loc	2 1287 20 is_stmt 0             @ ../../CCC_common/Library/StdDriver/src/fmc.c:1287:20
	lsls	r0, r0, #31
	cbnz	r0, .LBB23_9
	b	.LBB23_8
.LBB23_8:                               @   in Loop: Header=BB23_7 Depth=3
	.loc	2 0 20                          @ ../../CCC_common/Library/StdDriver/src/fmc.c:0:20
	movs	r0, #0
	str	r0, [sp, #64]
.Ltmp389:
	.loc	4 400 46 is_stmt 1              @ ../../CCC_common/Library/CMSIS/Include\cmsis_armclang.h:400:46
	ldr	r1, [sp, #64]
	.loc	4 400 3 is_stmt 0               @ ../../CCC_common/Library/CMSIS/Include\cmsis_armclang.h:400:3
	@APP
	msr	primask, r1
	@NO_APP
	ldr	r1, __arm_cp.23_10
.Ltmp390:
	.loc	2 1291 41 is_stmt 1             @ ../../CCC_common/Library/StdDriver/src/fmc.c:1291:41
	ldr	r2, [r1]
	movs	r1, #15
	.loc	2 1291 48 is_stmt 0             @ ../../CCC_common/Library/StdDriver/src/fmc.c:1291:48
	bics	r2, r1
	ldr	r1, __arm_cp.23_2
	.loc	2 1291 34                       @ ../../CCC_common/Library/StdDriver/src/fmc.c:1291:34
	str	r2, [r1]
	.loc	2 1292 33 is_stmt 1             @ ../../CCC_common/Library/StdDriver/src/fmc.c:1292:33
	ldr	r1, [r1]
	.loc	2 1292 43 is_stmt 0             @ ../../CCC_common/Library/StdDriver/src/fmc.c:1292:43
	ldr	r2, [sp, #40]
	.loc	2 1292 41                       @ ../../CCC_common/Library/StdDriver/src/fmc.c:1292:41
	subs	r1, r1, r2
	.loc	2 1292 52                       @ ../../CCC_common/Library/StdDriver/src/fmc.c:1292:52
	lsrs	r1, r1, #2
	.loc	2 1292 25                       @ ../../CCC_common/Library/StdDriver/src/fmc.c:1292:25
	str	r1, [sp, #24]
	mvns	r0, r0
	.loc	2 1293 25 is_stmt 1             @ ../../CCC_common/Library/StdDriver/src/fmc.c:1293:25
	str	r0, [sp, #12]
	.loc	2 1294 17                       @ ../../CCC_common/Library/StdDriver/src/fmc.c:1294:17
	b	.LBB23_9
.Ltmp391:
.LBB23_9:                               @   in Loop: Header=BB23_7 Depth=3
	.loc	2 1295 34                       @ ../../CCC_common/Library/StdDriver/src/fmc.c:1295:34
	ldr	r0, [sp, #8]
	subs	r1, r0, #1
	str	r1, [sp, #8]
.Ltmp392:
	.loc	2 1295 21 is_stmt 0             @ ../../CCC_common/Library/StdDriver/src/fmc.c:1295:21
	cmp	r0, #0
	bgt	.LBB23_11
	b	.LBB23_10
.LBB23_10:                              @   in Loop: Header=BB23_7 Depth=3
	.loc	2 0 21                          @ ../../CCC_common/Library/StdDriver/src/fmc.c:0:21
	movs	r0, #0
	str	r0, [sp, #60]
.Ltmp393:
	.loc	4 400 46 is_stmt 1              @ ../../CCC_common/Library/CMSIS/Include\cmsis_armclang.h:400:46
	ldr	r1, [sp, #60]
	.loc	4 400 3 is_stmt 0               @ ../../CCC_common/Library/CMSIS/Include\cmsis_armclang.h:400:3
	@APP
	msr	primask, r1
	@NO_APP
.Ltmp394:
	.loc	2 1298 38 is_stmt 1             @ ../../CCC_common/Library/StdDriver/src/fmc.c:1298:38
	ldr	r1, __arm_cp.23_0
	mvns	r0, r0
	str	r0, [r1]
	.loc	2 1299 25                       @ ../../CCC_common/Library/StdDriver/src/fmc.c:1299:25
	str	r0, [sp, #12]
	.loc	2 1300 17                       @ ../../CCC_common/Library/StdDriver/src/fmc.c:1300:17
	b	.LBB23_11
.Ltmp395:
.LBB23_11:                              @   in Loop: Header=BB23_7 Depth=3
	.loc	2 1301 13                       @ ../../CCC_common/Library/StdDriver/src/fmc.c:1301:13
	b	.LBB23_12
.Ltmp396:
.LBB23_12:                              @   in Loop: Header=BB23_7 Depth=3
	.loc	2 0 13 is_stmt 0                @ ../../CCC_common/Library/StdDriver/src/fmc.c:0:13
	ldr	r0, __arm_cp.23_9
	.loc	2 1302 25 is_stmt 1             @ ../../CCC_common/Library/StdDriver/src/fmc.c:1302:25
	ldr	r1, [r0]
	movs	r0, #0
	.loc	2 1302 59 is_stmt 0             @ ../../CCC_common/Library/StdDriver/src/fmc.c:1302:59
	lsls	r1, r1, #26
	lsrs	r1, r1, #30
	str	r0, [sp, #4]                    @ 4-byte Spill
	cbz	r1, .LBB23_14
	b	.LBB23_13
.LBB23_13:                              @   in Loop: Header=BB23_7 Depth=3
	.loc	2 1302 63                       @ ../../CCC_common/Library/StdDriver/src/fmc.c:1302:63
	ldr	r0, [sp, #12]
	.loc	2 1302 67                       @ ../../CCC_common/Library/StdDriver/src/fmc.c:1302:67
	rsbs	r1, r0, #0
	adcs	r0, r1
	str	r0, [sp, #4]                    @ 4-byte Spill
	b	.LBB23_14
.LBB23_14:                              @   in Loop: Header=BB23_7 Depth=3
	.loc	2 0 0                           @ ../../CCC_common/Library/StdDriver/src/fmc.c:0:0
	ldr	r0, [sp, #4]                    @ 4-byte Reload
.Ltmp397:
	.loc	2 1301 13 is_stmt 1             @ ../../CCC_common/Library/StdDriver/src/fmc.c:1301:13
	lsls	r0, r0, #31
	cmp	r0, #0
	bne	.LBB23_7
	b	.LBB23_15
.Ltmp398:
.LBB23_15:                              @   in Loop: Header=BB23_5 Depth=2
	.loc	2 1304 16                       @ ../../CCC_common/Library/StdDriver/src/fmc.c:1304:16
	ldr	r0, [sp, #12]
.Ltmp399:
	.loc	2 1304 16 is_stmt 0             @ ../../CCC_common/Library/StdDriver/src/fmc.c:1304:16
	cmp	r0, #0
	bne	.LBB23_28
	b	.LBB23_16
.LBB23_16:                              @   in Loop: Header=BB23_5 Depth=2
.Ltmp400:
	.loc	2 1306 24 is_stmt 1             @ ../../CCC_common/Library/StdDriver/src/fmc.c:1306:24
	ldr	r0, [sp, #16]
	adds	r0, #8
	str	r0, [sp, #16]
	.loc	2 1309 31                       @ ../../CCC_common/Library/StdDriver/src/fmc.c:1309:31
	ldr	r0, [sp, #36]
	.loc	2 1309 39 is_stmt 0             @ ../../CCC_common/Library/StdDriver/src/fmc.c:1309:39
	ldr	r1, [sp, #28]
	.loc	2 1309 31                       @ ../../CCC_common/Library/StdDriver/src/fmc.c:1309:31
	lsls	r1, r1, #2
	ldr	r0, [r0, r1]
	ldr	r1, __arm_cp.23_3
	.loc	2 1309 29                       @ ../../CCC_common/Library/StdDriver/src/fmc.c:1309:29
	str	r0, [r1]
	.loc	2 1310 31 is_stmt 1             @ ../../CCC_common/Library/StdDriver/src/fmc.c:1310:31
	ldr	r1, [sp, #36]
	.loc	2 1310 39 is_stmt 0             @ ../../CCC_common/Library/StdDriver/src/fmc.c:1310:39
	ldr	r0, [sp, #28]
	.loc	2 1310 41                       @ ../../CCC_common/Library/StdDriver/src/fmc.c:1310:41
	lsls	r0, r0, #2
	.loc	2 1310 31                       @ ../../CCC_common/Library/StdDriver/src/fmc.c:1310:31
	adds	r0, r0, r1
	ldr	r0, [r0, #4]
	ldr	r1, __arm_cp.23_4
	.loc	2 1310 29                       @ ../../CCC_common/Library/StdDriver/src/fmc.c:1310:29
	str	r0, [r1]
	.loc	2 1311 33 is_stmt 1             @ ../../CCC_common/Library/StdDriver/src/fmc.c:1311:33
	ldr	r0, __arm_cp.23_8
	ldr	r0, [r0]
	lsrs	r0, r0, #3
	.loc	2 1311 31 is_stmt 0             @ ../../CCC_common/Library/StdDriver/src/fmc.c:1311:31
	str	r0, [sp, #8]
	.loc	2 1312 17 is_stmt 1             @ ../../CCC_common/Library/StdDriver/src/fmc.c:1312:17
	b	.LBB23_17
.LBB23_17:                              @   Parent Loop BB23_4 Depth=1
                                        @     Parent Loop BB23_5 Depth=2
                                        @ =>    This Inner Loop Header: Depth=3
	.loc	2 0 17 is_stmt 0                @ ../../CCC_common/Library/StdDriver/src/fmc.c:0:17
	ldr	r0, __arm_cp.23_9
.Ltmp401:
	.loc	2 1314 30 is_stmt 1             @ ../../CCC_common/Library/StdDriver/src/fmc.c:1314:30
	ldr	r0, [r0]
.Ltmp402:
	.loc	2 1314 24 is_stmt 0             @ ../../CCC_common/Library/StdDriver/src/fmc.c:1314:24
	lsls	r0, r0, #31
	cbnz	r0, .LBB23_19
	b	.LBB23_18
.LBB23_18:                              @   in Loop: Header=BB23_17 Depth=3
	.loc	2 0 24                          @ ../../CCC_common/Library/StdDriver/src/fmc.c:0:24
	movs	r0, #0
	str	r0, [sp, #56]
.Ltmp403:
	.loc	4 400 46 is_stmt 1              @ ../../CCC_common/Library/CMSIS/Include\cmsis_armclang.h:400:46
	ldr	r1, [sp, #56]
	.loc	4 400 3 is_stmt 0               @ ../../CCC_common/Library/CMSIS/Include\cmsis_armclang.h:400:3
	@APP
	msr	primask, r1
	@NO_APP
	ldr	r1, __arm_cp.23_10
.Ltmp404:
	.loc	2 1317 45 is_stmt 1             @ ../../CCC_common/Library/StdDriver/src/fmc.c:1317:45
	ldr	r2, [r1]
	movs	r1, #15
	.loc	2 1317 52 is_stmt 0             @ ../../CCC_common/Library/StdDriver/src/fmc.c:1317:52
	bics	r2, r1
	ldr	r1, __arm_cp.23_2
	.loc	2 1317 38                       @ ../../CCC_common/Library/StdDriver/src/fmc.c:1317:38
	str	r2, [r1]
	.loc	2 1318 37 is_stmt 1             @ ../../CCC_common/Library/StdDriver/src/fmc.c:1318:37
	ldr	r1, [r1]
	.loc	2 1318 47 is_stmt 0             @ ../../CCC_common/Library/StdDriver/src/fmc.c:1318:47
	ldr	r2, [sp, #40]
	.loc	2 1318 45                       @ ../../CCC_common/Library/StdDriver/src/fmc.c:1318:45
	subs	r1, r1, r2
	.loc	2 1318 56                       @ ../../CCC_common/Library/StdDriver/src/fmc.c:1318:56
	lsrs	r1, r1, #2
	.loc	2 1318 29                       @ ../../CCC_common/Library/StdDriver/src/fmc.c:1318:29
	str	r1, [sp, #24]
	mvns	r0, r0
	.loc	2 1319 29 is_stmt 1             @ ../../CCC_common/Library/StdDriver/src/fmc.c:1319:29
	str	r0, [sp, #12]
	.loc	2 1320 21                       @ ../../CCC_common/Library/StdDriver/src/fmc.c:1320:21
	b	.LBB23_19
.Ltmp405:
.LBB23_19:                              @   in Loop: Header=BB23_17 Depth=3
	.loc	2 1321 38                       @ ../../CCC_common/Library/StdDriver/src/fmc.c:1321:38
	ldr	r0, [sp, #8]
	subs	r1, r0, #1
	str	r1, [sp, #8]
.Ltmp406:
	.loc	2 1321 25 is_stmt 0             @ ../../CCC_common/Library/StdDriver/src/fmc.c:1321:25
	cmp	r0, #0
	bgt	.LBB23_21
	b	.LBB23_20
.LBB23_20:                              @   in Loop: Header=BB23_17 Depth=3
	.loc	2 0 25                          @ ../../CCC_common/Library/StdDriver/src/fmc.c:0:25
	movs	r0, #0
	str	r0, [sp, #52]
.Ltmp407:
	.loc	4 400 46 is_stmt 1              @ ../../CCC_common/Library/CMSIS/Include\cmsis_armclang.h:400:46
	ldr	r1, [sp, #52]
	.loc	4 400 3 is_stmt 0               @ ../../CCC_common/Library/CMSIS/Include\cmsis_armclang.h:400:3
	@APP
	msr	primask, r1
	@NO_APP
.Ltmp408:
	.loc	2 1324 42 is_stmt 1             @ ../../CCC_common/Library/StdDriver/src/fmc.c:1324:42
	ldr	r1, __arm_cp.23_0
	mvns	r0, r0
	str	r0, [r1]
	.loc	2 1325 29                       @ ../../CCC_common/Library/StdDriver/src/fmc.c:1325:29
	str	r0, [sp, #12]
	.loc	2 1326 21                       @ ../../CCC_common/Library/StdDriver/src/fmc.c:1326:21
	b	.LBB23_21
.Ltmp409:
.LBB23_21:                              @   in Loop: Header=BB23_17 Depth=3
	.loc	2 1327 17                       @ ../../CCC_common/Library/StdDriver/src/fmc.c:1327:17
	b	.LBB23_22
.Ltmp410:
.LBB23_22:                              @   in Loop: Header=BB23_17 Depth=3
	.loc	2 0 17 is_stmt 0                @ ../../CCC_common/Library/StdDriver/src/fmc.c:0:17
	ldr	r0, __arm_cp.23_9
	.loc	2 1328 29 is_stmt 1             @ ../../CCC_common/Library/StdDriver/src/fmc.c:1328:29
	ldr	r1, [r0]
	movs	r0, #0
	.loc	2 1328 63 is_stmt 0             @ ../../CCC_common/Library/StdDriver/src/fmc.c:1328:63
	lsls	r1, r1, #24
	lsrs	r1, r1, #30
	str	r0, [sp]                        @ 4-byte Spill
	cbz	r1, .LBB23_24
	b	.LBB23_23
.LBB23_23:                              @   in Loop: Header=BB23_17 Depth=3
	.loc	2 1328 67                       @ ../../CCC_common/Library/StdDriver/src/fmc.c:1328:67
	ldr	r0, [sp, #12]
	.loc	2 1328 71                       @ ../../CCC_common/Library/StdDriver/src/fmc.c:1328:71
	rsbs	r1, r0, #0
	adcs	r0, r1
	str	r0, [sp]                        @ 4-byte Spill
	b	.LBB23_24
.LBB23_24:                              @   in Loop: Header=BB23_17 Depth=3
	.loc	2 0 0                           @ ../../CCC_common/Library/StdDriver/src/fmc.c:0:0
	ldr	r0, [sp]                        @ 4-byte Reload
.Ltmp411:
	.loc	2 1327 17 is_stmt 1             @ ../../CCC_common/Library/StdDriver/src/fmc.c:1327:17
	lsls	r0, r0, #31
	cmp	r0, #0
	bne	.LBB23_17
	b	.LBB23_25
.Ltmp412:
.LBB23_25:                              @   in Loop: Header=BB23_5 Depth=2
	.loc	2 1330 20                       @ ../../CCC_common/Library/StdDriver/src/fmc.c:1330:20
	ldr	r0, [sp, #12]
.Ltmp413:
	.loc	2 1330 20 is_stmt 0             @ ../../CCC_common/Library/StdDriver/src/fmc.c:1330:20
	cbnz	r0, .LBB23_27
	b	.LBB23_26
.LBB23_26:                              @   in Loop: Header=BB23_5 Depth=2
.Ltmp414:
	.loc	2 1332 28 is_stmt 1             @ ../../CCC_common/Library/StdDriver/src/fmc.c:1332:28
	ldr	r0, [sp, #16]
	adds	r0, #8
	str	r0, [sp, #16]
	.loc	2 1335 35                       @ ../../CCC_common/Library/StdDriver/src/fmc.c:1335:35
	ldr	r1, [sp, #36]
	.loc	2 1335 43 is_stmt 0             @ ../../CCC_common/Library/StdDriver/src/fmc.c:1335:43
	ldr	r0, [sp, #28]
	.loc	2 1335 45                       @ ../../CCC_common/Library/StdDriver/src/fmc.c:1335:45
	lsls	r0, r0, #2
	.loc	2 1335 35                       @ ../../CCC_common/Library/StdDriver/src/fmc.c:1335:35
	adds	r0, r0, r1
	ldr	r0, [r0, #8]
	ldr	r1, __arm_cp.23_5
	.loc	2 1335 33                       @ ../../CCC_common/Library/StdDriver/src/fmc.c:1335:33
	str	r0, [r1]
	.loc	2 1336 35 is_stmt 1             @ ../../CCC_common/Library/StdDriver/src/fmc.c:1336:35
	ldr	r1, [sp, #36]
	.loc	2 1336 43 is_stmt 0             @ ../../CCC_common/Library/StdDriver/src/fmc.c:1336:43
	ldr	r0, [sp, #28]
	.loc	2 1336 45                       @ ../../CCC_common/Library/StdDriver/src/fmc.c:1336:45
	lsls	r0, r0, #2
	.loc	2 1336 35                       @ ../../CCC_common/Library/StdDriver/src/fmc.c:1336:35
	adds	r0, r0, r1
	ldr	r0, [r0, #12]
	ldr	r1, __arm_cp.23_6
	.loc	2 1336 33                       @ ../../CCC_common/Library/StdDriver/src/fmc.c:1336:33
	str	r0, [r1]
	movs	r0, #0
	str	r0, [sp, #48]
.Ltmp415:
	.loc	4 400 46 is_stmt 1              @ ../../CCC_common/Library/CMSIS/Include\cmsis_armclang.h:400:46
	ldr	r0, [sp, #48]
	.loc	4 400 3 is_stmt 0               @ ../../CCC_common/Library/CMSIS/Include\cmsis_armclang.h:400:3
	@APP
	msr	primask, r0
	@NO_APP
.Ltmp416:
	.loc	2 1338 17 is_stmt 1             @ ../../CCC_common/Library/StdDriver/src/fmc.c:1338:17
	b	.LBB23_27
.Ltmp417:
.LBB23_27:                              @   in Loop: Header=BB23_5 Depth=2
	.loc	2 1339 13                       @ ../../CCC_common/Library/StdDriver/src/fmc.c:1339:13
	b	.LBB23_28
.Ltmp418:
.LBB23_28:                              @   in Loop: Header=BB23_5 Depth=2
	.loc	2 1341 16                       @ ../../CCC_common/Library/StdDriver/src/fmc.c:1341:16
	ldr	r0, [sp, #12]
.Ltmp419:
	.loc	2 1341 16 is_stmt 0             @ ../../CCC_common/Library/StdDriver/src/fmc.c:1341:16
	cmp	r0, #0
	bpl	.LBB23_30
	b	.LBB23_29
.LBB23_29:                              @   in Loop: Header=BB23_4 Depth=1
.Ltmp420:
	.loc	2 1343 17 is_stmt 1             @ ../../CCC_common/Library/StdDriver/src/fmc.c:1343:17
	b	.LBB23_32
.Ltmp421:
.LBB23_30:                              @   in Loop: Header=BB23_5 Depth=2
	.loc	2 1345 9                        @ ../../CCC_common/Library/StdDriver/src/fmc.c:1345:9
	b	.LBB23_31
.Ltmp422:
.LBB23_31:                              @   in Loop: Header=BB23_5 Depth=2
	.loc	2 1281 60                       @ ../../CCC_common/Library/StdDriver/src/fmc.c:1281:60
	ldr	r0, [sp, #28]
	adds	r0, r0, #4
	str	r0, [sp, #28]
	.loc	2 1281 9 is_stmt 0              @ ../../CCC_common/Library/StdDriver/src/fmc.c:1281:9
	b	.LBB23_5
.Ltmp423:
.LBB23_32:                              @   in Loop: Header=BB23_4 Depth=1
	.loc	2 1346 12 is_stmt 1             @ ../../CCC_common/Library/StdDriver/src/fmc.c:1346:12
	ldr	r0, [sp, #12]
.Ltmp424:
	.loc	2 1346 12 is_stmt 0             @ ../../CCC_common/Library/StdDriver/src/fmc.c:1346:12
	cbnz	r0, .LBB23_39
	b	.LBB23_33
.LBB23_33:                              @   in Loop: Header=BB23_4 Depth=1
	.loc	2 0 12                          @ ../../CCC_common/Library/StdDriver/src/fmc.c:0:12
	movs	r0, #0
.Ltmp425:
	.loc	2 1348 23 is_stmt 1             @ ../../CCC_common/Library/StdDriver/src/fmc.c:1348:23
	str	r0, [sp, #20]
	.loc	2 1349 29                       @ ../../CCC_common/Library/StdDriver/src/fmc.c:1349:29
	ldr	r0, __arm_cp.23_8
	ldr	r0, [r0]
	lsrs	r0, r0, #3
	.loc	2 1349 27 is_stmt 0             @ ../../CCC_common/Library/StdDriver/src/fmc.c:1349:27
	str	r0, [sp, #8]
	.loc	2 1350 13 is_stmt 1             @ ../../CCC_common/Library/StdDriver/src/fmc.c:1350:13
	b	.LBB23_34
.LBB23_34:                              @   Parent Loop BB23_4 Depth=1
                                        @ =>  This Inner Loop Header: Depth=2
	.loc	2 0 13 is_stmt 0                @ ../../CCC_common/Library/StdDriver/src/fmc.c:0:13
	ldr	r0, __arm_cp.23_11
	.loc	2 1350 24                       @ ../../CCC_common/Library/StdDriver/src/fmc.c:1350:24
	ldr	r0, [r0]
	.loc	2 1350 13                       @ ../../CCC_common/Library/StdDriver/src/fmc.c:1350:13
	lsls	r0, r0, #31
	cbz	r0, .LBB23_38
	b	.LBB23_35
.LBB23_35:                              @   in Loop: Header=BB23_34 Depth=2
.Ltmp426:
	.loc	2 1352 34 is_stmt 1             @ ../../CCC_common/Library/StdDriver/src/fmc.c:1352:34
	ldr	r0, [sp, #8]
	subs	r1, r0, #1
	str	r1, [sp, #8]
.Ltmp427:
	.loc	2 1352 21 is_stmt 0             @ ../../CCC_common/Library/StdDriver/src/fmc.c:1352:21
	cmp	r0, #0
	bgt	.LBB23_37
	b	.LBB23_36
.LBB23_36:                              @   in Loop: Header=BB23_4 Depth=1
.Ltmp428:
	.loc	2 1354 38 is_stmt 1             @ ../../CCC_common/Library/StdDriver/src/fmc.c:1354:38
	ldr	r1, __arm_cp.23_0
	movs	r0, #0
	mvns	r0, r0
	str	r0, [r1]
	.loc	2 1355 21                       @ ../../CCC_common/Library/StdDriver/src/fmc.c:1355:21
	b	.LBB23_38
.Ltmp429:
.LBB23_37:                              @   in Loop: Header=BB23_34 Depth=2
	.loc	2 1350 13                       @ ../../CCC_common/Library/StdDriver/src/fmc.c:1350:13
	b	.LBB23_34
.LBB23_38:                              @   in Loop: Header=BB23_4 Depth=1
	.loc	2 1358 9                        @ ../../CCC_common/Library/StdDriver/src/fmc.c:1358:9
	b	.LBB23_39
.Ltmp430:
.LBB23_39:                              @   in Loop: Header=BB23_4 Depth=1
	.loc	2 1359 5                        @ ../../CCC_common/Library/StdDriver/src/fmc.c:1359:5
	b	.LBB23_40
.Ltmp431:
.LBB23_40:                              @   in Loop: Header=BB23_4 Depth=1
	.loc	2 1360 11                       @ ../../CCC_common/Library/StdDriver/src/fmc.c:1360:11
	ldr	r0, [sp, #20]
.Ltmp432:
	.loc	2 1359 5                        @ ../../CCC_common/Library/StdDriver/src/fmc.c:1359:5
	cbz	r0, .LBB23_41
	b	.LBB23_4
.Ltmp433:
.LBB23_41:
	.loc	2 1362 12                       @ ../../CCC_common/Library/StdDriver/src/fmc.c:1362:12
	ldr	r0, [sp, #16]
	.loc	2 1362 5 is_stmt 0              @ ../../CCC_common/Library/StdDriver/src/fmc.c:1362:5
	str	r0, [sp, #44]
	b	.LBB23_42
.LBB23_42:
	.loc	2 1363 1 is_stmt 1              @ ../../CCC_common/Library/StdDriver/src/fmc.c:1363:1
	ldr	r0, [sp, #44]
	.loc	2 1363 1 epilogue_begin is_stmt 0 @ ../../CCC_common/Library/StdDriver/src/fmc.c:1363:1
	add	sp, #72
	bx	lr
.Ltmp434:
	.loc	2 0 1                           @ :0:1
.Ltmp435:
	.p2align	2
@ %bb.43:
__arm_cp.23_0:
	.long	g_FMC_i32ErrCode
.Lcpi_end136:
	.size	__arm_cp.23_0, .Lcpi_end136-__arm_cp.23_0
__arm_cp.23_1:
	.long	1073790988                      @ 0x4000c00c
.Lcpi_end137:
	.size	__arm_cp.23_1, .Lcpi_end137-__arm_cp.23_1
__arm_cp.23_2:
	.long	1073790980                      @ 0x4000c004
.Lcpi_end138:
	.size	__arm_cp.23_2, .Lcpi_end138-__arm_cp.23_2
__arm_cp.23_3:
	.long	1073791104                      @ 0x4000c080
.Lcpi_end139:
	.size	__arm_cp.23_3, .Lcpi_end139-__arm_cp.23_3
__arm_cp.23_4:
	.long	1073791108                      @ 0x4000c084
.Lcpi_end140:
	.size	__arm_cp.23_4, .Lcpi_end140-__arm_cp.23_4
__arm_cp.23_5:
	.long	1073791112                      @ 0x4000c088
.Lcpi_end141:
	.size	__arm_cp.23_5, .Lcpi_end141-__arm_cp.23_5
__arm_cp.23_6:
	.long	1073791116                      @ 0x4000c08c
.Lcpi_end142:
	.size	__arm_cp.23_6, .Lcpi_end142-__arm_cp.23_6
__arm_cp.23_7:
	.long	1073790992                      @ 0x4000c010
.Lcpi_end143:
	.size	__arm_cp.23_7, .Lcpi_end143-__arm_cp.23_7
__arm_cp.23_8:
	.long	SystemCoreClock
.Lcpi_end144:
	.size	__arm_cp.23_8, .Lcpi_end144-__arm_cp.23_8
__arm_cp.23_9:
	.long	1073791168                      @ 0x4000c0c0
.Lcpi_end145:
	.size	__arm_cp.23_9, .Lcpi_end145-__arm_cp.23_9
__arm_cp.23_10:
	.long	1073791172                      @ 0x4000c0c4
.Lcpi_end146:
	.size	__arm_cp.23_10, .Lcpi_end146-__arm_cp.23_10
__arm_cp.23_11:
	.long	1073791040                      @ 0x4000c040
.Lcpi_end147:
	.size	__arm_cp.23_11, .Lcpi_end147-__arm_cp.23_11
.Lfunc_end23:
	.size	FMC_WriteMultiple, .Lfunc_end23-FMC_WriteMultiple
	.cfi_endproc
	.cantunwind
	.fnend
                                        @ -- End function
	.section	.text.FMC_Write_OTP,"ax",%progbits
	.hidden	FMC_Write_OTP                   @ -- Begin function FMC_Write_OTP
	.globl	FMC_Write_OTP
	.p2align	2
	.type	FMC_Write_OTP,%function
	.code	16                              @ @FMC_Write_OTP
	.thumb_func
FMC_Write_OTP:
.Lfunc_begin24:
	.loc	2 1383 0 is_stmt 1              @ ../../CCC_common/Library/StdDriver/src/fmc.c:1383:0
	.fnstart
	.cfi_startproc
@ %bb.0:
	.pad	#20
	sub	sp, #20
	.cfi_def_cfa_offset 20
	str	r0, [sp, #16]
	str	r1, [sp, #12]
	str	r2, [sp, #8]
	movs	r0, #0
.Ltmp436:
	.loc	2 1384 14 prologue_end          @ ../../CCC_common/Library/StdDriver/src/fmc.c:1384:14
	str	r0, [sp, #4]
	.loc	2 1386 22                       @ ../../CCC_common/Library/StdDriver/src/fmc.c:1386:22
	ldr	r1, __arm_cp.24_0
	str	r0, [r1]
.Ltmp437:
	.loc	2 1388 8                        @ ../../CCC_common/Library/StdDriver/src/fmc.c:1388:8
	ldr	r0, [sp, #16]
.Ltmp438:
	.loc	2 1388 8 is_stmt 0              @ ../../CCC_common/Library/StdDriver/src/fmc.c:1388:8
	lsrs	r0, r0, #8
	cbz	r0, .LBB24_2
	b	.LBB24_1
.LBB24_1:
.Ltmp439:
	.loc	2 1390 26 is_stmt 1             @ ../../CCC_common/Library/StdDriver/src/fmc.c:1390:26
	ldr	r1, __arm_cp.24_0
	movs	r0, #1
	mvns	r0, r0
	str	r0, [r1]
	.loc	2 1391 13                       @ ../../CCC_common/Library/StdDriver/src/fmc.c:1391:13
	str	r0, [sp, #4]
	.loc	2 1392 5                        @ ../../CCC_common/Library/StdDriver/src/fmc.c:1392:5
	b	.LBB24_2
.Ltmp440:
.LBB24_2:
	.loc	2 1394 8                        @ ../../CCC_common/Library/StdDriver/src/fmc.c:1394:8
	ldr	r0, [sp, #4]
.Ltmp441:
	.loc	2 1394 8 is_stmt 0              @ ../../CCC_common/Library/StdDriver/src/fmc.c:1394:8
	cbnz	r0, .LBB24_11
	b	.LBB24_3
.LBB24_3:
	.loc	2 0 8                           @ ../../CCC_common/Library/StdDriver/src/fmc.c:0:8
	ldr	r1, __arm_cp.24_1
	movs	r0, #33
.Ltmp442:
	.loc	2 1396 21 is_stmt 1             @ ../../CCC_common/Library/StdDriver/src/fmc.c:1396:21
	str	r0, [r1]
	.loc	2 1397 39                       @ ../../CCC_common/Library/StdDriver/src/fmc.c:1397:39
	ldr	r0, [sp, #16]
	.loc	2 1397 49 is_stmt 0             @ ../../CCC_common/Library/StdDriver/src/fmc.c:1397:49
	lsls	r0, r0, #3
	movs	r1, #49
	lsls	r1, r1, #16
	.loc	2 1397 37                       @ ../../CCC_common/Library/StdDriver/src/fmc.c:1397:37
	adds	r0, r0, r1
	ldr	r1, __arm_cp.24_2
	.loc	2 1397 22                       @ ../../CCC_common/Library/StdDriver/src/fmc.c:1397:22
	str	r0, [r1]
	.loc	2 1398 23 is_stmt 1             @ ../../CCC_common/Library/StdDriver/src/fmc.c:1398:23
	ldr	r0, [sp, #12]
	ldr	r1, __arm_cp.24_3
	.loc	2 1398 21 is_stmt 0             @ ../../CCC_common/Library/StdDriver/src/fmc.c:1398:21
	str	r0, [r1]
	ldr	r1, __arm_cp.24_4
	movs	r0, #1
	.loc	2 1399 21 is_stmt 1             @ ../../CCC_common/Library/StdDriver/src/fmc.c:1399:21
	str	r0, [r1]
	.loc	2 1401 25                       @ ../../CCC_common/Library/StdDriver/src/fmc.c:1401:25
	ldr	r0, __arm_cp.24_5
	ldr	r0, [r0]
	lsrs	r0, r0, #3
	.loc	2 1401 23 is_stmt 0             @ ../../CCC_common/Library/StdDriver/src/fmc.c:1401:23
	str	r0, [sp]
	.loc	2 1402 9 is_stmt 1              @ ../../CCC_common/Library/StdDriver/src/fmc.c:1402:9
	b	.LBB24_4
.LBB24_4:                               @ =>This Inner Loop Header: Depth=1
	.loc	2 0 9 is_stmt 0                 @ ../../CCC_common/Library/StdDriver/src/fmc.c:0:9
	ldr	r0, __arm_cp.24_4
	.loc	2 1402 20                       @ ../../CCC_common/Library/StdDriver/src/fmc.c:1402:20
	ldr	r0, [r0]
	.loc	2 1402 9                        @ ../../CCC_common/Library/StdDriver/src/fmc.c:1402:9
	lsls	r0, r0, #31
	cbz	r0, .LBB24_8
	b	.LBB24_5
.LBB24_5:                               @   in Loop: Header=BB24_4 Depth=1
.Ltmp443:
	.loc	2 1404 30 is_stmt 1             @ ../../CCC_common/Library/StdDriver/src/fmc.c:1404:30
	ldr	r0, [sp]
	subs	r1, r0, #1
	str	r1, [sp]
.Ltmp444:
	.loc	2 1404 17 is_stmt 0             @ ../../CCC_common/Library/StdDriver/src/fmc.c:1404:17
	cmp	r0, #0
	bgt	.LBB24_7
	b	.LBB24_6
.LBB24_6:
.Ltmp445:
	.loc	2 1406 34 is_stmt 1             @ ../../CCC_common/Library/StdDriver/src/fmc.c:1406:34
	ldr	r1, __arm_cp.24_0
	movs	r0, #0
	mvns	r0, r0
	str	r0, [r1]
	.loc	2 1407 21                       @ ../../CCC_common/Library/StdDriver/src/fmc.c:1407:21
	str	r0, [sp, #4]
	.loc	2 1408 17                       @ ../../CCC_common/Library/StdDriver/src/fmc.c:1408:17
	b	.LBB24_8
.Ltmp446:
.LBB24_7:                               @   in Loop: Header=BB24_4 Depth=1
	.loc	2 1402 9                        @ ../../CCC_common/Library/StdDriver/src/fmc.c:1402:9
	b	.LBB24_4
.LBB24_8:
	.loc	2 0 9 is_stmt 0                 @ ../../CCC_common/Library/StdDriver/src/fmc.c:0:9
	ldr	r0, __arm_cp.24_6
.Ltmp447:
	.loc	2 1412 17 is_stmt 1             @ ../../CCC_common/Library/StdDriver/src/fmc.c:1412:17
	ldr	r0, [r0]
.Ltmp448:
	.loc	2 1412 12 is_stmt 0             @ ../../CCC_common/Library/StdDriver/src/fmc.c:1412:12
	lsls	r0, r0, #25
	cmp	r0, #0
	bpl	.LBB24_10
	b	.LBB24_9
.LBB24_9:
	.loc	2 0 12                          @ ../../CCC_common/Library/StdDriver/src/fmc.c:0:12
	ldr	r1, __arm_cp.24_6
.Ltmp449:
	.loc	2 1414 25 is_stmt 1             @ ../../CCC_common/Library/StdDriver/src/fmc.c:1414:25
	ldr	r0, [r1]
	movs	r2, #64
	orrs	r0, r2
	str	r0, [r1]
	.loc	2 1415 30                       @ ../../CCC_common/Library/StdDriver/src/fmc.c:1415:30
	ldr	r1, __arm_cp.24_0
	movs	r0, #0
	mvns	r0, r0
	str	r0, [r1]
	.loc	2 1416 17                       @ ../../CCC_common/Library/StdDriver/src/fmc.c:1416:17
	str	r0, [sp, #4]
	.loc	2 1417 9                        @ ../../CCC_common/Library/StdDriver/src/fmc.c:1417:9
	b	.LBB24_10
.Ltmp450:
.LBB24_10:
	.loc	2 1418 5                        @ ../../CCC_common/Library/StdDriver/src/fmc.c:1418:5
	b	.LBB24_11
.Ltmp451:
.LBB24_11:
	.loc	2 1420 8                        @ ../../CCC_common/Library/StdDriver/src/fmc.c:1420:8
	ldr	r0, [sp, #4]
.Ltmp452:
	.loc	2 1420 8 is_stmt 0              @ ../../CCC_common/Library/StdDriver/src/fmc.c:1420:8
	cbnz	r0, .LBB24_20
	b	.LBB24_12
.LBB24_12:
	.loc	2 0 8                           @ ../../CCC_common/Library/StdDriver/src/fmc.c:0:8
	ldr	r1, __arm_cp.24_1
	movs	r0, #33
.Ltmp453:
	.loc	2 1422 21 is_stmt 1             @ ../../CCC_common/Library/StdDriver/src/fmc.c:1422:21
	str	r0, [r1]
	.loc	2 1423 39                       @ ../../CCC_common/Library/StdDriver/src/fmc.c:1423:39
	ldr	r0, [sp, #16]
	.loc	2 1423 49 is_stmt 0             @ ../../CCC_common/Library/StdDriver/src/fmc.c:1423:49
	lsls	r0, r0, #3
	ldr	r1, __arm_cp.24_7
	.loc	2 1423 55                       @ ../../CCC_common/Library/StdDriver/src/fmc.c:1423:55
	adds	r0, r0, r1
	ldr	r1, __arm_cp.24_2
	.loc	2 1423 22                       @ ../../CCC_common/Library/StdDriver/src/fmc.c:1423:22
	str	r0, [r1]
	.loc	2 1424 23 is_stmt 1             @ ../../CCC_common/Library/StdDriver/src/fmc.c:1424:23
	ldr	r0, [sp, #8]
	ldr	r1, __arm_cp.24_3
	.loc	2 1424 21 is_stmt 0             @ ../../CCC_common/Library/StdDriver/src/fmc.c:1424:21
	str	r0, [r1]
	ldr	r1, __arm_cp.24_4
	movs	r0, #1
	.loc	2 1425 21 is_stmt 1             @ ../../CCC_common/Library/StdDriver/src/fmc.c:1425:21
	str	r0, [r1]
	.loc	2 1427 25                       @ ../../CCC_common/Library/StdDriver/src/fmc.c:1427:25
	ldr	r0, __arm_cp.24_5
	ldr	r0, [r0]
	lsrs	r0, r0, #3
	.loc	2 1427 23 is_stmt 0             @ ../../CCC_common/Library/StdDriver/src/fmc.c:1427:23
	str	r0, [sp]
	.loc	2 1428 9 is_stmt 1              @ ../../CCC_common/Library/StdDriver/src/fmc.c:1428:9
	b	.LBB24_13
.LBB24_13:                              @ =>This Inner Loop Header: Depth=1
	.loc	2 0 9 is_stmt 0                 @ ../../CCC_common/Library/StdDriver/src/fmc.c:0:9
	ldr	r0, __arm_cp.24_4
	.loc	2 1428 20                       @ ../../CCC_common/Library/StdDriver/src/fmc.c:1428:20
	ldr	r0, [r0]
	.loc	2 1428 9                        @ ../../CCC_common/Library/StdDriver/src/fmc.c:1428:9
	lsls	r0, r0, #31
	cbz	r0, .LBB24_17
	b	.LBB24_14
.LBB24_14:                              @   in Loop: Header=BB24_13 Depth=1
.Ltmp454:
	.loc	2 1430 30 is_stmt 1             @ ../../CCC_common/Library/StdDriver/src/fmc.c:1430:30
	ldr	r0, [sp]
	subs	r1, r0, #1
	str	r1, [sp]
.Ltmp455:
	.loc	2 1430 17 is_stmt 0             @ ../../CCC_common/Library/StdDriver/src/fmc.c:1430:17
	cmp	r0, #0
	bgt	.LBB24_16
	b	.LBB24_15
.LBB24_15:
.Ltmp456:
	.loc	2 1432 34 is_stmt 1             @ ../../CCC_common/Library/StdDriver/src/fmc.c:1432:34
	ldr	r1, __arm_cp.24_0
	movs	r0, #0
	mvns	r0, r0
	str	r0, [r1]
	.loc	2 1433 21                       @ ../../CCC_common/Library/StdDriver/src/fmc.c:1433:21
	str	r0, [sp, #4]
	.loc	2 1434 17                       @ ../../CCC_common/Library/StdDriver/src/fmc.c:1434:17
	b	.LBB24_17
.Ltmp457:
.LBB24_16:                              @   in Loop: Header=BB24_13 Depth=1
	.loc	2 1428 9                        @ ../../CCC_common/Library/StdDriver/src/fmc.c:1428:9
	b	.LBB24_13
.LBB24_17:
	.loc	2 0 9 is_stmt 0                 @ ../../CCC_common/Library/StdDriver/src/fmc.c:0:9
	ldr	r0, __arm_cp.24_6
.Ltmp458:
	.loc	2 1438 17 is_stmt 1             @ ../../CCC_common/Library/StdDriver/src/fmc.c:1438:17
	ldr	r0, [r0]
.Ltmp459:
	.loc	2 1438 12 is_stmt 0             @ ../../CCC_common/Library/StdDriver/src/fmc.c:1438:12
	lsls	r0, r0, #25
	cmp	r0, #0
	bpl	.LBB24_19
	b	.LBB24_18
.LBB24_18:
	.loc	2 0 12                          @ ../../CCC_common/Library/StdDriver/src/fmc.c:0:12
	ldr	r1, __arm_cp.24_6
.Ltmp460:
	.loc	2 1440 25 is_stmt 1             @ ../../CCC_common/Library/StdDriver/src/fmc.c:1440:25
	ldr	r0, [r1]
	movs	r2, #64
	orrs	r0, r2
	str	r0, [r1]
	.loc	2 1441 30                       @ ../../CCC_common/Library/StdDriver/src/fmc.c:1441:30
	ldr	r1, __arm_cp.24_0
	movs	r0, #0
	mvns	r0, r0
	str	r0, [r1]
	.loc	2 1442 17                       @ ../../CCC_common/Library/StdDriver/src/fmc.c:1442:17
	str	r0, [sp, #4]
	.loc	2 1443 9                        @ ../../CCC_common/Library/StdDriver/src/fmc.c:1443:9
	b	.LBB24_19
.Ltmp461:
.LBB24_19:
	.loc	2 1444 5                        @ ../../CCC_common/Library/StdDriver/src/fmc.c:1444:5
	b	.LBB24_20
.Ltmp462:
.LBB24_20:
	.loc	2 1446 12                       @ ../../CCC_common/Library/StdDriver/src/fmc.c:1446:12
	ldr	r0, [sp, #4]
	.loc	2 1446 5 epilogue_begin is_stmt 0 @ ../../CCC_common/Library/StdDriver/src/fmc.c:1446:5
	add	sp, #20
	bx	lr
.Ltmp463:
	.loc	2 0 5                           @ :0:5
.Ltmp464:
	.p2align	2
@ %bb.21:
__arm_cp.24_0:
	.long	g_FMC_i32ErrCode
.Lcpi_end148:
	.size	__arm_cp.24_0, .Lcpi_end148-__arm_cp.24_0
__arm_cp.24_1:
	.long	1073790988                      @ 0x4000c00c
.Lcpi_end149:
	.size	__arm_cp.24_1, .Lcpi_end149-__arm_cp.24_1
__arm_cp.24_2:
	.long	1073790980                      @ 0x4000c004
.Lcpi_end150:
	.size	__arm_cp.24_2, .Lcpi_end150-__arm_cp.24_2
__arm_cp.24_3:
	.long	1073790984                      @ 0x4000c008
.Lcpi_end151:
	.size	__arm_cp.24_3, .Lcpi_end151-__arm_cp.24_3
__arm_cp.24_4:
	.long	1073790992                      @ 0x4000c010
.Lcpi_end152:
	.size	__arm_cp.24_4, .Lcpi_end152-__arm_cp.24_4
__arm_cp.24_5:
	.long	SystemCoreClock
.Lcpi_end153:
	.size	__arm_cp.24_5, .Lcpi_end153-__arm_cp.24_5
__arm_cp.24_6:
	.long	1073791040                      @ 0x4000c040
.Lcpi_end154:
	.size	__arm_cp.24_6, .Lcpi_end154-__arm_cp.24_6
__arm_cp.24_7:
	.long	3211268                         @ 0x310004
.Lcpi_end155:
	.size	__arm_cp.24_7, .Lcpi_end155-__arm_cp.24_7
.Lfunc_end24:
	.size	FMC_Write_OTP, .Lfunc_end24-FMC_Write_OTP
	.cfi_endproc
	.cantunwind
	.fnend
                                        @ -- End function
	.hidden	g_FMC_i32ErrCode                @ @g_FMC_i32ErrCode
	.type	g_FMC_i32ErrCode,%object
	.section	.bss.g_FMC_i32ErrCode,"aw",%nobits
	.globl	g_FMC_i32ErrCode
	.p2align	2, 0x0
g_FMC_i32ErrCode:
	.long	0                               @ 0x0
	.size	g_FMC_i32ErrCode, 4

	.section	".note.GNU-stack","",%progbits
	.eabi_attribute	30, 6	@ Tag_ABI_optimization_goals
	.ARM_attribute	16, 1	@ Tag_AV_eba