	.text
	.syntax unified
	.eabi_attribute	67, "2.09"	@ Tag_conformance
	.cpu	cortex-m23
	.eabi_attribute	6, 16	@ Tag_CPU_arch
	.eabi_attribute	7, 77	@ Tag_CPU_arch_profile
	.eabi_attribute	8, 0	@ Tag_ARM_ISA_use
	.eabi_attribute	9, 3	@ Tag_THUMB_ISA_use
	.eabi_attribute	34, 0	@ Tag_CPU_unaligned_access
	.eabi_attribute	17, 1	@ Tag_ABI_PCS_GOT_use
	.eabi_attribute	20, 2	@ Tag_ABI_FP_denormal
	.eabi_attribute	21, 0	@ Tag_ABI_FP_exceptions
	.eabi_attribute	23, 1	@ Tag_ABI_FP_number_model
	.eabi_attribute	24, 1	@ Tag_ABI_align_needed
	.eabi_attribute	25, 1	@ Tag_ABI_align_preserved
	.eabi_attribute	38, 1	@ Tag_ABI_FP_16bit_format
	.eabi_attribute	18, 4	@ Tag_ABI_PCS_wchar_t
	.eabi_attribute	26, 2	@ Tag_ABI_enum_size
	.eabi_attribute	14, 0	@ Tag_ABI_PCS_R9_use
	.file	"gpio.c"
	.section	.text.GPIO_SetMode,"ax",%progbits
	.hidden	GPIO_SetMode                    @ -- Begin function GPIO_SetMode
	.globl	GPIO_SetMode
	.p2align	1
	.type	GPIO_SetMode,%function
	.code	16                              @ @GPIO_SetMode
	.thumb_func
GPIO_SetMode:
.Lfunc_begin0:
	.file	1 "D:\\work\\dheeraj\\local\\CEL\\CCC\\CCC_CPU123\\Code" "../../CCC_common/Library/StdDriver/src/gpio.c"
	.loc	1 48 0                          @ ../../CCC_common/Library/StdDriver/src/gpio.c:48:0
	.fnstart
	.cfi_sections .debug_frame
	.cfi_startproc
@ %bb.0:
	.pad	#16
	sub	sp, #16
	.cfi_def_cfa_offset 16
	str	r0, [sp, #12]
	str	r1, [sp, #8]
	str	r2, [sp, #4]
	movs	r0, #0
.Ltmp0:
	.loc	1 51 16 prologue_end            @ ../../CCC_common/Library/StdDriver/src/gpio.c:51:16
	str	r0, [sp]
	.loc	1 51 9 is_stmt 0                @ ../../CCC_common/Library/StdDriver/src/gpio.c:51:9
	b	.LBB0_1
.LBB0_1:                                @ =>This Inner Loop Header: Depth=1
.Ltmp1:
	.loc	1 51 23                         @ ../../CCC_common/Library/StdDriver/src/gpio.c:51:23
	ldr	r0, [sp]
.Ltmp2:
	.loc	1 51 5                          @ ../../CCC_common/Library/StdDriver/src/gpio.c:51:5
	cmp	r0, #15
	bhi	.LBB0_6
	b	.LBB0_2
.LBB0_2:                                @   in Loop: Header=BB0_1 Depth=1
.Ltmp3:
	.loc	1 53 13 is_stmt 1               @ ../../CCC_common/Library/StdDriver/src/gpio.c:53:13
	ldr	r0, [sp, #8]
	.loc	1 53 34 is_stmt 0               @ ../../CCC_common/Library/StdDriver/src/gpio.c:53:34
	ldr	r1, [sp]
.Ltmp4:
	.loc	1 53 12                         @ ../../CCC_common/Library/StdDriver/src/gpio.c:53:12
	lsrs	r0, r1
	lsls	r0, r0, #31
	cbz	r0, .LBB0_4
	b	.LBB0_3
.LBB0_3:                                @   in Loop: Header=BB0_1 Depth=1
.Ltmp5:
	.loc	1 55 27 is_stmt 1               @ ../../CCC_common/Library/StdDriver/src/gpio.c:55:27
	ldr	r0, [sp, #12]
	.loc	1 55 33 is_stmt 0               @ ../../CCC_common/Library/StdDriver/src/gpio.c:55:33
	ldr	r0, [r0]
	.loc	1 55 52                         @ ../../CCC_common/Library/StdDriver/src/gpio.c:55:52
	ldr	r1, [sp]
	.loc	1 55 59                         @ ../../CCC_common/Library/StdDriver/src/gpio.c:55:59
	lsls	r2, r1, #1
	movs	r1, #3
	.loc	1 55 48                         @ ../../CCC_common/Library/StdDriver/src/gpio.c:55:48
	lsls	r1, r2
	.loc	1 55 38                         @ ../../CCC_common/Library/StdDriver/src/gpio.c:55:38
	bics	r0, r1
	.loc	1 55 70                         @ ../../CCC_common/Library/StdDriver/src/gpio.c:55:70
	ldr	r1, [sp, #4]
	.loc	1 55 78                         @ ../../CCC_common/Library/StdDriver/src/gpio.c:55:78
	lsls	r1, r2
	.loc	1 55 67                         @ ../../CCC_common/Library/StdDriver/src/gpio.c:55:67
	orrs	r0, r1
	.loc	1 55 13                         @ ../../CCC_common/Library/StdDriver/src/gpio.c:55:13
	ldr	r1, [sp, #12]
	.loc	1 55 24                         @ ../../CCC_common/Library/StdDriver/src/gpio.c:55:24
	str	r0, [r1]
	.loc	1 56 9 is_stmt 1                @ ../../CCC_common/Library/StdDriver/src/gpio.c:56:9
	b	.LBB0_4
.Ltmp6:
.LBB0_4:                                @   in Loop: Header=BB0_1 Depth=1
	.loc	1 57 5                          @ ../../CCC_common/Library/StdDriver/src/gpio.c:57:5
	b	.LBB0_5
.Ltmp7:
.LBB0_5:                                @   in Loop: Header=BB0_1 Depth=1
	.loc	1 51 52                         @ ../../CCC_common/Library/StdDriver/src/gpio.c:51:52
	ldr	r0, [sp]
	adds	r0, r0, #1
	str	r0, [sp]
	.loc	1 51 5 is_stmt 0                @ ../../CCC_common/Library/StdDriver/src/gpio.c:51:5
	b	.LBB0_1
.Ltmp8:
.LBB0_6:
	.loc	1 58 1 epilogue_begin is_stmt 1 @ ../../CCC_common/Library/StdDriver/src/gpio.c:58:1
	add	sp, #16
	bx	lr
.Ltmp9:
.Lfunc_end0:
	.size	GPIO_SetMode, .Lfunc_end0-GPIO_SetMode
	.cfi_endproc
	.cantunwind
	.fnend
                                        @ -- End function
	.section	.text.GPIO_EnableInt,"ax",%progbits
	.hidden	GPIO_EnableInt                  @ -- Begin function GPIO_EnableInt
	.globl	GPIO_EnableInt
	.p2align	2
	.type	GPIO_EnableInt,%function
	.code	16                              @ @GPIO_EnableInt
	.thumb_func
GPIO_EnableInt:
.Lfunc_begin1:
	.loc	1 83 0                          @ ../../CCC_common/Library/StdDriver/src/gpio.c:83:0
	.fnstart
	.cfi_startproc
@ %bb.0:
	.pad	#12
	sub	sp, #12
	.cfi_def_cfa_offset 12
	str	r0, [sp, #8]
	str	r1, [sp, #4]
	str	r2, [sp]
.Ltmp10:
	.loc	1 85 22 prologue_end            @ ../../CCC_common/Library/StdDriver/src/gpio.c:85:22
	ldr	r0, [sp, #8]
	.loc	1 85 28 is_stmt 0               @ ../../CCC_common/Library/StdDriver/src/gpio.c:85:28
	ldr	r0, [r0, #24]
	.loc	1 85 47                         @ ../../CCC_common/Library/StdDriver/src/gpio.c:85:47
	ldr	r2, [sp, #4]
	movs	r1, #1
	.loc	1 85 44                         @ ../../CCC_common/Library/StdDriver/src/gpio.c:85:44
	lsls	r1, r2
	.loc	1 85 36                         @ ../../CCC_common/Library/StdDriver/src/gpio.c:85:36
	bics	r0, r1
	mov	r1, sp
	.loc	1 85 61                         @ ../../CCC_common/Library/StdDriver/src/gpio.c:85:61
	ldrb	r1, [r1, #3]
	.loc	1 85 92                         @ ../../CCC_common/Library/StdDriver/src/gpio.c:85:92
	lsls	r1, r2
	.loc	1 85 56                         @ ../../CCC_common/Library/StdDriver/src/gpio.c:85:56
	orrs	r0, r1
	.loc	1 85 5                          @ ../../CCC_common/Library/StdDriver/src/gpio.c:85:5
	ldr	r1, [sp, #8]
	.loc	1 85 19                         @ ../../CCC_common/Library/StdDriver/src/gpio.c:85:19
	str	r0, [r1, #24]
	.loc	1 88 20 is_stmt 1               @ ../../CCC_common/Library/StdDriver/src/gpio.c:88:20
	ldr	r0, [sp, #8]
	.loc	1 88 26 is_stmt 0               @ ../../CCC_common/Library/StdDriver/src/gpio.c:88:26
	ldr	r0, [r0, #28]
	.loc	1 88 52                         @ ../../CCC_common/Library/StdDriver/src/gpio.c:88:52
	ldr	r2, [sp, #4]
	ldr	r1, __arm_cp.1_0
	.loc	1 88 49                         @ ../../CCC_common/Library/StdDriver/src/gpio.c:88:49
	lsls	r1, r2
	.loc	1 88 32                         @ ../../CCC_common/Library/StdDriver/src/gpio.c:88:32
	bics	r0, r1
	.loc	1 88 65                         @ ../../CCC_common/Library/StdDriver/src/gpio.c:88:65
	ldr	r1, [sp]
	movs	r3, #255
	lsls	r3, r3, #24
	.loc	1 88 79                         @ ../../CCC_common/Library/StdDriver/src/gpio.c:88:79
	bics	r1, r3
	.loc	1 88 93                         @ ../../CCC_common/Library/StdDriver/src/gpio.c:88:93
	lsls	r1, r2
	.loc	1 88 61                         @ ../../CCC_common/Library/StdDriver/src/gpio.c:88:61
	orrs	r0, r1
	.loc	1 88 5                          @ ../../CCC_common/Library/StdDriver/src/gpio.c:88:5
	ldr	r1, [sp, #8]
	.loc	1 88 17                         @ ../../CCC_common/Library/StdDriver/src/gpio.c:88:17
	str	r0, [r1, #28]
	.loc	1 89 1 epilogue_begin is_stmt 1 @ ../../CCC_common/Library/StdDriver/src/gpio.c:89:1
	add	sp, #12
	bx	lr
.Ltmp11:
	.loc	1 0 1 is_stmt 0                 @ :0:1
.Ltmp12:
	.p2align	2
@ %bb.1:
__arm_cp.1_0:
	.long	65537                           @ 0x10001
.Lcpi_end0:
	.size	__arm_cp.1_0, .Lcpi_end0-__arm_cp.1_0
.Lfunc_end1:
	.size	GPIO_EnableInt, .Lfunc_end1-GPIO_EnableInt
	.cfi_endproc
	.cantunwind
	.fnend
                                        @ -- End function
	.section	.text.GPIO_DisableInt,"ax",%progbits
	.hidden	GPIO_DisableInt                 @ -- Begin function GPIO_DisableInt
	.globl	GPIO_DisableInt
	.p2align	2
	.type	GPIO_DisableInt,%function
	.code	16                              @ @GPIO_DisableInt
	.thumb_func
GPIO_DisableInt:
.Lfunc_begin2:
	.loc	1 110 0 is_stmt 1               @ ../../CCC_common/Library/StdDriver/src/gpio.c:110:0
	.fnstart
	.cfi_startproc
@ %bb.0:
	.pad	#8
	sub	sp, #8
	.cfi_def_cfa_offset 8
	str	r0, [sp, #4]
	str	r1, [sp]
.Ltmp13:
	.loc	1 112 31 prologue_end           @ ../../CCC_common/Library/StdDriver/src/gpio.c:112:31
	ldr	r0, [sp]
	movs	r2, #1
	.loc	1 112 28 is_stmt 0              @ ../../CCC_common/Library/StdDriver/src/gpio.c:112:28
	lsls	r2, r0
	.loc	1 112 5                         @ ../../CCC_common/Library/StdDriver/src/gpio.c:112:5
	ldr	r1, [sp, #4]
	.loc	1 112 19                        @ ../../CCC_common/Library/StdDriver/src/gpio.c:112:19
	ldr	r0, [r1, #24]
	bics	r0, r2
	str	r0, [r1, #24]
	.loc	1 115 40 is_stmt 1              @ ../../CCC_common/Library/StdDriver/src/gpio.c:115:40
	ldr	r0, [sp]
	ldr	r2, __arm_cp.2_0
	.loc	1 115 37 is_stmt 0              @ ../../CCC_common/Library/StdDriver/src/gpio.c:115:37
	lsls	r2, r0
	.loc	1 115 5                         @ ../../CCC_common/Library/StdDriver/src/gpio.c:115:5
	ldr	r1, [sp, #4]
	.loc	1 115 17                        @ ../../CCC_common/Library/StdDriver/src/gpio.c:115:17
	ldr	r0, [r1, #28]
	bics	r0, r2
	str	r0, [r1, #28]
	.loc	1 116 1 epilogue_begin is_stmt 1 @ ../../CCC_common/Library/StdDriver/src/gpio.c:116:1
	add	sp, #8
	bx	lr
.Ltmp14:
	.loc	1 0 1 is_stmt 0                 @ :0:1
.Ltmp15:
	.p2align	2
@ %bb.1:
__arm_cp.2_0:
	.long	65537                           @ 0x10001
.Lcpi_end1:
	.size	__arm_cp.2_0, .Lcpi_end1-__arm_cp.2_0
.Lfunc_end2:
	.size	GPIO_DisableInt, .Lfunc_end2-GPIO_DisableInt
	.cfi_endproc
	.cantunwind
	.fnend
                                        @ -- End function
	.section	.text.GPIO_SetSlewCtl,"ax",%progbits
	.hidden	GPIO_SetSlewCtl                 @ -- Begin function GPIO_SetSlewCtl
	.globl	GPIO_SetSlewCtl
	.p2align	1
	.type	GPIO_SetSlewCtl,%function
	.code	16                              @ @GPIO_SetSlewCtl
	.thumb_func
GPIO_SetSlewCtl:
.Lfunc_begin3:
	.loc	1 140 0 is_stmt 1               @ ../../CCC_common/Library/StdDriver/src/gpio.c:140:0
	.fnstart
	.cfi_startproc
@ %bb.0:
	.pad	#16
	sub	sp, #16
	.cfi_def_cfa_offset 16
	str	r0, [sp, #12]
	str	r1, [sp, #8]
	str	r2, [sp, #4]
	movs	r0, #0
.Ltmp16:
	.loc	1 143 16 prologue_end           @ ../../CCC_common/Library/StdDriver/src/gpio.c:143:16
	str	r0, [sp]
	.loc	1 143 9 is_stmt 0               @ ../../CCC_common/Library/StdDriver/src/gpio.c:143:9
	b	.LBB3_1
.LBB3_1:                                @ =>This Inner Loop Header: Depth=1
.Ltmp17:
	.loc	1 143 23                        @ ../../CCC_common/Library/StdDriver/src/gpio.c:143:23
	ldr	r0, [sp]
.Ltmp18:
	.loc	1 143 5                         @ ../../CCC_common/Library/StdDriver/src/gpio.c:143:5
	cmp	r0, #15
	bhi	.LBB3_6
	b	.LBB3_2
.LBB3_2:                                @   in Loop: Header=BB3_1 Depth=1
.Ltmp19:
	.loc	1 145 12 is_stmt 1              @ ../../CCC_common/Library/StdDriver/src/gpio.c:145:12
	ldr	r0, [sp, #8]
	.loc	1 145 33 is_stmt 0              @ ../../CCC_common/Library/StdDriver/src/gpio.c:145:33
	ldr	r1, [sp]
.Ltmp20:
	.loc	1 145 12                        @ ../../CCC_common/Library/StdDriver/src/gpio.c:145:12
	lsrs	r0, r1
	lsls	r0, r0, #31
	cbz	r0, .LBB3_4
	b	.LBB3_3
.LBB3_3:                                @   in Loop: Header=BB3_1 Depth=1
.Ltmp21:
	.loc	1 147 30 is_stmt 1              @ ../../CCC_common/Library/StdDriver/src/gpio.c:147:30
	ldr	r0, [sp, #12]
	.loc	1 147 36 is_stmt 0              @ ../../CCC_common/Library/StdDriver/src/gpio.c:147:36
	ldr	r0, [r0, #40]
	.loc	1 147 58                        @ ../../CCC_common/Library/StdDriver/src/gpio.c:147:58
	ldr	r1, [sp]
	.loc	1 147 65                        @ ../../CCC_common/Library/StdDriver/src/gpio.c:147:65
	lsls	r2, r1, #1
	movs	r1, #3
	.loc	1 147 54                        @ ../../CCC_common/Library/StdDriver/src/gpio.c:147:54
	lsls	r1, r2
	.loc	1 147 44                        @ ../../CCC_common/Library/StdDriver/src/gpio.c:147:44
	bics	r0, r1
	.loc	1 147 76                        @ ../../CCC_common/Library/StdDriver/src/gpio.c:147:76
	ldr	r1, [sp, #4]
	.loc	1 147 84                        @ ../../CCC_common/Library/StdDriver/src/gpio.c:147:84
	lsls	r1, r2
	.loc	1 147 73                        @ ../../CCC_common/Library/StdDriver/src/gpio.c:147:73
	orrs	r0, r1
	.loc	1 147 13                        @ ../../CCC_common/Library/StdDriver/src/gpio.c:147:13
	ldr	r1, [sp, #12]
	.loc	1 147 27                        @ ../../CCC_common/Library/StdDriver/src/gpio.c:147:27
	str	r0, [r1, #40]
	.loc	1 148 9 is_stmt 1               @ ../../CCC_common/Library/StdDriver/src/gpio.c:148:9
	b	.LBB3_4
.Ltmp22:
.LBB3_4:                                @   in Loop: Header=BB3_1 Depth=1
	.loc	1 149 5                         @ ../../CCC_common/Library/StdDriver/src/gpio.c:149:5
	b	.LBB3_5
.Ltmp23:
.LBB3_5:                                @   in Loop: Header=BB3_1 Depth=1
	.loc	1 143 52                        @ ../../CCC_common/Library/StdDriver/src/gpio.c:143:52
	ldr	r0, [sp]
	adds	r0, r0, #1
	str	r0, [sp]
	.loc	1 143 5 is_stmt 0               @ ../../CCC_common/Library/StdDriver/src/gpio.c:143:5
	b	.LBB3_1
.Ltmp24:
.LBB3_6:
	.loc	1 150 1 epilogue_begin is_stmt 1 @ ../../CCC_common/Library/StdDriver/src/gpio.c:150:1
	add	sp, #16
	bx	lr
.Ltmp25:
.Lfunc_end3:
	.size	GPIO_SetSlewCtl, .Lfunc_end3-GPIO_SetSlewCtl
	.cfi_endproc
	.cantunwind
	.fnend
                                        @ -- End function
	.section	.text.GPIO_SetPullCtl,"ax",%progbits
	.hidden	GPIO_SetPullCtl                 @ -- Begin function GPIO_SetPullCtl
	.globl	GPIO_SetPullCtl
	.p2align	1
	.type	GPIO_SetPullCtl,%function
	.code	16                              @ @GPIO_SetPullCtl
	.thumb_func
GPIO_SetPullCtl:
.Lfunc_begin4:
	.loc	1 174 0                         @ ../../CCC_common/Library/StdDriver/src/gpio.c:174:0
	.fnstart
	.cfi_startproc
@ %bb.0:
	.pad	#16
	sub	sp, #16
	.cfi_def_cfa_offset 16
	str	r0, [sp, #12]
	str	r1, [sp, #8]
	str	r2, [sp, #4]
	movs	r0, #0
.Ltmp26:
	.loc	1 177 16 prologue_end           @ ../../CCC_common/Library/StdDriver/src/gpio.c:177:16
	str	r0, [sp]
	.loc	1 177 9 is_stmt 0               @ ../../CCC_common/Library/StdDriver/src/gpio.c:177:9
	b	.LBB4_1
.LBB4_1:                                @ =>This Inner Loop Header: Depth=1
.Ltmp27:
	.loc	1 177 23                        @ ../../CCC_common/Library/StdDriver/src/gpio.c:177:23
	ldr	r0, [sp]
.Ltmp28:
	.loc	1 177 5                         @ ../../CCC_common/Library/StdDriver/src/gpio.c:177:5
	cmp	r0, #15
	bhi	.LBB4_6
	b	.LBB4_2
.LBB4_2:                                @   in Loop: Header=BB4_1 Depth=1
.Ltmp29:
	.loc	1 179 12 is_stmt 1              @ ../../CCC_common/Library/StdDriver/src/gpio.c:179:12
	ldr	r0, [sp, #8]
	.loc	1 179 33 is_stmt 0              @ ../../CCC_common/Library/StdDriver/src/gpio.c:179:33
	ldr	r1, [sp]
.Ltmp30:
	.loc	1 179 12                        @ ../../CCC_common/Library/StdDriver/src/gpio.c:179:12
	lsrs	r0, r1
	lsls	r0, r0, #31
	cbz	r0, .LBB4_4
	b	.LBB4_3
.LBB4_3:                                @   in Loop: Header=BB4_1 Depth=1
.Ltmp31:
	.loc	1 181 28 is_stmt 1              @ ../../CCC_common/Library/StdDriver/src/gpio.c:181:28
	ldr	r0, [sp, #12]
	.loc	1 181 34 is_stmt 0              @ ../../CCC_common/Library/StdDriver/src/gpio.c:181:34
	ldr	r0, [r0, #48]
	.loc	1 181 54                        @ ../../CCC_common/Library/StdDriver/src/gpio.c:181:54
	ldr	r1, [sp]
	.loc	1 181 61                        @ ../../CCC_common/Library/StdDriver/src/gpio.c:181:61
	lsls	r2, r1, #1
	movs	r1, #3
	.loc	1 181 50                        @ ../../CCC_common/Library/StdDriver/src/gpio.c:181:50
	lsls	r1, r2
	.loc	1 181 40                        @ ../../CCC_common/Library/StdDriver/src/gpio.c:181:40
	bics	r0, r1
	.loc	1 181 72                        @ ../../CCC_common/Library/StdDriver/src/gpio.c:181:72
	ldr	r1, [sp, #4]
	.loc	1 181 80                        @ ../../CCC_common/Library/StdDriver/src/gpio.c:181:80
	lsls	r1, r2
	.loc	1 181 69                        @ ../../CCC_common/Library/StdDriver/src/gpio.c:181:69
	orrs	r0, r1
	.loc	1 181 13                        @ ../../CCC_common/Library/StdDriver/src/gpio.c:181:13
	ldr	r1, [sp, #12]
	.loc	1 181 25                        @ ../../CCC_common/Library/StdDriver/src/gpio.c:181:25
	str	r0, [r1, #48]
	.loc	1 182 9 is_stmt 1               @ ../../CCC_common/Library/StdDriver/src/gpio.c:182:9
	b	.LBB4_4
.Ltmp32:
.LBB4_4:                                @   in Loop: Header=BB4_1 Depth=1
	.loc	1 183 5                         @ ../../CCC_common/Library/StdDriver/src/gpio.c:183:5
	b	.LBB4_5
.Ltmp33:
.LBB4_5:                                @   in Loop: Header=BB4_1 Depth=1
	.loc	1 177 52                        @ ../../CCC_common/Library/StdDriver/src/gpio.c:177:52
	ldr	r0, [sp]
	adds	r0, r0, #1
	str	r0, [sp]
	.loc	1 177 5 is_stmt 0               @ ../../CCC_common/Library/StdDriver/src/gpio.c:177:5
	b	.LBB4_1
.Ltmp34:
.LBB4_6:
	.loc	1 184 1 epilogue_begin is_stmt 1 @ ../../CCC_common/Library/StdDriver/src/gpio.c:184:1
	add	sp, #16
	bx	lr
.Ltmp35:
.Lfunc_end4:
	.size	GPIO_SetPullCtl, .Lfunc_end4-GPIO_SetPullCtl
	.cfi_endproc
	.cantunwind
	.fnend
                                        @ -- End function
	.file	2 "C:\\Users\\Anaya\\AppData\\Local\\Keil_v5\\ARM\\ARMCLANG\\bin\\..\\include" "stdint.h"
	.file	3 "D:\\work\\dheeraj\\local\\CEL\\CCC\\CCC_CPU123\\Code" "../../CCC_common/Library/Device/Nuvoton/M261/Include\\gpio_reg.h"
	.section	".note.GNU-stack","",%progbits
	.eabi_attribute	30, 6	@ Tag_ABI_optimization_goals
	.ARM_attribute	16, 1	@ Tag_AV_eba