	.text
	.syntax unified
	.eabi_attribute	67, "2.09"	@ Tag_conformance
	.cpu	cortex-m23
	.eabi_attribute	6, 16	@ Tag_CPU_arch
	.eabi_attribute	7, 77	@ Tag_CPU_arch_profile
	.eabi_attribute	8, 0	@ Tag_ARM_ISA_use
	.eabi_attribute	9, 3	@ Tag_THUMB_ISA_use
	.eabi_attribute	34, 0	@ Tag_CPU_unaligned_access
	.eabi_attribute	17, 1	@ Tag_ABI_PCS_GOT_use
	.eabi_attribute	20, 2	@ Tag_ABI_FP_denormal
	.eabi_attribute	21, 0	@ Tag_ABI_FP_exceptions
	.eabi_attribute	23, 1	@ Tag_ABI_FP_number_model
	.eabi_attribute	24, 1	@ Tag_ABI_align_needed
	.eabi_attribute	25, 1	@ Tag_ABI_align_preserved
	.eabi_attribute	38, 1	@ Tag_ABI_FP_16bit_format
	.eabi_attribute	18, 4	@ Tag_ABI_PCS_wchar_t
	.eabi_attribute	26, 2	@ Tag_ABI_enum_size
	.eabi_attribute	14, 0	@ Tag_ABI_PCS_R9_use
	.file	"interlock_SL.c"
	.file	1 "C:\\Users\\Anaya\\AppData\\Local\\Keil_v5\\ARM\\ARMCLANG\\bin\\..\\include" "stdint.h"
	.file	2 "D:\\work\\dheeraj\\local\\CEL\\CCC\\CCC_CPU123\\Code" "source/interlock_SL.c"
	.section	.text.interlock_SL,"ax",%progbits
	.hidden	interlock_SL                    @ -- Begin function interlock_SL
	.globl	interlock_SL
	.p2align	2
	.type	interlock_SL,%function
	.code	16                              @ @interlock_SL
	.thumb_func
interlock_SL:
.Lfunc_begin0:
	.loc	2 76 0                          @ source/interlock_SL.c:76:0
	.fnstart
	.cfi_sections .debug_frame
	.cfi_startproc
@ %bb.0:
	.save	{r4, r5, r6, r7, lr}
	push	{r4, r5, r6, r7, lr}
	.cfi_def_cfa_offset 20
	.cfi_offset lr, -4
	.cfi_offset r7, -8
	.cfi_offset r6, -12
	.cfi_offset r5, -16
	.cfi_offset r4, -20
	.pad	#396
	sub	sp, #396
	.cfi_def_cfa_offset 416
.Ltmp0:
	.loc	2 81 15 prologue_end            @ source/interlock_SL.c:81:15
	ldr	r0, __arm_cp.0_18
	str	r0, [sp, #388]
	.loc	2 82 15                         @ source/interlock_SL.c:82:15
	ldr	r0, __arm_cp.0_19
	str	r0, [sp, #384]
	.loc	2 83 16                         @ source/interlock_SL.c:83:16
	ldr	r0, __arm_cp.0_20
	str	r0, [sp, #380]
	.loc	2 84 15                         @ source/interlock_SL.c:84:15
	ldr	r0, __arm_cp.0_21
	str	r0, [sp, #376]
	.loc	2 85 15                         @ source/interlock_SL.c:85:15
	ldr	r0, __arm_cp.0_22
	str	r0, [sp, #372]
	.loc	2 87 18                         @ source/interlock_SL.c:87:18
	ldr	r0, __arm_cp.0_23
	str	r0, [sp, #368]
	.loc	2 88 18                         @ source/interlock_SL.c:88:18
	ldr	r0, __arm_cp.0_24
	str	r0, [sp, #364]
	.loc	2 89 15                         @ source/interlock_SL.c:89:15
	ldr	r0, __arm_cp.0_25
	str	r0, [sp, #360]
	.loc	2 90 15                         @ source/interlock_SL.c:90:15
	ldr	r0, __arm_cp.0_26
	str	r0, [sp, #356]
	.loc	2 92 9                          @ source/interlock_SL.c:92:9
	ldr	r0, .LCPI0_27
	ldrb	r0, [r0]
	.loc	2 92 2 is_stmt 0                @ source/interlock_SL.c:92:2
	str	r0, [sp, #352]                  @ 4-byte Spill
	cbz	r0, .LBB0_4
	b	.LBB0_1
.LBB0_1:
	ldr	r0, [sp, #352]                  @ 4-byte Reload
	cmp	r0, #1
	bne	.LBB0_2
	b	.LBB0_5
.LBB0_2:
	ldr	r0, [sp, #352]                  @ 4-byte Reload
	cmp	r0, #2
	bne	.LBB0_3
	b	.LBB0_6
.LBB0_3:
	bl	.LBB0_268
.LBB0_4:
.Ltmp1:
	.loc	2 94 4 is_stmt 1                @ source/interlock_SL.c:94:4
	ldr	r1, [sp, #372]
	.loc	2 94 14 is_stmt 0               @ source/interlock_SL.c:94:14
	ldrb	r0, [r1]
	movs	r2, #252
	ands	r0, r2
	adds	r0, r0, #1
	strb	r0, [r1]
	.loc	2 95 4 is_stmt 1                @ source/interlock_SL.c:95:4
	ldr	r1, [sp, #372]
	.loc	2 95 14 is_stmt 0               @ source/interlock_SL.c:95:14
	ldrb	r0, [r1]
	movs	r5, #243
	ands	r0, r5
	adds	r0, r0, #4
	strb	r0, [r1]
	.loc	2 96 4 is_stmt 1                @ source/interlock_SL.c:96:4
	ldr	r1, [sp, #372]
	.loc	2 96 14 is_stmt 0               @ source/interlock_SL.c:96:14
	ldrb	r0, [r1]
	movs	r4, #207
	ands	r0, r4
	adds	r0, #16
	strb	r0, [r1]
	.loc	2 97 4 is_stmt 1                @ source/interlock_SL.c:97:4
	ldr	r1, [sp, #372]
	.loc	2 97 14 is_stmt 0               @ source/interlock_SL.c:97:14
	ldrb	r0, [r1]
	movs	r3, #63
	ands	r0, r3
	adds	r0, #64
	strb	r0, [r1]
	.loc	2 98 4 is_stmt 1                @ source/interlock_SL.c:98:4
	ldr	r1, [sp, #372]
	.loc	2 98 14 is_stmt 0               @ source/interlock_SL.c:98:14
	ldrb	r0, [r1, #1]
	ands	r0, r2
	adds	r0, r0, #1
	strb	r0, [r1, #1]
	.loc	2 99 4 is_stmt 1                @ source/interlock_SL.c:99:4
	ldr	r1, [sp, #372]
	.loc	2 99 16 is_stmt 0               @ source/interlock_SL.c:99:16
	ldrb	r0, [r1, #1]
	ands	r0, r5
	adds	r0, r0, #4
	strb	r0, [r1, #1]
	.loc	2 100 4 is_stmt 1               @ source/interlock_SL.c:100:4
	ldr	r1, [sp, #372]
	.loc	2 100 14 is_stmt 0              @ source/interlock_SL.c:100:14
	ldrb	r0, [r1, #1]
	ands	r0, r4
	adds	r0, #16
	strb	r0, [r1, #1]
	.loc	2 101 4 is_stmt 1               @ source/interlock_SL.c:101:4
	ldr	r1, [sp, #372]
	.loc	2 101 12 is_stmt 0              @ source/interlock_SL.c:101:12
	ldrb	r0, [r1, #1]
	ands	r0, r3
	adds	r0, #64
	strb	r0, [r1, #1]
	.loc	2 102 4 is_stmt 1               @ source/interlock_SL.c:102:4
	ldr	r1, [sp, #372]
	.loc	2 102 13 is_stmt 0              @ source/interlock_SL.c:102:13
	ldrb	r0, [r1, #2]
	ands	r0, r2
	adds	r0, r0, #1
	strb	r0, [r1, #2]
	.loc	2 103 4 is_stmt 1               @ source/interlock_SL.c:103:4
	ldr	r1, [sp, #372]
	.loc	2 103 16 is_stmt 0              @ source/interlock_SL.c:103:16
	ldrb	r0, [r1, #2]
	ands	r0, r5
	adds	r0, r0, #4
	strb	r0, [r1, #2]
	.loc	2 104 4 is_stmt 1               @ source/interlock_SL.c:104:4
	ldr	r1, [sp, #372]
	.loc	2 104 12 is_stmt 0              @ source/interlock_SL.c:104:12
	ldrb	r0, [r1, #2]
	ands	r0, r4
	adds	r0, #16
	strb	r0, [r1, #2]
	.loc	2 105 4 is_stmt 1               @ source/interlock_SL.c:105:4
	ldr	r1, [sp, #372]
	.loc	2 105 13 is_stmt 0              @ source/interlock_SL.c:105:13
	ldrb	r0, [r1, #2]
	ands	r0, r3
	adds	r0, #128
	strb	r0, [r1, #2]
	.loc	2 106 4 is_stmt 1               @ source/interlock_SL.c:106:4
	ldr	r1, [sp, #372]
	.loc	2 106 12 is_stmt 0              @ source/interlock_SL.c:106:12
	ldrb	r0, [r1, #3]
	ands	r0, r2
	adds	r0, r0, #1
	strb	r0, [r1, #3]
	.loc	2 107 4 is_stmt 1               @ source/interlock_SL.c:107:4
	ldr	r1, [sp, #372]
	.loc	2 107 12 is_stmt 0              @ source/interlock_SL.c:107:12
	ldrb	r0, [r1, #3]
	ands	r0, r5
	adds	r0, r0, #4
	strb	r0, [r1, #3]
	.loc	2 108 4 is_stmt 1               @ source/interlock_SL.c:108:4
	ldr	r1, [sp, #372]
	.loc	2 108 13 is_stmt 0              @ source/interlock_SL.c:108:13
	ldrb	r0, [r1, #3]
	ands	r0, r4
	adds	r0, #32
	strb	r0, [r1, #3]
	.loc	2 109 4 is_stmt 1               @ source/interlock_SL.c:109:4
	ldr	r1, [sp, #372]
	.loc	2 109 13 is_stmt 0              @ source/interlock_SL.c:109:13
	ldrb	r0, [r1, #3]
	ands	r0, r3
	adds	r0, #128
	strb	r0, [r1, #3]
	.loc	2 110 4 is_stmt 1               @ source/interlock_SL.c:110:4
	ldr	r1, [sp, #372]
	.loc	2 110 14 is_stmt 0              @ source/interlock_SL.c:110:14
	ldrb	r0, [r1, #4]
	ands	r0, r2
	adds	r0, r0, #1
	strb	r0, [r1, #4]
	.loc	2 111 4 is_stmt 1               @ source/interlock_SL.c:111:4
	ldr	r1, [sp, #372]
	.loc	2 111 15 is_stmt 0              @ source/interlock_SL.c:111:15
	ldrb	r0, [r1, #4]
	ands	r0, r5
	adds	r0, r0, #4
	strb	r0, [r1, #4]
	.loc	2 113 4 is_stmt 1               @ source/interlock_SL.c:113:4
	ldr	r1, [sp, #388]
	.loc	2 113 13 is_stmt 0              @ source/interlock_SL.c:113:13
	ldrb	r0, [r1]
	ands	r0, r2
	adds	r0, r0, #1
	strb	r0, [r1]
	.loc	2 114 4 is_stmt 1               @ source/interlock_SL.c:114:4
	ldr	r1, [sp, #388]
	.loc	2 114 15 is_stmt 0              @ source/interlock_SL.c:114:15
	ldrb	r0, [r1]
	ands	r0, r5
	adds	r0, #8
	strb	r0, [r1]
	.loc	2 115 4 is_stmt 1               @ source/interlock_SL.c:115:4
	ldr	r1, [sp, #388]
	.loc	2 115 13 is_stmt 0              @ source/interlock_SL.c:115:13
	ldrb	r0, [r1]
	ands	r0, r4
	adds	r0, #16
	strb	r0, [r1]
	.loc	2 116 4 is_stmt 1               @ source/interlock_SL.c:116:4
	ldr	r1, [sp, #388]
	.loc	2 116 15 is_stmt 0              @ source/interlock_SL.c:116:15
	ldrb	r0, [r1]
	ands	r0, r3
	adds	r0, #128
	strb	r0, [r1]
	.loc	2 117 4 is_stmt 1               @ source/interlock_SL.c:117:4
	ldr	r1, [sp, #388]
	.loc	2 117 13 is_stmt 0              @ source/interlock_SL.c:117:13
	ldrb	r0, [r1, #1]
	ands	r0, r2
	adds	r0, r0, #1
	strb	r0, [r1, #1]
	.loc	2 119 14 is_stmt 1              @ source/interlock_SL.c:119:14
	ldr	r1, .LCPI0_27
	movs	r0, #1
	strb	r0, [r1]
	.loc	2 120 4                         @ source/interlock_SL.c:120:4
	bl	.LBB0_269
.LBB0_5:
	.loc	2 122 19                        @ source/interlock_SL.c:122:19
	ldr	r0, [sp, #372]
	.loc	2 122 23 is_stmt 0              @ source/interlock_SL.c:122:23
	ldrb	r3, [r0]
	movs	r0, #3
	str	r0, [sp, #348]                  @ 4-byte Spill
	ands	r3, r0
	.loc	2 122 4                         @ source/interlock_SL.c:122:4
	ldr	r2, [sp, #376]
	.loc	2 122 17                        @ source/interlock_SL.c:122:17
	ldrb	r0, [r2]
	movs	r1, #252
	str	r1, [sp, #344]                  @ 4-byte Spill
	ands	r0, r1
	adds	r0, r0, r3
	strb	r0, [r2]
	.loc	2 123 19 is_stmt 1              @ source/interlock_SL.c:123:19
	ldr	r0, [sp, #372]
	.loc	2 123 23 is_stmt 0              @ source/interlock_SL.c:123:23
	ldrb	r4, [r0]
	.loc	2 123 4                         @ source/interlock_SL.c:123:4
	ldr	r2, [sp, #376]
	.loc	2 123 17                        @ source/interlock_SL.c:123:17
	ldrb	r0, [r2]
	movs	r3, #12
	str	r3, [sp, #336]                  @ 4-byte Spill
	ands	r4, r3
	movs	r3, #243
	ands	r0, r3
	adds	r0, r0, r4
	strb	r0, [r2]
	.loc	2 124 19 is_stmt 1              @ source/interlock_SL.c:124:19
	ldr	r0, [sp, #372]
	.loc	2 124 23 is_stmt 0              @ source/interlock_SL.c:124:23
	ldrb	r4, [r0]
	.loc	2 124 4                         @ source/interlock_SL.c:124:4
	ldr	r2, [sp, #376]
	.loc	2 124 17                        @ source/interlock_SL.c:124:17
	ldrb	r0, [r2]
	movs	r6, #48
	ands	r4, r6
	movs	r5, #207
	ands	r0, r5
	adds	r0, r0, r4
	strb	r0, [r2]
	.loc	2 125 19 is_stmt 1              @ source/interlock_SL.c:125:19
	ldr	r0, [sp, #372]
	.loc	2 125 23 is_stmt 0              @ source/interlock_SL.c:125:23
	ldrb	r0, [r0]
	.loc	2 125 4                         @ source/interlock_SL.c:125:4
	ldr	r4, [sp, #376]
	.loc	2 125 17                        @ source/interlock_SL.c:125:17
	ldrb	r2, [r4]
	movs	r7, #192
	str	r7, [sp, #340]                  @ 4-byte Spill
	ands	r0, r7
	movs	r7, #63
	ands	r2, r7
	adds	r2, r2, r0
	ldr	r0, [sp, #348]                  @ 4-byte Reload
	strb	r2, [r4]
	.loc	2 126 19 is_stmt 1              @ source/interlock_SL.c:126:19
	ldr	r2, [sp, #372]
	.loc	2 126 23 is_stmt 0              @ source/interlock_SL.c:126:23
	ldrb	r4, [r2, #1]
	ands	r4, r0
	.loc	2 126 4                         @ source/interlock_SL.c:126:4
	ldr	r2, [sp, #376]
	.loc	2 126 17                        @ source/interlock_SL.c:126:17
	ldrb	r0, [r2, #1]
	ands	r0, r1
	ldr	r1, [sp, #336]                  @ 4-byte Reload
	adds	r0, r0, r4
	strb	r0, [r2, #1]
	.loc	2 127 21 is_stmt 1              @ source/interlock_SL.c:127:21
	ldr	r0, [sp, #372]
	.loc	2 127 25 is_stmt 0              @ source/interlock_SL.c:127:25
	ldrb	r4, [r0, #1]
	.loc	2 127 4                         @ source/interlock_SL.c:127:4
	ldr	r2, [sp, #376]
	.loc	2 127 19                        @ source/interlock_SL.c:127:19
	ldrb	r0, [r2, #1]
	ands	r4, r1
	ldr	r1, [sp, #340]                  @ 4-byte Reload
	ands	r0, r3
	adds	r0, r0, r4
	strb	r0, [r2, #1]
	.loc	2 128 19 is_stmt 1              @ source/interlock_SL.c:128:19
	ldr	r0, [sp, #372]
	.loc	2 128 23 is_stmt 0              @ source/interlock_SL.c:128:23
	ldrb	r4, [r0, #1]
	.loc	2 128 4                         @ source/interlock_SL.c:128:4
	ldr	r2, [sp, #376]
	.loc	2 128 17                        @ source/interlock_SL.c:128:17
	ldrb	r0, [r2, #1]
	ands	r4, r6
	ands	r0, r5
	adds	r0, r0, r4
	strb	r0, [r2, #1]
	.loc	2 129 17 is_stmt 1              @ source/interlock_SL.c:129:17
	ldr	r0, [sp, #372]
	.loc	2 129 21 is_stmt 0              @ source/interlock_SL.c:129:21
	ldrb	r0, [r0, #1]
	.loc	2 129 4                         @ source/interlock_SL.c:129:4
	ldr	r4, [sp, #376]
	.loc	2 129 15                        @ source/interlock_SL.c:129:15
	ldrb	r2, [r4, #1]
	ands	r0, r1
	ldr	r1, [sp, #344]                  @ 4-byte Reload
	ands	r2, r7
	adds	r2, r2, r0
	ldr	r0, [sp, #348]                  @ 4-byte Reload
	strb	r2, [r4, #1]
	.loc	2 130 18 is_stmt 1              @ source/interlock_SL.c:130:18
	ldr	r2, [sp, #372]
	.loc	2 130 22 is_stmt 0              @ source/interlock_SL.c:130:22
	ldrb	r4, [r2, #2]
	ands	r4, r0
	.loc	2 130 4                         @ source/interlock_SL.c:130:4
	ldr	r2, [sp, #376]
	.loc	2 130 16                        @ source/interlock_SL.c:130:16
	ldrb	r0, [r2, #2]
	ands	r0, r1
	ldr	r1, [sp, #336]                  @ 4-byte Reload
	adds	r0, r0, r4
	strb	r0, [r2, #2]
	.loc	2 131 21 is_stmt 1              @ source/interlock_SL.c:131:21
	ldr	r0, [sp, #372]
	.loc	2 131 25 is_stmt 0              @ source/interlock_SL.c:131:25
	ldrb	r4, [r0, #2]
	.loc	2 131 4                         @ source/interlock_SL.c:131:4
	ldr	r2, [sp, #376]
	.loc	2 131 19                        @ source/interlock_SL.c:131:19
	ldrb	r0, [r2, #2]
	ands	r4, r1
	ldr	r1, [sp, #340]                  @ 4-byte Reload
	ands	r0, r3
	adds	r0, r0, r4
	strb	r0, [r2, #2]
	.loc	2 132 17 is_stmt 1              @ source/interlock_SL.c:132:17
	ldr	r0, [sp, #372]
	.loc	2 132 21 is_stmt 0              @ source/interlock_SL.c:132:21
	ldrb	r4, [r0, #2]
	.loc	2 132 4                         @ source/interlock_SL.c:132:4
	ldr	r2, [sp, #376]
	.loc	2 132 15                        @ source/interlock_SL.c:132:15
	ldrb	r0, [r2, #2]
	ands	r4, r6
	ands	r0, r5
	adds	r0, r0, r4
	strb	r0, [r2, #2]
	.loc	2 133 18 is_stmt 1              @ source/interlock_SL.c:133:18
	ldr	r0, [sp, #372]
	.loc	2 133 22 is_stmt 0              @ source/interlock_SL.c:133:22
	ldrb	r0, [r0, #2]
	.loc	2 133 4                         @ source/interlock_SL.c:133:4
	ldr	r4, [sp, #376]
	.loc	2 133 16                        @ source/interlock_SL.c:133:16
	ldrb	r2, [r4, #2]
	ands	r0, r1
	ldr	r1, [sp, #344]                  @ 4-byte Reload
	ands	r2, r7
	adds	r2, r2, r0
	ldr	r0, [sp, #348]                  @ 4-byte Reload
	strb	r2, [r4, #2]
	.loc	2 134 17 is_stmt 1              @ source/interlock_SL.c:134:17
	ldr	r2, [sp, #372]
	.loc	2 134 21 is_stmt 0              @ source/interlock_SL.c:134:21
	ldrb	r4, [r2, #3]
	ands	r4, r0
	.loc	2 134 4                         @ source/interlock_SL.c:134:4
	ldr	r2, [sp, #376]
	.loc	2 134 15                        @ source/interlock_SL.c:134:15
	ldrb	r0, [r2, #3]
	ands	r0, r1
	ldr	r1, [sp, #336]                  @ 4-byte Reload
	adds	r0, r0, r4
	strb	r0, [r2, #3]
	.loc	2 135 17 is_stmt 1              @ source/interlock_SL.c:135:17
	ldr	r0, [sp, #372]
	.loc	2 135 21 is_stmt 0              @ source/interlock_SL.c:135:21
	ldrb	r4, [r0, #3]
	.loc	2 135 4                         @ source/interlock_SL.c:135:4
	ldr	r2, [sp, #376]
	.loc	2 135 15                        @ source/interlock_SL.c:135:15
	ldrb	r0, [r2, #3]
	ands	r4, r1
	ldr	r1, [sp, #340]                  @ 4-byte Reload
	ands	r0, r3
	adds	r0, r0, r4
	strb	r0, [r2, #3]
	.loc	2 136 18 is_stmt 1              @ source/interlock_SL.c:136:18
	ldr	r0, [sp, #372]
	.loc	2 136 22 is_stmt 0              @ source/interlock_SL.c:136:22
	ldrb	r4, [r0, #3]
	.loc	2 136 4                         @ source/interlock_SL.c:136:4
	ldr	r2, [sp, #376]
	.loc	2 136 16                        @ source/interlock_SL.c:136:16
	ldrb	r0, [r2, #3]
	ands	r4, r6
	ands	r0, r5
	adds	r0, r0, r4
	strb	r0, [r2, #3]
	.loc	2 137 18 is_stmt 1              @ source/interlock_SL.c:137:18
	ldr	r0, [sp, #372]
	.loc	2 137 22 is_stmt 0              @ source/interlock_SL.c:137:22
	ldrb	r0, [r0, #3]
	.loc	2 137 4                         @ source/interlock_SL.c:137:4
	ldr	r4, [sp, #376]
	.loc	2 137 16                        @ source/interlock_SL.c:137:16
	ldrb	r2, [r4, #3]
	ands	r0, r1
	ldr	r1, [sp, #348]                  @ 4-byte Reload
	ands	r2, r7
	adds	r2, r2, r0
	ldr	r0, [sp, #344]                  @ 4-byte Reload
	strb	r2, [r4, #3]
	.loc	2 138 19 is_stmt 1              @ source/interlock_SL.c:138:19
	ldr	r2, [sp, #372]
	.loc	2 138 23 is_stmt 0              @ source/interlock_SL.c:138:23
	ldrb	r4, [r2, #4]
	ands	r4, r1
	.loc	2 138 4                         @ source/interlock_SL.c:138:4
	ldr	r2, [sp, #376]
	.loc	2 138 17                        @ source/interlock_SL.c:138:17
	ldrb	r1, [r2, #4]
	ands	r1, r0
	ldr	r0, [sp, #336]                  @ 4-byte Reload
	adds	r1, r1, r4
	strb	r1, [r2, #4]
	.loc	2 139 20 is_stmt 1              @ source/interlock_SL.c:139:20
	ldr	r1, [sp, #372]
	.loc	2 139 24 is_stmt 0              @ source/interlock_SL.c:139:24
	ldrb	r4, [r1, #4]
	.loc	2 139 4                         @ source/interlock_SL.c:139:4
	ldr	r2, [sp, #376]
	.loc	2 139 18                        @ source/interlock_SL.c:139:18
	ldrb	r1, [r2, #4]
	ands	r4, r0
	ldr	r0, [sp, #340]                  @ 4-byte Reload
	ands	r1, r3
	ldr	r3, [sp, #344]                  @ 4-byte Reload
	adds	r1, r1, r4
	strb	r1, [r2, #4]
	.loc	2 141 19 is_stmt 1              @ source/interlock_SL.c:141:19
	ldr	r1, [sp, #372]
	.loc	2 141 23 is_stmt 0              @ source/interlock_SL.c:141:23
	ldrb	r4, [r1, #4]
	.loc	2 141 4                         @ source/interlock_SL.c:141:4
	ldr	r2, [sp, #376]
	.loc	2 141 17                        @ source/interlock_SL.c:141:17
	ldrb	r1, [r2, #4]
	ands	r4, r6
	ands	r1, r5
	adds	r1, r1, r4
	strb	r1, [r2, #4]
	.loc	2 142 19 is_stmt 1              @ source/interlock_SL.c:142:19
	ldr	r1, [sp, #372]
	.loc	2 142 23 is_stmt 0              @ source/interlock_SL.c:142:23
	ldrb	r4, [r1, #4]
	.loc	2 142 4                         @ source/interlock_SL.c:142:4
	ldr	r2, [sp, #376]
	.loc	2 142 17                        @ source/interlock_SL.c:142:17
	ldrb	r1, [r2, #4]
	ands	r4, r0
	ldr	r0, [sp, #348]                  @ 4-byte Reload
	ands	r1, r7
	adds	r1, r1, r4
	strb	r1, [r2, #4]
	.loc	2 143 19 is_stmt 1              @ source/interlock_SL.c:143:19
	ldr	r1, [sp, #372]
	.loc	2 143 23 is_stmt 0              @ source/interlock_SL.c:143:23
	ldrb	r4, [r1, #5]
	ands	r4, r0
	.loc	2 143 4                         @ source/interlock_SL.c:143:4
	ldr	r2, [sp, #376]
	.loc	2 143 17                        @ source/interlock_SL.c:143:17
	ldrb	r1, [r2, #5]
	ands	r1, r3
	adds	r1, r1, r4
	strb	r1, [r2, #5]
	.loc	2 145 18 is_stmt 1              @ source/interlock_SL.c:145:18
	ldr	r1, [sp, #388]
	.loc	2 145 22 is_stmt 0              @ source/interlock_SL.c:145:22
	ldrb	r4, [r1]
	ands	r4, r0
	.loc	2 145 4                         @ source/interlock_SL.c:145:4
	ldr	r2, [sp, #384]
	.loc	2 145 16                        @ source/interlock_SL.c:145:16
	ldrb	r1, [r2]
	ands	r1, r3
	adds	r1, r1, r4
	strb	r1, [r2]
	.loc	2 146 18 is_stmt 1              @ source/interlock_SL.c:146:18
	ldr	r1, [sp, #388]
	.loc	2 146 22 is_stmt 0              @ source/interlock_SL.c:146:22
	ldrb	r4, [r1]
	.loc	2 146 4                         @ source/interlock_SL.c:146:4
	ldr	r2, [sp, #384]
	.loc	2 146 16                        @ source/interlock_SL.c:146:16
	ldrb	r1, [r2]
	ands	r4, r6
	ands	r1, r5
	adds	r1, r1, r4
	strb	r1, [r2]
	.loc	2 147 18 is_stmt 1              @ source/interlock_SL.c:147:18
	ldr	r1, [sp, #388]
	.loc	2 147 22 is_stmt 0              @ source/interlock_SL.c:147:22
	ldrb	r2, [r1, #1]
	ands	r2, r0
	.loc	2 147 4                         @ source/interlock_SL.c:147:4
	ldr	r1, [sp, #384]
	.loc	2 147 16                        @ source/interlock_SL.c:147:16
	ldrb	r0, [r1, #1]
	ands	r0, r3
	adds	r0, r0, r2
	strb	r0, [r1, #1]
	.loc	2 149 14 is_stmt 1              @ source/interlock_SL.c:149:14
	ldr	r1, .LCPI0_27
	movs	r0, #2
	strb	r0, [r1]
	.loc	2 150 4                         @ source/interlock_SL.c:150:4
	bl	.LBB0_269
.LBB0_6:
	.loc	2 152 15                        @ source/interlock_SL.c:152:15
	ldr	r0, [sp, #368]
	.loc	2 152 19 is_stmt 0              @ source/interlock_SL.c:152:19
	ldrb	r1, [r0]
	movs	r0, #3
	ands	r1, r0
	movs	r0, #0
	.loc	2 152 33                        @ source/interlock_SL.c:152:33
	cmp	r1, #2
	str	r0, [sp, #332]                  @ 4-byte Spill
	bne	.LBB0_29
	b	.LBB0_7
.LBB0_7:
	.loc	2 152 37                        @ source/interlock_SL.c:152:37
	ldr	r0, [sp, #368]
	.loc	2 152 41                        @ source/interlock_SL.c:152:41
	ldrb	r0, [r0]
	lsls	r0, r0, #26
	lsrs	r1, r0, #30
	movs	r0, #0
	.loc	2 152 55                        @ source/interlock_SL.c:152:55
	cmp	r1, #2
	str	r0, [sp, #332]                  @ 4-byte Spill
	bne	.LBB0_29
	b	.LBB0_8
.LBB0_8:
	.loc	2 152 59                        @ source/interlock_SL.c:152:59
	ldr	r0, [sp, #368]
	.loc	2 152 63                        @ source/interlock_SL.c:152:63
	ldrb	r0, [r0]
	lsrs	r1, r0, #6
	movs	r0, #0
	.loc	2 152 77                        @ source/interlock_SL.c:152:77
	cmp	r1, #2
	str	r0, [sp, #332]                  @ 4-byte Spill
	bne	.LBB0_29
	b	.LBB0_9
.LBB0_9:
	.loc	2 152 81                        @ source/interlock_SL.c:152:81
	ldr	r0, [sp, #368]
	.loc	2 152 85                        @ source/interlock_SL.c:152:85
	ldrb	r0, [r0]
	lsls	r0, r0, #28
	lsrs	r1, r0, #30
	movs	r0, #0
	.loc	2 152 97                        @ source/interlock_SL.c:152:97
	cmp	r1, #2
	str	r0, [sp, #332]                  @ 4-byte Spill
	bne	.LBB0_29
	b	.LBB0_10
.LBB0_10:
	.loc	2 152 101                       @ source/interlock_SL.c:152:101
	ldr	r0, [sp, #368]
	.loc	2 152 105                       @ source/interlock_SL.c:152:105
	ldrb	r0, [r0, #2]
	lsls	r0, r0, #26
	lsrs	r1, r0, #30
	movs	r0, #0
	.loc	2 152 117                       @ source/interlock_SL.c:152:117
	cmp	r1, #2
	str	r0, [sp, #332]                  @ 4-byte Spill
	bne	.LBB0_29
	b	.LBB0_11
.LBB0_11:
	.loc	2 152 121                       @ source/interlock_SL.c:152:121
	ldr	r0, [sp, #368]
	.loc	2 152 125                       @ source/interlock_SL.c:152:125
	ldrb	r0, [r0, #2]
	lsrs	r1, r0, #6
	movs	r0, #0
	.loc	2 152 136                       @ source/interlock_SL.c:152:136
	cmp	r1, #2
	str	r0, [sp, #332]                  @ 4-byte Spill
	bne	.LBB0_29
	b	.LBB0_12
.LBB0_12:
	.loc	2 152 140                       @ source/interlock_SL.c:152:140
	ldr	r0, [sp, #368]
	.loc	2 152 144                       @ source/interlock_SL.c:152:144
	ldrb	r0, [r0, #3]
	lsls	r0, r0, #28
	lsrs	r1, r0, #30
	movs	r0, #0
	.loc	2 152 155                       @ source/interlock_SL.c:152:155
	cmp	r1, #1
	str	r0, [sp, #332]                  @ 4-byte Spill
	bne	.LBB0_29
	b	.LBB0_13
.LBB0_13:
	.loc	2 152 159                       @ source/interlock_SL.c:152:159
	ldr	r0, [sp, #376]
	.loc	2 152 166                       @ source/interlock_SL.c:152:166
	ldrb	r0, [r0]
	lsls	r0, r0, #28
	lsrs	r1, r0, #30
	movs	r0, #0
	.loc	2 152 179                       @ source/interlock_SL.c:152:179
	cmp	r1, #2
	str	r0, [sp, #332]                  @ 4-byte Spill
	bne	.LBB0_29
	b	.LBB0_14
.LBB0_14:
	.loc	2 152 183                       @ source/interlock_SL.c:152:183
	ldr	r0, [sp, #376]
	.loc	2 152 190                       @ source/interlock_SL.c:152:190
	ldrb	r1, [r0]
	movs	r0, #3
	ands	r1, r0
	movs	r0, #0
	.loc	2 152 203                       @ source/interlock_SL.c:152:203
	cmp	r1, #2
	str	r0, [sp, #332]                  @ 4-byte Spill
	bne	.LBB0_29
	b	.LBB0_15
.LBB0_15:
	.loc	2 152 207                       @ source/interlock_SL.c:152:207
	ldr	r0, [sp, #376]
	.loc	2 152 214                       @ source/interlock_SL.c:152:214
	ldrb	r1, [r0, #1]
	movs	r0, #3
	ands	r1, r0
	movs	r0, #0
	.loc	2 152 227                       @ source/interlock_SL.c:152:227
	cmp	r1, #1
	str	r0, [sp, #332]                  @ 4-byte Spill
	bne	.LBB0_29
	b	.LBB0_16
.LBB0_16:
	.loc	2 152 231                       @ source/interlock_SL.c:152:231
	ldr	r0, [sp, #376]
	.loc	2 152 238                       @ source/interlock_SL.c:152:238
	ldrb	r0, [r0, #2]
	lsrs	r1, r0, #6
	movs	r0, #0
	.loc	2 152 250                       @ source/interlock_SL.c:152:250
	cmp	r1, #2
	str	r0, [sp, #332]                  @ 4-byte Spill
	bne	.LBB0_29
	b	.LBB0_17
.LBB0_17:
	.loc	2 152 254                       @ source/interlock_SL.c:152:254
	ldr	r0, [sp, #384]
	.loc	2 152 261                       @ source/interlock_SL.c:152:261
	ldrb	r0, [r0]
	lsls	r0, r0, #26
	lsrs	r1, r0, #30
	movs	r0, #0
	.loc	2 152 273                       @ source/interlock_SL.c:152:273
	cmp	r1, #1
	str	r0, [sp, #332]                  @ 4-byte Spill
	bne	.LBB0_29
	b	.LBB0_28
	.loc	2 0 273                         @ :0:273
.Ltmp2:
	.p2align	2
@ %bb.18:
__arm_cp.0_18:
	.long	vo_u
.Lcpi_end0:
	.size	__arm_cp.0_18, .Lcpi_end0-__arm_cp.0_18
	.p2align	2
@ %bb.19:
__arm_cp.0_19:
	.long	vo_in_u
.Lcpi_end1:
	.size	__arm_cp.0_19, .Lcpi_end1-__arm_cp.0_19
	.p2align	2
@ %bb.20:
__arm_cp.0_20:
	.long	nvo_u
.Lcpi_end2:
	.size	__arm_cp.0_20, .Lcpi_end2-__arm_cp.0_20
	.p2align	2
@ %bb.21:
__arm_cp.0_21:
	.long	lo_in_s
.Lcpi_end3:
	.size	__arm_cp.0_21, .Lcpi_end3-__arm_cp.0_21
	.p2align	2
@ %bb.22:
__arm_cp.0_22:
	.long	lo_u
.Lcpi_end4:
	.size	__arm_cp.0_22, .Lcpi_end4-__arm_cp.0_22
	.p2align	2
@ %bb.23:
__arm_cp.0_23:
	.long	vi_u
.Lcpi_end5:
	.size	__arm_cp.0_23, .Lcpi_end5-__arm_cp.0_23
	.p2align	2
@ %bb.24:
__arm_cp.0_24:
	.long	vi_oe_u
.Lcpi_end6:
	.size	__arm_cp.0_24, .Lcpi_end6-__arm_cp.0_24
	.p2align	2
@ %bb.25:
__arm_cp.0_25:
	.long	lo_oe_u
.Lcpi_end7:
	.size	__arm_cp.0_25, .Lcpi_end7-__arm_cp.0_25
	.p2align	2
@ %bb.26:
__arm_cp.0_26:
	.long	vo_oe_u
.Lcpi_end8:
	.size	__arm_cp.0_26, .Lcpi_end8-__arm_cp.0_26
	.p2align	2
@ %bb.27:
.LCPI0_27:
	.long	interlock_SL.lstate_SL
	.p2align	1
.LBB0_28:
	.loc	2 152 277                       @ source/interlock_SL.c:152:277
	ldr	r0, [sp, #368]
	.loc	2 152 281                       @ source/interlock_SL.c:152:281
	ldrb	r0, [r0, #3]
	lsrs	r0, r0, #6
	.loc	2 152 287                       @ source/interlock_SL.c:152:287
	subs	r0, r0, #2
	rsbs	r1, r0, #0
	adcs	r0, r1
	str	r0, [sp, #332]                  @ 4-byte Spill
	b	.LBB0_29
.LBB0_29:
	.loc	2 0 0                           @ source/interlock_SL.c:0:0
	ldr	r0, [sp, #332]                  @ 4-byte Reload
	.loc	2 152 13                        @ source/interlock_SL.c:152:13
	lsls	r1, r0, #31
	movs	r0, #2
	movs	r2, #1
	str	r2, [sp, #324]                  @ 4-byte Spill
	str	r0, [sp, #328]                  @ 4-byte Spill
	cbnz	r1, .LBB0_31
@ %bb.30:
	.loc	2 0 13                          @ source/interlock_SL.c:0:13
	ldr	r0, [sp, #324]                  @ 4-byte Reload
	str	r0, [sp, #328]                  @ 4-byte Spill
.LBB0_31:
	.loc	2 152 13                        @ source/interlock_SL.c:152:13
	ldr	r0, [sp, #328]                  @ 4-byte Reload
	.loc	2 152 11                        @ source/interlock_SL.c:152:11
	ldr	r1, __arm_cp.0_28
	strb	r0, [r1]
	.loc	2 153 15 is_stmt 1              @ source/interlock_SL.c:153:15
	ldr	r0, [sp, #368]
	.loc	2 153 19 is_stmt 0              @ source/interlock_SL.c:153:19
	ldrb	r1, [r0]
	movs	r0, #3
	ands	r1, r0
	movs	r0, #0
	.loc	2 153 33                        @ source/interlock_SL.c:153:33
	cmp	r1, #2
	str	r0, [sp, #320]                  @ 4-byte Spill
	beq	.LBB0_32
	b	.LBB0_47
.LBB0_32:
	.loc	2 153 37                        @ source/interlock_SL.c:153:37
	ldr	r0, [sp, #368]
	.loc	2 153 41                        @ source/interlock_SL.c:153:41
	ldrb	r0, [r0]
	lsls	r0, r0, #26
	lsrs	r1, r0, #30
	movs	r0, #0
	.loc	2 153 55                        @ source/interlock_SL.c:153:55
	cmp	r1, #2
	str	r0, [sp, #320]                  @ 4-byte Spill
	bne	.LBB0_47
	b	.LBB0_33
.LBB0_33:
	.loc	2 153 59                        @ source/interlock_SL.c:153:59
	ldr	r0, [sp, #368]
	.loc	2 153 63                        @ source/interlock_SL.c:153:63
	ldrb	r0, [r0]
	lsrs	r1, r0, #6
	movs	r0, #0
	.loc	2 153 77                        @ source/interlock_SL.c:153:77
	cmp	r1, #2
	str	r0, [sp, #320]                  @ 4-byte Spill
	bne	.LBB0_47
	b	.LBB0_34
.LBB0_34:
	.loc	2 153 81                        @ source/interlock_SL.c:153:81
	ldr	r0, [sp, #368]
	.loc	2 153 85                        @ source/interlock_SL.c:153:85
	ldrb	r0, [r0]
	lsls	r0, r0, #28
	lsrs	r1, r0, #30
	movs	r0, #0
	.loc	2 153 97                        @ source/interlock_SL.c:153:97
	cmp	r1, #2
	str	r0, [sp, #320]                  @ 4-byte Spill
	bne	.LBB0_47
	b	.LBB0_35
.LBB0_35:
	.loc	2 153 101                       @ source/interlock_SL.c:153:101
	ldr	r0, [sp, #368]
	.loc	2 153 105                       @ source/interlock_SL.c:153:105
	ldrb	r0, [r0, #2]
	lsls	r0, r0, #26
	lsrs	r1, r0, #30
	movs	r0, #0
	.loc	2 153 117                       @ source/interlock_SL.c:153:117
	cmp	r1, #1
	str	r0, [sp, #320]                  @ 4-byte Spill
	bne	.LBB0_47
	b	.LBB0_36
.LBB0_36:
	.loc	2 153 121                       @ source/interlock_SL.c:153:121
	ldr	r0, [sp, #368]
	.loc	2 153 125                       @ source/interlock_SL.c:153:125
	ldrb	r0, [r0, #2]
	lsrs	r1, r0, #6
	movs	r0, #0
	.loc	2 153 136                       @ source/interlock_SL.c:153:136
	cmp	r1, #1
	str	r0, [sp, #320]                  @ 4-byte Spill
	bne	.LBB0_47
	b	.LBB0_37
.LBB0_37:
	.loc	2 153 140                       @ source/interlock_SL.c:153:140
	ldr	r0, [sp, #368]
	.loc	2 153 144                       @ source/interlock_SL.c:153:144
	ldrb	r0, [r0, #3]
	lsls	r0, r0, #28
	lsrs	r1, r0, #30
	movs	r0, #0
	.loc	2 153 155                       @ source/interlock_SL.c:153:155
	cmp	r1, #1
	str	r0, [sp, #320]                  @ 4-byte Spill
	bne	.LBB0_47
	b	.LBB0_38
.LBB0_38:
	.loc	2 153 159                       @ source/interlock_SL.c:153:159
	ldr	r0, [sp, #376]
	.loc	2 153 166                       @ source/interlock_SL.c:153:166
	ldrb	r0, [r0]
	lsrs	r1, r0, #6
	movs	r0, #0
	.loc	2 153 179                       @ source/interlock_SL.c:153:179
	cmp	r1, #2
	str	r0, [sp, #320]                  @ 4-byte Spill
	bne	.LBB0_47
	b	.LBB0_39
.LBB0_39:
	.loc	2 153 183                       @ source/interlock_SL.c:153:183
	ldr	r0, [sp, #376]
	.loc	2 153 190                       @ source/interlock_SL.c:153:190
	ldrb	r0, [r0]
	lsls	r0, r0, #28
	lsrs	r1, r0, #30
	movs	r0, #0
	.loc	2 153 203                       @ source/interlock_SL.c:153:203
	cmp	r1, #1
	str	r0, [sp, #320]                  @ 4-byte Spill
	bne	.LBB0_47
	b	.LBB0_40
.LBB0_40:
	.loc	2 153 207                       @ source/interlock_SL.c:153:207
	ldr	r0, [sp, #376]
	.loc	2 153 214                       @ source/interlock_SL.c:153:214
	ldrb	r1, [r0, #1]
	movs	r0, #3
	ands	r1, r0
	movs	r0, #0
	.loc	2 153 227                       @ source/interlock_SL.c:153:227
	cmp	r1, #1
	str	r0, [sp, #320]                  @ 4-byte Spill
	bne	.LBB0_47
	b	.LBB0_41
.LBB0_41:
	.loc	2 153 231                       @ source/interlock_SL.c:153:231
	ldr	r0, [sp, #376]
	.loc	2 153 238                       @ source/interlock_SL.c:153:238
	ldrb	r0, [r0, #2]
	lsls	r0, r0, #26
	lsrs	r1, r0, #30
	movs	r0, #0
	.loc	2 153 249                       @ source/interlock_SL.c:153:249
	cmp	r1, #1
	str	r0, [sp, #320]                  @ 4-byte Spill
	bne	.LBB0_47
	b	.LBB0_42
.LBB0_42:
	.loc	2 153 253                       @ source/interlock_SL.c:153:253
	ldr	r0, [sp, #376]
	.loc	2 153 260                       @ source/interlock_SL.c:153:260
	ldrb	r0, [r0, #1]
	lsls	r0, r0, #28
	lsrs	r1, r0, #30
	movs	r0, #0
	.loc	2 153 275                       @ source/interlock_SL.c:153:275
	cmp	r1, #2
	str	r0, [sp, #320]                  @ 4-byte Spill
	bne	.LBB0_47
	b	.LBB0_43
.LBB0_43:
	.loc	2 153 279                       @ source/interlock_SL.c:153:279
	ldr	r0, [sp, #376]
	.loc	2 153 286                       @ source/interlock_SL.c:153:286
	ldrb	r0, [r0, #4]
	lsls	r0, r0, #28
	lsrs	r1, r0, #30
	movs	r0, #0
	.loc	2 153 300                       @ source/interlock_SL.c:153:300
	cmp	r1, #1
	str	r0, [sp, #320]                  @ 4-byte Spill
	bne	.LBB0_47
	b	.LBB0_44
.LBB0_44:
	.loc	2 153 304                       @ source/interlock_SL.c:153:304
	ldr	r0, [sp, #376]
	.loc	2 153 311                       @ source/interlock_SL.c:153:311
	ldrb	r0, [r0, #3]
	lsrs	r1, r0, #6
	movs	r0, #0
	.loc	2 153 323                       @ source/interlock_SL.c:153:323
	cmp	r1, #1
	str	r0, [sp, #320]                  @ 4-byte Spill
	bne	.LBB0_47
	b	.LBB0_45
.LBB0_45:
	.loc	2 153 327                       @ source/interlock_SL.c:153:327
	ldr	r0, [sp, #376]
	.loc	2 153 334                       @ source/interlock_SL.c:153:334
	ldrb	r0, [r0, #3]
	lsls	r0, r0, #26
	lsrs	r1, r0, #30
	movs	r0, #0
	.loc	2 153 346                       @ source/interlock_SL.c:153:346
	cmp	r1, #1
	str	r0, [sp, #320]                  @ 4-byte Spill
	bne	.LBB0_47
	b	.LBB0_46
.LBB0_46:
	.loc	2 153 350                       @ source/interlock_SL.c:153:350
	ldr	r0, [sp, #368]
	.loc	2 153 354                       @ source/interlock_SL.c:153:354
	ldrb	r0, [r0, #3]
	lsrs	r0, r0, #6
	.loc	2 153 360                       @ source/interlock_SL.c:153:360
	subs	r0, r0, #2
	rsbs	r1, r0, #0
	adcs	r0, r1
	str	r0, [sp, #320]                  @ 4-byte Spill
	b	.LBB0_47
.LBB0_47:
	.loc	2 0 0                           @ source/interlock_SL.c:0:0
	ldr	r0, [sp, #320]                  @ 4-byte Reload
	.loc	2 153 13                        @ source/interlock_SL.c:153:13
	lsls	r1, r0, #31
	movs	r0, #2
	movs	r2, #1
	str	r2, [sp, #312]                  @ 4-byte Spill
	str	r0, [sp, #316]                  @ 4-byte Spill
	cbnz	r1, .LBB0_49
@ %bb.48:
	.loc	2 0 13                          @ source/interlock_SL.c:0:13
	ldr	r0, [sp, #312]                  @ 4-byte Reload
	str	r0, [sp, #316]                  @ 4-byte Spill
.LBB0_49:
	.loc	2 153 13                        @ source/interlock_SL.c:153:13
	ldr	r0, [sp, #312]                  @ 4-byte Reload
	ldr	r1, [sp, #316]                  @ 4-byte Reload
	.loc	2 153 11                        @ source/interlock_SL.c:153:11
	ldr	r2, __arm_cp.0_29
	strb	r1, [r2]
	.loc	2 154 11 is_stmt 1              @ source/interlock_SL.c:154:11
	ldr	r1, __arm_cp.0_30
	strb	r0, [r1]
	.loc	2 156 15                        @ source/interlock_SL.c:156:15
	ldr	r0, [sp, #368]
	.loc	2 156 19 is_stmt 0              @ source/interlock_SL.c:156:19
	ldrb	r1, [r0]
	movs	r0, #3
	ands	r1, r0
	movs	r0, #0
	.loc	2 156 33                        @ source/interlock_SL.c:156:33
	cmp	r1, #2
	str	r0, [sp, #308]                  @ 4-byte Spill
	beq	.LBB0_50
	b	.LBB0_69
.LBB0_50:
	.loc	2 156 37                        @ source/interlock_SL.c:156:37
	ldr	r0, [sp, #368]
	.loc	2 156 41                        @ source/interlock_SL.c:156:41
	ldrb	r0, [r0]
	lsls	r0, r0, #26
	lsrs	r1, r0, #30
	movs	r0, #0
	.loc	2 156 55                        @ source/interlock_SL.c:156:55
	cmp	r1, #2
	str	r0, [sp, #308]                  @ 4-byte Spill
	beq	.LBB0_51
	b	.LBB0_69
.LBB0_51:
	.loc	2 156 59                        @ source/interlock_SL.c:156:59
	ldr	r0, [sp, #368]
	.loc	2 156 63                        @ source/interlock_SL.c:156:63
	ldrb	r0, [r0]
	lsrs	r1, r0, #6
	movs	r0, #0
	.loc	2 156 77                        @ source/interlock_SL.c:156:77
	cmp	r1, #2
	str	r0, [sp, #308]                  @ 4-byte Spill
	beq	.LBB0_52
	b	.LBB0_69
.LBB0_52:
	.loc	2 156 81                        @ source/interlock_SL.c:156:81
	ldr	r0, [sp, #368]
	.loc	2 156 85                        @ source/interlock_SL.c:156:85
	ldrb	r0, [r0, #1]
	lsrs	r1, r0, #6
	movs	r0, #0
	.loc	2 156 99                        @ source/interlock_SL.c:156:99
	cmp	r1, #2
	str	r0, [sp, #308]                  @ 4-byte Spill
	beq	.LBB0_53
	b	.LBB0_69
.LBB0_53:
	.loc	2 156 103                       @ source/interlock_SL.c:156:103
	ldr	r0, [sp, #368]
	.loc	2 156 107                       @ source/interlock_SL.c:156:107
	ldrb	r1, [r0, #2]
	movs	r0, #3
	ands	r1, r0
	movs	r0, #0
	.loc	2 156 121                       @ source/interlock_SL.c:156:121
	cmp	r1, #2
	str	r0, [sp, #308]                  @ 4-byte Spill
	beq	.LBB0_54
	b	.LBB0_69
.LBB0_54:
	.loc	2 156 125                       @ source/interlock_SL.c:156:125
	ldr	r0, [sp, #368]
	.loc	2 156 129                       @ source/interlock_SL.c:156:129
	ldrb	r0, [r0]
	lsls	r0, r0, #28
	lsrs	r1, r0, #30
	movs	r0, #0
	.loc	2 156 141                       @ source/interlock_SL.c:156:141
	cmp	r1, #2
	str	r0, [sp, #308]                  @ 4-byte Spill
	bne	.LBB0_69
	b	.LBB0_55
.LBB0_55:
	.loc	2 156 145                       @ source/interlock_SL.c:156:145
	ldr	r0, [sp, #368]
	.loc	2 156 149                       @ source/interlock_SL.c:156:149
	ldrb	r0, [r0, #2]
	lsls	r0, r0, #26
	lsrs	r1, r0, #30
	movs	r0, #0
	.loc	2 156 161                       @ source/interlock_SL.c:156:161
	cmp	r1, #1
	str	r0, [sp, #308]                  @ 4-byte Spill
	bne	.LBB0_69
	b	.LBB0_56
.LBB0_56:
	.loc	2 156 165                       @ source/interlock_SL.c:156:165
	ldr	r0, [sp, #368]
	.loc	2 156 169                       @ source/interlock_SL.c:156:169
	ldrb	r0, [r0, #2]
	lsrs	r1, r0, #6
	movs	r0, #0
	.loc	2 156 180                       @ source/interlock_SL.c:156:180
	cmp	r1, #1
	str	r0, [sp, #308]                  @ 4-byte Spill
	bne	.LBB0_69
	b	.LBB0_57
.LBB0_57:
	.loc	2 156 184                       @ source/interlock_SL.c:156:184
	ldr	r0, [sp, #368]
	.loc	2 156 188                       @ source/interlock_SL.c:156:188
	ldrb	r0, [r0, #3]
	lsls	r0, r0, #28
	lsrs	r1, r0, #30
	movs	r0, #0
	.loc	2 156 199                       @ source/interlock_SL.c:156:199
	cmp	r1, #1
	str	r0, [sp, #308]                  @ 4-byte Spill
	bne	.LBB0_69
	b	.LBB0_58
.LBB0_58:
	.loc	2 156 203                       @ source/interlock_SL.c:156:203
	ldr	r0, [sp, #376]
	.loc	2 156 210                       @ source/interlock_SL.c:156:210
	ldrb	r0, [r0]
	lsrs	r1, r0, #6
	movs	r0, #0
	.loc	2 156 223                       @ source/interlock_SL.c:156:223
	cmp	r1, #2
	str	r0, [sp, #308]                  @ 4-byte Spill
	bne	.LBB0_69
	b	.LBB0_59
.LBB0_59:
	.loc	2 156 227                       @ source/interlock_SL.c:156:227
	ldr	r0, [sp, #376]
	.loc	2 156 234                       @ source/interlock_SL.c:156:234
	ldrb	r0, [r0]
	lsls	r0, r0, #28
	lsrs	r1, r0, #30
	movs	r0, #0
	.loc	2 156 247                       @ source/interlock_SL.c:156:247
	cmp	r1, #1
	str	r0, [sp, #308]                  @ 4-byte Spill
	bne	.LBB0_69
	b	.LBB0_60
.LBB0_60:
	.loc	2 156 251                       @ source/interlock_SL.c:156:251
	ldr	r0, [sp, #376]
	.loc	2 156 258                       @ source/interlock_SL.c:156:258
	ldrb	r1, [r0, #1]
	movs	r0, #3
	ands	r1, r0
	movs	r0, #0
	.loc	2 156 271                       @ source/interlock_SL.c:156:271
	cmp	r1, #2
	str	r0, [sp, #308]                  @ 4-byte Spill
	bne	.LBB0_69
	b	.LBB0_61
.LBB0_61:
	.loc	2 156 275                       @ source/interlock_SL.c:156:275
	ldr	r0, [sp, #376]
	.loc	2 156 282                       @ source/interlock_SL.c:156:282
	ldrb	r0, [r0, #2]
	lsrs	r1, r0, #6
	movs	r0, #0
	.loc	2 156 294                       @ source/interlock_SL.c:156:294
	cmp	r1, #2
	str	r0, [sp, #308]                  @ 4-byte Spill
	bne	.LBB0_69
	b	.LBB0_62
.LBB0_62:
	.loc	2 156 298                       @ source/interlock_SL.c:156:298
	ldr	r0, [sp, #376]
	.loc	2 156 305                       @ source/interlock_SL.c:156:305
	ldrb	r0, [r0, #2]
	lsls	r0, r0, #26
	lsrs	r1, r0, #30
	movs	r0, #0
	.loc	2 156 316                       @ source/interlock_SL.c:156:316
	cmp	r1, #1
	str	r0, [sp, #308]                  @ 4-byte Spill
	bne	.LBB0_69
	b	.LBB0_63
.LBB0_63:
	.loc	2 156 320                       @ source/interlock_SL.c:156:320
	ldr	r0, [sp, #376]
	.loc	2 156 327                       @ source/interlock_SL.c:156:327
	ldrb	r0, [r0, #1]
	lsls	r0, r0, #28
	lsrs	r1, r0, #30
	movs	r0, #0
	.loc	2 156 342                       @ source/interlock_SL.c:156:342
	cmp	r1, #2
	str	r0, [sp, #308]                  @ 4-byte Spill
	bne	.LBB0_69
	b	.LBB0_64
.LBB0_64:
	.loc	2 156 346                       @ source/interlock_SL.c:156:346
	ldr	r0, [sp, #376]
	.loc	2 156 353                       @ source/interlock_SL.c:156:353
	ldrb	r0, [r0, #4]
	lsls	r0, r0, #28
	lsrs	r1, r0, #30
	movs	r0, #0
	.loc	2 156 367                       @ source/interlock_SL.c:156:367
	cmp	r1, #1
	str	r0, [sp, #308]                  @ 4-byte Spill
	bne	.LBB0_69
	b	.LBB0_65
.LBB0_65:
	.loc	2 156 371                       @ source/interlock_SL.c:156:371
	ldr	r0, [sp, #376]
	.loc	2 156 378                       @ source/interlock_SL.c:156:378
	ldrb	r0, [r0, #3]
	lsrs	r1, r0, #6
	movs	r0, #0
	.loc	2 156 390                       @ source/interlock_SL.c:156:390
	cmp	r1, #1
	str	r0, [sp, #308]                  @ 4-byte Spill
	bne	.LBB0_69
	b	.LBB0_66
.LBB0_66:
	.loc	2 156 394                       @ source/interlock_SL.c:156:394
	ldr	r0, [sp, #376]
	.loc	2 156 401                       @ source/interlock_SL.c:156:401
	ldrb	r0, [r0, #3]
	lsls	r0, r0, #26
	lsrs	r1, r0, #30
	movs	r0, #0
	.loc	2 156 413                       @ source/interlock_SL.c:156:413
	cmp	r1, #1
	str	r0, [sp, #308]                  @ 4-byte Spill
	bne	.LBB0_69
	b	.LBB0_67
.LBB0_67:
	.loc	2 156 417                       @ source/interlock_SL.c:156:417
	ldr	r0, [sp, #384]
	.loc	2 156 424                       @ source/interlock_SL.c:156:424
	ldrb	r1, [r0]
	movs	r0, #3
	ands	r1, r0
	movs	r0, #0
	.loc	2 156 436                       @ source/interlock_SL.c:156:436
	cmp	r1, #1
	str	r0, [sp, #308]                  @ 4-byte Spill
	bne	.LBB0_69
	b	.LBB0_68
.LBB0_68:
	.loc	2 156 440                       @ source/interlock_SL.c:156:440
	ldr	r0, [sp, #368]
	.loc	2 156 444                       @ source/interlock_SL.c:156:444
	ldrb	r0, [r0, #3]
	lsrs	r0, r0, #6
	.loc	2 156 450                       @ source/interlock_SL.c:156:450
	subs	r0, r0, #2
	rsbs	r1, r0, #0
	adcs	r0, r1
	str	r0, [sp, #308]                  @ 4-byte Spill
	b	.LBB0_69
.LBB0_69:
	.loc	2 0 0                           @ source/interlock_SL.c:0:0
	ldr	r0, [sp, #308]                  @ 4-byte Reload
	.loc	2 156 13                        @ source/interlock_SL.c:156:13
	lsls	r1, r0, #31
	movs	r0, #2
	movs	r2, #1
	str	r2, [sp, #300]                  @ 4-byte Spill
	str	r0, [sp, #304]                  @ 4-byte Spill
	cbnz	r1, .LBB0_71
@ %bb.70:
	.loc	2 0 13                          @ source/interlock_SL.c:0:13
	ldr	r0, [sp, #300]                  @ 4-byte Reload
	str	r0, [sp, #304]                  @ 4-byte Spill
.LBB0_71:
	.loc	2 156 13                        @ source/interlock_SL.c:156:13
	ldr	r0, [sp, #304]                  @ 4-byte Reload
	.loc	2 156 11                        @ source/interlock_SL.c:156:11
	ldr	r1, __arm_cp.0_31
	strb	r0, [r1]
	.loc	2 157 15 is_stmt 1              @ source/interlock_SL.c:157:15
	ldr	r0, [sp, #368]
	.loc	2 157 19 is_stmt 0              @ source/interlock_SL.c:157:19
	ldrb	r1, [r0]
	movs	r0, #3
	ands	r1, r0
	movs	r0, #0
	.loc	2 157 33                        @ source/interlock_SL.c:157:33
	cmp	r1, #2
	str	r0, [sp, #296]                  @ 4-byte Spill
	bne	.LBB0_85
	b	.LBB0_72
.LBB0_72:
	.loc	2 157 37                        @ source/interlock_SL.c:157:37
	ldr	r0, [sp, #368]
	.loc	2 157 41                        @ source/interlock_SL.c:157:41
	ldrb	r0, [r0]
	lsls	r0, r0, #26
	lsrs	r1, r0, #30
	movs	r0, #0
	.loc	2 157 55                        @ source/interlock_SL.c:157:55
	cmp	r1, #2
	str	r0, [sp, #296]                  @ 4-byte Spill
	bne	.LBB0_85
	b	.LBB0_73
.LBB0_73:
	.loc	2 157 59                        @ source/interlock_SL.c:157:59
	ldr	r0, [sp, #368]
	.loc	2 157 63                        @ source/interlock_SL.c:157:63
	ldrb	r0, [r0]
	lsrs	r1, r0, #6
	movs	r0, #0
	.loc	2 157 77                        @ source/interlock_SL.c:157:77
	cmp	r1, #2
	str	r0, [sp, #296]                  @ 4-byte Spill
	bne	.LBB0_85
	b	.LBB0_74
.LBB0_74:
	.loc	2 157 81                        @ source/interlock_SL.c:157:81
	ldr	r0, [sp, #368]
	.loc	2 157 85                        @ source/interlock_SL.c:157:85
	ldrb	r0, [r0]
	lsls	r0, r0, #28
	lsrs	r1, r0, #30
	movs	r0, #0
	.loc	2 157 97                        @ source/interlock_SL.c:157:97
	cmp	r1, #2
	str	r0, [sp, #296]                  @ 4-byte Spill
	bne	.LBB0_85
	b	.LBB0_75
.LBB0_75:
	.loc	2 157 101                       @ source/interlock_SL.c:157:101
	ldr	r0, [sp, #368]
	.loc	2 157 105                       @ source/interlock_SL.c:157:105
	ldrb	r0, [r0, #2]
	lsls	r0, r0, #26
	lsrs	r1, r0, #30
	movs	r0, #0
	.loc	2 157 117                       @ source/interlock_SL.c:157:117
	cmp	r1, #1
	str	r0, [sp, #296]                  @ 4-byte Spill
	bne	.LBB0_85
	b	.LBB0_76
.LBB0_76:
	.loc	2 157 121                       @ source/interlock_SL.c:157:121
	ldr	r0, [sp, #368]
	.loc	2 157 125                       @ source/interlock_SL.c:157:125
	ldrb	r0, [r0, #2]
	lsrs	r1, r0, #6
	movs	r0, #0
	.loc	2 157 136                       @ source/interlock_SL.c:157:136
	cmp	r1, #1
	str	r0, [sp, #296]                  @ 4-byte Spill
	bne	.LBB0_85
	b	.LBB0_77
.LBB0_77:
	.loc	2 157 140                       @ source/interlock_SL.c:157:140
	ldr	r0, [sp, #368]
	.loc	2 157 144                       @ source/interlock_SL.c:157:144
	ldrb	r0, [r0, #3]
	lsls	r0, r0, #28
	lsrs	r1, r0, #30
	movs	r0, #0
	.loc	2 157 155                       @ source/interlock_SL.c:157:155
	cmp	r1, #1
	str	r0, [sp, #296]                  @ 4-byte Spill
	bne	.LBB0_85
	b	.LBB0_78
.LBB0_78:
	.loc	2 157 159                       @ source/interlock_SL.c:157:159
	ldr	r0, [sp, #376]
	.loc	2 157 166                       @ source/interlock_SL.c:157:166
	ldrb	r0, [r0]
	lsrs	r1, r0, #6
	movs	r0, #0
	.loc	2 157 179                       @ source/interlock_SL.c:157:179
	cmp	r1, #2
	str	r0, [sp, #296]                  @ 4-byte Spill
	bne	.LBB0_85
	b	.LBB0_79
.LBB0_79:
	.loc	2 157 183                       @ source/interlock_SL.c:157:183
	ldr	r0, [sp, #376]
	.loc	2 157 190                       @ source/interlock_SL.c:157:190
	ldrb	r0, [r0]
	lsls	r0, r0, #28
	lsrs	r1, r0, #30
	movs	r0, #0
	.loc	2 157 203                       @ source/interlock_SL.c:157:203
	cmp	r1, #1
	str	r0, [sp, #296]                  @ 4-byte Spill
	bne	.LBB0_85
	b	.LBB0_80
.LBB0_80:
	.loc	2 157 207                       @ source/interlock_SL.c:157:207
	ldr	r0, [sp, #376]
	.loc	2 157 214                       @ source/interlock_SL.c:157:214
	ldrb	r1, [r0, #1]
	movs	r0, #3
	ands	r1, r0
	movs	r0, #0
	.loc	2 157 227                       @ source/interlock_SL.c:157:227
	cmp	r1, #1
	str	r0, [sp, #296]                  @ 4-byte Spill
	bne	.LBB0_85
	b	.LBB0_81
.LBB0_81:
	.loc	2 157 231                       @ source/interlock_SL.c:157:231
	ldr	r0, [sp, #376]
	.loc	2 157 238                       @ source/interlock_SL.c:157:238
	ldrb	r0, [r0, #2]
	lsls	r0, r0, #26
	lsrs	r1, r0, #30
	movs	r0, #0
	.loc	2 157 249                       @ source/interlock_SL.c:157:249
	cmp	r1, #2
	str	r0, [sp, #296]                  @ 4-byte Spill
	bne	.LBB0_85
	b	.LBB0_82
.LBB0_82:
	.loc	2 157 253                       @ source/interlock_SL.c:157:253
	ldr	r0, [sp, #376]
	.loc	2 157 260                       @ source/interlock_SL.c:157:260
	ldrb	r0, [r0, #1]
	lsls	r0, r0, #28
	lsrs	r1, r0, #30
	movs	r0, #0
	.loc	2 157 275                       @ source/interlock_SL.c:157:275
	cmp	r1, #2
	str	r0, [sp, #296]                  @ 4-byte Spill
	bne	.LBB0_85
	b	.LBB0_83
.LBB0_83:
	.loc	2 157 279                       @ source/interlock_SL.c:157:279
	ldr	r0, [sp, #376]
	.loc	2 157 286                       @ source/interlock_SL.c:157:286
	ldrb	r0, [r0, #4]
	lsls	r0, r0, #28
	lsrs	r1, r0, #30
	movs	r0, #0
	.loc	2 157 300                       @ source/interlock_SL.c:157:300
	cmp	r1, #2
	str	r0, [sp, #296]                  @ 4-byte Spill
	bne	.LBB0_85
	b	.LBB0_84
.LBB0_84:
	.loc	2 157 304                       @ source/interlock_SL.c:157:304
	ldr	r0, [sp, #368]
	.loc	2 157 308                       @ source/interlock_SL.c:157:308
	ldrb	r0, [r0, #3]
	lsrs	r0, r0, #6
	.loc	2 157 314                       @ source/interlock_SL.c:157:314
	subs	r0, r0, #2
	rsbs	r1, r0, #0
	adcs	r0, r1
	str	r0, [sp, #296]                  @ 4-byte Spill
	b	.LBB0_85
.LBB0_85:
	.loc	2 0 0                           @ source/interlock_SL.c:0:0
	ldr	r0, [sp, #296]                  @ 4-byte Reload
	.loc	2 157 13                        @ source/interlock_SL.c:157:13
	lsls	r1, r0, #31
	movs	r0, #2
	movs	r2, #1
	str	r2, [sp, #288]                  @ 4-byte Spill
	str	r0, [sp, #292]                  @ 4-byte Spill
	cbnz	r1, .LBB0_87
@ %bb.86:
	.loc	2 0 13                          @ source/interlock_SL.c:0:13
	ldr	r0, [sp, #288]                  @ 4-byte Reload
	str	r0, [sp, #292]                  @ 4-byte Spill
.LBB0_87:
	.loc	2 157 13                        @ source/interlock_SL.c:157:13
	ldr	r0, [sp, #292]                  @ 4-byte Reload
	.loc	2 157 11                        @ source/interlock_SL.c:157:11
	ldr	r1, __arm_cp.0_32
	strb	r0, [r1]
	.loc	2 158 15 is_stmt 1              @ source/interlock_SL.c:158:15
	ldr	r0, [sp, #368]
	.loc	2 158 19 is_stmt 0              @ source/interlock_SL.c:158:19
	ldrb	r1, [r0]
	movs	r0, #3
	ands	r1, r0
	movs	r0, #0
	.loc	2 158 33                        @ source/interlock_SL.c:158:33
	cmp	r1, #2
	str	r0, [sp, #284]                  @ 4-byte Spill
	bne	.LBB0_106
	b	.LBB0_88
.LBB0_88:
	.loc	2 158 37                        @ source/interlock_SL.c:158:37
	ldr	r0, [sp, #368]
	.loc	2 158 41                        @ source/interlock_SL.c:158:41
	ldrb	r0, [r0]
	lsls	r0, r0, #26
	lsrs	r1, r0, #30
	movs	r0, #0
	.loc	2 158 55                        @ source/interlock_SL.c:158:55
	cmp	r1, #2
	str	r0, [sp, #284]                  @ 4-byte Spill
	bne	.LBB0_106
	b	.LBB0_89
.LBB0_89:
	.loc	2 158 59                        @ source/interlock_SL.c:158:59
	ldr	r0, [sp, #368]
	.loc	2 158 63                        @ source/interlock_SL.c:158:63
	ldrb	r0, [r0]
	lsrs	r1, r0, #6
	movs	r0, #0
	.loc	2 158 77                        @ source/interlock_SL.c:158:77
	cmp	r1, #2
	str	r0, [sp, #284]                  @ 4-byte Spill
	bne	.LBB0_106
	b	.LBB0_95
	.loc	2 0 77                          @ :0:77
.Ltmp3:
	.p2align	2
@ %bb.90:
__arm_cp.0_28:
	.long	TGTR_1
.Lcpi_end9:
	.size	__arm_cp.0_28, .Lcpi_end9-__arm_cp.0_28
	.p2align	2
@ %bb.91:
__arm_cp.0_29:
	.long	TGTR_2
.Lcpi_end10:
	.size	__arm_cp.0_29, .Lcpi_end10-__arm_cp.0_29
	.p2align	2
@ %bb.92:
__arm_cp.0_30:
	.long	TGTR_3
.Lcpi_end11:
	.size	__arm_cp.0_30, .Lcpi_end11-__arm_cp.0_30
	.p2align	2
@ %bb.93:
__arm_cp.0_31:
	.long	TCFR_1
.Lcpi_end12:
	.size	__arm_cp.0_31, .Lcpi_end12-__arm_cp.0_31
	.p2align	2
@ %bb.94:
__arm_cp.0_32:
	.long	TCFR_2
.Lcpi_end13:
	.size	__arm_cp.0_32, .Lcpi_end13-__arm_cp.0_32
	.p2align	1
.LBB0_95:
	.loc	2 158 81                        @ source/interlock_SL.c:158:81
	ldr	r0, [sp, #368]
	.loc	2 158 85                        @ source/interlock_SL.c:158:85
	ldrb	r0, [r0]
	lsls	r0, r0, #28
	lsrs	r1, r0, #30
	movs	r0, #0
	.loc	2 158 97                        @ source/interlock_SL.c:158:97
	cmp	r1, #2
	str	r0, [sp, #284]                  @ 4-byte Spill
	bne	.LBB0_106
	b	.LBB0_96
.LBB0_96:
	.loc	2 158 101                       @ source/interlock_SL.c:158:101
	ldr	r0, [sp, #368]
	.loc	2 158 105                       @ source/interlock_SL.c:158:105
	ldrb	r0, [r0, #2]
	lsls	r0, r0, #26
	lsrs	r1, r0, #30
	movs	r0, #0
	.loc	2 158 117                       @ source/interlock_SL.c:158:117
	cmp	r1, #1
	str	r0, [sp, #284]                  @ 4-byte Spill
	bne	.LBB0_106
	b	.LBB0_97
.LBB0_97:
	.loc	2 158 121                       @ source/interlock_SL.c:158:121
	ldr	r0, [sp, #368]
	.loc	2 158 125                       @ source/interlock_SL.c:158:125
	ldrb	r0, [r0, #2]
	lsrs	r1, r0, #6
	movs	r0, #0
	.loc	2 158 136                       @ source/interlock_SL.c:158:136
	cmp	r1, #1
	str	r0, [sp, #284]                  @ 4-byte Spill
	bne	.LBB0_106
	b	.LBB0_98
.LBB0_98:
	.loc	2 158 140                       @ source/interlock_SL.c:158:140
	ldr	r0, [sp, #368]
	.loc	2 158 144                       @ source/interlock_SL.c:158:144
	ldrb	r0, [r0, #3]
	lsls	r0, r0, #28
	lsrs	r1, r0, #30
	movs	r0, #0
	.loc	2 158 155                       @ source/interlock_SL.c:158:155
	cmp	r1, #1
	str	r0, [sp, #284]                  @ 4-byte Spill
	bne	.LBB0_106
	b	.LBB0_99
.LBB0_99:
	.loc	2 158 159                       @ source/interlock_SL.c:158:159
	ldr	r0, [sp, #376]
	.loc	2 158 166                       @ source/interlock_SL.c:158:166
	ldrb	r0, [r0]
	lsrs	r1, r0, #6
	movs	r0, #0
	.loc	2 158 179                       @ source/interlock_SL.c:158:179
	cmp	r1, #2
	str	r0, [sp, #284]                  @ 4-byte Spill
	bne	.LBB0_106
	b	.LBB0_100
.LBB0_100:
	.loc	2 158 183                       @ source/interlock_SL.c:158:183
	ldr	r0, [sp, #376]
	.loc	2 158 190                       @ source/interlock_SL.c:158:190
	ldrb	r0, [r0]
	lsls	r0, r0, #28
	lsrs	r1, r0, #30
	movs	r0, #0
	.loc	2 158 203                       @ source/interlock_SL.c:158:203
	cmp	r1, #1
	str	r0, [sp, #284]                  @ 4-byte Spill
	bne	.LBB0_106
	b	.LBB0_101
.LBB0_101:
	.loc	2 158 207                       @ source/interlock_SL.c:158:207
	ldr	r0, [sp, #376]
	.loc	2 158 214                       @ source/interlock_SL.c:158:214
	ldrb	r1, [r0, #1]
	movs	r0, #3
	ands	r1, r0
	movs	r0, #0
	.loc	2 158 227                       @ source/interlock_SL.c:158:227
	cmp	r1, #1
	str	r0, [sp, #284]                  @ 4-byte Spill
	bne	.LBB0_106
	b	.LBB0_102
.LBB0_102:
	.loc	2 158 231                       @ source/interlock_SL.c:158:231
	ldr	r0, [sp, #376]
	.loc	2 158 238                       @ source/interlock_SL.c:158:238
	ldrb	r0, [r0, #2]
	lsls	r0, r0, #26
	lsrs	r1, r0, #30
	movs	r0, #0
	.loc	2 158 249                       @ source/interlock_SL.c:158:249
	cmp	r1, #1
	str	r0, [sp, #284]                  @ 4-byte Spill
	bne	.LBB0_106
	b	.LBB0_103
.LBB0_103:
	.loc	2 158 253                       @ source/interlock_SL.c:158:253
	ldr	r0, [sp, #376]
	.loc	2 158 260                       @ source/interlock_SL.c:158:260
	ldrb	r0, [r0, #1]
	lsls	r0, r0, #28
	lsrs	r1, r0, #30
	movs	r0, #0
	.loc	2 158 275                       @ source/interlock_SL.c:158:275
	cmp	r1, #2
	str	r0, [sp, #284]                  @ 4-byte Spill
	bne	.LBB0_106
	b	.LBB0_104
.LBB0_104:
	.loc	2 158 279                       @ source/interlock_SL.c:158:279
	ldr	r0, [sp, #376]
	.loc	2 158 286                       @ source/interlock_SL.c:158:286
	ldrb	r0, [r0, #3]
	lsls	r0, r0, #26
	lsrs	r1, r0, #30
	movs	r0, #0
	.loc	2 158 298                       @ source/interlock_SL.c:158:298
	cmp	r1, #2
	str	r0, [sp, #284]                  @ 4-byte Spill
	bne	.LBB0_106
	b	.LBB0_105
.LBB0_105:
	.loc	2 158 302                       @ source/interlock_SL.c:158:302
	ldr	r0, [sp, #368]
	.loc	2 158 306                       @ source/interlock_SL.c:158:306
	ldrb	r0, [r0, #3]
	lsrs	r0, r0, #6
	.loc	2 158 312                       @ source/interlock_SL.c:158:312
	subs	r0, r0, #2
	rsbs	r1, r0, #0
	adcs	r0, r1
	str	r0, [sp, #284]                  @ 4-byte Spill
	b	.LBB0_106
.LBB0_106:
	.loc	2 0 0                           @ source/interlock_SL.c:0:0
	ldr	r0, [sp, #284]                  @ 4-byte Reload
	.loc	2 158 13                        @ source/interlock_SL.c:158:13
	lsls	r1, r0, #31
	movs	r0, #2
	movs	r2, #1
	str	r2, [sp, #276]                  @ 4-byte Spill
	str	r0, [sp, #280]                  @ 4-byte Spill
	cbnz	r1, .LBB0_108
@ %bb.107:
	.loc	2 0 13                          @ source/interlock_SL.c:0:13
	ldr	r0, [sp, #276]                  @ 4-byte Reload
	str	r0, [sp, #280]                  @ 4-byte Spill
.LBB0_108:
	.loc	2 158 13                        @ source/interlock_SL.c:158:13
	ldr	r0, [sp, #280]                  @ 4-byte Reload
	.loc	2 158 11                        @ source/interlock_SL.c:158:11
	ldr	r1, __arm_cp.0_33
	strb	r0, [r1]
	.loc	2 160 16 is_stmt 1              @ source/interlock_SL.c:160:16
	ldr	r0, [sp, #368]
	.loc	2 160 20 is_stmt 0              @ source/interlock_SL.c:160:20
	ldrb	r1, [r0]
	movs	r0, #3
	ands	r1, r0
	movs	r0, #0
	.loc	2 160 34                        @ source/interlock_SL.c:160:34
	cmp	r1, #2
	str	r0, [sp, #272]                  @ 4-byte Spill
	bne	.LBB0_113
	b	.LBB0_109
.LBB0_109:
	.loc	2 160 38                        @ source/interlock_SL.c:160:38
	ldr	r0, [sp, #368]
	.loc	2 160 42                        @ source/interlock_SL.c:160:42
	ldrb	r0, [r0]
	lsls	r0, r0, #28
	lsrs	r1, r0, #30
	movs	r0, #0
	.loc	2 160 54                        @ source/interlock_SL.c:160:54
	cmp	r1, #2
	str	r0, [sp, #272]                  @ 4-byte Spill
	bne	.LBB0_113
	b	.LBB0_110
.LBB0_110:
	.loc	2 160 58                        @ source/interlock_SL.c:160:58
	ldr	r0, [sp, #376]
	.loc	2 160 65                        @ source/interlock_SL.c:160:65
	ldrb	r0, [r0]
	lsls	r0, r0, #28
	lsrs	r1, r0, #30
	movs	r0, #0
	.loc	2 160 78                        @ source/interlock_SL.c:160:78
	cmp	r1, #2
	str	r0, [sp, #272]                  @ 4-byte Spill
	bne	.LBB0_113
	b	.LBB0_111
.LBB0_111:
	.loc	2 160 82                        @ source/interlock_SL.c:160:82
	ldr	r0, [sp, #384]
	.loc	2 160 89                        @ source/interlock_SL.c:160:89
	ldrb	r1, [r0]
	movs	r0, #3
	ands	r1, r0
	movs	r0, #0
	.loc	2 160 101                       @ source/interlock_SL.c:160:101
	cmp	r1, #2
	str	r0, [sp, #272]                  @ 4-byte Spill
	bne	.LBB0_113
	b	.LBB0_112
.LBB0_112:
	.loc	2 160 105                       @ source/interlock_SL.c:160:105
	ldr	r0, [sp, #368]
	.loc	2 160 109                       @ source/interlock_SL.c:160:109
	ldrb	r0, [r0, #1]
	lsls	r0, r0, #28
	lsrs	r0, r0, #30
	.loc	2 160 118                       @ source/interlock_SL.c:160:118
	subs	r0, r0, #2
	rsbs	r1, r0, #0
	adcs	r0, r1
	str	r0, [sp, #272]                  @ 4-byte Spill
	b	.LBB0_113
.LBB0_113:
	.loc	2 0 0                           @ source/interlock_SL.c:0:0
	ldr	r0, [sp, #272]                  @ 4-byte Reload
	.loc	2 160 14                        @ source/interlock_SL.c:160:14
	lsls	r1, r0, #31
	movs	r0, #2
	movs	r2, #1
	str	r2, [sp, #264]                  @ 4-byte Spill
	str	r0, [sp, #268]                  @ 4-byte Spill
	cbnz	r1, .LBB0_115
@ %bb.114:
	.loc	2 0 14                          @ source/interlock_SL.c:0:14
	ldr	r0, [sp, #264]                  @ 4-byte Reload
	str	r0, [sp, #268]                  @ 4-byte Spill
.LBB0_115:
	.loc	2 160 14                        @ source/interlock_SL.c:160:14
	ldr	r0, [sp, #268]                  @ 4-byte Reload
	.loc	2 160 12                        @ source/interlock_SL.c:160:12
	ldr	r1, __arm_cp.0_34
	strb	r0, [r1]
	.loc	2 161 16 is_stmt 1              @ source/interlock_SL.c:161:16
	ldr	r0, [sp, #368]
	.loc	2 161 20 is_stmt 0              @ source/interlock_SL.c:161:20
	ldrb	r1, [r0]
	movs	r0, #3
	ands	r1, r0
	movs	r0, #0
	.loc	2 161 34                        @ source/interlock_SL.c:161:34
	cmp	r1, #2
	str	r0, [sp, #260]                  @ 4-byte Spill
	bne	.LBB0_118
	b	.LBB0_116
.LBB0_116:
	.loc	2 161 38                        @ source/interlock_SL.c:161:38
	ldr	r0, [sp, #368]
	.loc	2 161 42                        @ source/interlock_SL.c:161:42
	ldrb	r1, [r0, #1]
	movs	r0, #3
	ands	r1, r0
	movs	r0, #0
	.loc	2 161 55                        @ source/interlock_SL.c:161:55
	cmp	r1, #2
	str	r0, [sp, #260]                  @ 4-byte Spill
	bne	.LBB0_118
	b	.LBB0_117
.LBB0_117:
	.loc	2 161 59                        @ source/interlock_SL.c:161:59
	ldr	r0, [sp, #384]
	.loc	2 161 66                        @ source/interlock_SL.c:161:66
	ldrb	r0, [r0]
	movs	r1, #3
	ands	r0, r1
	.loc	2 161 70                        @ source/interlock_SL.c:161:70
	subs	r0, r0, #2
	rsbs	r1, r0, #0
	adcs	r0, r1
	str	r0, [sp, #260]                  @ 4-byte Spill
	b	.LBB0_118
.LBB0_118:
	.loc	2 0 0                           @ source/interlock_SL.c:0:0
	ldr	r0, [sp, #260]                  @ 4-byte Reload
	.loc	2 161 14                        @ source/interlock_SL.c:161:14
	lsls	r1, r0, #31
	movs	r0, #2
	movs	r2, #1
	str	r2, [sp, #252]                  @ 4-byte Spill
	str	r0, [sp, #256]                  @ 4-byte Spill
	cbnz	r1, .LBB0_120
@ %bb.119:
	.loc	2 0 14                          @ source/interlock_SL.c:0:14
	ldr	r0, [sp, #252]                  @ 4-byte Reload
	str	r0, [sp, #256]                  @ 4-byte Spill
.LBB0_120:
	.loc	2 161 14                        @ source/interlock_SL.c:161:14
	ldr	r0, [sp, #256]                  @ 4-byte Reload
	.loc	2 161 12                        @ source/interlock_SL.c:161:12
	ldr	r1, __arm_cp.0_35
	strb	r0, [r1]
	.loc	2 163 18 is_stmt 1              @ source/interlock_SL.c:163:18
	ldr	r0, [sp, #368]
	.loc	2 163 22 is_stmt 0              @ source/interlock_SL.c:163:22
	ldrb	r1, [r0]
	movs	r0, #3
	ands	r1, r0
	movs	r0, #0
	.loc	2 163 36                        @ source/interlock_SL.c:163:36
	cmp	r1, #2
	str	r0, [sp, #248]                  @ 4-byte Spill
	bne	.LBB0_132
	b	.LBB0_121
.LBB0_121:
	.loc	2 163 40                        @ source/interlock_SL.c:163:40
	ldr	r0, [sp, #368]
	.loc	2 163 44                        @ source/interlock_SL.c:163:44
	ldrb	r0, [r0]
	lsls	r0, r0, #26
	lsrs	r1, r0, #30
	movs	r0, #0
	.loc	2 163 58                        @ source/interlock_SL.c:163:58
	cmp	r1, #2
	str	r0, [sp, #248]                  @ 4-byte Spill
	bne	.LBB0_132
	b	.LBB0_122
.LBB0_122:
	.loc	2 163 62                        @ source/interlock_SL.c:163:62
	ldr	r0, [sp, #368]
	.loc	2 163 66                        @ source/interlock_SL.c:163:66
	ldrb	r0, [r0]
	lsrs	r1, r0, #6
	movs	r0, #0
	.loc	2 163 80                        @ source/interlock_SL.c:163:80
	cmp	r1, #2
	str	r0, [sp, #248]                  @ 4-byte Spill
	bne	.LBB0_132
	b	.LBB0_123
.LBB0_123:
	.loc	2 163 84                        @ source/interlock_SL.c:163:84
	ldr	r0, [sp, #368]
	.loc	2 163 88                        @ source/interlock_SL.c:163:88
	ldrb	r0, [r0]
	lsls	r0, r0, #28
	lsrs	r1, r0, #30
	movs	r0, #0
	.loc	2 163 100                       @ source/interlock_SL.c:163:100
	cmp	r1, #2
	str	r0, [sp, #248]                  @ 4-byte Spill
	bne	.LBB0_132
	b	.LBB0_124
.LBB0_124:
	.loc	2 163 104                       @ source/interlock_SL.c:163:104
	ldr	r0, [sp, #368]
	.loc	2 163 108                       @ source/interlock_SL.c:163:108
	ldrb	r0, [r0, #2]
	lsls	r0, r0, #26
	lsrs	r1, r0, #30
	movs	r0, #0
	.loc	2 163 120                       @ source/interlock_SL.c:163:120
	cmp	r1, #2
	str	r0, [sp, #248]                  @ 4-byte Spill
	bne	.LBB0_132
	b	.LBB0_125
.LBB0_125:
	.loc	2 163 124                       @ source/interlock_SL.c:163:124
	ldr	r0, [sp, #368]
	.loc	2 163 128                       @ source/interlock_SL.c:163:128
	ldrb	r0, [r0, #2]
	lsrs	r1, r0, #6
	movs	r0, #0
	.loc	2 163 139                       @ source/interlock_SL.c:163:139
	cmp	r1, #2
	str	r0, [sp, #248]                  @ 4-byte Spill
	bne	.LBB0_132
	b	.LBB0_126
.LBB0_126:
	.loc	2 163 143                       @ source/interlock_SL.c:163:143
	ldr	r0, [sp, #368]
	.loc	2 163 147                       @ source/interlock_SL.c:163:147
	ldrb	r0, [r0, #3]
	lsls	r0, r0, #28
	lsrs	r1, r0, #30
	movs	r0, #0
	.loc	2 163 158                       @ source/interlock_SL.c:163:158
	cmp	r1, #1
	str	r0, [sp, #248]                  @ 4-byte Spill
	bne	.LBB0_132
	b	.LBB0_127
.LBB0_127:
	.loc	2 163 162                       @ source/interlock_SL.c:163:162
	ldr	r0, [sp, #376]
	.loc	2 163 169                       @ source/interlock_SL.c:163:169
	ldrb	r1, [r0, #1]
	movs	r0, #3
	ands	r1, r0
	movs	r0, #0
	.loc	2 163 182                       @ source/interlock_SL.c:163:182
	cmp	r1, #1
	str	r0, [sp, #248]                  @ 4-byte Spill
	bne	.LBB0_132
	b	.LBB0_128
.LBB0_128:
	.loc	2 163 186                       @ source/interlock_SL.c:163:186
	ldr	r0, [sp, #376]
	.loc	2 163 193                       @ source/interlock_SL.c:163:193
	ldrb	r0, [r0, #2]
	lsrs	r1, r0, #6
	movs	r0, #0
	.loc	2 163 205                       @ source/interlock_SL.c:163:205
	cmp	r1, #2
	str	r0, [sp, #248]                  @ 4-byte Spill
	bne	.LBB0_132
	b	.LBB0_129
.LBB0_129:
	.loc	2 163 209                       @ source/interlock_SL.c:163:209
	ldr	r0, [sp, #384]
	.loc	2 163 216                       @ source/interlock_SL.c:163:216
	ldrb	r0, [r0]
	lsls	r0, r0, #26
	lsrs	r1, r0, #30
	movs	r0, #0
	.loc	2 163 228                       @ source/interlock_SL.c:163:228
	cmp	r1, #1
	str	r0, [sp, #248]                  @ 4-byte Spill
	bne	.LBB0_132
	b	.LBB0_130
.LBB0_130:
	.loc	2 163 232                       @ source/interlock_SL.c:163:232
	ldr	r0, [sp, #384]
	.loc	2 163 239                       @ source/interlock_SL.c:163:239
	ldrb	r1, [r0]
	movs	r0, #3
	ands	r1, r0
	movs	r0, #0
	.loc	2 163 251                       @ source/interlock_SL.c:163:251
	cmp	r1, #1
	str	r0, [sp, #248]                  @ 4-byte Spill
	bne	.LBB0_132
	b	.LBB0_131
.LBB0_131:
	.loc	2 163 255                       @ source/interlock_SL.c:163:255
	ldr	r0, [sp, #368]
	.loc	2 163 259                       @ source/interlock_SL.c:163:259
	ldrb	r0, [r0, #3]
	lsrs	r0, r0, #6
	.loc	2 163 265                       @ source/interlock_SL.c:163:265
	subs	r0, r0, #2
	rsbs	r1, r0, #0
	adcs	r0, r1
	str	r0, [sp, #248]                  @ 4-byte Spill
	b	.LBB0_132
.LBB0_132:
	.loc	2 0 0                           @ source/interlock_SL.c:0:0
	ldr	r0, [sp, #248]                  @ 4-byte Reload
	.loc	2 163 16                        @ source/interlock_SL.c:163:16
	lsls	r1, r0, #31
	movs	r0, #2
	movs	r2, #1
	str	r2, [sp, #240]                  @ 4-byte Spill
	str	r0, [sp, #244]                  @ 4-byte Spill
	cbnz	r1, .LBB0_134
@ %bb.133:
	.loc	2 0 16                          @ source/interlock_SL.c:0:16
	ldr	r0, [sp, #240]                  @ 4-byte Reload
	str	r0, [sp, #244]                  @ 4-byte Spill
.LBB0_134:
	.loc	2 163 16                        @ source/interlock_SL.c:163:16
	ldr	r2, [sp, #244]                  @ 4-byte Reload
	.loc	2 163 4                         @ source/interlock_SL.c:163:4
	ldr	r1, [sp, #372]
	.loc	2 163 14                        @ source/interlock_SL.c:163:14
	ldrb	r0, [r1]
	movs	r3, #252
	ands	r0, r3
	adds	r0, r0, r2
	strb	r0, [r1]
	.loc	2 164 18 is_stmt 1              @ source/interlock_SL.c:164:18
	ldr	r0, [sp, #356]
	.loc	2 164 25 is_stmt 0              @ source/interlock_SL.c:164:25
	ldrb	r0, [r0]
	lsls	r0, r0, #26
	lsrs	r1, r0, #30
	movs	r0, #0
	.loc	2 164 37                        @ source/interlock_SL.c:164:37
	cmp	r1, #2
	str	r0, [sp, #236]                  @ 4-byte Spill
	bne	.LBB0_142
	b	.LBB0_135
.LBB0_135:
	.loc	2 164 41                        @ source/interlock_SL.c:164:41
	ldr	r0, [sp, #356]
	.loc	2 164 48                        @ source/interlock_SL.c:164:48
	ldrb	r1, [r0]
	movs	r0, #3
	ands	r1, r0
	movs	r0, #0
	.loc	2 164 60                        @ source/interlock_SL.c:164:60
	cmp	r1, #1
	str	r0, [sp, #236]                  @ 4-byte Spill
	bne	.LBB0_142
	b	.LBB0_136
.LBB0_136:
	.loc	2 164 64                        @ source/interlock_SL.c:164:64
	ldr	r0, [sp, #364]
	.loc	2 164 71                        @ source/interlock_SL.c:164:71
	ldrb	r0, [r0]
	lsls	r0, r0, #26
	lsrs	r1, r0, #30
	movs	r0, #0
	.loc	2 164 85                        @ source/interlock_SL.c:164:85
	cmp	r1, #2
	str	r0, [sp, #236]                  @ 4-byte Spill
	bne	.LBB0_142
	b	.LBB0_137
.LBB0_137:
	.loc	2 164 89                        @ source/interlock_SL.c:164:89
	ldr	r0, [sp, #364]
	.loc	2 164 96                        @ source/interlock_SL.c:164:96
	ldrb	r0, [r0]
	lsls	r0, r0, #28
	lsrs	r1, r0, #30
	movs	r0, #0
	.loc	2 164 108                       @ source/interlock_SL.c:164:108
	cmp	r1, #2
	str	r0, [sp, #236]                  @ 4-byte Spill
	bne	.LBB0_142
	b	.LBB0_138
.LBB0_138:
	.loc	2 164 112                       @ source/interlock_SL.c:164:112
	ldr	r0, [sp, #360]
	.loc	2 164 119                       @ source/interlock_SL.c:164:119
	ldrb	r0, [r0, #2]
	lsrs	r1, r0, #6
	movs	r0, #0
	.loc	2 164 131                       @ source/interlock_SL.c:164:131
	cmp	r1, #2
	str	r0, [sp, #236]                  @ 4-byte Spill
	bne	.LBB0_142
	b	.LBB0_139
.LBB0_139:
	.loc	2 164 135                       @ source/interlock_SL.c:164:135
	ldr	r0, [sp, #360]
	.loc	2 164 142                       @ source/interlock_SL.c:164:142
	ldrb	r0, [r0]
	lsls	r0, r0, #28
	lsrs	r1, r0, #30
	movs	r0, #0
	.loc	2 164 155                       @ source/interlock_SL.c:164:155
	cmp	r1, #1
	str	r0, [sp, #236]                  @ 4-byte Spill
	bne	.LBB0_142
	b	.LBB0_140
.LBB0_140:
	.loc	2 164 159                       @ source/interlock_SL.c:164:159
	ldr	r0, [sp, #356]
	.loc	2 164 166                       @ source/interlock_SL.c:164:166
	ldrb	r0, [r0]
	lsls	r0, r0, #26
	lsrs	r1, r0, #30
	movs	r0, #0
	.loc	2 164 178                       @ source/interlock_SL.c:164:178
	cmp	r1, #2
	str	r0, [sp, #236]                  @ 4-byte Spill
	bne	.LBB0_142
	b	.LBB0_141
.LBB0_141:
	.loc	2 164 182                       @ source/interlock_SL.c:164:182
	ldr	r0, [sp, #356]
	.loc	2 164 189                       @ source/interlock_SL.c:164:189
	ldrb	r0, [r0]
	movs	r1, #3
	ands	r0, r1
	.loc	2 164 193                       @ source/interlock_SL.c:164:193
	subs	r0, r0, #1
	rsbs	r1, r0, #0
	adcs	r0, r1
	str	r0, [sp, #236]                  @ 4-byte Spill
	b	.LBB0_142
.LBB0_142:
	.loc	2 0 0                           @ source/interlock_SL.c:0:0
	ldr	r0, [sp, #236]                  @ 4-byte Reload
	.loc	2 164 16                        @ source/interlock_SL.c:164:16
	lsls	r1, r0, #31
	movs	r0, #8
	movs	r2, #4
	str	r2, [sp, #228]                  @ 4-byte Spill
	str	r0, [sp, #232]                  @ 4-byte Spill
	cbnz	r1, .LBB0_144
@ %bb.143:
	.loc	2 0 16                          @ source/interlock_SL.c:0:16
	ldr	r0, [sp, #228]                  @ 4-byte Reload
	str	r0, [sp, #232]                  @ 4-byte Spill
.LBB0_144:
	.loc	2 164 16                        @ source/interlock_SL.c:164:16
	ldr	r2, [sp, #232]                  @ 4-byte Reload
	.loc	2 164 4                         @ source/interlock_SL.c:164:4
	ldr	r1, [sp, #372]
	.loc	2 164 14                        @ source/interlock_SL.c:164:14
	ldrb	r0, [r1]
	movs	r3, #243
	ands	r0, r3
	adds	r0, r0, r2
	strb	r0, [r1]
	.loc	2 165 18 is_stmt 1              @ source/interlock_SL.c:165:18
	ldr	r0, [sp, #356]
	.loc	2 165 25 is_stmt 0              @ source/interlock_SL.c:165:25
	ldrb	r0, [r0]
	lsls	r0, r0, #26
	lsrs	r1, r0, #30
	movs	r0, #0
	.loc	2 165 37                        @ source/interlock_SL.c:165:37
	cmp	r1, #1
	str	r0, [sp, #224]                  @ 4-byte Spill
	bne	.LBB0_147
	b	.LBB0_145
.LBB0_145:
	.loc	2 165 41                        @ source/interlock_SL.c:165:41
	ldr	r0, [sp, #364]
	.loc	2 165 48                        @ source/interlock_SL.c:165:48
	ldrb	r0, [r0]
	lsrs	r1, r0, #6
	movs	r0, #0
	.loc	2 165 62                        @ source/interlock_SL.c:165:62
	cmp	r1, #2
	str	r0, [sp, #224]                  @ 4-byte Spill
	bne	.LBB0_147
	b	.LBB0_146
.LBB0_146:
	.loc	2 165 66                        @ source/interlock_SL.c:165:66
	ldr	r0, [sp, #356]
	.loc	2 165 73                        @ source/interlock_SL.c:165:73
	ldrb	r0, [r0]
	lsls	r0, r0, #26
	lsrs	r0, r0, #30
	.loc	2 165 77                        @ source/interlock_SL.c:165:77
	subs	r0, r0, #1
	rsbs	r1, r0, #0
	adcs	r0, r1
	str	r0, [sp, #224]                  @ 4-byte Spill
	b	.LBB0_147
.LBB0_147:
	.loc	2 0 0                           @ source/interlock_SL.c:0:0
	ldr	r0, [sp, #224]                  @ 4-byte Reload
	.loc	2 165 16                        @ source/interlock_SL.c:165:16
	lsls	r1, r0, #31
	movs	r0, #128
	movs	r2, #64
	str	r2, [sp, #216]                  @ 4-byte Spill
	str	r0, [sp, #220]                  @ 4-byte Spill
	cbnz	r1, .LBB0_149
@ %bb.148:
	.loc	2 0 16                          @ source/interlock_SL.c:0:16
	ldr	r0, [sp, #216]                  @ 4-byte Reload
	str	r0, [sp, #220]                  @ 4-byte Spill
.LBB0_149:
	.loc	2 165 16                        @ source/interlock_SL.c:165:16
	ldr	r2, [sp, #220]                  @ 4-byte Reload
	.loc	2 165 4                         @ source/interlock_SL.c:165:4
	ldr	r1, [sp, #372]
	.loc	2 165 14                        @ source/interlock_SL.c:165:14
	ldrb	r0, [r1]
	movs	r3, #63
	ands	r0, r3
	adds	r0, r0, r2
	strb	r0, [r1]
	.loc	2 166 17 is_stmt 1              @ source/interlock_SL.c:166:17
	ldr	r0, [sp, #360]
	.loc	2 166 24 is_stmt 0              @ source/interlock_SL.c:166:24
	ldrb	r1, [r0]
	movs	r0, #3
	ands	r1, r0
	str	r1, [sp, #208]                  @ 4-byte Spill
	movs	r0, #1
	.loc	2 166 16                        @ source/interlock_SL.c:166:16
	cmp	r1, #2
	str	r0, [sp, #212]                  @ 4-byte Spill
	bne	.LBB0_151
@ %bb.150:
	.loc	2 0 16                          @ source/interlock_SL.c:0:16
	ldr	r0, [sp, #208]                  @ 4-byte Reload
	str	r0, [sp, #212]                  @ 4-byte Spill
.LBB0_151:
	.loc	2 166 16                        @ source/interlock_SL.c:166:16
	ldr	r2, [sp, #212]                  @ 4-byte Reload
	.loc	2 166 4                         @ source/interlock_SL.c:166:4
	ldr	r1, [sp, #372]
	.loc	2 166 14                        @ source/interlock_SL.c:166:14
	ldrb	r0, [r1, #1]
	movs	r3, #252
	ands	r0, r3
	adds	r0, r0, r2
	strb	r0, [r1, #1]
	.loc	2 167 20 is_stmt 1              @ source/interlock_SL.c:167:20
	ldr	r0, [sp, #364]
	.loc	2 167 27 is_stmt 0              @ source/interlock_SL.c:167:27
	ldrb	r0, [r0]
	lsls	r0, r0, #26
	lsrs	r1, r0, #30
	movs	r0, #0
	.loc	2 167 41                        @ source/interlock_SL.c:167:41
	cmp	r1, #2
	str	r0, [sp, #204]                  @ 4-byte Spill
	bne	.LBB0_153
	b	.LBB0_152
.LBB0_152:
	.loc	2 167 45                        @ source/interlock_SL.c:167:45
	ldr	r0, [sp, #364]
	.loc	2 167 52                        @ source/interlock_SL.c:167:52
	ldrb	r0, [r0]
	lsls	r0, r0, #28
	lsrs	r0, r0, #30
	.loc	2 167 56                        @ source/interlock_SL.c:167:56
	subs	r0, r0, #2
	rsbs	r1, r0, #0
	adcs	r0, r1
	str	r0, [sp, #204]                  @ 4-byte Spill
	b	.LBB0_153
.LBB0_153:
	.loc	2 0 0                           @ source/interlock_SL.c:0:0
	ldr	r0, [sp, #204]                  @ 4-byte Reload
	.loc	2 167 18                        @ source/interlock_SL.c:167:18
	lsls	r1, r0, #31
	movs	r0, #8
	movs	r2, #4
	str	r2, [sp, #196]                  @ 4-byte Spill
	str	r0, [sp, #200]                  @ 4-byte Spill
	cbnz	r1, .LBB0_155
@ %bb.154:
	.loc	2 0 18                          @ source/interlock_SL.c:0:18
	ldr	r0, [sp, #196]                  @ 4-byte Reload
	str	r0, [sp, #200]                  @ 4-byte Spill
.LBB0_155:
	.loc	2 167 18                        @ source/interlock_SL.c:167:18
	ldr	r2, [sp, #200]                  @ 4-byte Reload
	.loc	2 167 4                         @ source/interlock_SL.c:167:4
	ldr	r1, [sp, #372]
	.loc	2 167 16                        @ source/interlock_SL.c:167:16
	ldrb	r0, [r1, #1]
	movs	r3, #243
	ands	r0, r3
	adds	r0, r0, r2
	strb	r0, [r1, #1]
	.loc	2 168 10 is_stmt 1              @ source/interlock_SL.c:168:10
	ldr	r0, [sp, #368]
	.loc	2 168 14 is_stmt 0              @ source/interlock_SL.c:168:14
	ldrb	r1, [r0]
	movs	r0, #3
	ands	r1, r0
	movs	r0, #0
	.loc	2 168 28                        @ source/interlock_SL.c:168:28
	cmp	r1, #2
	str	r0, [sp, #192]                  @ 4-byte Spill
	bne	.LBB0_165
	b	.LBB0_156
.LBB0_156:
	.loc	2 168 32                        @ source/interlock_SL.c:168:32
	ldr	r0, [sp, #368]
	.loc	2 168 36                        @ source/interlock_SL.c:168:36
	ldrb	r0, [r0]
	lsls	r0, r0, #26
	lsrs	r1, r0, #30
	movs	r0, #0
	.loc	2 168 50                        @ source/interlock_SL.c:168:50
	cmp	r1, #2
	str	r0, [sp, #192]                  @ 4-byte Spill
	bne	.LBB0_165
	b	.LBB0_157
.LBB0_157:
	.loc	2 168 54                        @ source/interlock_SL.c:168:54
	ldr	r0, [sp, #368]
	.loc	2 168 58                        @ source/interlock_SL.c:168:58
	ldrb	r0, [r0]
	lsrs	r1, r0, #6
	movs	r0, #0
	.loc	2 168 72                        @ source/interlock_SL.c:168:72
	cmp	r1, #2
	str	r0, [sp, #192]                  @ 4-byte Spill
	bne	.LBB0_165
	b	.LBB0_158
.LBB0_158:
	.loc	2 168 76                        @ source/interlock_SL.c:168:76
	ldr	r0, [sp, #368]
	.loc	2 168 80                        @ source/interlock_SL.c:168:80
	ldrb	r0, [r0, #2]
	lsrs	r1, r0, #6
	movs	r0, #0
	.loc	2 168 91                        @ source/interlock_SL.c:168:91
	cmp	r1, #2
	str	r0, [sp, #192]                  @ 4-byte Spill
	bne	.LBB0_165
	b	.LBB0_159
.LBB0_159:
	.loc	2 168 95                        @ source/interlock_SL.c:168:95
	ldr	r0, [sp, #368]
	.loc	2 168 99                        @ source/interlock_SL.c:168:99
	ldrb	r0, [r0, #3]
	lsls	r0, r0, #28
	lsrs	r1, r0, #30
	movs	r0, #0
	.loc	2 168 110                       @ source/interlock_SL.c:168:110
	cmp	r1, #2
	str	r0, [sp, #192]                  @ 4-byte Spill
	bne	.LBB0_165
	b	.LBB0_160
.LBB0_160:
	.loc	2 168 114                       @ source/interlock_SL.c:168:114
	ldr	r0, [sp, #376]
	.loc	2 168 121                       @ source/interlock_SL.c:168:121
	ldrb	r0, [r0]
	lsrs	r1, r0, #6
	movs	r0, #0
	.loc	2 168 134                       @ source/interlock_SL.c:168:134
	cmp	r1, #2
	str	r0, [sp, #192]                  @ 4-byte Spill
	bne	.LBB0_165
	b	.LBB0_161
.LBB0_161:
	.loc	2 168 138                       @ source/interlock_SL.c:168:138
	ldr	r0, [sp, #376]
	.loc	2 168 145                       @ source/interlock_SL.c:168:145
	ldrb	r0, [r0, #1]
	lsls	r0, r0, #28
	lsrs	r1, r0, #30
	movs	r0, #0
	.loc	2 168 160                       @ source/interlock_SL.c:168:160
	cmp	r1, #2
	str	r0, [sp, #192]                  @ 4-byte Spill
	bne	.LBB0_165
	b	.LBB0_162
.LBB0_162:
	.loc	2 168 164                       @ source/interlock_SL.c:168:164
	ldr	r0, [sp, #376]
	.loc	2 168 171                       @ source/interlock_SL.c:168:171
	ldrb	r1, [r0, #5]
	movs	r0, #3
	ands	r1, r0
	movs	r0, #0
	.loc	2 168 184                       @ source/interlock_SL.c:168:184
	cmp	r1, #2
	str	r0, [sp, #192]                  @ 4-byte Spill
	bne	.LBB0_165
	b	.LBB0_163
.LBB0_163:
	.loc	2 168 188                       @ source/interlock_SL.c:168:188
	ldr	r0, [sp, #384]
	.loc	2 168 195                       @ source/interlock_SL.c:168:195
	ldrb	r0, [r0]
	lsls	r0, r0, #26
	lsrs	r1, r0, #30
	movs	r0, #0
	.loc	2 168 207                       @ source/interlock_SL.c:168:207
	cmp	r1, #2
	str	r0, [sp, #192]                  @ 4-byte Spill
	bne	.LBB0_165
	b	.LBB0_164
.LBB0_164:
	.loc	2 168 211                       @ source/interlock_SL.c:168:211
	ldr	r0, [sp, #368]
	.loc	2 168 215                       @ source/interlock_SL.c:168:215
	ldrb	r0, [r0, #3]
	lsrs	r0, r0, #6
	.loc	2 168 221                       @ source/interlock_SL.c:168:221
	subs	r0, r0, #2
	rsbs	r1, r0, #0
	adcs	r0, r1
	str	r0, [sp, #192]                  @ 4-byte Spill
	b	.LBB0_165
.LBB0_165:
	.loc	2 0 0                           @ source/interlock_SL.c:0:0
	ldr	r2, [sp, #192]                  @ 4-byte Reload
	movs	r0, #1
	.loc	2 168 6                         @ source/interlock_SL.c:168:6
	ands	r2, r0
	add	r1, sp, #392
	strb	r2, [r1]
	.loc	2 169 8 is_stmt 1               @ source/interlock_SL.c:169:8
	ldrb	r1, [r1]
	.loc	2 169 10 is_stmt 0              @ source/interlock_SL.c:169:10
	lsls	r1, r1, #31
	str	r0, [sp, #188]                  @ 4-byte Spill
	cbnz	r1, .LBB0_174
	b	.LBB0_169
	.loc	2 0 10                          @ :0:10
.Ltmp4:
	.p2align	2
@ %bb.166:
__arm_cp.0_33:
	.long	TCFR_3
.Lcpi_end14:
	.size	__arm_cp.0_33, .Lcpi_end14-__arm_cp.0_33
	.p2align	2
@ %bb.167:
__arm_cp.0_34:
	.long	ASCR_1
.Lcpi_end15:
	.size	__arm_cp.0_34, .Lcpi_end15-__arm_cp.0_34
	.p2align	2
@ %bb.168:
__arm_cp.0_35:
	.long	ASCR_2
.Lcpi_end16:
	.size	__arm_cp.0_35, .Lcpi_end16-__arm_cp.0_35
	.p2align	1
.LBB0_169:
	.loc	2 169 15                        @ source/interlock_SL.c:169:15
	ldr	r0, [sp, #368]
	.loc	2 169 19                        @ source/interlock_SL.c:169:19
	ldrb	r1, [r0]
	movs	r0, #3
	ands	r1, r0
	movs	r0, #0
	.loc	2 169 33                        @ source/interlock_SL.c:169:33
	cmp	r1, #2
	str	r0, [sp, #184]                  @ 4-byte Spill
	bne	.LBB0_173
	b	.LBB0_170
.LBB0_170:
	.loc	2 169 37                        @ source/interlock_SL.c:169:37
	ldr	r0, [sp, #376]
	.loc	2 169 44                        @ source/interlock_SL.c:169:44
	ldrb	r0, [r0, #2]
	lsls	r0, r0, #26
	lsrs	r1, r0, #30
	movs	r0, #0
	.loc	2 169 55                        @ source/interlock_SL.c:169:55
	cmp	r1, #2
	str	r0, [sp, #184]                  @ 4-byte Spill
	bne	.LBB0_173
	b	.LBB0_171
.LBB0_171:
	.loc	2 169 59                        @ source/interlock_SL.c:169:59
	ldr	r0, [sp, #384]
	.loc	2 169 66                        @ source/interlock_SL.c:169:66
	ldrb	r0, [r0]
	lsls	r0, r0, #26
	lsrs	r1, r0, #30
	movs	r0, #0
	.loc	2 169 78                        @ source/interlock_SL.c:169:78
	cmp	r1, #2
	str	r0, [sp, #184]                  @ 4-byte Spill
	bne	.LBB0_173
	b	.LBB0_172
.LBB0_172:
	.loc	2 169 82                        @ source/interlock_SL.c:169:82
	ldr	r0, [sp, #368]
	.loc	2 169 86                        @ source/interlock_SL.c:169:86
	ldrb	r0, [r0, #3]
	lsrs	r0, r0, #6
	.loc	2 169 92                        @ source/interlock_SL.c:169:92
	subs	r0, r0, #2
	rsbs	r1, r0, #0
	adcs	r0, r1
	str	r0, [sp, #184]                  @ 4-byte Spill
	b	.LBB0_173
.LBB0_173:
	.loc	2 0 0                           @ source/interlock_SL.c:0:0
	ldr	r0, [sp, #184]                  @ 4-byte Reload
	.loc	2 169 10                        @ source/interlock_SL.c:169:10
	str	r0, [sp, #188]                  @ 4-byte Spill
	b	.LBB0_174
.LBB0_174:
	.loc	2 0 10                          @ source/interlock_SL.c:0:10
	ldr	r1, [sp, #188]                  @ 4-byte Reload
	movs	r0, #1
	.loc	2 169 6                         @ source/interlock_SL.c:169:6
	ands	r1, r0
	add	r0, sp, #392
	strb	r1, [r0]
	.loc	2 170 14 is_stmt 1              @ source/interlock_SL.c:170:14
	ldrb	r0, [r0]
	lsls	r1, r0, #31
	movs	r0, #32
	movs	r2, #16
	str	r2, [sp, #176]                  @ 4-byte Spill
	str	r0, [sp, #180]                  @ 4-byte Spill
	cbnz	r1, .LBB0_176
@ %bb.175:
	.loc	2 0 14 is_stmt 0                @ source/interlock_SL.c:0:14
	ldr	r0, [sp, #176]                  @ 4-byte Reload
	str	r0, [sp, #180]                  @ 4-byte Spill
.LBB0_176:
	.loc	2 170 14                        @ source/interlock_SL.c:170:14
	ldr	r2, [sp, #180]                  @ 4-byte Reload
	.loc	2 170 4                         @ source/interlock_SL.c:170:4
	ldr	r1, [sp, #372]
	.loc	2 170 12                        @ source/interlock_SL.c:170:12
	ldrb	r0, [r1, #2]
	movs	r3, #207
	ands	r0, r3
	adds	r0, r0, r2
	strb	r0, [r1, #2]
	.loc	2 171 10 is_stmt 1              @ source/interlock_SL.c:171:10
	ldr	r0, [sp, #368]
	.loc	2 171 14 is_stmt 0              @ source/interlock_SL.c:171:14
	ldrb	r1, [r0]
	movs	r0, #3
	ands	r1, r0
	movs	r0, #0
	.loc	2 171 28                        @ source/interlock_SL.c:171:28
	cmp	r1, #2
	str	r0, [sp, #172]                  @ 4-byte Spill
	bne	.LBB0_180
	b	.LBB0_177
.LBB0_177:
	.loc	2 171 32                        @ source/interlock_SL.c:171:32
	ldr	r0, [sp, #376]
	.loc	2 171 39                        @ source/interlock_SL.c:171:39
	ldrb	r0, [r0, #2]
	lsls	r0, r0, #26
	lsrs	r1, r0, #30
	movs	r0, #0
	.loc	2 171 50                        @ source/interlock_SL.c:171:50
	cmp	r1, #1
	str	r0, [sp, #172]                  @ 4-byte Spill
	bne	.LBB0_180
	b	.LBB0_178
.LBB0_178:
	.loc	2 171 54                        @ source/interlock_SL.c:171:54
	ldr	r0, [sp, #376]
	.loc	2 171 61                        @ source/interlock_SL.c:171:61
	ldrb	r0, [r0, #4]
	lsrs	r1, r0, #6
	movs	r0, #0
	.loc	2 171 74                        @ source/interlock_SL.c:171:74
	cmp	r1, #2
	str	r0, [sp, #172]                  @ 4-byte Spill
	bne	.LBB0_180
	b	.LBB0_179
.LBB0_179:
	.loc	2 171 78                        @ source/interlock_SL.c:171:78
	ldr	r0, [sp, #376]
	.loc	2 171 85                        @ source/interlock_SL.c:171:85
	ldrb	r0, [r0, #4]
	lsls	r0, r0, #26
	lsrs	r0, r0, #30
	.loc	2 171 90                        @ source/interlock_SL.c:171:90
	subs	r0, r0, #2
	rsbs	r1, r0, #0
	adcs	r0, r1
	str	r0, [sp, #172]                  @ 4-byte Spill
	b	.LBB0_180
.LBB0_180:
	.loc	2 0 0                           @ source/interlock_SL.c:0:0
	ldr	r2, [sp, #172]                  @ 4-byte Reload
	movs	r0, #1
	.loc	2 171 6                         @ source/interlock_SL.c:171:6
	ands	r2, r0
	add	r1, sp, #392
	strb	r2, [r1]
	.loc	2 172 8 is_stmt 1               @ source/interlock_SL.c:172:8
	ldrb	r1, [r1]
	.loc	2 172 10 is_stmt 0              @ source/interlock_SL.c:172:10
	lsls	r1, r1, #31
	str	r0, [sp, #168]                  @ 4-byte Spill
	cbnz	r1, .LBB0_185
	b	.LBB0_181
.LBB0_181:
	.loc	2 172 15                        @ source/interlock_SL.c:172:15
	ldr	r0, [sp, #368]
	.loc	2 172 19                        @ source/interlock_SL.c:172:19
	ldrb	r1, [r0]
	movs	r0, #3
	ands	r1, r0
	movs	r0, #0
	.loc	2 172 33                        @ source/interlock_SL.c:172:33
	cmp	r1, #2
	str	r0, [sp, #164]                  @ 4-byte Spill
	bne	.LBB0_184
	b	.LBB0_182
.LBB0_182:
	.loc	2 172 37                        @ source/interlock_SL.c:172:37
	ldr	r0, [sp, #376]
	.loc	2 172 44                        @ source/interlock_SL.c:172:44
	ldrb	r0, [r0, #2]
	lsrs	r1, r0, #6
	movs	r0, #0
	.loc	2 172 56                        @ source/interlock_SL.c:172:56
	cmp	r1, #2
	str	r0, [sp, #164]                  @ 4-byte Spill
	bne	.LBB0_184
	b	.LBB0_183
.LBB0_183:
	.loc	2 172 60                        @ source/interlock_SL.c:172:60
	ldr	r0, [sp, #376]
	.loc	2 172 67                        @ source/interlock_SL.c:172:67
	ldrb	r0, [r0, #2]
	lsls	r0, r0, #26
	lsrs	r0, r0, #30
	.loc	2 172 70                        @ source/interlock_SL.c:172:70
	subs	r0, r0, #1
	rsbs	r1, r0, #0
	adcs	r0, r1
	str	r0, [sp, #164]                  @ 4-byte Spill
	b	.LBB0_184
.LBB0_184:
	.loc	2 0 0                           @ source/interlock_SL.c:0:0
	ldr	r0, [sp, #164]                  @ 4-byte Reload
	.loc	2 172 10                        @ source/interlock_SL.c:172:10
	str	r0, [sp, #168]                  @ 4-byte Spill
	b	.LBB0_185
.LBB0_185:
	.loc	2 0 10                          @ source/interlock_SL.c:0:10
	ldr	r1, [sp, #168]                  @ 4-byte Reload
	movs	r0, #1
	.loc	2 172 6                         @ source/interlock_SL.c:172:6
	ands	r1, r0
	add	r0, sp, #392
	strb	r1, [r0]
	.loc	2 173 15 is_stmt 1              @ source/interlock_SL.c:173:15
	ldrb	r0, [r0]
	lsls	r1, r0, #31
	movs	r0, #128
	movs	r2, #64
	str	r2, [sp, #156]                  @ 4-byte Spill
	str	r0, [sp, #160]                  @ 4-byte Spill
	cbnz	r1, .LBB0_187
@ %bb.186:
	.loc	2 0 15 is_stmt 0                @ source/interlock_SL.c:0:15
	ldr	r0, [sp, #156]                  @ 4-byte Reload
	str	r0, [sp, #160]                  @ 4-byte Spill
.LBB0_187:
	.loc	2 173 15                        @ source/interlock_SL.c:173:15
	ldr	r2, [sp, #160]                  @ 4-byte Reload
	.loc	2 173 4                         @ source/interlock_SL.c:173:4
	ldr	r1, [sp, #372]
	.loc	2 173 13                        @ source/interlock_SL.c:173:13
	ldrb	r0, [r1, #2]
	movs	r3, #63
	ands	r0, r3
	adds	r0, r0, r2
	strb	r0, [r1, #2]
	.loc	2 174 10 is_stmt 1              @ source/interlock_SL.c:174:10
	ldr	r0, [sp, #368]
	.loc	2 174 14 is_stmt 0              @ source/interlock_SL.c:174:14
	ldrb	r1, [r0]
	movs	r0, #3
	ands	r1, r0
	movs	r0, #0
	.loc	2 174 28                        @ source/interlock_SL.c:174:28
	cmp	r1, #2
	str	r0, [sp, #152]                  @ 4-byte Spill
	bne	.LBB0_191
	b	.LBB0_188
.LBB0_188:
	.loc	2 174 32                        @ source/interlock_SL.c:174:32
	ldr	r0, [sp, #376]
	.loc	2 174 39                        @ source/interlock_SL.c:174:39
	ldrb	r0, [r0, #2]
	lsrs	r1, r0, #6
	movs	r0, #0
	.loc	2 174 51                        @ source/interlock_SL.c:174:51
	cmp	r1, #1
	str	r0, [sp, #152]                  @ 4-byte Spill
	bne	.LBB0_191
	b	.LBB0_189
.LBB0_189:
	.loc	2 174 55                        @ source/interlock_SL.c:174:55
	ldr	r0, [sp, #376]
	.loc	2 174 62                        @ source/interlock_SL.c:174:62
	ldrb	r0, [r0, #3]
	lsls	r0, r0, #28
	lsrs	r1, r0, #30
	movs	r0, #0
	.loc	2 174 73                        @ source/interlock_SL.c:174:73
	cmp	r1, #1
	str	r0, [sp, #152]                  @ 4-byte Spill
	bne	.LBB0_191
	b	.LBB0_190
.LBB0_190:
	.loc	2 174 77                        @ source/interlock_SL.c:174:77
	ldr	r0, [sp, #384]
	.loc	2 174 84                        @ source/interlock_SL.c:174:84
	ldrb	r0, [r0]
	lsls	r0, r0, #26
	lsrs	r0, r0, #30
	.loc	2 174 88                        @ source/interlock_SL.c:174:88
	subs	r0, r0, #2
	rsbs	r1, r0, #0
	adcs	r0, r1
	str	r0, [sp, #152]                  @ 4-byte Spill
	b	.LBB0_191
.LBB0_191:
	.loc	2 0 0                           @ source/interlock_SL.c:0:0
	ldr	r2, [sp, #152]                  @ 4-byte Reload
	movs	r0, #1
	.loc	2 174 6                         @ source/interlock_SL.c:174:6
	ands	r2, r0
	add	r1, sp, #392
	strb	r2, [r1]
	.loc	2 175 8 is_stmt 1               @ source/interlock_SL.c:175:8
	ldrb	r1, [r1]
	.loc	2 175 10 is_stmt 0              @ source/interlock_SL.c:175:10
	lsls	r1, r1, #31
	str	r0, [sp, #148]                  @ 4-byte Spill
	cbnz	r1, .LBB0_197
	b	.LBB0_192
.LBB0_192:
	.loc	2 175 15                        @ source/interlock_SL.c:175:15
	ldr	r0, [sp, #368]
	.loc	2 175 19                        @ source/interlock_SL.c:175:19
	ldrb	r1, [r0]
	movs	r0, #3
	ands	r1, r0
	movs	r0, #0
	.loc	2 175 33                        @ source/interlock_SL.c:175:33
	cmp	r1, #2
	str	r0, [sp, #144]                  @ 4-byte Spill
	bne	.LBB0_196
	b	.LBB0_193
.LBB0_193:
	.loc	2 175 37                        @ source/interlock_SL.c:175:37
	ldr	r0, [sp, #376]
	.loc	2 175 44                        @ source/interlock_SL.c:175:44
	ldrb	r0, [r0]
	lsls	r0, r0, #28
	lsrs	r1, r0, #30
	movs	r0, #0
	.loc	2 175 57                        @ source/interlock_SL.c:175:57
	cmp	r1, #1
	str	r0, [sp, #144]                  @ 4-byte Spill
	bne	.LBB0_196
	b	.LBB0_194
.LBB0_194:
	.loc	2 175 61                        @ source/interlock_SL.c:175:61
	ldr	r0, [sp, #376]
	.loc	2 175 68                        @ source/interlock_SL.c:175:68
	ldrb	r0, [r0, #3]
	lsls	r0, r0, #28
	lsrs	r1, r0, #30
	movs	r0, #0
	.loc	2 175 79                        @ source/interlock_SL.c:175:79
	cmp	r1, #1
	str	r0, [sp, #144]                  @ 4-byte Spill
	bne	.LBB0_196
	b	.LBB0_195
.LBB0_195:
	.loc	2 175 83                        @ source/interlock_SL.c:175:83
	ldr	r0, [sp, #384]
	.loc	2 175 90                        @ source/interlock_SL.c:175:90
	ldrb	r0, [r0]
	movs	r1, #3
	ands	r0, r1
	.loc	2 175 94                        @ source/interlock_SL.c:175:94
	subs	r0, r0, #2
	rsbs	r1, r0, #0
	adcs	r0, r1
	str	r0, [sp, #144]                  @ 4-byte Spill
	b	.LBB0_196
.LBB0_196:
	.loc	2 0 0                           @ source/interlock_SL.c:0:0
	ldr	r0, [sp, #144]                  @ 4-byte Reload
	.loc	2 175 10                        @ source/interlock_SL.c:175:10
	str	r0, [sp, #148]                  @ 4-byte Spill
	b	.LBB0_197
.LBB0_197:
	.loc	2 0 10                          @ source/interlock_SL.c:0:10
	ldr	r1, [sp, #148]                  @ 4-byte Reload
	movs	r0, #1
	.loc	2 175 6                         @ source/interlock_SL.c:175:6
	str	r0, [sp, #136]                  @ 4-byte Spill
	ands	r1, r0
	add	r0, sp, #392
	strb	r1, [r0]
	.loc	2 176 14 is_stmt 1              @ source/interlock_SL.c:176:14
	ldrb	r0, [r0]
	lsls	r1, r0, #31
	movs	r0, #2
	str	r0, [sp, #140]                  @ 4-byte Spill
	cbnz	r1, .LBB0_199
@ %bb.198:
	.loc	2 0 14 is_stmt 0                @ source/interlock_SL.c:0:14
	ldr	r0, [sp, #136]                  @ 4-byte Reload
	str	r0, [sp, #140]                  @ 4-byte Spill
.LBB0_199:
	.loc	2 176 14                        @ source/interlock_SL.c:176:14
	ldr	r2, [sp, #140]                  @ 4-byte Reload
	.loc	2 176 4                         @ source/interlock_SL.c:176:4
	ldr	r1, [sp, #372]
	.loc	2 176 12                        @ source/interlock_SL.c:176:12
	ldrb	r0, [r1, #3]
	movs	r3, #252
	ands	r0, r3
	adds	r0, r0, r2
	strb	r0, [r1, #3]
	.loc	2 177 10 is_stmt 1              @ source/interlock_SL.c:177:10
	ldr	r0, [sp, #368]
	.loc	2 177 14 is_stmt 0              @ source/interlock_SL.c:177:14
	ldrb	r1, [r0]
	movs	r0, #3
	ands	r1, r0
	movs	r0, #0
	.loc	2 177 28                        @ source/interlock_SL.c:177:28
	cmp	r1, #2
	str	r0, [sp, #132]                  @ 4-byte Spill
	bne	.LBB0_203
	b	.LBB0_200
.LBB0_200:
	.loc	2 177 32                        @ source/interlock_SL.c:177:32
	ldr	r0, [sp, #376]
	.loc	2 177 39                        @ source/interlock_SL.c:177:39
	ldrb	r0, [r0, #2]
	lsrs	r1, r0, #6
	movs	r0, #0
	.loc	2 177 51                        @ source/interlock_SL.c:177:51
	cmp	r1, #1
	str	r0, [sp, #132]                  @ 4-byte Spill
	bne	.LBB0_203
	b	.LBB0_201
.LBB0_201:
	.loc	2 177 55                        @ source/interlock_SL.c:177:55
	ldr	r0, [sp, #376]
	.loc	2 177 62                        @ source/interlock_SL.c:177:62
	ldrb	r1, [r0, #3]
	movs	r0, #3
	ands	r1, r0
	movs	r0, #0
	.loc	2 177 73                        @ source/interlock_SL.c:177:73
	cmp	r1, #2
	str	r0, [sp, #132]                  @ 4-byte Spill
	bne	.LBB0_203
	b	.LBB0_202
.LBB0_202:
	.loc	2 177 77                        @ source/interlock_SL.c:177:77
	ldr	r0, [sp, #384]
	.loc	2 177 84                        @ source/interlock_SL.c:177:84
	ldrb	r0, [r0]
	lsls	r0, r0, #26
	lsrs	r0, r0, #30
	.loc	2 177 88                        @ source/interlock_SL.c:177:88
	subs	r0, r0, #2
	rsbs	r1, r0, #0
	adcs	r0, r1
	str	r0, [sp, #132]                  @ 4-byte Spill
	b	.LBB0_203
.LBB0_203:
	.loc	2 0 0                           @ source/interlock_SL.c:0:0
	ldr	r2, [sp, #132]                  @ 4-byte Reload
	movs	r0, #1
	.loc	2 177 6                         @ source/interlock_SL.c:177:6
	ands	r2, r0
	add	r1, sp, #392
	strb	r2, [r1]
	.loc	2 178 8 is_stmt 1               @ source/interlock_SL.c:178:8
	ldrb	r1, [r1]
	.loc	2 178 10 is_stmt 0              @ source/interlock_SL.c:178:10
	lsls	r1, r1, #31
	str	r0, [sp, #128]                  @ 4-byte Spill
	cbnz	r1, .LBB0_209
	b	.LBB0_204
.LBB0_204:
	.loc	2 178 15                        @ source/interlock_SL.c:178:15
	ldr	r0, [sp, #368]
	.loc	2 178 19                        @ source/interlock_SL.c:178:19
	ldrb	r1, [r0]
	movs	r0, #3
	ands	r1, r0
	movs	r0, #0
	.loc	2 178 33                        @ source/interlock_SL.c:178:33
	cmp	r1, #2
	str	r0, [sp, #124]                  @ 4-byte Spill
	bne	.LBB0_208
	b	.LBB0_205
.LBB0_205:
	.loc	2 178 37                        @ source/interlock_SL.c:178:37
	ldr	r0, [sp, #376]
	.loc	2 178 44                        @ source/interlock_SL.c:178:44
	ldrb	r0, [r0]
	lsls	r0, r0, #28
	lsrs	r1, r0, #30
	movs	r0, #0
	.loc	2 178 57                        @ source/interlock_SL.c:178:57
	cmp	r1, #1
	str	r0, [sp, #124]                  @ 4-byte Spill
	bne	.LBB0_208
	b	.LBB0_206
.LBB0_206:
	.loc	2 178 61                        @ source/interlock_SL.c:178:61
	ldr	r0, [sp, #376]
	.loc	2 178 68                        @ source/interlock_SL.c:178:68
	ldrb	r1, [r0, #3]
	movs	r0, #3
	ands	r1, r0
	movs	r0, #0
	.loc	2 178 79                        @ source/interlock_SL.c:178:79
	cmp	r1, #2
	str	r0, [sp, #124]                  @ 4-byte Spill
	bne	.LBB0_208
	b	.LBB0_207
.LBB0_207:
	.loc	2 178 83                        @ source/interlock_SL.c:178:83
	ldr	r0, [sp, #384]
	.loc	2 178 90                        @ source/interlock_SL.c:178:90
	ldrb	r0, [r0]
	movs	r1, #3
	ands	r0, r1
	.loc	2 178 94                        @ source/interlock_SL.c:178:94
	subs	r0, r0, #2
	rsbs	r1, r0, #0
	adcs	r0, r1
	str	r0, [sp, #124]                  @ 4-byte Spill
	b	.LBB0_208
.LBB0_208:
	.loc	2 0 0                           @ source/interlock_SL.c:0:0
	ldr	r0, [sp, #124]                  @ 4-byte Reload
	.loc	2 178 10                        @ source/interlock_SL.c:178:10
	str	r0, [sp, #128]                  @ 4-byte Spill
	b	.LBB0_209
.LBB0_209:
	.loc	2 0 10                          @ source/interlock_SL.c:0:10
	ldr	r1, [sp, #128]                  @ 4-byte Reload
	movs	r0, #1
	.loc	2 178 6                         @ source/interlock_SL.c:178:6
	ands	r1, r0
	add	r0, sp, #392
	strb	r1, [r0]
	.loc	2 179 14 is_stmt 1              @ source/interlock_SL.c:179:14
	ldrb	r0, [r0]
	lsls	r1, r0, #31
	movs	r0, #8
	movs	r2, #4
	str	r2, [sp, #116]                  @ 4-byte Spill
	str	r0, [sp, #120]                  @ 4-byte Spill
	cbnz	r1, .LBB0_211
@ %bb.210:
	.loc	2 0 14 is_stmt 0                @ source/interlock_SL.c:0:14
	ldr	r0, [sp, #116]                  @ 4-byte Reload
	str	r0, [sp, #120]                  @ 4-byte Spill
.LBB0_211:
	.loc	2 179 14                        @ source/interlock_SL.c:179:14
	ldr	r2, [sp, #120]                  @ 4-byte Reload
	.loc	2 179 4                         @ source/interlock_SL.c:179:4
	ldr	r1, [sp, #372]
	.loc	2 179 12                        @ source/interlock_SL.c:179:12
	ldrb	r0, [r1, #3]
	movs	r3, #243
	ands	r0, r3
	adds	r0, r0, r2
	strb	r0, [r1, #3]
	.loc	2 180 10 is_stmt 1              @ source/interlock_SL.c:180:10
	ldr	r0, [sp, #368]
	.loc	2 180 14 is_stmt 0              @ source/interlock_SL.c:180:14
	ldrb	r0, [r0, #1]
	lsrs	r1, r0, #6
	movs	r0, #0
	.loc	2 180 28                        @ source/interlock_SL.c:180:28
	cmp	r1, #2
	str	r0, [sp, #112]                  @ 4-byte Spill
	bne	.LBB0_215
	b	.LBB0_212
.LBB0_212:
	.loc	2 180 32                        @ source/interlock_SL.c:180:32
	ldr	r0, [sp, #368]
	.loc	2 180 36                        @ source/interlock_SL.c:180:36
	ldrb	r1, [r0, #2]
	movs	r0, #3
	ands	r1, r0
	movs	r0, #0
	.loc	2 180 50                        @ source/interlock_SL.c:180:50
	cmp	r1, #1
	str	r0, [sp, #112]                  @ 4-byte Spill
	bne	.LBB0_215
	b	.LBB0_213
.LBB0_213:
	.loc	2 180 54                        @ source/interlock_SL.c:180:54
	ldr	r0, [sp, #376]
	.loc	2 180 61                        @ source/interlock_SL.c:180:61
	ldrb	r0, [r0, #2]
	lsrs	r1, r0, #6
	movs	r0, #0
	.loc	2 180 73                        @ source/interlock_SL.c:180:73
	cmp	r1, #1
	str	r0, [sp, #112]                  @ 4-byte Spill
	bne	.LBB0_215
	b	.LBB0_214
.LBB0_214:
	.loc	2 180 77                        @ source/interlock_SL.c:180:77
	ldr	r0, [sp, #376]
	.loc	2 180 84                        @ source/interlock_SL.c:180:84
	ldrb	r0, [r0, #3]
	lsrs	r0, r0, #6
	.loc	2 180 88                        @ source/interlock_SL.c:180:88
	subs	r0, r0, #2
	rsbs	r1, r0, #0
	adcs	r0, r1
	str	r0, [sp, #112]                  @ 4-byte Spill
	b	.LBB0_215
.LBB0_215:
	.loc	2 0 0                           @ source/interlock_SL.c:0:0
	ldr	r2, [sp, #112]                  @ 4-byte Reload
	movs	r0, #1
	.loc	2 180 6                         @ source/interlock_SL.c:180:6
	ands	r2, r0
	add	r1, sp, #392
	strb	r2, [r1]
	.loc	2 181 8 is_stmt 1               @ source/interlock_SL.c:181:8
	ldrb	r1, [r1]
	.loc	2 181 10 is_stmt 0              @ source/interlock_SL.c:181:10
	lsls	r1, r1, #31
	str	r0, [sp, #108]                  @ 4-byte Spill
	cbnz	r1, .LBB0_219
	b	.LBB0_216
.LBB0_216:
	.loc	2 181 15                        @ source/interlock_SL.c:181:15
	ldr	r0, [sp, #376]
	.loc	2 181 22                        @ source/interlock_SL.c:181:22
	ldrb	r0, [r0, #2]
	lsrs	r1, r0, #6
	movs	r0, #0
	.loc	2 181 34                        @ source/interlock_SL.c:181:34
	cmp	r1, #1
	str	r0, [sp, #104]                  @ 4-byte Spill
	bne	.LBB0_218
	b	.LBB0_217
.LBB0_217:
	.loc	2 181 38                        @ source/interlock_SL.c:181:38
	ldr	r0, [sp, #376]
	.loc	2 181 45                        @ source/interlock_SL.c:181:45
	ldrb	r0, [r0, #3]
	lsls	r0, r0, #26
	lsrs	r0, r0, #30
	.loc	2 181 49                        @ source/interlock_SL.c:181:49
	subs	r0, r0, #2
	rsbs	r1, r0, #0
	adcs	r0, r1
	str	r0, [sp, #104]                  @ 4-byte Spill
	b	.LBB0_218
.LBB0_218:
	.loc	2 0 0                           @ source/interlock_SL.c:0:0
	ldr	r0, [sp, #104]                  @ 4-byte Reload
	.loc	2 181 10                        @ source/interlock_SL.c:181:10
	str	r0, [sp, #108]                  @ 4-byte Spill
	b	.LBB0_219
.LBB0_219:
	.loc	2 0 10                          @ source/interlock_SL.c:0:10
	ldr	r1, [sp, #108]                  @ 4-byte Reload
	movs	r0, #1
	.loc	2 181 6                         @ source/interlock_SL.c:181:6
	ands	r1, r0
	add	r0, sp, #392
	strb	r1, [r0]
	.loc	2 182 15 is_stmt 1              @ source/interlock_SL.c:182:15
	ldrb	r0, [r0]
	lsls	r1, r0, #31
	movs	r0, #32
	movs	r2, #16
	str	r2, [sp, #96]                   @ 4-byte Spill
	str	r0, [sp, #100]                  @ 4-byte Spill
	cbnz	r1, .LBB0_221
@ %bb.220:
	.loc	2 0 15 is_stmt 0                @ source/interlock_SL.c:0:15
	ldr	r0, [sp, #96]                   @ 4-byte Reload
	str	r0, [sp, #100]                  @ 4-byte Spill
.LBB0_221:
	.loc	2 182 15                        @ source/interlock_SL.c:182:15
	ldr	r2, [sp, #100]                  @ 4-byte Reload
	.loc	2 182 4                         @ source/interlock_SL.c:182:4
	ldr	r1, [sp, #372]
	.loc	2 182 13                        @ source/interlock_SL.c:182:13
	ldrb	r0, [r1, #3]
	movs	r3, #207
	ands	r0, r3
	adds	r0, r0, r2
	strb	r0, [r1, #3]
	.loc	2 183 10 is_stmt 1              @ source/interlock_SL.c:183:10
	ldr	r0, [sp, #368]
	.loc	2 183 14 is_stmt 0              @ source/interlock_SL.c:183:14
	ldrb	r1, [r0, #2]
	movs	r0, #3
	ands	r1, r0
	movs	r0, #0
	.loc	2 183 28                        @ source/interlock_SL.c:183:28
	cmp	r1, #2
	str	r0, [sp, #92]                   @ 4-byte Spill
	bne	.LBB0_224
	b	.LBB0_222
.LBB0_222:
	.loc	2 183 32                        @ source/interlock_SL.c:183:32
	ldr	r0, [sp, #376]
	.loc	2 183 39                        @ source/interlock_SL.c:183:39
	ldrb	r0, [r0, #3]
	lsls	r0, r0, #26
	lsrs	r1, r0, #30
	movs	r0, #0
	.loc	2 183 51                        @ source/interlock_SL.c:183:51
	cmp	r1, #1
	str	r0, [sp, #92]                   @ 4-byte Spill
	bne	.LBB0_224
	b	.LBB0_223
.LBB0_223:
	.loc	2 183 55                        @ source/interlock_SL.c:183:55
	ldr	r0, [sp, #384]
	.loc	2 183 62                        @ source/interlock_SL.c:183:62
	ldrb	r0, [r0]
	lsls	r0, r0, #26
	lsrs	r0, r0, #30
	.loc	2 183 66                        @ source/interlock_SL.c:183:66
	subs	r0, r0, #2
	rsbs	r1, r0, #0
	adcs	r0, r1
	str	r0, [sp, #92]                   @ 4-byte Spill
	b	.LBB0_224
.LBB0_224:
	.loc	2 0 0                           @ source/interlock_SL.c:0:0
	ldr	r2, [sp, #92]                   @ 4-byte Reload
	movs	r0, #1
	.loc	2 183 6                         @ source/interlock_SL.c:183:6
	ands	r2, r0
	add	r1, sp, #392
	strb	r2, [r1]
	.loc	2 184 8 is_stmt 1               @ source/interlock_SL.c:184:8
	ldrb	r1, [r1]
	.loc	2 184 10 is_stmt 0              @ source/interlock_SL.c:184:10
	lsls	r1, r1, #31
	str	r0, [sp, #88]                   @ 4-byte Spill
	cbnz	r1, .LBB0_228
	b	.LBB0_225
.LBB0_225:
	.loc	2 184 15                        @ source/interlock_SL.c:184:15
	ldr	r0, [sp, #368]
	.loc	2 184 19                        @ source/interlock_SL.c:184:19
	ldrb	r0, [r0, #1]
	lsrs	r1, r0, #6
	movs	r0, #0
	.loc	2 184 33                        @ source/interlock_SL.c:184:33
	cmp	r1, #1
	str	r0, [sp, #84]                   @ 4-byte Spill
	bne	.LBB0_227
	b	.LBB0_226
.LBB0_226:
	.loc	2 184 37                        @ source/interlock_SL.c:184:37
	ldr	r0, [sp, #376]
	.loc	2 184 44                        @ source/interlock_SL.c:184:44
	ldrb	r0, [r0, #3]
	lsrs	r0, r0, #6
	.loc	2 184 48                        @ source/interlock_SL.c:184:48
	subs	r0, r0, #2
	rsbs	r1, r0, #0
	adcs	r0, r1
	str	r0, [sp, #84]                   @ 4-byte Spill
	b	.LBB0_227
.LBB0_227:
	.loc	2 0 0                           @ source/interlock_SL.c:0:0
	ldr	r0, [sp, #84]                   @ 4-byte Reload
	.loc	2 184 10                        @ source/interlock_SL.c:184:10
	str	r0, [sp, #88]                   @ 4-byte Spill
	b	.LBB0_228
.LBB0_228:
	.loc	2 0 10                          @ source/interlock_SL.c:0:10
	ldr	r1, [sp, #88]                   @ 4-byte Reload
	movs	r0, #1
	.loc	2 184 6                         @ source/interlock_SL.c:184:6
	str	r0, [sp, #72]                   @ 4-byte Spill
	ands	r1, r0
	add	r0, sp, #392
	strb	r1, [r0]
	.loc	2 185 16 is_stmt 1              @ source/interlock_SL.c:185:16
	ldrb	r0, [r0]
	.loc	2 185 15 is_stmt 0              @ source/interlock_SL.c:185:15
	lsls	r1, r0, #31
	movs	r0, #128
	movs	r2, #64
	str	r2, [sp, #76]                   @ 4-byte Spill
	str	r0, [sp, #80]                   @ 4-byte Spill
	cbnz	r1, .LBB0_230
@ %bb.229:
	.loc	2 0 15                          @ source/interlock_SL.c:0:15
	ldr	r0, [sp, #76]                   @ 4-byte Reload
	str	r0, [sp, #80]                   @ 4-byte Spill
.LBB0_230:
	.loc	2 185 15                        @ source/interlock_SL.c:185:15
	ldr	r0, [sp, #72]                   @ 4-byte Reload
	ldr	r3, [sp, #80]                   @ 4-byte Reload
	.loc	2 185 4                         @ source/interlock_SL.c:185:4
	ldr	r2, [sp, #372]
	.loc	2 185 13                        @ source/interlock_SL.c:185:13
	ldrb	r1, [r2, #3]
	movs	r4, #63
	ands	r1, r4
	adds	r1, r1, r3
	strb	r1, [r2, #3]
	.loc	2 186 18 is_stmt 1              @ source/interlock_SL.c:186:18
	ldr	r1, [sp, #376]
	.loc	2 186 25 is_stmt 0              @ source/interlock_SL.c:186:25
	ldrb	r1, [r1, #2]
	lsls	r1, r1, #26
	lsrs	r1, r1, #30
	.loc	2 186 17                        @ source/interlock_SL.c:186:17
	str	r1, [sp, #64]                   @ 4-byte Spill
	cmp	r1, #2
	str	r0, [sp, #68]                   @ 4-byte Spill
	bne	.LBB0_232
@ %bb.231:
	.loc	2 0 17                          @ source/interlock_SL.c:0:17
	ldr	r0, [sp, #64]                   @ 4-byte Reload
	str	r0, [sp, #68]                   @ 4-byte Spill
.LBB0_232:
	.loc	2 186 17                        @ source/interlock_SL.c:186:17
	ldr	r2, [sp, #68]                   @ 4-byte Reload
	.loc	2 186 4                         @ source/interlock_SL.c:186:4
	ldr	r1, [sp, #372]
	.loc	2 186 15                        @ source/interlock_SL.c:186:15
	ldrb	r0, [r1, #4]
	lsls	r2, r2, #2
	movs	r3, #243
	ands	r0, r3
	adds	r0, r0, r2
	strb	r0, [r1, #4]
	.loc	2 187 17 is_stmt 1              @ source/interlock_SL.c:187:17
	ldr	r0, [sp, #384]
	.loc	2 187 24 is_stmt 0              @ source/interlock_SL.c:187:24
	ldrb	r0, [r0]
	lsls	r0, r0, #26
	lsrs	r1, r0, #30
	movs	r0, #2
	.loc	2 187 16                        @ source/interlock_SL.c:187:16
	cmp	r1, #1
	str	r0, [sp, #60]                   @ 4-byte Spill
	beq	.LBB0_234
@ %bb.233:
	.loc	2 0 16                          @ source/interlock_SL.c:0:16
	ldr	r0, [sp, #72]                   @ 4-byte Reload
	str	r0, [sp, #60]                   @ 4-byte Spill
.LBB0_234:
	.loc	2 187 16                        @ source/interlock_SL.c:187:16
	ldr	r2, [sp, #60]                   @ 4-byte Reload
	.loc	2 187 4                         @ source/interlock_SL.c:187:4
	ldr	r1, [sp, #372]
	.loc	2 187 14                        @ source/interlock_SL.c:187:14
	ldrb	r0, [r1, #4]
	lsls	r2, r2, #4
	movs	r3, #207
	ands	r0, r3
	adds	r0, r0, r2
	strb	r0, [r1, #4]
	.loc	2 188 18 is_stmt 1              @ source/interlock_SL.c:188:18
	ldr	r0, [sp, #364]
	.loc	2 188 25 is_stmt 0              @ source/interlock_SL.c:188:25
	ldrb	r0, [r0]
	lsls	r0, r0, #26
	lsrs	r1, r0, #30
	movs	r0, #0
	.loc	2 188 39                        @ source/interlock_SL.c:188:39
	cmp	r1, #2
	str	r0, [sp, #56]                   @ 4-byte Spill
	bne	.LBB0_236
	b	.LBB0_235
.LBB0_235:
	.loc	2 188 43                        @ source/interlock_SL.c:188:43
	ldr	r0, [sp, #364]
	.loc	2 188 50                        @ source/interlock_SL.c:188:50
	ldrb	r0, [r0]
	lsls	r0, r0, #28
	lsrs	r0, r0, #30
	.loc	2 188 54                        @ source/interlock_SL.c:188:54
	subs	r0, r0, #2
	rsbs	r1, r0, #0
	adcs	r0, r1
	str	r0, [sp, #56]                   @ 4-byte Spill
	b	.LBB0_236
.LBB0_236:
	.loc	2 0 0                           @ source/interlock_SL.c:0:0
	ldr	r0, [sp, #56]                   @ 4-byte Reload
	.loc	2 188 16                        @ source/interlock_SL.c:188:16
	lsls	r1, r0, #31
	movs	r0, #2
	str	r0, [sp, #44]                   @ 4-byte Spill
	movs	r2, #1
	str	r2, [sp, #48]                   @ 4-byte Spill
	str	r0, [sp, #52]                   @ 4-byte Spill
	cbnz	r1, .LBB0_238
@ %bb.237:
	.loc	2 0 16                          @ source/interlock_SL.c:0:16
	ldr	r0, [sp, #48]                   @ 4-byte Reload
	str	r0, [sp, #52]                   @ 4-byte Spill
.LBB0_238:
	.loc	2 188 16                        @ source/interlock_SL.c:188:16
	ldr	r0, [sp, #44]                   @ 4-byte Reload
	ldr	r3, [sp, #52]                   @ 4-byte Reload
	.loc	2 188 4                         @ source/interlock_SL.c:188:4
	ldr	r2, [sp, #372]
	.loc	2 188 14                        @ source/interlock_SL.c:188:14
	ldrb	r1, [r2, #5]
	movs	r4, #252
	ands	r1, r4
	adds	r1, r1, r3
	strb	r1, [r2, #5]
	.loc	2 189 17 is_stmt 1              @ source/interlock_SL.c:189:17
	ldr	r1, [sp, #384]
	.loc	2 189 24 is_stmt 0              @ source/interlock_SL.c:189:24
	ldrb	r1, [r1]
	movs	r2, #3
	str	r2, [sp, #36]                   @ 4-byte Spill
	ands	r1, r2
	.loc	2 189 16                        @ source/interlock_SL.c:189:16
	cmp	r1, #1
	str	r0, [sp, #40]                   @ 4-byte Spill
	beq	.LBB0_240
@ %bb.239:
	.loc	2 0 16                          @ source/interlock_SL.c:0:16
	ldr	r0, [sp, #48]                   @ 4-byte Reload
	str	r0, [sp, #40]                   @ 4-byte Spill
.LBB0_240:
	.loc	2 189 16                        @ source/interlock_SL.c:189:16
	ldr	r1, [sp, #36]                   @ 4-byte Reload
	ldr	r3, [sp, #40]                   @ 4-byte Reload
	.loc	2 189 4                         @ source/interlock_SL.c:189:4
	ldr	r2, [sp, #372]
	.loc	2 189 14                        @ source/interlock_SL.c:189:14
	ldrb	r0, [r2, #4]
	lsls	r3, r3, #6
	movs	r4, #63
	ands	r0, r4
	adds	r0, r0, r3
	strb	r0, [r2, #4]
	.loc	2 191 21 is_stmt 1              @ source/interlock_SL.c:191:21
	ldr	r0, [sp, #376]
	.loc	2 191 28 is_stmt 0              @ source/interlock_SL.c:191:28
	ldrb	r0, [r0, #2]
	lsls	r0, r0, #26
	lsrs	r0, r0, #30
	.loc	2 191 31                        @ source/interlock_SL.c:191:31
	subs	r3, r0, #2
	rsbs	r0, r3, #0
	adcs	r3, r0
	.loc	2 191 4                         @ source/interlock_SL.c:191:4
	ldr	r2, [sp, #380]
	.loc	2 191 18                        @ source/interlock_SL.c:191:18
	ldrb	r0, [r2]
	movs	r4, #254
	ands	r0, r4
	adds	r0, r0, r3
	strb	r0, [r2]
	.loc	2 192 24 is_stmt 1              @ source/interlock_SL.c:192:24
	ldr	r0, [sp, #368]
	.loc	2 192 28 is_stmt 0              @ source/interlock_SL.c:192:28
	ldrb	r0, [r0]
	ands	r0, r1
	.loc	2 192 42                        @ source/interlock_SL.c:192:42
	cmp	r0, #1
	bne	.LBB0_242
	b	.LBB0_241
.LBB0_241:
	.loc	2 192 46                        @ source/interlock_SL.c:192:46
	ldr	r0, [sp, #384]
	.loc	2 192 53                        @ source/interlock_SL.c:192:53
	ldrb	r1, [r0]
	movs	r0, #3
	ands	r1, r0
	movs	r0, #1
	.loc	2 192 66                        @ source/interlock_SL.c:192:66
	cmp	r1, #2
	str	r0, [sp, #32]                   @ 4-byte Spill
	beq	.LBB0_245
	b	.LBB0_242
.LBB0_242:
	.loc	2 192 71                        @ source/interlock_SL.c:192:71
	ldr	r0, [sp, #368]
	.loc	2 192 75                        @ source/interlock_SL.c:192:75
	ldrb	r0, [r0]
	lsls	r0, r0, #28
	lsrs	r1, r0, #30
	movs	r0, #0
	.loc	2 192 89                        @ source/interlock_SL.c:192:89
	cmp	r1, #1
	str	r0, [sp, #28]                   @ 4-byte Spill
	bne	.LBB0_244
	b	.LBB0_243
.LBB0_243:
	.loc	2 192 93                        @ source/interlock_SL.c:192:93
	ldr	r0, [sp, #368]
	.loc	2 192 97                        @ source/interlock_SL.c:192:97
	ldrb	r0, [r0]
	movs	r1, #3
	ands	r0, r1
	.loc	2 192 103                       @ source/interlock_SL.c:192:103
	subs	r0, r0, #1
	rsbs	r1, r0, #0
	adcs	r0, r1
	str	r0, [sp, #28]                   @ 4-byte Spill
	b	.LBB0_244
.LBB0_244:
	.loc	2 0 0                           @ source/interlock_SL.c:0:0
	ldr	r0, [sp, #28]                   @ 4-byte Reload
	.loc	2 192 66                        @ source/interlock_SL.c:192:66
	str	r0, [sp, #32]                   @ 4-byte Spill
	b	.LBB0_245
.LBB0_245:
	.loc	2 0 66                          @ source/interlock_SL.c:0:66
	ldr	r2, [sp, #32]                   @ 4-byte Reload
	.loc	2 192 4                         @ source/interlock_SL.c:192:4
	ldr	r1, [sp, #380]
	.loc	2 192 19                        @ source/interlock_SL.c:192:19
	ldrb	r0, [r1]
	lsls	r2, r2, #31
	lsrs	r2, r2, #30
	movs	r3, #253
	ands	r0, r3
	adds	r0, r0, r2
	strb	r0, [r1]
	.loc	2 193 21 is_stmt 1              @ source/interlock_SL.c:193:21
	ldr	r0, [sp, #368]
	.loc	2 193 25 is_stmt 0              @ source/interlock_SL.c:193:25
	ldrb	r0, [r0]
	movs	r1, #3
	ands	r0, r1
	.loc	2 193 39                        @ source/interlock_SL.c:193:39
	cmp	r0, #1
	bne	.LBB0_247
	b	.LBB0_246
.LBB0_246:
	.loc	2 193 43                        @ source/interlock_SL.c:193:43
	ldr	r0, [sp, #384]
	.loc	2 193 50                        @ source/interlock_SL.c:193:50
	ldrb	r1, [r0]
	movs	r0, #3
	ands	r1, r0
	movs	r0, #1
	.loc	2 193 63                        @ source/interlock_SL.c:193:63
	cmp	r1, #2
	str	r0, [sp, #24]                   @ 4-byte Spill
	beq	.LBB0_250
	b	.LBB0_247
.LBB0_247:
	.loc	2 193 68                        @ source/interlock_SL.c:193:68
	ldr	r0, [sp, #368]
	.loc	2 193 72                        @ source/interlock_SL.c:193:72
	ldrb	r0, [r0]
	lsls	r0, r0, #28
	lsrs	r1, r0, #30
	movs	r0, #0
	.loc	2 193 86                        @ source/interlock_SL.c:193:86
	cmp	r1, #1
	str	r0, [sp, #20]                   @ 4-byte Spill
	bne	.LBB0_249
	b	.LBB0_248
.LBB0_248:
	.loc	2 193 90                        @ source/interlock_SL.c:193:90
	ldr	r0, [sp, #368]
	.loc	2 193 94                        @ source/interlock_SL.c:193:94
	ldrb	r0, [r0]
	movs	r1, #3
	ands	r0, r1
	.loc	2 193 100                       @ source/interlock_SL.c:193:100
	subs	r0, r0, #1
	rsbs	r1, r0, #0
	adcs	r0, r1
	str	r0, [sp, #20]                   @ 4-byte Spill
	b	.LBB0_249
.LBB0_249:
	.loc	2 0 0                           @ source/interlock_SL.c:0:0
	ldr	r0, [sp, #20]                   @ 4-byte Reload
	.loc	2 193 63                        @ source/interlock_SL.c:193:63
	str	r0, [sp, #24]                   @ 4-byte Spill
	b	.LBB0_250
.LBB0_250:
	.loc	2 0 63                          @ source/interlock_SL.c:0:63
	ldr	r2, [sp, #24]                   @ 4-byte Reload
	.loc	2 193 4                         @ source/interlock_SL.c:193:4
	ldr	r1, [sp, #380]
	.loc	2 193 16                        @ source/interlock_SL.c:193:16
	ldrb	r0, [r1]
	lsls	r2, r2, #31
	lsrs	r2, r2, #29
	movs	r3, #251
	ands	r0, r3
	adds	r0, r0, r2
	strb	r0, [r1]
	.loc	2 194 23 is_stmt 1              @ source/interlock_SL.c:194:23
	ldr	r0, [sp, #368]
	.loc	2 194 27 is_stmt 0              @ source/interlock_SL.c:194:27
	ldrb	r1, [r0]
	movs	r0, #3
	ands	r1, r0
	movs	r0, #0
	.loc	2 194 41                        @ source/interlock_SL.c:194:41
	cmp	r1, #1
	str	r0, [sp, #16]                   @ 4-byte Spill
	bne	.LBB0_252
	b	.LBB0_251
.LBB0_251:
	.loc	2 194 45                        @ source/interlock_SL.c:194:45
	ldr	r0, [sp, #384]
	.loc	2 194 52                        @ source/interlock_SL.c:194:52
	ldrb	r0, [r0]
	lsls	r0, r0, #26
	lsrs	r0, r0, #30
	.loc	2 194 56                        @ source/interlock_SL.c:194:56
	subs	r0, r0, #2
	rsbs	r1, r0, #0
	adcs	r0, r1
	str	r0, [sp, #16]                   @ 4-byte Spill
	b	.LBB0_252
.LBB0_252:
	.loc	2 0 0                           @ source/interlock_SL.c:0:0
	ldr	r2, [sp, #16]                   @ 4-byte Reload
	.loc	2 194 4                         @ source/interlock_SL.c:194:4
	ldr	r1, [sp, #380]
	.loc	2 194 19                        @ source/interlock_SL.c:194:19
	ldrb	r0, [r1]
	lsls	r2, r2, #31
	lsrs	r2, r2, #26
	movs	r4, #223
	ands	r0, r4
	adds	r0, r0, r2
	strb	r0, [r1]
	.loc	2 195 19 is_stmt 1              @ source/interlock_SL.c:195:19
	ldr	r0, [sp, #364]
	.loc	2 195 26 is_stmt 0              @ source/interlock_SL.c:195:26
	ldrb	r1, [r0]
	movs	r0, #3
	ands	r1, r0
	.loc	2 195 32                        @ source/interlock_SL.c:195:32
	subs	r3, r1, #1
	rsbs	r1, r3, #0
	adcs	r3, r1
	.loc	2 195 4                         @ source/interlock_SL.c:195:4
	ldr	r2, [sp, #380]
	.loc	2 195 16                        @ source/interlock_SL.c:195:16
	ldrb	r1, [r2]
	lsls	r3, r3, #6
	movs	r5, #191
	ands	r1, r5
	adds	r1, r1, r3
	strb	r1, [r2]
	.loc	2 197 18 is_stmt 1              @ source/interlock_SL.c:197:18
	ldr	r1, [sp, #368]
	.loc	2 197 22 is_stmt 0              @ source/interlock_SL.c:197:22
	ldrb	r1, [r1, #3]
	lsrs	r1, r1, #6
	.loc	2 197 28                        @ source/interlock_SL.c:197:28
	subs	r3, r1, #2
	rsbs	r1, r3, #0
	adcs	r3, r1
	.loc	2 197 4                         @ source/interlock_SL.c:197:4
	ldr	r2, [sp, #380]
	.loc	2 197 15                        @ source/interlock_SL.c:197:15
	ldrb	r1, [r2, #1]
	lsls	r3, r3, #3
	movs	r5, #247
	ands	r1, r5
	adds	r1, r1, r3
	strb	r1, [r2, #1]
	.loc	2 198 18 is_stmt 1              @ source/interlock_SL.c:198:18
	ldr	r1, [sp, #356]
	.loc	2 198 25 is_stmt 0              @ source/interlock_SL.c:198:25
	ldrb	r1, [r1, #1]
	ands	r1, r0
	.loc	2 198 29                        @ source/interlock_SL.c:198:29
	subs	r3, r1, #1
	rsbs	r1, r3, #0
	adcs	r3, r1
	.loc	2 198 4                         @ source/interlock_SL.c:198:4
	ldr	r2, [sp, #380]
	.loc	2 198 15                        @ source/interlock_SL.c:198:15
	ldrb	r1, [r2, #1]
	lsls	r3, r3, #4
	movs	r5, #239
	ands	r1, r5
	adds	r1, r1, r3
	strb	r1, [r2, #1]
	.loc	2 199 16 is_stmt 1              @ source/interlock_SL.c:199:16
	ldr	r1, [sp, #368]
	.loc	2 199 20 is_stmt 0              @ source/interlock_SL.c:199:20
	ldrb	r1, [r1, #1]
	ands	r1, r0
	.loc	2 199 24                        @ source/interlock_SL.c:199:24
	subs	r3, r1, #1
	rsbs	r1, r3, #0
	adcs	r3, r1
	.loc	2 199 4                         @ source/interlock_SL.c:199:4
	ldr	r2, [sp, #380]
	.loc	2 199 13                        @ source/interlock_SL.c:199:13
	ldrb	r1, [r2, #1]
	lsls	r3, r3, #5
	ands	r1, r4
	adds	r1, r1, r3
	strb	r1, [r2, #1]
	.loc	2 200 16 is_stmt 1              @ source/interlock_SL.c:200:16
	ldr	r1, [sp, #368]
	.loc	2 200 20 is_stmt 0              @ source/interlock_SL.c:200:20
	ldrb	r1, [r1]
	ands	r1, r0
	movs	r0, #0
	.loc	2 200 34                        @ source/interlock_SL.c:200:34
	cmp	r1, #2
	str	r0, [sp, #12]                   @ 4-byte Spill
	bne	.LBB0_261
	b	.LBB0_253
.LBB0_253:
	.loc	2 200 38                        @ source/interlock_SL.c:200:38
	ldr	r0, [sp, #368]
	.loc	2 200 42                        @ source/interlock_SL.c:200:42
	ldrb	r0, [r0]
	lsls	r0, r0, #26
	lsrs	r1, r0, #30
	movs	r0, #0
	.loc	2 200 56                        @ source/interlock_SL.c:200:56
	cmp	r1, #2
	str	r0, [sp, #12]                   @ 4-byte Spill
	bne	.LBB0_261
	b	.LBB0_254
.LBB0_254:
	.loc	2 200 60                        @ source/interlock_SL.c:200:60
	ldr	r0, [sp, #368]
	.loc	2 200 64                        @ source/interlock_SL.c:200:64
	ldrb	r0, [r0]
	lsrs	r1, r0, #6
	movs	r0, #0
	.loc	2 200 78                        @ source/interlock_SL.c:200:78
	cmp	r1, #2
	str	r0, [sp, #12]                   @ 4-byte Spill
	bne	.LBB0_261
	b	.LBB0_255
.LBB0_255:
	.loc	2 200 82                        @ source/interlock_SL.c:200:82
	ldr	r0, [sp, #368]
	.loc	2 200 86                        @ source/interlock_SL.c:200:86
	ldrb	r0, [r0, #1]
	lsrs	r1, r0, #6
	movs	r0, #0
	.loc	2 200 100                       @ source/interlock_SL.c:200:100
	cmp	r1, #2
	str	r0, [sp, #12]                   @ 4-byte Spill
	bne	.LBB0_261
	b	.LBB0_256
.LBB0_256:
	.loc	2 200 104                       @ source/interlock_SL.c:200:104
	ldr	r0, [sp, #368]
	.loc	2 200 108                       @ source/interlock_SL.c:200:108
	ldrb	r1, [r0, #2]
	movs	r0, #3
	ands	r1, r0
	movs	r0, #0
	.loc	2 200 122                       @ source/interlock_SL.c:200:122
	cmp	r1, #2
	str	r0, [sp, #12]                   @ 4-byte Spill
	bne	.LBB0_261
	b	.LBB0_257
.LBB0_257:
	.loc	2 200 126                       @ source/interlock_SL.c:200:126
	ldr	r0, [sp, #368]
	.loc	2 200 130                       @ source/interlock_SL.c:200:130
	ldrb	r1, [r0, #1]
	movs	r0, #3
	ands	r1, r0
	movs	r0, #0
	.loc	2 200 142                       @ source/interlock_SL.c:200:142
	cmp	r1, #1
	str	r0, [sp, #12]                   @ 4-byte Spill
	bne	.LBB0_261
	b	.LBB0_258
.LBB0_258:
	.loc	2 200 146                       @ source/interlock_SL.c:200:146
	ldr	r0, [sp, #384]
	.loc	2 200 153                       @ source/interlock_SL.c:200:153
	ldrb	r0, [r0]
	lsls	r0, r0, #26
	lsrs	r1, r0, #30
	movs	r0, #0
	.loc	2 200 165                       @ source/interlock_SL.c:200:165
	cmp	r1, #1
	str	r0, [sp, #12]                   @ 4-byte Spill
	bne	.LBB0_261
	b	.LBB0_259
.LBB0_259:
	.loc	2 200 169                       @ source/interlock_SL.c:200:169
	ldr	r0, [sp, #368]
	.loc	2 200 173                       @ source/interlock_SL.c:200:173
	ldrb	r0, [r0]
	lsls	r0, r0, #28
	lsrs	r1, r0, #30
	movs	r0, #0
	.loc	2 200 185                       @ source/interlock_SL.c:200:185
	cmp	r1, #2
	str	r0, [sp, #12]                   @ 4-byte Spill
	bne	.LBB0_261
	b	.LBB0_260
.LBB0_260:
	.loc	2 200 189                       @ source/interlock_SL.c:200:189
	ldr	r0, [sp, #384]
	.loc	2 200 196                       @ source/interlock_SL.c:200:196
	ldrb	r0, [r0]
	movs	r1, #3
	ands	r0, r1
	.loc	2 200 200                       @ source/interlock_SL.c:200:200
	subs	r0, r0, #1
	rsbs	r1, r0, #0
	adcs	r0, r1
	str	r0, [sp, #12]                   @ 4-byte Spill
	b	.LBB0_261
.LBB0_261:
	.loc	2 0 0                           @ source/interlock_SL.c:0:0
	ldr	r2, [sp, #12]                   @ 4-byte Reload
	.loc	2 200 4                         @ source/interlock_SL.c:200:4
	ldr	r1, [sp, #380]
	.loc	2 200 12                        @ source/interlock_SL.c:200:12
	ldrb	r0, [r1, #1]
	lsls	r2, r2, #31
	lsrs	r2, r2, #25
	movs	r3, #191
	ands	r0, r3
	adds	r0, r0, r2
	strb	r0, [r1, #1]
	.loc	2 201 19 is_stmt 1              @ source/interlock_SL.c:201:19
	ldr	r0, [sp, #368]
	.loc	2 201 23 is_stmt 0              @ source/interlock_SL.c:201:23
	ldrb	r0, [r0, #4]
	lsls	r0, r0, #26
	lsrs	r1, r0, #30
	movs	r0, #0
	.loc	2 201 38                        @ source/interlock_SL.c:201:38
	cmp	r1, #2
	str	r0, [sp, #8]                    @ 4-byte Spill
	bne	.LBB0_263
	b	.LBB0_262
.LBB0_262:
	.loc	2 201 42                        @ source/interlock_SL.c:201:42
	ldr	r0, [sp, #368]
	.loc	2 201 46                        @ source/interlock_SL.c:201:46
	ldrb	r0, [r0, #4]
	movs	r1, #3
	ands	r0, r1
	.loc	2 201 52                        @ source/interlock_SL.c:201:52
	subs	r0, r0, #1
	rsbs	r1, r0, #0
	adcs	r0, r1
	str	r0, [sp, #8]                    @ 4-byte Spill
	b	.LBB0_263
.LBB0_263:
	.loc	2 0 0                           @ source/interlock_SL.c:0:0
	ldr	r2, [sp, #8]                    @ 4-byte Reload
	.loc	2 201 4                         @ source/interlock_SL.c:201:4
	ldr	r1, [sp, #380]
	.loc	2 201 15                        @ source/interlock_SL.c:201:15
	ldrb	r0, [r1, #2]
	lsls	r2, r2, #31
	lsrs	r2, r2, #30
	movs	r3, #253
	ands	r0, r3
	adds	r0, r0, r2
	strb	r0, [r1, #2]
	.loc	2 202 18 is_stmt 1              @ source/interlock_SL.c:202:18
	ldr	r0, [sp, #368]
	.loc	2 202 22 is_stmt 0              @ source/interlock_SL.c:202:22
	ldrb	r0, [r0, #4]
	movs	r1, #3
	ands	r0, r1
	.loc	2 202 28                        @ source/interlock_SL.c:202:28
	subs	r2, r0, #2
	rsbs	r0, r2, #0
	adcs	r2, r0
	.loc	2 202 4                         @ source/interlock_SL.c:202:4
	ldr	r1, [sp, #380]
	.loc	2 202 15                        @ source/interlock_SL.c:202:15
	ldrb	r0, [r1, #2]
	lsls	r2, r2, #2
	movs	r3, #251
	ands	r0, r3
	adds	r0, r0, r2
	strb	r0, [r1, #2]
	.loc	2 203 4 is_stmt 1               @ source/interlock_SL.c:203:4
	ldr	r1, [sp, #380]
	.loc	2 203 15 is_stmt 0              @ source/interlock_SL.c:203:15
	ldrb	r0, [r1, #2]
	movs	r2, #239
	ands	r0, r2
	strb	r0, [r1, #2]
	.loc	2 204 24 is_stmt 1              @ source/interlock_SL.c:204:24
	ldr	r0, [sp, #368]
	.loc	2 204 28 is_stmt 0              @ source/interlock_SL.c:204:28
	ldrb	r0, [r0, #3]
	lsrs	r1, r0, #6
	movs	r0, #0
	.loc	2 204 42                        @ source/interlock_SL.c:204:42
	cmp	r1, #2
	str	r0, [sp, #4]                    @ 4-byte Spill
	bne	.LBB0_265
	b	.LBB0_264
.LBB0_264:
	.loc	2 204 46                        @ source/interlock_SL.c:204:46
	ldr	r0, [sp, #368]
	.loc	2 204 50                        @ source/interlock_SL.c:204:50
	ldrb	r0, [r0, #4]
	lsls	r0, r0, #28
	lsrs	r0, r0, #30
	.loc	2 204 57                        @ source/interlock_SL.c:204:57
	subs	r0, r0, #2
	rsbs	r1, r0, #0
	adcs	r0, r1
	str	r0, [sp, #4]                    @ 4-byte Spill
	b	.LBB0_265
.LBB0_265:
	.loc	2 0 0                           @ source/interlock_SL.c:0:0
	ldr	r2, [sp, #4]                    @ 4-byte Reload
	.loc	2 204 4                         @ source/interlock_SL.c:204:4
	ldr	r1, [sp, #380]
	.loc	2 204 20                        @ source/interlock_SL.c:204:20
	ldrb	r0, [r1, #2]
	lsls	r2, r2, #31
	lsrs	r2, r2, #25
	movs	r3, #191
	ands	r0, r3
	adds	r0, r0, r2
	strb	r0, [r1, #2]
	.loc	2 205 18 is_stmt 1              @ source/interlock_SL.c:205:18
	ldr	r0, [sp, #368]
	.loc	2 205 22 is_stmt 0              @ source/interlock_SL.c:205:22
	ldrb	r0, [r0, #1]
	movs	r1, #3
	ands	r0, r1
	.loc	2 205 26                        @ source/interlock_SL.c:205:26
	subs	r3, r0, #1
	rsbs	r0, r3, #0
	adcs	r3, r0
	.loc	2 205 4                         @ source/interlock_SL.c:205:4
	ldr	r2, [sp, #380]
	.loc	2 205 15                        @ source/interlock_SL.c:205:15
	ldrb	r0, [r2, #3]
	lsls	r3, r3, #1
	movs	r4, #253
	ands	r0, r4
	adds	r0, r0, r3
	strb	r0, [r2, #3]
	.loc	2 206 18 is_stmt 1              @ source/interlock_SL.c:206:18
	ldr	r0, [sp, #368]
	.loc	2 206 22 is_stmt 0              @ source/interlock_SL.c:206:22
	ldrb	r0, [r0, #1]
	ands	r0, r1
	.loc	2 206 26                        @ source/interlock_SL.c:206:26
	subs	r3, r0, #2
	rsbs	r0, r3, #0
	adcs	r3, r0
	.loc	2 206 4                         @ source/interlock_SL.c:206:4
	ldr	r2, [sp, #380]
	.loc	2 206 15                        @ source/interlock_SL.c:206:15
	ldrb	r0, [r2, #3]
	lsls	r3, r3, #2
	movs	r4, #251
	ands	r0, r4
	adds	r0, r0, r3
	strb	r0, [r2, #3]
	.loc	2 207 19 is_stmt 1              @ source/interlock_SL.c:207:19
	ldr	r0, [sp, #368]
	.loc	2 207 23 is_stmt 0              @ source/interlock_SL.c:207:23
	ldrb	r0, [r0]
	ands	r0, r1
	.loc	2 207 29                        @ source/interlock_SL.c:207:29
	subs	r3, r0, #2
	rsbs	r0, r3, #0
	adcs	r3, r0
	.loc	2 207 4                         @ source/interlock_SL.c:207:4
	ldr	r2, [sp, #380]
	.loc	2 207 16                        @ source/interlock_SL.c:207:16
	ldrb	r0, [r2, #3]
	lsls	r3, r3, #3
	movs	r4, #247
	ands	r0, r4
	adds	r0, r0, r3
	strb	r0, [r2, #3]
	.loc	2 208 19 is_stmt 1              @ source/interlock_SL.c:208:19
	ldr	r0, [sp, #368]
	.loc	2 208 23 is_stmt 0              @ source/interlock_SL.c:208:23
	ldrb	r0, [r0]
	ands	r0, r1
	.loc	2 208 29                        @ source/interlock_SL.c:208:29
	subs	r2, r0, #1
	rsbs	r0, r2, #0
	adcs	r2, r0
	.loc	2 208 4                         @ source/interlock_SL.c:208:4
	ldr	r1, [sp, #380]
	.loc	2 208 16                        @ source/interlock_SL.c:208:16
	ldrb	r0, [r1, #3]
	lsls	r2, r2, #4
	movs	r3, #239
	ands	r0, r3
	adds	r0, r0, r2
	strb	r0, [r1, #3]
	.loc	2 209 18 is_stmt 1              @ source/interlock_SL.c:209:18
	ldr	r0, [sp, #364]
	.loc	2 209 25 is_stmt 0              @ source/interlock_SL.c:209:25
	ldrb	r0, [r0, #2]
	lsrs	r1, r0, #6
	movs	r0, #0
	.loc	2 209 36                        @ source/interlock_SL.c:209:36
	cmp	r1, #2
	str	r0, [sp]                        @ 4-byte Spill
	bne	.LBB0_267
	b	.LBB0_266
.LBB0_266:
	.loc	2 209 40                        @ source/interlock_SL.c:209:40
	ldr	r0, [sp, #364]
	.loc	2 209 47                        @ source/interlock_SL.c:209:47
	ldrb	r0, [r0, #3]
	lsrs	r0, r0, #6
	.loc	2 209 53                        @ source/interlock_SL.c:209:53
	subs	r0, r0, #2
	rsbs	r1, r0, #0
	adcs	r0, r1
	str	r0, [sp]                        @ 4-byte Spill
	b	.LBB0_267
.LBB0_267:
	.loc	2 0 0                           @ source/interlock_SL.c:0:0
	ldr	r2, [sp]                        @ 4-byte Reload
	.loc	2 209 4                         @ source/interlock_SL.c:209:4
	ldr	r1, [sp, #380]
	.loc	2 209 14                        @ source/interlock_SL.c:209:14
	ldrb	r0, [r1, #3]
	lsls	r2, r2, #31
	lsrs	r2, r2, #26
	movs	r3, #223
	ands	r0, r3
	adds	r0, r0, r2
	strb	r0, [r1, #3]
	.loc	2 211 14 is_stmt 1              @ source/interlock_SL.c:211:14
	ldr	r1, __arm_cp.0_9
	movs	r0, #1
	strb	r0, [r1]
	.loc	2 212 4                         @ source/interlock_SL.c:212:4
	b	.LBB0_269
.LBB0_268:
	.loc	2 215 4                         @ source/interlock_SL.c:215:4
	b	.LBB0_269
.Ltmp5:
.LBB0_269:
	.loc	2 217 1 epilogue_begin          @ source/interlock_SL.c:217:1
	add	sp, #396
	pop	{r4, r5, r6, r7, pc}
.Ltmp6:
	.loc	2 0 1 is_stmt 0                 @ :0:1
.Ltmp7:
	.p2align	2
@ %bb.270:
__arm_cp.0_9:
	.long	interlock_SL.lstate_SL
.Lcpi_end17:
	.size	__arm_cp.0_9, .Lcpi_end17-__arm_cp.0_9
.Lfunc_end0:
	.size	interlock_SL, .Lfunc_end0-interlock_SL
	.cfi_endproc
	.cantunwind
	.fnend
                                        @ -- End function
	.section	.text.interlock_TGT_SM,"ax",%progbits
	.hidden	interlock_TGT_SM                @ -- Begin function interlock_TGT_SM
	.globl	interlock_TGT_SM
	.p2align	2
	.type	interlock_TGT_SM,%function
	.code	16                              @ @interlock_TGT_SM
	.thumb_func
interlock_TGT_SM:
.Lfunc_begin1:
	.loc	2 255 0 is_stmt 1               @ source/interlock_SL.c:255:0
	.fnstart
	.cfi_startproc
@ %bb.0:
	.pad	#24
	sub	sp, #24
	.cfi_def_cfa_offset 24
.Ltmp8:
	.loc	2 259 15 prologue_end           @ source/interlock_SL.c:259:15
	ldr	r0, __arm_cp.1_0
	str	r0, [sp, #20]
	.loc	2 260 16                        @ source/interlock_SL.c:260:16
	ldr	r0, __arm_cp.1_1
	str	r0, [sp, #16]
	.loc	2 262 18                        @ source/interlock_SL.c:262:18
	ldr	r0, __arm_cp.1_2
	str	r0, [sp, #12]
	.loc	2 263 18                        @ source/interlock_SL.c:263:18
	ldr	r0, __arm_cp.1_3
	str	r0, [sp, #8]
.Ltmp9:
	.loc	2 268 5                         @ source/interlock_SL.c:268:5
	ldr	r0, __arm_cp.1_4
	ldrb	r0, [r0]
.Ltmp10:
	.loc	2 268 5 is_stmt 0               @ source/interlock_SL.c:268:5
	cbz	r0, .LBB1_1
	b	.LBB1_53
.LBB1_1:
.Ltmp11:
	.loc	2 269 11 is_stmt 1              @ source/interlock_SL.c:269:11
	ldr	r0, __arm_cp.1_5
	ldrb	r0, [r0]
	.loc	2 269 3 is_stmt 0               @ source/interlock_SL.c:269:3
	str	r0, [sp, #4]                    @ 4-byte Spill
	cmp	r0, #4
	bls	.LBB1_2
	b	.LBB1_51
.LBB1_2:
	ldr	r1, [sp, #4]                    @ 4-byte Reload
	lsls	r2, r1, #2
	adr	r0, .LJTI1_0
	adds	r0, r0, r2
	mov	pc, r0
@ %bb.3:
	.loc	2 0 3                           @ source/interlock_SL.c:0:3
	.p2align	2
.LJTI1_0:
	b.w	.LBB1_4
	b.w	.LBB1_13
	b.w	.LBB1_18
	b.w	.LBB1_29
	b.w	.LBB1_46
.LBB1_4:
.Ltmp12:
	.loc	2 273 8 is_stmt 1               @ source/interlock_SL.c:273:8
	ldr	r0, __arm_cp.1_7
	ldrh	r0, [r0]
.Ltmp13:
	.loc	2 273 8 is_stmt 0               @ source/interlock_SL.c:273:8
	cbz	r0, .LBB1_8
	b	.LBB1_5
.LBB1_5:
.Ltmp14:
	.loc	2 274 9 is_stmt 1               @ source/interlock_SL.c:274:9
	ldr	r0, __arm_cp.1_6
	ldrh	r0, [r0]
.Ltmp15:
	.loc	2 274 9 is_stmt 0               @ source/interlock_SL.c:274:9
	cbnz	r0, .LBB1_7
	b	.LBB1_6
.LBB1_6:
.Ltmp16:
	.loc	2 275 22 is_stmt 1              @ source/interlock_SL.c:275:22
	ldr	r1, [sp, #16]
	.loc	2 275 27 is_stmt 0              @ source/interlock_SL.c:275:27
	ldrb	r0, [r1]
	lsls	r2, r0, #28
	lsrs	r2, r2, #31
	.loc	2 275 33                        @ source/interlock_SL.c:275:33
	rsbs	r3, r2, #0
	adcs	r2, r3
	.loc	2 275 19                        @ source/interlock_SL.c:275:19
	lsls	r2, r2, #3
	movs	r3, #247
	ands	r0, r3
	adds	r0, r0, r2
	strb	r0, [r1]
	.loc	2 276 22 is_stmt 1              @ source/interlock_SL.c:276:22
	ldr	r1, [sp, #16]
	.loc	2 276 27 is_stmt 0              @ source/interlock_SL.c:276:27
	ldrb	r0, [r1]
	lsls	r2, r0, #27
	lsrs	r2, r2, #31
	.loc	2 276 34                        @ source/interlock_SL.c:276:34
	rsbs	r3, r2, #0
	adcs	r2, r3
	.loc	2 276 19                        @ source/interlock_SL.c:276:19
	lsls	r2, r2, #4
	movs	r3, #239
	ands	r0, r3
	adds	r0, r0, r2
	strb	r0, [r1]
	.loc	2 277 19 is_stmt 1              @ source/interlock_SL.c:277:19
	ldr	r1, __arm_cp.1_6
	movw	r0, #1000
	strh	r0, [r1]
	.loc	2 278 6                         @ source/interlock_SL.c:278:6
	b	.LBB1_7
.Ltmp17:
.LBB1_7:
	.loc	2 279 5                         @ source/interlock_SL.c:279:5
	b	.LBB1_12
.Ltmp18:
.LBB1_8:
	.loc	2 280 13                        @ source/interlock_SL.c:280:13
	ldr	r0, [sp, #20]
	.loc	2 280 20 is_stmt 0              @ source/interlock_SL.c:280:20
	ldrb	r0, [r0]
	movs	r1, #3
	ands	r0, r1
.Ltmp19:
	.loc	2 280 13                        @ source/interlock_SL.c:280:13
	cmp	r0, #1
	bne	.LBB1_10
	b	.LBB1_9
.LBB1_9:
.Ltmp20:
	.loc	2 281 6 is_stmt 1               @ source/interlock_SL.c:281:6
	ldr	r1, [sp, #16]
	.loc	2 281 17 is_stmt 0              @ source/interlock_SL.c:281:17
	ldrb	r0, [r1]
	movs	r2, #247
	ands	r0, r2
	strb	r0, [r1]
	.loc	2 282 6 is_stmt 1               @ source/interlock_SL.c:282:6
	ldr	r1, [sp, #16]
	.loc	2 282 18 is_stmt 0              @ source/interlock_SL.c:282:18
	ldrb	r0, [r1]
	movs	r2, #239
	ands	r0, r2
	strb	r0, [r1]
	.loc	2 283 20 is_stmt 1              @ source/interlock_SL.c:283:20
	ldr	r1, __arm_cp.1_5
	movs	r0, #1
	strb	r0, [r1]
	.loc	2 284 5                         @ source/interlock_SL.c:284:5
	b	.LBB1_11
.Ltmp21:
.LBB1_10:
	.loc	2 0 5 is_stmt 0                 @ source/interlock_SL.c:0:5
	b	.LBB1_11
.LBB1_11:
	b	.LBB1_12
.LBB1_12:
	.loc	2 289 5 is_stmt 1               @ source/interlock_SL.c:289:5
	b	.LBB1_52
.LBB1_13:
.Ltmp22:
	.loc	2 292 9                         @ source/interlock_SL.c:292:9
	ldr	r0, [sp, #20]
	.loc	2 292 16 is_stmt 0              @ source/interlock_SL.c:292:16
	ldrb	r0, [r0]
	movs	r1, #3
	ands	r0, r1
	.loc	2 292 30                        @ source/interlock_SL.c:292:30
	cmp	r0, #2
	bne	.LBB1_16
	b	.LBB1_14
.LBB1_14:
	.loc	2 292 34                        @ source/interlock_SL.c:292:34
	ldr	r0, [sp, #12]
	.loc	2 292 38                        @ source/interlock_SL.c:292:38
	ldrb	r0, [r0]
	movs	r1, #3
	ands	r0, r1
.Ltmp23:
	.loc	2 292 8                         @ source/interlock_SL.c:292:8
	cmp	r0, #2
	bne	.LBB1_16
	b	.LBB1_15
.LBB1_15:
.Ltmp24:
	.loc	2 293 6 is_stmt 1               @ source/interlock_SL.c:293:6
	ldr	r1, [sp, #16]
	.loc	2 293 17 is_stmt 0              @ source/interlock_SL.c:293:17
	ldrb	r0, [r1]
	movs	r2, #8
	orrs	r0, r2
	strb	r0, [r1]
	.loc	2 294 6 is_stmt 1               @ source/interlock_SL.c:294:6
	ldr	r1, [sp, #16]
	.loc	2 294 18 is_stmt 0              @ source/interlock_SL.c:294:18
	ldrb	r0, [r1]
	movs	r2, #16
	orrs	r0, r2
	strb	r0, [r1]
	.loc	2 295 20 is_stmt 1              @ source/interlock_SL.c:295:20
	ldr	r1, __arm_cp.1_5
	movs	r0, #2
	strb	r0, [r1]
	.loc	2 296 5                         @ source/interlock_SL.c:296:5
	b	.LBB1_17
.Ltmp25:
.LBB1_16:
	.loc	2 0 5 is_stmt 0                 @ source/interlock_SL.c:0:5
	b	.LBB1_17
.LBB1_17:
	.loc	2 300 5 is_stmt 1               @ source/interlock_SL.c:300:5
	b	.LBB1_52
.LBB1_18:
.Ltmp26:
	.loc	2 303 9                         @ source/interlock_SL.c:303:9
	ldr	r0, [sp, #20]
	.loc	2 303 16 is_stmt 0              @ source/interlock_SL.c:303:16
	ldrb	r0, [r0]
	movs	r1, #3
	ands	r0, r1
	.loc	2 303 30                        @ source/interlock_SL.c:303:30
	cmp	r0, #2
	bne	.LBB1_21
	b	.LBB1_19
.LBB1_19:
	.loc	2 303 34                        @ source/interlock_SL.c:303:34
	ldr	r0, [sp, #12]
	.loc	2 303 38                        @ source/interlock_SL.c:303:38
	ldrb	r0, [r0]
	movs	r1, #3
	ands	r0, r1
.Ltmp27:
	.loc	2 303 8                         @ source/interlock_SL.c:303:8
	cmp	r0, #1
	bne	.LBB1_21
	b	.LBB1_20
.LBB1_20:
.Ltmp28:
	.loc	2 304 6 is_stmt 1               @ source/interlock_SL.c:304:6
	ldr	r1, [sp, #16]
	.loc	2 304 17 is_stmt 0              @ source/interlock_SL.c:304:17
	ldrb	r0, [r1]
	movs	r2, #247
	ands	r0, r2
	strb	r0, [r1]
	.loc	2 305 6 is_stmt 1               @ source/interlock_SL.c:305:6
	ldr	r1, [sp, #16]
	.loc	2 305 18 is_stmt 0              @ source/interlock_SL.c:305:18
	ldrb	r0, [r1]
	movs	r2, #239
	ands	r0, r2
	strb	r0, [r1]
	.loc	2 306 20 is_stmt 1              @ source/interlock_SL.c:306:20
	ldr	r1, __arm_cp.1_5
	movs	r0, #3
	strb	r0, [r1]
	.loc	2 307 5                         @ source/interlock_SL.c:307:5
	b	.LBB1_28
.Ltmp29:
.LBB1_21:
	.loc	2 309 10                        @ source/interlock_SL.c:309:10
	ldr	r0, [sp, #8]
	.loc	2 309 17 is_stmt 0              @ source/interlock_SL.c:309:17
	ldrb	r0, [r0, #3]
	lsls	r0, r0, #28
	lsrs	r0, r0, #30
	.loc	2 309 30                        @ source/interlock_SL.c:309:30
	cmp	r0, #2
	bne	.LBB1_24
	b	.LBB1_22
.LBB1_22:
	.loc	2 309 34                        @ source/interlock_SL.c:309:34
	ldr	r0, [sp, #8]
	.loc	2 309 41                        @ source/interlock_SL.c:309:41
	ldrb	r0, [r0, #2]
	lsrs	r0, r0, #6
.Ltmp30:
	.loc	2 309 9                         @ source/interlock_SL.c:309:9
	cmp	r0, #2
	bne	.LBB1_24
	b	.LBB1_23
.LBB1_23:
.Ltmp31:
	.loc	2 310 7 is_stmt 1               @ source/interlock_SL.c:310:7
	ldr	r1, [sp, #16]
	.loc	2 310 21 is_stmt 0              @ source/interlock_SL.c:310:21
	ldrb	r0, [r1, #1]
	movs	r2, #4
	orrs	r0, r2
	strb	r0, [r1, #1]
	.loc	2 311 6 is_stmt 1               @ source/interlock_SL.c:311:6
	b	.LBB1_24
.Ltmp32:
.LBB1_24:
	.loc	2 312 10                        @ source/interlock_SL.c:312:10
	ldr	r0, [sp, #12]
	.loc	2 312 14 is_stmt 0              @ source/interlock_SL.c:312:14
	ldrb	r0, [r0, #3]
	lsls	r0, r0, #26
	lsrs	r0, r0, #30
	.loc	2 312 32                        @ source/interlock_SL.c:312:32
	cmp	r0, #2
	bne	.LBB1_27
	b	.LBB1_25
.LBB1_25:
	.loc	2 312 36                        @ source/interlock_SL.c:312:36
	ldr	r0, [sp, #16]
	.loc	2 312 41                        @ source/interlock_SL.c:312:41
	ldrb	r0, [r0, #1]
.Ltmp33:
	.loc	2 312 9                         @ source/interlock_SL.c:312:9
	lsls	r0, r0, #29
	lsrs	r0, r0, #31
	cbz	r0, .LBB1_27
	b	.LBB1_26
.LBB1_26:
.Ltmp34:
	.loc	2 313 20 is_stmt 1              @ source/interlock_SL.c:313:20
	ldr	r1, __arm_cp.1_7
	movs	r0, #120
	strh	r0, [r1]
	.loc	2 314 7                         @ source/interlock_SL.c:314:7
	ldr	r1, [sp, #16]
	.loc	2 314 21 is_stmt 0              @ source/interlock_SL.c:314:21
	ldrb	r0, [r1, #1]
	movs	r2, #251
	ands	r0, r2
	strb	r0, [r1, #1]
	.loc	2 315 21 is_stmt 1              @ source/interlock_SL.c:315:21
	ldr	r1, __arm_cp.1_5
	movs	r0, #0
	strb	r0, [r1]
	.loc	2 316 6                         @ source/interlock_SL.c:316:6
	b	.LBB1_27
.Ltmp35:
.LBB1_27:
	.loc	2 0 6 is_stmt 0                 @ source/interlock_SL.c:0:6
	b	.LBB1_28
.LBB1_28:
	.loc	2 318 5 is_stmt 1               @ source/interlock_SL.c:318:5
	b	.LBB1_52
.LBB1_29:
.Ltmp36:
	.loc	2 321 9                         @ source/interlock_SL.c:321:9
	ldr	r0, [sp, #20]
	.loc	2 321 16 is_stmt 0              @ source/interlock_SL.c:321:16
	ldrb	r0, [r0]
	movs	r1, #3
	ands	r0, r1
	.loc	2 321 30                        @ source/interlock_SL.c:321:30
	cmp	r0, #2
	bne	.LBB1_40
	b	.LBB1_30
.LBB1_30:
	.loc	2 321 34                        @ source/interlock_SL.c:321:34
	ldr	r0, [sp, #12]
	.loc	2 321 38                        @ source/interlock_SL.c:321:38
	ldrb	r0, [r0]
	movs	r1, #3
	ands	r0, r1
.Ltmp37:
	.loc	2 321 8                         @ source/interlock_SL.c:321:8
	cmp	r0, #2
	bne	.LBB1_40
	b	.LBB1_31
.LBB1_31:
.Ltmp38:
	.loc	2 322 9 is_stmt 1               @ source/interlock_SL.c:322:9
	ldr	r0, __arm_cp.1_6
	ldrh	r0, [r0]
.Ltmp39:
	.loc	2 322 9 is_stmt 0               @ source/interlock_SL.c:322:9
	cbnz	r0, .LBB1_33
	b	.LBB1_32
.LBB1_32:
.Ltmp40:
	.loc	2 323 22 is_stmt 1              @ source/interlock_SL.c:323:22
	ldr	r1, [sp, #16]
	.loc	2 323 27 is_stmt 0              @ source/interlock_SL.c:323:27
	ldrb	r0, [r1]
	lsls	r2, r0, #28
	lsrs	r2, r2, #31
	.loc	2 323 33                        @ source/interlock_SL.c:323:33
	rsbs	r3, r2, #0
	adcs	r2, r3
	.loc	2 323 19                        @ source/interlock_SL.c:323:19
	lsls	r2, r2, #3
	movs	r3, #247
	ands	r0, r3
	adds	r0, r0, r2
	strb	r0, [r1]
	.loc	2 324 22 is_stmt 1              @ source/interlock_SL.c:324:22
	ldr	r1, [sp, #16]
	.loc	2 324 27 is_stmt 0              @ source/interlock_SL.c:324:27
	ldrb	r0, [r1]
	lsls	r2, r0, #27
	lsrs	r2, r2, #31
	.loc	2 324 34                        @ source/interlock_SL.c:324:34
	rsbs	r3, r2, #0
	adcs	r2, r3
	.loc	2 324 19                        @ source/interlock_SL.c:324:19
	lsls	r2, r2, #4
	movs	r3, #239
	ands	r0, r3
	adds	r0, r0, r2
	strb	r0, [r1]
	.loc	2 325 19 is_stmt 1              @ source/interlock_SL.c:325:19
	ldr	r1, __arm_cp.1_6
	movw	r0, #1000
	strh	r0, [r1]
	.loc	2 326 6                         @ source/interlock_SL.c:326:6
	b	.LBB1_33
.Ltmp41:
.LBB1_33:
	.loc	2 327 10                        @ source/interlock_SL.c:327:10
	ldr	r0, [sp, #8]
	.loc	2 327 17 is_stmt 0              @ source/interlock_SL.c:327:17
	ldrb	r0, [r0, #3]
	lsls	r0, r0, #28
	lsrs	r0, r0, #30
	.loc	2 327 30                        @ source/interlock_SL.c:327:30
	cmp	r0, #2
	bne	.LBB1_36
	b	.LBB1_34
.LBB1_34:
	.loc	2 327 34                        @ source/interlock_SL.c:327:34
	ldr	r0, [sp, #8]
	.loc	2 327 41                        @ source/interlock_SL.c:327:41
	ldrb	r0, [r0, #2]
	lsrs	r0, r0, #6
.Ltmp42:
	.loc	2 327 9                         @ source/interlock_SL.c:327:9
	cmp	r0, #2
	bne	.LBB1_36
	b	.LBB1_35
.LBB1_35:
.Ltmp43:
	.loc	2 328 7 is_stmt 1               @ source/interlock_SL.c:328:7
	ldr	r1, [sp, #16]
	.loc	2 328 21 is_stmt 0              @ source/interlock_SL.c:328:21
	ldrb	r0, [r1, #1]
	movs	r2, #4
	orrs	r0, r2
	strb	r0, [r1, #1]
	.loc	2 329 6 is_stmt 1               @ source/interlock_SL.c:329:6
	b	.LBB1_36
.Ltmp44:
.LBB1_36:
	.loc	2 330 10                        @ source/interlock_SL.c:330:10
	ldr	r0, [sp, #12]
	.loc	2 330 14 is_stmt 0              @ source/interlock_SL.c:330:14
	ldrb	r0, [r0, #3]
	lsls	r0, r0, #26
	lsrs	r0, r0, #30
	.loc	2 330 32                        @ source/interlock_SL.c:330:32
	cmp	r0, #2
	bne	.LBB1_39
	b	.LBB1_37
.LBB1_37:
	.loc	2 330 36                        @ source/interlock_SL.c:330:36
	ldr	r0, [sp, #16]
	.loc	2 330 41                        @ source/interlock_SL.c:330:41
	ldrb	r0, [r0, #1]
.Ltmp45:
	.loc	2 330 9                         @ source/interlock_SL.c:330:9
	lsls	r0, r0, #29
	lsrs	r0, r0, #31
	cbz	r0, .LBB1_39
	b	.LBB1_38
.LBB1_38:
.Ltmp46:
	.loc	2 331 20 is_stmt 1              @ source/interlock_SL.c:331:20
	ldr	r1, __arm_cp.1_7
	movs	r0, #120
	strh	r0, [r1]
	.loc	2 332 7                         @ source/interlock_SL.c:332:7
	ldr	r1, [sp, #16]
	.loc	2 332 21 is_stmt 0              @ source/interlock_SL.c:332:21
	ldrb	r0, [r1, #1]
	movs	r2, #251
	ands	r0, r2
	strb	r0, [r1, #1]
	.loc	2 333 21 is_stmt 1              @ source/interlock_SL.c:333:21
	ldr	r1, __arm_cp.1_5
	movs	r0, #0
	strb	r0, [r1]
	.loc	2 334 6                         @ source/interlock_SL.c:334:6
	b	.LBB1_39
.Ltmp47:
.LBB1_39:
	.loc	2 335 5                         @ source/interlock_SL.c:335:5
	b	.LBB1_45
.Ltmp48:
.LBB1_40:
	.loc	2 336 14                        @ source/interlock_SL.c:336:14
	ldr	r0, [sp, #20]
	.loc	2 336 21 is_stmt 0              @ source/interlock_SL.c:336:21
	ldrb	r0, [r0]
	movs	r1, #3
	ands	r0, r1
	.loc	2 336 35                        @ source/interlock_SL.c:336:35
	cmp	r0, #1
	bne	.LBB1_43
	b	.LBB1_41
.LBB1_41:
	.loc	2 336 39                        @ source/interlock_SL.c:336:39
	ldr	r0, [sp, #12]
	.loc	2 336 43                        @ source/interlock_SL.c:336:43
	ldrb	r0, [r0]
	movs	r1, #3
	ands	r0, r1
.Ltmp49:
	.loc	2 336 13                        @ source/interlock_SL.c:336:13
	cmp	r0, #2
	bne	.LBB1_43
	b	.LBB1_42
.LBB1_42:
.Ltmp50:
	.loc	2 337 20 is_stmt 1              @ source/interlock_SL.c:337:20
	ldr	r1, __arm_cp.1_5
	movs	r0, #4
	strb	r0, [r1]
	.loc	2 338 5                         @ source/interlock_SL.c:338:5
	b	.LBB1_44
.Ltmp51:
.LBB1_43:
	.loc	2 0 5 is_stmt 0                 @ source/interlock_SL.c:0:5
	b	.LBB1_44
.LBB1_44:
	b	.LBB1_45
.LBB1_45:
	.loc	2 342 5 is_stmt 1               @ source/interlock_SL.c:342:5
	b	.LBB1_52
.LBB1_46:
.Ltmp52:
	.loc	2 345 9                         @ source/interlock_SL.c:345:9
	ldr	r0, [sp, #20]
	.loc	2 345 16 is_stmt 0              @ source/interlock_SL.c:345:16
	ldrb	r0, [r0]
	movs	r1, #3
	ands	r0, r1
	.loc	2 345 30                        @ source/interlock_SL.c:345:30
	cmp	r0, #1
	bne	.LBB1_49
	b	.LBB1_47
.LBB1_47:
	.loc	2 345 34                        @ source/interlock_SL.c:345:34
	ldr	r0, [sp, #12]
	.loc	2 345 38                        @ source/interlock_SL.c:345:38
	ldrb	r0, [r0]
	movs	r1, #3
	ands	r0, r1
.Ltmp53:
	.loc	2 345 8                         @ source/interlock_SL.c:345:8
	cmp	r0, #2
	bne	.LBB1_49
	b	.LBB1_48
.LBB1_48:
.Ltmp54:
	.loc	2 346 6 is_stmt 1               @ source/interlock_SL.c:346:6
	ldr	r1, [sp, #16]
	.loc	2 346 17 is_stmt 0              @ source/interlock_SL.c:346:17
	ldrb	r0, [r1]
	movs	r2, #247
	ands	r0, r2
	strb	r0, [r1]
	.loc	2 347 6 is_stmt 1               @ source/interlock_SL.c:347:6
	ldr	r1, [sp, #16]
	.loc	2 347 18 is_stmt 0              @ source/interlock_SL.c:347:18
	ldrb	r0, [r1]
	movs	r2, #239
	ands	r0, r2
	strb	r0, [r1]
	.loc	2 348 6 is_stmt 1               @ source/interlock_SL.c:348:6
	ldr	r1, [sp, #16]
	.loc	2 348 20 is_stmt 0              @ source/interlock_SL.c:348:20
	ldrb	r0, [r1, #1]
	movs	r2, #251
	ands	r0, r2
	strb	r0, [r1, #1]
	.loc	2 349 20 is_stmt 1              @ source/interlock_SL.c:349:20
	ldr	r1, __arm_cp.1_5
	movs	r0, #0
	strb	r0, [r1]
	.loc	2 350 5                         @ source/interlock_SL.c:350:5
	b	.LBB1_50
.Ltmp55:
.LBB1_49:
	.loc	2 0 5 is_stmt 0                 @ source/interlock_SL.c:0:5
	b	.LBB1_50
.LBB1_50:
	.loc	2 354 5 is_stmt 1               @ source/interlock_SL.c:354:5
	b	.LBB1_52
.LBB1_51:
	.loc	2 358 5                         @ source/interlock_SL.c:358:5
	b	.LBB1_52
.Ltmp56:
.LBB1_52:
	.loc	2 360 2                         @ source/interlock_SL.c:360:2
	b	.LBB1_53
.Ltmp57:
.LBB1_53:
	.loc	2 364 10                        @ source/interlock_SL.c:364:10
	ldr	r0, __arm_cp.1_4
	ldrb	r0, [r0]
	.loc	2 364 2 is_stmt 0               @ source/interlock_SL.c:364:2
	str	r0, [sp]                        @ 4-byte Spill
	cbz	r0, .LBB1_56
	b	.LBB1_54
.LBB1_54:
	ldr	r0, [sp]                        @ 4-byte Reload
	cmp	r0, #1
	beq	.LBB1_61
	b	.LBB1_55
.LBB1_55:
	ldr	r0, [sp]                        @ 4-byte Reload
	cmp	r0, #2
	beq	.LBB1_66
	b	.LBB1_78
.LBB1_56:
.Ltmp58:
	.loc	2 367 8 is_stmt 1               @ source/interlock_SL.c:367:8
	ldr	r0, [sp, #12]
	.loc	2 367 12 is_stmt 0              @ source/interlock_SL.c:367:12
	ldrb	r0, [r0]
	lsls	r0, r0, #28
	lsrs	r0, r0, #30
	.loc	2 367 26                        @ source/interlock_SL.c:367:26
	cmp	r0, #1
	bne	.LBB1_59
	b	.LBB1_57
.LBB1_57:
	.loc	2 367 30                        @ source/interlock_SL.c:367:30
	ldr	r0, [sp, #12]
	.loc	2 367 34                        @ source/interlock_SL.c:367:34
	ldrb	r0, [r0]
	movs	r1, #3
	ands	r0, r1
.Ltmp59:
	.loc	2 367 7                         @ source/interlock_SL.c:367:7
	cmp	r0, #2
	bne	.LBB1_59
	b	.LBB1_58
.LBB1_58:
.Ltmp60:
	.loc	2 368 5 is_stmt 1               @ source/interlock_SL.c:368:5
	ldr	r1, [sp, #16]
	.loc	2 368 16 is_stmt 0              @ source/interlock_SL.c:368:16
	ldrb	r0, [r1]
	movs	r2, #247
	ands	r0, r2
	strb	r0, [r1]
	.loc	2 369 5 is_stmt 1               @ source/interlock_SL.c:369:5
	ldr	r1, [sp, #16]
	.loc	2 369 17 is_stmt 0              @ source/interlock_SL.c:369:17
	ldrb	r0, [r1]
	movs	r2, #239
	ands	r0, r2
	strb	r0, [r1]
	.loc	2 370 19 is_stmt 1              @ source/interlock_SL.c:370:19
	ldr	r1, __arm_cp.1_4
	movs	r0, #1
	strb	r0, [r1]
	.loc	2 371 4                         @ source/interlock_SL.c:371:4
	b	.LBB1_60
.Ltmp61:
.LBB1_59:
	.loc	2 0 4 is_stmt 0                 @ source/interlock_SL.c:0:4
	b	.LBB1_60
.LBB1_60:
	.loc	2 375 4 is_stmt 1               @ source/interlock_SL.c:375:4
	b	.LBB1_79
.LBB1_61:
.Ltmp62:
	.loc	2 378 8                         @ source/interlock_SL.c:378:8
	ldr	r0, [sp, #12]
	.loc	2 378 12 is_stmt 0              @ source/interlock_SL.c:378:12
	ldrb	r0, [r0]
	lsls	r0, r0, #28
	lsrs	r0, r0, #30
	.loc	2 378 26                        @ source/interlock_SL.c:378:26
	cmp	r0, #1
	bne	.LBB1_64
	b	.LBB1_62
.LBB1_62:
	.loc	2 378 30                        @ source/interlock_SL.c:378:30
	ldr	r0, [sp, #12]
	.loc	2 378 34                        @ source/interlock_SL.c:378:34
	ldrb	r0, [r0]
	movs	r1, #3
	ands	r0, r1
.Ltmp63:
	.loc	2 378 7                         @ source/interlock_SL.c:378:7
	cmp	r0, #1
	bne	.LBB1_64
	b	.LBB1_63
.LBB1_63:
.Ltmp64:
	.loc	2 379 5 is_stmt 1               @ source/interlock_SL.c:379:5
	ldr	r1, [sp, #16]
	.loc	2 379 16 is_stmt 0              @ source/interlock_SL.c:379:16
	ldrb	r0, [r1]
	movs	r2, #247
	ands	r0, r2
	strb	r0, [r1]
	.loc	2 380 5 is_stmt 1               @ source/interlock_SL.c:380:5
	ldr	r1, [sp, #16]
	.loc	2 380 17 is_stmt 0              @ source/interlock_SL.c:380:17
	ldrb	r0, [r1]
	movs	r2, #239
	ands	r0, r2
	strb	r0, [r1]
	.loc	2 381 19 is_stmt 1              @ source/interlock_SL.c:381:19
	ldr	r1, __arm_cp.1_4
	movs	r0, #2
	strb	r0, [r1]
	.loc	2 382 4                         @ source/interlock_SL.c:382:4
	b	.LBB1_65
.Ltmp65:
.LBB1_64:
	.loc	2 0 4 is_stmt 0                 @ source/interlock_SL.c:0:4
	b	.LBB1_65
.LBB1_65:
	.loc	2 386 4 is_stmt 1               @ source/interlock_SL.c:386:4
	b	.LBB1_79
.LBB1_66:
.Ltmp66:
	.loc	2 389 8                         @ source/interlock_SL.c:389:8
	ldr	r0, [sp, #12]
	.loc	2 389 12 is_stmt 0              @ source/interlock_SL.c:389:12
	ldrb	r0, [r0]
	lsls	r0, r0, #28
	lsrs	r0, r0, #30
	.loc	2 389 26                        @ source/interlock_SL.c:389:26
	cmp	r0, #1
	bne	.LBB1_72
	b	.LBB1_67
.LBB1_67:
	.loc	2 389 30                        @ source/interlock_SL.c:389:30
	ldr	r0, [sp, #12]
	.loc	2 389 34                        @ source/interlock_SL.c:389:34
	ldrb	r0, [r0]
	movs	r1, #3
	ands	r0, r1
.Ltmp67:
	.loc	2 389 7                         @ source/interlock_SL.c:389:7
	cmp	r0, #2
	bne	.LBB1_72
	b	.LBB1_68
.LBB1_68:
.Ltmp68:
	.loc	2 390 8 is_stmt 1               @ source/interlock_SL.c:390:8
	ldr	r0, __arm_cp.1_6
	ldrh	r0, [r0]
.Ltmp69:
	.loc	2 390 8 is_stmt 0               @ source/interlock_SL.c:390:8
	cbnz	r0, .LBB1_70
	b	.LBB1_69
.LBB1_69:
.Ltmp70:
	.loc	2 391 21 is_stmt 1              @ source/interlock_SL.c:391:21
	ldr	r1, [sp, #16]
	.loc	2 391 26 is_stmt 0              @ source/interlock_SL.c:391:26
	ldrb	r0, [r1]
	lsls	r2, r0, #28
	lsrs	r2, r2, #31
	.loc	2 391 32                        @ source/interlock_SL.c:391:32
	rsbs	r3, r2, #0
	adcs	r2, r3
	.loc	2 391 18                        @ source/interlock_SL.c:391:18
	lsls	r2, r2, #3
	movs	r3, #247
	ands	r0, r3
	adds	r0, r0, r2
	strb	r0, [r1]
	.loc	2 392 21 is_stmt 1              @ source/interlock_SL.c:392:21
	ldr	r1, [sp, #16]
	.loc	2 392 26 is_stmt 0              @ source/interlock_SL.c:392:26
	ldrb	r0, [r1]
	lsls	r2, r0, #27
	lsrs	r2, r2, #31
	.loc	2 392 33                        @ source/interlock_SL.c:392:33
	rsbs	r3, r2, #0
	adcs	r2, r3
	.loc	2 392 18                        @ source/interlock_SL.c:392:18
	lsls	r2, r2, #4
	movs	r3, #239
	ands	r0, r3
	adds	r0, r0, r2
	strb	r0, [r1]
	.loc	2 393 18 is_stmt 1              @ source/interlock_SL.c:393:18
	ldr	r1, __arm_cp.1_6
	movw	r0, #1000
	strh	r0, [r1]
	.loc	2 394 5                         @ source/interlock_SL.c:394:5
	b	.LBB1_71
.Ltmp71:
.LBB1_70:
	.loc	2 0 5 is_stmt 0                 @ source/interlock_SL.c:0:5
	b	.LBB1_71
.LBB1_71:
	.loc	2 398 4 is_stmt 1               @ source/interlock_SL.c:398:4
	b	.LBB1_77
.Ltmp72:
.LBB1_72:
	.loc	2 399 13                        @ source/interlock_SL.c:399:13
	ldr	r0, [sp, #12]
	.loc	2 399 17 is_stmt 0              @ source/interlock_SL.c:399:17
	ldrb	r0, [r0]
	lsls	r0, r0, #28
	lsrs	r0, r0, #30
	.loc	2 399 31                        @ source/interlock_SL.c:399:31
	cmp	r0, #2
	bne	.LBB1_75
	b	.LBB1_73
.LBB1_73:
	.loc	2 399 35                        @ source/interlock_SL.c:399:35
	ldr	r0, [sp, #12]
	.loc	2 399 39                        @ source/interlock_SL.c:399:39
	ldrb	r0, [r0]
	movs	r1, #3
	ands	r0, r1
.Ltmp73:
	.loc	2 399 12                        @ source/interlock_SL.c:399:12
	cmp	r0, #2
	bne	.LBB1_75
	b	.LBB1_74
.LBB1_74:
.Ltmp74:
	.loc	2 400 19 is_stmt 1              @ source/interlock_SL.c:400:19
	ldr	r1, __arm_cp.1_4
	movs	r0, #0
	strb	r0, [r1]
	.loc	2 401 4                         @ source/interlock_SL.c:401:4
	b	.LBB1_76
.Ltmp75:
.LBB1_75:
	.loc	2 0 4 is_stmt 0                 @ source/interlock_SL.c:0:4
	b	.LBB1_76
.LBB1_76:
	b	.LBB1_77
.LBB1_77:
	.loc	2 405 4 is_stmt 1               @ source/interlock_SL.c:405:4
	b	.LBB1_79
.LBB1_78:
	.loc	2 409 4                         @ source/interlock_SL.c:409:4
	b	.LBB1_79
.Ltmp76:
.LBB1_79:
	.loc	2 411 1 epilogue_begin          @ source/interlock_SL.c:411:1
	add	sp, #24
	bx	lr
.Ltmp77:
	.loc	2 0 1 is_stmt 0                 @ :0:1
.Ltmp78:
	.p2align	2
@ %bb.80:
__arm_cp.1_0:
	.long	vo_in_u
.Lcpi_end18:
	.size	__arm_cp.1_0, .Lcpi_end18-__arm_cp.1_0
__arm_cp.1_1:
	.long	nvo_u
.Lcpi_end19:
	.size	__arm_cp.1_1, .Lcpi_end19-__arm_cp.1_1
__arm_cp.1_2:
	.long	vi_u
.Lcpi_end20:
	.size	__arm_cp.1_2, .Lcpi_end20-__arm_cp.1_2
__arm_cp.1_3:
	.long	vi_oe_u
.Lcpi_end21:
	.size	__arm_cp.1_3, .Lcpi_end21-__arm_cp.1_3
__arm_cp.1_4:
	.long	interlock_TGT_SM.shkr_state_SL
.Lcpi_end22:
	.size	__arm_cp.1_4, .Lcpi_end22-__arm_cp.1_4
__arm_cp.1_5:
	.long	interlock_TGT_SM.lstate_TGT_SM
.Lcpi_end23:
	.size	__arm_cp.1_5, .Lcpi_end23-__arm_cp.1_5
__arm_cp.1_6:
	.long	g_TGT_ticks
.Lcpi_end24:
	.size	__arm_cp.1_6, .Lcpi_end24-__arm_cp.1_6
__arm_cp.1_7:
	.long	g_120s_ticks
.Lcpi_end25:
	.size	__arm_cp.1_7, .Lcpi_end25-__arm_cp.1_7
.Lfunc_end1:
	.size	interlock_TGT_SM, .Lfunc_end1-interlock_TGT_SM
	.cfi_endproc
	.cantunwind
	.fnend
                                        @ -- End function
	.section	.text.interlock_TCF_SM,"ax",%progbits
	.hidden	interlock_TCF_SM                @ -- Begin function interlock_TCF_SM
	.globl	interlock_TCF_SM
	.p2align	2
	.type	interlock_TCF_SM,%function
	.code	16                              @ @interlock_TCF_SM
	.thumb_func
interlock_TCF_SM:
.Lfunc_begin2:
	.loc	2 453 0 is_stmt 1               @ source/interlock_SL.c:453:0
	.fnstart
	.cfi_startproc
@ %bb.0:
	.pad	#20
	sub	sp, #20
	.cfi_def_cfa_offset 20
.Ltmp79:
	.loc	2 457 15 prologue_end           @ source/interlock_SL.c:457:15
	ldr	r0, __arm_cp.2_0
	str	r0, [sp, #16]
	.loc	2 458 16                        @ source/interlock_SL.c:458:16
	ldr	r0, __arm_cp.2_1
	str	r0, [sp, #12]
	.loc	2 460 18                        @ source/interlock_SL.c:460:18
	ldr	r0, __arm_cp.2_2
	str	r0, [sp, #8]
	.loc	2 461 18                        @ source/interlock_SL.c:461:18
	ldr	r0, __arm_cp.2_3
	str	r0, [sp, #4]
	.loc	2 465 10                        @ source/interlock_SL.c:465:10
	ldr	r0, __arm_cp.2_4
	ldrb	r0, [r0]
	.loc	2 465 2 is_stmt 0               @ source/interlock_SL.c:465:2
	str	r0, [sp]                        @ 4-byte Spill
	cmp	r0, #4
	bls	.LBB2_1
	b	.LBB2_48
.LBB2_1:
	ldr	r1, [sp]                        @ 4-byte Reload
	lsls	r2, r1, #2
	adr	r0, .LJTI2_0
	adds	r0, r0, r2
	mov	pc, r0
@ %bb.2:
	.loc	2 0 2                           @ source/interlock_SL.c:0:2
	.p2align	2
.LJTI2_0:
	b.w	.LBB2_3
	b.w	.LBB2_12
	b.w	.LBB2_16
	b.w	.LBB2_26
	b.w	.LBB2_43
.LBB2_3:
.Ltmp80:
	.loc	2 468 7 is_stmt 1               @ source/interlock_SL.c:468:7
	ldr	r0, __arm_cp.2_7
	ldrh	r0, [r0]
.Ltmp81:
	.loc	2 468 7 is_stmt 0               @ source/interlock_SL.c:468:7
	cbz	r0, .LBB2_7
	b	.LBB2_4
.LBB2_4:
.Ltmp82:
	.loc	2 469 8 is_stmt 1               @ source/interlock_SL.c:469:8
	ldr	r0, __arm_cp.2_5
	ldrh	r0, [r0]
.Ltmp83:
	.loc	2 469 8 is_stmt 0               @ source/interlock_SL.c:469:8
	cbnz	r0, .LBB2_6
	b	.LBB2_5
.LBB2_5:
.Ltmp84:
	.loc	2 470 21 is_stmt 1              @ source/interlock_SL.c:470:21
	ldr	r1, [sp, #12]
	.loc	2 470 26 is_stmt 0              @ source/interlock_SL.c:470:26
	ldrb	r0, [r1]
	lsrs	r2, r0, #7
	.loc	2 470 32                        @ source/interlock_SL.c:470:32
	rsbs	r3, r2, #0
	adcs	r2, r3
	.loc	2 470 18                        @ source/interlock_SL.c:470:18
	lsls	r2, r2, #7
	movs	r3, #127
	ands	r0, r3
	adds	r0, r0, r2
	strb	r0, [r1]
	.loc	2 471 21 is_stmt 1              @ source/interlock_SL.c:471:21
	ldr	r1, [sp, #12]
	.loc	2 471 26 is_stmt 0              @ source/interlock_SL.c:471:26
	ldrb	r0, [r1, #1]
	movs	r3, #1
	mov	r2, r0
	ands	r2, r3
	.loc	2 471 33                        @ source/interlock_SL.c:471:33
	rsbs	r3, r2, #0
	adcs	r2, r3
	movs	r3, #254
	.loc	2 471 18                        @ source/interlock_SL.c:471:18
	ands	r0, r3
	adds	r0, r0, r2
	strb	r0, [r1, #1]
	.loc	2 472 21 is_stmt 1              @ source/interlock_SL.c:472:21
	ldr	r1, [sp, #12]
	.loc	2 472 26 is_stmt 0              @ source/interlock_SL.c:472:26
	ldrb	r0, [r1, #1]
	lsls	r2, r0, #30
	lsrs	r2, r2, #31
	.loc	2 472 33                        @ source/interlock_SL.c:472:33
	rsbs	r3, r2, #0
	adcs	r2, r3
	.loc	2 472 18                        @ source/interlock_SL.c:472:18
	lsls	r2, r2, #1
	movs	r3, #253
	ands	r0, r3
	adds	r0, r0, r2
	strb	r0, [r1, #1]
	.loc	2 473 18 is_stmt 1              @ source/interlock_SL.c:473:18
	ldr	r1, __arm_cp.2_5
	movw	r0, #1000
	strh	r0, [r1]
	.loc	2 474 5                         @ source/interlock_SL.c:474:5
	b	.LBB2_6
.Ltmp85:
.LBB2_6:
	.loc	2 475 4                         @ source/interlock_SL.c:475:4
	b	.LBB2_11
.Ltmp86:
.LBB2_7:
	.loc	2 476 12                        @ source/interlock_SL.c:476:12
	ldr	r0, [sp, #16]
	.loc	2 476 19 is_stmt 0              @ source/interlock_SL.c:476:19
	ldrb	r0, [r0]
	lsls	r0, r0, #26
	lsrs	r0, r0, #30
.Ltmp87:
	.loc	2 476 12                        @ source/interlock_SL.c:476:12
	cmp	r0, #1
	bne	.LBB2_9
	b	.LBB2_8
.LBB2_8:
.Ltmp88:
	.loc	2 477 5 is_stmt 1               @ source/interlock_SL.c:477:5
	ldr	r1, [sp, #12]
	.loc	2 477 16 is_stmt 0              @ source/interlock_SL.c:477:16
	ldrb	r0, [r1]
	movs	r2, #127
	ands	r0, r2
	strb	r0, [r1]
	.loc	2 478 5 is_stmt 1               @ source/interlock_SL.c:478:5
	ldr	r1, [sp, #12]
	.loc	2 478 17 is_stmt 0              @ source/interlock_SL.c:478:17
	ldrb	r0, [r1, #1]
	movs	r2, #254
	ands	r0, r2
	strb	r0, [r1, #1]
	.loc	2 479 5 is_stmt 1               @ source/interlock_SL.c:479:5
	ldr	r1, [sp, #12]
	.loc	2 479 17 is_stmt 0              @ source/interlock_SL.c:479:17
	ldrb	r0, [r1, #1]
	movs	r2, #253
	ands	r0, r2
	strb	r0, [r1, #1]
	.loc	2 480 19 is_stmt 1              @ source/interlock_SL.c:480:19
	ldr	r1, __arm_cp.2_4
	movs	r0, #1
	strb	r0, [r1]
	.loc	2 481 4                         @ source/interlock_SL.c:481:4
	b	.LBB2_10
.Ltmp89:
.LBB2_9:
	.loc	2 0 4 is_stmt 0                 @ source/interlock_SL.c:0:4
	b	.LBB2_10
.LBB2_10:
	b	.LBB2_11
.LBB2_11:
	.loc	2 485 4 is_stmt 1               @ source/interlock_SL.c:485:4
	b	.LBB2_49
.LBB2_12:
.Ltmp90:
	.loc	2 488 8                         @ source/interlock_SL.c:488:8
	ldr	r0, [sp, #16]
	.loc	2 488 15 is_stmt 0              @ source/interlock_SL.c:488:15
	ldrb	r0, [r0]
	lsls	r0, r0, #26
	lsrs	r0, r0, #30
	.loc	2 488 29                        @ source/interlock_SL.c:488:29
	cmp	r0, #2
	bne	.LBB2_15
	b	.LBB2_13
.LBB2_13:
	.loc	2 488 33                        @ source/interlock_SL.c:488:33
	ldr	r0, [sp, #8]
	.loc	2 488 37                        @ source/interlock_SL.c:488:37
	ldrb	r0, [r0]
	movs	r1, #3
	ands	r0, r1
.Ltmp91:
	.loc	2 488 7                         @ source/interlock_SL.c:488:7
	cmp	r0, #2
	bne	.LBB2_15
	b	.LBB2_14
.LBB2_14:
.Ltmp92:
	.loc	2 489 5 is_stmt 1               @ source/interlock_SL.c:489:5
	ldr	r1, [sp, #12]
	.loc	2 489 16 is_stmt 0              @ source/interlock_SL.c:489:16
	ldrb	r0, [r1]
	movs	r2, #128
	orrs	r0, r2
	strb	r0, [r1]
	.loc	2 490 5 is_stmt 1               @ source/interlock_SL.c:490:5
	ldr	r1, [sp, #12]
	.loc	2 490 17 is_stmt 0              @ source/interlock_SL.c:490:17
	ldrb	r0, [r1, #1]
	movs	r2, #1
	orrs	r0, r2
	strb	r0, [r1, #1]
	.loc	2 491 19 is_stmt 1              @ source/interlock_SL.c:491:19
	ldr	r1, __arm_cp.2_4
	movs	r0, #2
	strb	r0, [r1]
	.loc	2 492 4                         @ source/interlock_SL.c:492:4
	b	.LBB2_15
.Ltmp93:
.LBB2_15:
	.loc	2 493 4                         @ source/interlock_SL.c:493:4
	b	.LBB2_49
.LBB2_16:
.Ltmp94:
	.loc	2 496 8                         @ source/interlock_SL.c:496:8
	ldr	r0, [sp, #16]
	.loc	2 496 15 is_stmt 0              @ source/interlock_SL.c:496:15
	ldrb	r0, [r0]
	lsls	r0, r0, #26
	lsrs	r0, r0, #30
	.loc	2 496 29                        @ source/interlock_SL.c:496:29
	cmp	r0, #2
	bne	.LBB2_19
	b	.LBB2_17
.LBB2_17:
	.loc	2 496 33                        @ source/interlock_SL.c:496:33
	ldr	r0, [sp, #8]
	.loc	2 496 37                        @ source/interlock_SL.c:496:37
	ldrb	r0, [r0]
	movs	r1, #3
	ands	r0, r1
.Ltmp95:
	.loc	2 496 7                         @ source/interlock_SL.c:496:7
	cmp	r0, #1
	bne	.LBB2_19
	b	.LBB2_18
.LBB2_18:
.Ltmp96:
	.loc	2 497 5 is_stmt 1               @ source/interlock_SL.c:497:5
	ldr	r1, [sp, #12]
	.loc	2 497 16 is_stmt 0              @ source/interlock_SL.c:497:16
	ldrb	r0, [r1]
	movs	r2, #127
	ands	r0, r2
	strb	r0, [r1]
	.loc	2 498 5 is_stmt 1               @ source/interlock_SL.c:498:5
	ldr	r1, [sp, #12]
	.loc	2 498 17 is_stmt 0              @ source/interlock_SL.c:498:17
	ldrb	r0, [r1, #1]
	movs	r2, #254
	ands	r0, r2
	strb	r0, [r1, #1]
	.loc	2 499 19 is_stmt 1              @ source/interlock_SL.c:499:19
	ldr	r1, __arm_cp.2_4
	movs	r0, #3
	strb	r0, [r1]
	.loc	2 500 4                         @ source/interlock_SL.c:500:4
	b	.LBB2_19
.Ltmp97:
.LBB2_19:
	.loc	2 501 8                         @ source/interlock_SL.c:501:8
	ldr	r0, [sp, #8]
	.loc	2 501 12 is_stmt 0              @ source/interlock_SL.c:501:12
	ldrb	r0, [r0, #3]
	lsls	r0, r0, #28
	lsrs	r0, r0, #30
	.loc	2 501 25                        @ source/interlock_SL.c:501:25
	cmp	r0, #2
	bne	.LBB2_22
	b	.LBB2_20
.LBB2_20:
	.loc	2 501 29                        @ source/interlock_SL.c:501:29
	ldr	r0, [sp, #8]
	.loc	2 501 33                        @ source/interlock_SL.c:501:33
	ldrb	r0, [r0, #2]
	lsrs	r0, r0, #6
.Ltmp98:
	.loc	2 501 7                         @ source/interlock_SL.c:501:7
	cmp	r0, #2
	bne	.LBB2_22
	b	.LBB2_21
.LBB2_21:
.Ltmp99:
	.loc	2 502 23 is_stmt 1              @ source/interlock_SL.c:502:23
	ldr	r1, __arm_cp.2_6
	movs	r0, #1
	strb	r0, [r1]
	.loc	2 503 4                         @ source/interlock_SL.c:503:4
	b	.LBB2_22
.Ltmp100:
.LBB2_22:
	.loc	2 504 8                         @ source/interlock_SL.c:504:8
	ldr	r0, [sp, #4]
	.loc	2 504 15 is_stmt 0              @ source/interlock_SL.c:504:15
	ldrb	r0, [r0, #3]
	lsls	r0, r0, #26
	lsrs	r0, r0, #30
	.loc	2 504 33                        @ source/interlock_SL.c:504:33
	cmp	r0, #2
	bne	.LBB2_25
	b	.LBB2_23
.LBB2_23:
	.loc	2 504 37                        @ source/interlock_SL.c:504:37
	ldr	r0, __arm_cp.2_6
	ldrb	r0, [r0]
.Ltmp101:
	.loc	2 504 7                         @ source/interlock_SL.c:504:7
	cbz	r0, .LBB2_25
	b	.LBB2_24
.LBB2_24:
.Ltmp102:
	.loc	2 505 18 is_stmt 1              @ source/interlock_SL.c:505:18
	ldr	r1, __arm_cp.2_7
	movs	r0, #120
	strh	r0, [r1]
	.loc	2 506 23                        @ source/interlock_SL.c:506:23
	ldr	r1, __arm_cp.2_6
	movs	r0, #0
	strb	r0, [r1]
	.loc	2 507 19                        @ source/interlock_SL.c:507:19
	ldr	r1, __arm_cp.2_4
	strb	r0, [r1]
	.loc	2 508 4                         @ source/interlock_SL.c:508:4
	b	.LBB2_25
.Ltmp103:
.LBB2_25:
	.loc	2 509 4                         @ source/interlock_SL.c:509:4
	b	.LBB2_49
.LBB2_26:
.Ltmp104:
	.loc	2 512 8                         @ source/interlock_SL.c:512:8
	ldr	r0, [sp, #16]
	.loc	2 512 15 is_stmt 0              @ source/interlock_SL.c:512:15
	ldrb	r0, [r0]
	lsls	r0, r0, #26
	lsrs	r0, r0, #30
	.loc	2 512 29                        @ source/interlock_SL.c:512:29
	cmp	r0, #2
	bne	.LBB2_37
	b	.LBB2_27
.LBB2_27:
	.loc	2 512 33                        @ source/interlock_SL.c:512:33
	ldr	r0, [sp, #8]
	.loc	2 512 37                        @ source/interlock_SL.c:512:37
	ldrb	r0, [r0]
	movs	r1, #3
	ands	r0, r1
.Ltmp105:
	.loc	2 512 7                         @ source/interlock_SL.c:512:7
	cmp	r0, #2
	bne	.LBB2_37
	b	.LBB2_28
.LBB2_28:
.Ltmp106:
	.loc	2 513 8 is_stmt 1               @ source/interlock_SL.c:513:8
	ldr	r0, __arm_cp.2_5
	ldrh	r0, [r0]
.Ltmp107:
	.loc	2 513 8 is_stmt 0               @ source/interlock_SL.c:513:8
	cbnz	r0, .LBB2_30
	b	.LBB2_29
.LBB2_29:
.Ltmp108:
	.loc	2 514 21 is_stmt 1              @ source/interlock_SL.c:514:21
	ldr	r1, [sp, #12]
	.loc	2 514 26 is_stmt 0              @ source/interlock_SL.c:514:26
	ldrb	r0, [r1]
	lsrs	r2, r0, #7
	.loc	2 514 32                        @ source/interlock_SL.c:514:32
	rsbs	r3, r2, #0
	adcs	r2, r3
	.loc	2 514 18                        @ source/interlock_SL.c:514:18
	lsls	r2, r2, #7
	movs	r3, #127
	ands	r0, r3
	adds	r0, r0, r2
	strb	r0, [r1]
	.loc	2 515 21 is_stmt 1              @ source/interlock_SL.c:515:21
	ldr	r1, [sp, #12]
	.loc	2 515 26 is_stmt 0              @ source/interlock_SL.c:515:26
	ldrb	r0, [r1, #1]
	movs	r3, #1
	mov	r2, r0
	ands	r2, r3
	.loc	2 515 33                        @ source/interlock_SL.c:515:33
	rsbs	r3, r2, #0
	adcs	r2, r3
	movs	r3, #254
	.loc	2 515 18                        @ source/interlock_SL.c:515:18
	ands	r0, r3
	adds	r0, r0, r2
	strb	r0, [r1, #1]
	.loc	2 516 18 is_stmt 1              @ source/interlock_SL.c:516:18
	ldr	r1, __arm_cp.2_5
	movw	r0, #1000
	strh	r0, [r1]
	.loc	2 517 5                         @ source/interlock_SL.c:517:5
	b	.LBB2_30
.Ltmp109:
.LBB2_30:
	.loc	2 518 9                         @ source/interlock_SL.c:518:9
	ldr	r0, [sp, #8]
	.loc	2 518 13 is_stmt 0              @ source/interlock_SL.c:518:13
	ldrb	r0, [r0, #3]
	lsls	r0, r0, #28
	lsrs	r0, r0, #30
	.loc	2 518 26                        @ source/interlock_SL.c:518:26
	cmp	r0, #2
	bne	.LBB2_33
	b	.LBB2_31
.LBB2_31:
	.loc	2 518 30                        @ source/interlock_SL.c:518:30
	ldr	r0, [sp, #8]
	.loc	2 518 34                        @ source/interlock_SL.c:518:34
	ldrb	r0, [r0, #2]
	lsrs	r0, r0, #6
.Ltmp110:
	.loc	2 518 8                         @ source/interlock_SL.c:518:8
	cmp	r0, #2
	bne	.LBB2_33
	b	.LBB2_32
.LBB2_32:
.Ltmp111:
	.loc	2 519 24 is_stmt 1              @ source/interlock_SL.c:519:24
	ldr	r1, __arm_cp.2_6
	movs	r0, #1
	strb	r0, [r1]
	.loc	2 520 5                         @ source/interlock_SL.c:520:5
	b	.LBB2_33
.Ltmp112:
.LBB2_33:
	.loc	2 521 9                         @ source/interlock_SL.c:521:9
	ldr	r0, [sp, #4]
	.loc	2 521 16 is_stmt 0              @ source/interlock_SL.c:521:16
	ldrb	r0, [r0, #3]
	lsls	r0, r0, #26
	lsrs	r0, r0, #30
	.loc	2 521 34                        @ source/interlock_SL.c:521:34
	cmp	r0, #2
	bne	.LBB2_36
	b	.LBB2_34
.LBB2_34:
	.loc	2 521 38                        @ source/interlock_SL.c:521:38
	ldr	r0, __arm_cp.2_6
	ldrb	r0, [r0]
.Ltmp113:
	.loc	2 521 8                         @ source/interlock_SL.c:521:8
	cbz	r0, .LBB2_36
	b	.LBB2_35
.LBB2_35:
.Ltmp114:
	.loc	2 522 19 is_stmt 1              @ source/interlock_SL.c:522:19
	ldr	r1, __arm_cp.2_7
	movs	r0, #120
	strh	r0, [r1]
	.loc	2 523 24                        @ source/interlock_SL.c:523:24
	ldr	r1, __arm_cp.2_6
	movs	r0, #0
	strb	r0, [r1]
	.loc	2 524 20                        @ source/interlock_SL.c:524:20
	ldr	r1, __arm_cp.2_4
	strb	r0, [r1]
	.loc	2 525 5                         @ source/interlock_SL.c:525:5
	b	.LBB2_36
.Ltmp115:
.LBB2_36:
	.loc	2 526 4                         @ source/interlock_SL.c:526:4
	b	.LBB2_42
.Ltmp116:
.LBB2_37:
	.loc	2 527 13                        @ source/interlock_SL.c:527:13
	ldr	r0, [sp, #16]
	.loc	2 527 20 is_stmt 0              @ source/interlock_SL.c:527:20
	ldrb	r0, [r0]
	lsls	r0, r0, #26
	lsrs	r0, r0, #30
	.loc	2 527 34                        @ source/interlock_SL.c:527:34
	cmp	r0, #1
	bne	.LBB2_40
	b	.LBB2_38
.LBB2_38:
	.loc	2 527 38                        @ source/interlock_SL.c:527:38
	ldr	r0, [sp, #8]
	.loc	2 527 42                        @ source/interlock_SL.c:527:42
	ldrb	r0, [r0]
	movs	r1, #3
	ands	r0, r1
.Ltmp117:
	.loc	2 527 12                        @ source/interlock_SL.c:527:12
	cmp	r0, #2
	bne	.LBB2_40
	b	.LBB2_39
.LBB2_39:
.Ltmp118:
	.loc	2 528 19 is_stmt 1              @ source/interlock_SL.c:528:19
	ldr	r1, __arm_cp.2_4
	movs	r0, #4
	strb	r0, [r1]
	.loc	2 529 4                         @ source/interlock_SL.c:529:4
	b	.LBB2_41
.Ltmp119:
.LBB2_40:
	.loc	2 0 4 is_stmt 0                 @ source/interlock_SL.c:0:4
	b	.LBB2_41
.LBB2_41:
	b	.LBB2_42
.LBB2_42:
	.loc	2 533 4 is_stmt 1               @ source/interlock_SL.c:533:4
	b	.LBB2_49
.LBB2_43:
.Ltmp120:
	.loc	2 536 8                         @ source/interlock_SL.c:536:8
	ldr	r0, [sp, #16]
	.loc	2 536 15 is_stmt 0              @ source/interlock_SL.c:536:15
	ldrb	r0, [r0]
	lsls	r0, r0, #26
	lsrs	r0, r0, #30
	.loc	2 536 29                        @ source/interlock_SL.c:536:29
	cmp	r0, #1
	bne	.LBB2_46
	b	.LBB2_44
.LBB2_44:
	.loc	2 536 33                        @ source/interlock_SL.c:536:33
	ldr	r0, [sp, #8]
	.loc	2 536 37                        @ source/interlock_SL.c:536:37
	ldrb	r0, [r0]
	movs	r1, #3
	ands	r0, r1
.Ltmp121:
	.loc	2 536 7                         @ source/interlock_SL.c:536:7
	cmp	r0, #2
	bne	.LBB2_46
	b	.LBB2_45
.LBB2_45:
.Ltmp122:
	.loc	2 537 5 is_stmt 1               @ source/interlock_SL.c:537:5
	ldr	r1, [sp, #12]
	.loc	2 537 16 is_stmt 0              @ source/interlock_SL.c:537:16
	ldrb	r0, [r1]
	movs	r2, #127
	ands	r0, r2
	strb	r0, [r1]
	.loc	2 538 5 is_stmt 1               @ source/interlock_SL.c:538:5
	ldr	r1, [sp, #12]
	.loc	2 538 17 is_stmt 0              @ source/interlock_SL.c:538:17
	ldrb	r0, [r1, #1]
	movs	r2, #254
	ands	r0, r2
	strb	r0, [r1, #1]
	.loc	2 539 19 is_stmt 1              @ source/interlock_SL.c:539:19
	ldr	r1, __arm_cp.2_4
	movs	r0, #0
	strb	r0, [r1]
	.loc	2 540 4                         @ source/interlock_SL.c:540:4
	b	.LBB2_47
.Ltmp123:
.LBB2_46:
	.loc	2 0 4 is_stmt 0                 @ source/interlock_SL.c:0:4
	b	.LBB2_47
.LBB2_47:
	.loc	2 544 4 is_stmt 1               @ source/interlock_SL.c:544:4
	b	.LBB2_49
.LBB2_48:
	.loc	2 548 4                         @ source/interlock_SL.c:548:4
	b	.LBB2_49
.Ltmp124:
.LBB2_49:
	.loc	2 550 1 epilogue_begin          @ source/interlock_SL.c:550:1
	add	sp, #20
	bx	lr
.Ltmp125:
	.loc	2 0 1 is_stmt 0                 @ :0:1
.Ltmp126:
	.p2align	2
@ %bb.50:
__arm_cp.2_0:
	.long	vo_in_u
.Lcpi_end26:
	.size	__arm_cp.2_0, .Lcpi_end26-__arm_cp.2_0
__arm_cp.2_1:
	.long	nvo_u
.Lcpi_end27:
	.size	__arm_cp.2_1, .Lcpi_end27-__arm_cp.2_1
__arm_cp.2_2:
	.long	vi_u
.Lcpi_end28:
	.size	__arm_cp.2_2, .Lcpi_end28-__arm_cp.2_2
__arm_cp.2_3:
	.long	vi_oe_u
.Lcpi_end29:
	.size	__arm_cp.2_3, .Lcpi_end29-__arm_cp.2_3
__arm_cp.2_4:
	.long	interlock_TCF_SM.lstate_TCF_SM
.Lcpi_end30:
	.size	__arm_cp.2_4, .Lcpi_end30-__arm_cp.2_4
__arm_cp.2_5:
	.long	g_TCF_ticks
.Lcpi_end31:
	.size	__arm_cp.2_5, .Lcpi_end31-__arm_cp.2_5
__arm_cp.2_6:
	.long	interlock_TCF_SM.cancel_req_TCF_SM
.Lcpi_end32:
	.size	__arm_cp.2_6, .Lcpi_end32-__arm_cp.2_6
__arm_cp.2_7:
	.long	g_120s_ticks
.Lcpi_end33:
	.size	__arm_cp.2_7, .Lcpi_end33-__arm_cp.2_7
.Lfunc_end2:
	.size	interlock_TCF_SM, .Lfunc_end2-interlock_TCF_SM
	.cfi_endproc
	.cantunwind
	.fnend
                                        @ -- End function
	.section	.text.interlock_Buzzer_SM,"ax",%progbits
	.hidden	interlock_Buzzer_SM             @ -- Begin function interlock_Buzzer_SM
	.globl	interlock_Buzzer_SM
	.p2align	2
	.type	interlock_Buzzer_SM,%function
	.code	16                              @ @interlock_Buzzer_SM
	.thumb_func
interlock_Buzzer_SM:
.Lfunc_begin3:
	.loc	2 582 0 is_stmt 1               @ source/interlock_SL.c:582:0
	.fnstart
	.cfi_startproc
@ %bb.0:
	.pad	#12
	sub	sp, #12
	.cfi_def_cfa_offset 12
.Ltmp127:
	.loc	2 585 16 prologue_end           @ source/interlock_SL.c:585:16
	ldr	r0, __arm_cp.3_0
	str	r0, [sp, #8]
	.loc	2 587 18                        @ source/interlock_SL.c:587:18
	ldr	r0, __arm_cp.3_1
	str	r0, [sp, #4]
.Ltmp128:
	.loc	2 589 6                         @ source/interlock_SL.c:589:6
	ldr	r0, [sp, #4]
	.loc	2 589 10 is_stmt 0              @ source/interlock_SL.c:589:10
	ldrb	r0, [r0, #3]
	movs	r1, #3
	ands	r0, r1
	.loc	2 589 24                        @ source/interlock_SL.c:589:24
	cmp	r0, #2
	bne	.LBB3_3
	b	.LBB3_1
.LBB3_1:
	.loc	2 589 28                        @ source/interlock_SL.c:589:28
	ldr	r0, __arm_cp.3_2
	ldrh	r0, [r0]
.Ltmp129:
	.loc	2 589 5                         @ source/interlock_SL.c:589:5
	cbnz	r0, .LBB3_3
	b	.LBB3_2
.LBB3_2:
.Ltmp130:
	.loc	2 590 3 is_stmt 1               @ source/interlock_SL.c:590:3
	ldr	r1, [sp, #8]
	.loc	2 590 15 is_stmt 0              @ source/interlock_SL.c:590:15
	ldrb	r0, [r1, #2]
	movs	r2, #247
	ands	r0, r2
	strb	r0, [r1, #2]
	.loc	2 591 3 is_stmt 1               @ source/interlock_SL.c:591:3
	ldr	r1, [sp, #8]
	.loc	2 591 23 is_stmt 0              @ source/interlock_SL.c:591:23
	ldrb	r0, [r1, #3]
	movs	r2, #191
	ands	r0, r2
	strb	r0, [r1, #3]
	.loc	2 592 2 is_stmt 1               @ source/interlock_SL.c:592:2
	b	.LBB3_4
.Ltmp131:
.LBB3_3:
	.loc	2 0 2 is_stmt 0                 @ source/interlock_SL.c:0:2
	b	.LBB3_4
.LBB3_4:
	.loc	2 598 10 is_stmt 1              @ source/interlock_SL.c:598:10
	ldr	r0, __arm_cp.3_3
	ldrb	r0, [r0]
	.loc	2 598 2 is_stmt 0               @ source/interlock_SL.c:598:2
	str	r0, [sp]                        @ 4-byte Spill
	cbz	r0, .LBB3_7
	b	.LBB3_5
.LBB3_5:
	ldr	r0, [sp]                        @ 4-byte Reload
	cmp	r0, #1
	beq	.LBB3_14
	b	.LBB3_6
.LBB3_6:
	ldr	r0, [sp]                        @ 4-byte Reload
	cmp	r0, #2
	beq	.LBB3_18
	b	.LBB3_22
.LBB3_7:
.Ltmp132:
	.loc	2 601 7 is_stmt 1               @ source/interlock_SL.c:601:7
	ldr	r0, [sp, #4]
	.loc	2 601 11 is_stmt 0              @ source/interlock_SL.c:601:11
	ldrb	r0, [r0]
	movs	r1, #3
	ands	r0, r1
.Ltmp133:
	.loc	2 601 7                         @ source/interlock_SL.c:601:7
	cmp	r0, #1
	bne	.LBB3_9
	b	.LBB3_8
.LBB3_8:
.Ltmp134:
	.loc	2 602 22 is_stmt 1              @ source/interlock_SL.c:602:22
	ldr	r1, __arm_cp.3_3
	movs	r0, #2
	strb	r0, [r1]
	.loc	2 603 4                         @ source/interlock_SL.c:603:4
	b	.LBB3_13
.Ltmp135:
.LBB3_9:
	.loc	2 604 12                        @ source/interlock_SL.c:604:12
	ldr	r0, [sp, #4]
	.loc	2 604 16 is_stmt 0              @ source/interlock_SL.c:604:16
	ldrb	r0, [r0]
	movs	r1, #3
	ands	r0, r1
.Ltmp136:
	.loc	2 604 12                        @ source/interlock_SL.c:604:12
	cmp	r0, #2
	bne	.LBB3_11
	b	.LBB3_10
.LBB3_10:
.Ltmp137:
	.loc	2 605 22 is_stmt 1              @ source/interlock_SL.c:605:22
	ldr	r1, __arm_cp.3_3
	movs	r0, #1
	strb	r0, [r1]
	.loc	2 606 4                         @ source/interlock_SL.c:606:4
	b	.LBB3_12
.Ltmp138:
.LBB3_11:
	.loc	2 0 4 is_stmt 0                 @ source/interlock_SL.c:0:4
	b	.LBB3_12
.LBB3_12:
	b	.LBB3_13
.LBB3_13:
	.loc	2 610 4 is_stmt 1               @ source/interlock_SL.c:610:4
	ldr	r1, [sp, #8]
	.loc	2 610 16 is_stmt 0              @ source/interlock_SL.c:610:16
	ldrb	r0, [r1, #2]
	movs	r2, #247
	ands	r0, r2
	strb	r0, [r1, #2]
	.loc	2 611 4 is_stmt 1               @ source/interlock_SL.c:611:4
	ldr	r1, [sp, #8]
	.loc	2 611 24 is_stmt 0              @ source/interlock_SL.c:611:24
	ldrb	r0, [r1, #3]
	movs	r2, #191
	ands	r0, r2
	strb	r0, [r1, #3]
	.loc	2 612 4 is_stmt 1               @ source/interlock_SL.c:612:4
	b	.LBB3_23
.LBB3_14:
.Ltmp139:
	.loc	2 615 7                         @ source/interlock_SL.c:615:7
	ldr	r0, [sp, #4]
	.loc	2 615 11 is_stmt 0              @ source/interlock_SL.c:615:11
	ldrb	r0, [r0]
	movs	r1, #3
	ands	r0, r1
.Ltmp140:
	.loc	2 615 7                         @ source/interlock_SL.c:615:7
	cmp	r0, #1
	bne	.LBB3_16
	b	.LBB3_15
.LBB3_15:
.Ltmp141:
	.loc	2 616 5 is_stmt 1               @ source/interlock_SL.c:616:5
	ldr	r1, [sp, #8]
	.loc	2 616 17 is_stmt 0              @ source/interlock_SL.c:616:17
	ldrb	r0, [r1, #2]
	movs	r2, #8
	orrs	r0, r2
	strb	r0, [r1, #2]
	.loc	2 617 5 is_stmt 1               @ source/interlock_SL.c:617:5
	ldr	r1, [sp, #8]
	.loc	2 617 25 is_stmt 0              @ source/interlock_SL.c:617:25
	ldrb	r0, [r1, #3]
	movs	r2, #64
	orrs	r0, r2
	strb	r0, [r1, #3]
	.loc	2 618 20 is_stmt 1              @ source/interlock_SL.c:618:20
	ldr	r1, __arm_cp.3_2
	movw	r0, #2000
	strh	r0, [r1]
	.loc	2 619 22                        @ source/interlock_SL.c:619:22
	ldr	r1, __arm_cp.3_3
	movs	r0, #2
	strb	r0, [r1]
	.loc	2 620 4                         @ source/interlock_SL.c:620:4
	b	.LBB3_17
.Ltmp142:
.LBB3_16:
	.loc	2 0 4 is_stmt 0                 @ source/interlock_SL.c:0:4
	b	.LBB3_17
.LBB3_17:
	.loc	2 624 4 is_stmt 1               @ source/interlock_SL.c:624:4
	b	.LBB3_23
.LBB3_18:
.Ltmp143:
	.loc	2 626 7                         @ source/interlock_SL.c:626:7
	ldr	r0, [sp, #4]
	.loc	2 626 11 is_stmt 0              @ source/interlock_SL.c:626:11
	ldrb	r0, [r0]
	movs	r1, #3
	ands	r0, r1
.Ltmp144:
	.loc	2 626 7                         @ source/interlock_SL.c:626:7
	cmp	r0, #2
	bne	.LBB3_20
	b	.LBB3_19
.LBB3_19:
.Ltmp145:
	.loc	2 627 5 is_stmt 1               @ source/interlock_SL.c:627:5
	ldr	r1, [sp, #8]
	.loc	2 627 17 is_stmt 0              @ source/interlock_SL.c:627:17
	ldrb	r0, [r1, #2]
	movs	r2, #8
	orrs	r0, r2
	strb	r0, [r1, #2]
	.loc	2 628 5 is_stmt 1               @ source/interlock_SL.c:628:5
	ldr	r1, [sp, #8]
	.loc	2 628 25 is_stmt 0              @ source/interlock_SL.c:628:25
	ldrb	r0, [r1, #3]
	movs	r2, #64
	orrs	r0, r2
	strb	r0, [r1, #3]
	.loc	2 629 20 is_stmt 1              @ source/interlock_SL.c:629:20
	ldr	r1, __arm_cp.3_2
	movw	r0, #2000
	strh	r0, [r1]
	.loc	2 630 22                        @ source/interlock_SL.c:630:22
	ldr	r1, __arm_cp.3_3
	movs	r0, #1
	strb	r0, [r1]
	.loc	2 631 4                         @ source/interlock_SL.c:631:4
	b	.LBB3_21
.Ltmp146:
.LBB3_20:
	.loc	2 0 4 is_stmt 0                 @ source/interlock_SL.c:0:4
	b	.LBB3_21
.LBB3_21:
	.loc	2 635 4 is_stmt 1               @ source/interlock_SL.c:635:4
	b	.LBB3_23
.LBB3_22:
	.loc	2 639 4                         @ source/interlock_SL.c:639:4
	b	.LBB3_23
.Ltmp147:
.LBB3_23:
	.loc	2 641 1 epilogue_begin          @ source/interlock_SL.c:641:1
	add	sp, #12
	bx	lr
.Ltmp148:
	.loc	2 0 1 is_stmt 0                 @ :0:1
.Ltmp149:
	.p2align	2
@ %bb.24:
__arm_cp.3_0:
	.long	nvo_u
.Lcpi_end34:
	.size	__arm_cp.3_0, .Lcpi_end34-__arm_cp.3_0
__arm_cp.3_1:
	.long	vi_u
.Lcpi_end35:
	.size	__arm_cp.3_1, .Lcpi_end35-__arm_cp.3_1
__arm_cp.3_2:
	.long	g_ACKN_D_ticks
.Lcpi_end36:
	.size	__arm_cp.3_2, .Lcpi_end36-__arm_cp.3_2
__arm_cp.3_3:
	.long	interlock_Buzzer_SM.lstate_Buzzer_SM
.Lcpi_end37:
	.size	__arm_cp.3_3, .Lcpi_end37-__arm_cp.3_3
.Lfunc_end3:
	.size	interlock_Buzzer_SM, .Lfunc_end3-interlock_Buzzer_SM
	.cfi_endproc
	.cantunwind
	.fnend
                                        @ -- End function
	.type	interlock_SL.lstate_SL,%object  @ @interlock_SL.lstate_SL
	.section	.bss.interlock_SL.lstate_SL,"aw",%nobits
interlock_SL.lstate_SL:
	.byte	0                               @ 0x0
	.size	interlock_SL.lstate_SL, 1

	.type	interlock_TGT_SM.lstate_TGT_SM,%object @ @interlock_TGT_SM.lstate_TGT_SM
	.section	.bss.interlock_TGT_SM.lstate_TGT_SM,"aw",%nobits
interlock_TGT_SM.lstate_TGT_SM:
	.byte	0                               @ 0x0
	.size	interlock_TGT_SM.lstate_TGT_SM, 1

	.type	interlock_TGT_SM.shkr_state_SL,%object @ @interlock_TGT_SM.shkr_state_SL
	.section	.bss.interlock_TGT_SM.shkr_state_SL,"aw",%nobits
interlock_TGT_SM.shkr_state_SL:
	.byte	0                               @ 0x0
	.size	interlock_TGT_SM.shkr_state_SL, 1

	.type	interlock_TCF_SM.cancel_req_TCF_SM,%object @ @interlock_TCF_SM.cancel_req_TCF_SM
	.section	.bss.interlock_TCF_SM.cancel_req_TCF_SM,"aw",%nobits
interlock_TCF_SM.cancel_req_TCF_SM:
	.byte	0                               @ 0x0
	.size	interlock_TCF_SM.cancel_req_TCF_SM, 1

	.type	interlock_TCF_SM.lstate_TCF_SM,%object @ @interlock_TCF_SM.lstate_TCF_SM
	.section	.bss.interlock_TCF_SM.lstate_TCF_SM,"aw",%nobits
interlock_TCF_SM.lstate_TCF_SM:
	.byte	0                               @ 0x0
	.size	interlock_TCF_SM.lstate_TCF_SM, 1

	.type	interlock_Buzzer_SM.lstate_Buzzer_SM,%object @ @interlock_Buzzer_SM.lstate_Buzzer_SM
	.section	.bss.interlock_Buzzer_SM.lstate_Buzzer_SM,"aw",%nobits
interlock_Buzzer_SM.lstate_Buzzer_SM:
	.byte	0                               @ 0x0
	.size	interlock_Buzzer_SM.lstate_Buzzer_SM, 1

	.file	3 "D:\\work\\dheeraj\\local\\CEL\\CCC\\CCC_CPU123\\Code" "source/Include\\interlock.h"
	.section	".note.GNU-stack","",%progbits
	.eabi_attribute	30, 6	@ Tag_ABI_optimization_goals
	.ARM_attribute	16, 1	@ Tag_AV_eba