	.text
	.syntax unified
	.eabi_attribute	67, "2.09"	@ Tag_conformance
	.cpu	cortex-m23
	.eabi_attribute	6, 16	@ Tag_CPU_arch
	.eabi_attribute	7, 77	@ Tag_CPU_arch_profile
	.eabi_attribute	8, 0	@ Tag_ARM_ISA_use
	.eabi_attribute	9, 3	@ Tag_THUMB_ISA_use
	.eabi_attribute	34, 0	@ Tag_CPU_unaligned_access
	.eabi_attribute	17, 1	@ Tag_ABI_PCS_GOT_use
	.eabi_attribute	20, 2	@ Tag_ABI_FP_denormal
	.eabi_attribute	21, 0	@ Tag_ABI_FP_exceptions
	.eabi_attribute	23, 1	@ Tag_ABI_FP_number_model
	.eabi_attribute	24, 1	@ Tag_ABI_align_needed
	.eabi_attribute	25, 1	@ Tag_ABI_align_preserved
	.eabi_attribute	38, 1	@ Tag_ABI_FP_16bit_format
	.eabi_attribute	18, 4	@ Tag_ABI_PCS_wchar_t
	.eabi_attribute	26, 2	@ Tag_ABI_enum_size
	.eabi_attribute	14, 0	@ Tag_ABI_PCS_R9_use
	.file	"interlock.c"
	.file	1 "C:\\Users\\Anaya\\AppData\\Local\\Keil_v5\\ARM\\ARMCLANG\\bin\\..\\include" "stdint.h"
	.file	2 "D:\\work\\dheeraj\\local\\CEL\\CCC\\CCC_CPU123\\Code" "source/interlock.c"
	.file	3 "D:\\work\\dheeraj\\local\\CEL\\CCC\\CCC_CPU123\\Code" "source/Include\\interlock.h"
	.section	.text.interlock,"ax",%progbits
	.hidden	interlock                       @ -- Begin function interlock
	.globl	interlock
	.p2align	2
	.type	interlock,%function
	.code	16                              @ @interlock
	.thumb_func
interlock:
.Lfunc_begin0:
	.loc	2 93 0                          @ source/interlock.c:93:0
	.fnstart
	.cfi_sections .debug_frame
	.cfi_startproc
@ %bb.0:
	.save	{r4, r5, r6, r7, lr}
	push	{r4, r5, r6, r7, lr}
	.cfi_def_cfa_offset 20
	.cfi_offset lr, -4
	.cfi_offset r7, -8
	.cfi_offset r6, -12
	.cfi_offset r5, -16
	.cfi_offset r4, -20
	.pad	#68
	sub	sp, #68
	.cfi_def_cfa_offset 88
.Ltmp0:
	.loc	2 94 16 prologue_end            @ source/interlock.c:94:16
	ldr	r0, .LCPI0_13
	str	r0, [sp, #64]
	.loc	2 95 17                         @ source/interlock.c:95:17
	ldr	r0, __arm_cp.0_14
	str	r0, [sp, #60]
.Ltmp1:
	.loc	2 97 16                         @ source/interlock.c:97:16
	ldr	r0, .LCPI0_15
	ldrb	r0, [r0]
	lsls	r0, r0, #26
	lsrs	r0, r0, #30
.Ltmp2:
	.loc	2 97 6 is_stmt 0                @ source/interlock.c:97:6
	cmp	r0, #3
	bne	.LBB0_2
	b	.LBB0_1
.LBB0_1:
.Ltmp3:
	.loc	2 98 5 is_stmt 1                @ source/interlock.c:98:5
	bl	interlock_DL
	.loc	2 99 5                          @ source/interlock.c:99:5
	bl	interlock_TGT_SM_DL
	.loc	2 100 5                         @ source/interlock.c:100:5
	bl	interlock_TCF_SM_DL
	.loc	2 101 5                         @ source/interlock.c:101:5
	bl	interlock_Buzzer_SM_TCF_DL
	.loc	2 102 5                         @ source/interlock.c:102:5
	bl	interlock_Buzzer_SM_TGT_DL
	.loc	2 103 3                         @ source/interlock.c:103:3
	b	.LBB0_9
.Ltmp4:
.LBB0_2:
	.loc	2 104 21                        @ source/interlock.c:104:21
	ldr	r0, .LCPI0_15
	ldrb	r0, [r0]
	lsls	r0, r0, #26
	lsrs	r0, r0, #30
.Ltmp5:
	.loc	2 104 11 is_stmt 0              @ source/interlock.c:104:11
	cmp	r0, #1
	bne	.LBB0_4
	b	.LBB0_3
.LBB0_3:
.Ltmp6:
	.loc	2 105 5 is_stmt 1               @ source/interlock.c:105:5
	bl	interlock_SL
	.loc	2 106 5                         @ source/interlock.c:106:5
	bl	interlock_TGT_SM
	.loc	2 107 5                         @ source/interlock.c:107:5
	bl	interlock_TCF_SM
	.loc	2 108 5                         @ source/interlock.c:108:5
	bl	interlock_Buzzer_SM
	.loc	2 109 3                         @ source/interlock.c:109:3
	b	.LBB0_8
.Ltmp7:
.LBB0_4:
	.loc	2 110 21                        @ source/interlock.c:110:21
	ldr	r0, __arm_cp.0_2
	ldrb	r0, [r0]
	lsls	r0, r0, #26
	lsrs	r0, r0, #30
.Ltmp8:
	.loc	2 110 11 is_stmt 0              @ source/interlock.c:110:11
	cmp	r0, #2
	bne	.LBB0_6
	b	.LBB0_5
.LBB0_5:
.Ltmp9:
	.loc	2 111 5 is_stmt 1               @ source/interlock.c:111:5
	bl	interlock_Bypass
	.loc	2 112 3                         @ source/interlock.c:112:3
	b	.LBB0_7
.Ltmp10:
.LBB0_6:
	.loc	2 0 3 is_stmt 0                 @ source/interlock.c:0:3
	b	.LBB0_7
.LBB0_7:
	b	.LBB0_8
.LBB0_8:
	b	.LBB0_9
.LBB0_9:
.Ltmp11:
	.loc	2 117 6 is_stmt 1               @ source/interlock.c:117:6
	ldr	r0, __arm_cp.0_3
	ldrb	r0, [r0]
.Ltmp12:
	.loc	2 117 6 is_stmt 0               @ source/interlock.c:117:6
	cmp	r0, #2
	bne	.LBB0_11
	b	.LBB0_10
.LBB0_10:
.Ltmp13:
	.loc	2 118 17 is_stmt 1              @ source/interlock.c:118:17
	ldr	r1, __arm_cp.0_0
	ldrb	r0, [r1]
	movs	r2, #252
	ands	r0, r2
	adds	r0, r0, #2
	strb	r0, [r1]
	.loc	2 119 19                        @ source/interlock.c:119:19
	ldrb	r0, [r1]
	movs	r2, #243
	ands	r0, r2
	adds	r0, r0, #4
	strb	r0, [r1]
	.loc	2 120 3                         @ source/interlock.c:120:3
	b	.LBB0_17
.Ltmp14:
.LBB0_11:
	.loc	2 121 13                        @ source/interlock.c:121:13
	ldr	r0, __arm_cp.0_4
	ldrb	r0, [r0]
	.loc	2 121 29 is_stmt 0              @ source/interlock.c:121:29
	cmp	r0, #2
	beq	.LBB0_13
	b	.LBB0_12
.LBB0_12:
	.loc	2 121 33                        @ source/interlock.c:121:33
	ldr	r0, __arm_cp.0_5
	ldrb	r0, [r0]
	.loc	2 121 50                        @ source/interlock.c:121:50
	cmp	r0, #2
	bne	.LBB0_15
	b	.LBB0_13
.LBB0_13:
	.loc	2 121 54                        @ source/interlock.c:121:54
	ldr	r0, __arm_cp.0_6
	ldrh	r0, [r0]
.Ltmp15:
	.loc	2 121 11                        @ source/interlock.c:121:11
	cbnz	r0, .LBB0_15
	b	.LBB0_14
.LBB0_14:
.Ltmp16:
	.loc	2 122 17 is_stmt 1              @ source/interlock.c:122:17
	ldr	r1, __arm_cp.0_0
	ldrb	r0, [r1]
	movs	r2, #252
	ands	r0, r2
	adds	r0, r0, #1
	strb	r0, [r1]
	.loc	2 123 19                        @ source/interlock.c:123:19
	ldrb	r0, [r1]
	movs	r2, #243
	ands	r0, r2
	adds	r0, #8
	strb	r0, [r1]
	.loc	2 124 3                         @ source/interlock.c:124:3
	b	.LBB0_16
.Ltmp17:
.LBB0_15:
	.loc	2 0 3 is_stmt 0                 @ source/interlock.c:0:3
	b	.LBB0_16
.LBB0_16:
	b	.LBB0_17
.LBB0_17:
.Ltmp18:
	.loc	2 129 6 is_stmt 1               @ source/interlock.c:129:6
	ldr	r0, __arm_cp.0_7
	ldrb	r0, [r0]
.Ltmp19:
	.loc	2 129 6 is_stmt 0               @ source/interlock.c:129:6
	cmp	r0, #2
	bne	.LBB0_19
	b	.LBB0_18
.LBB0_18:
.Ltmp20:
	.loc	2 130 17 is_stmt 1              @ source/interlock.c:130:17
	ldr	r1, __arm_cp.0_0
	ldrb	r0, [r1]
	movs	r2, #207
	ands	r0, r2
	adds	r0, #32
	strb	r0, [r1]
	.loc	2 131 19                        @ source/interlock.c:131:19
	ldrb	r0, [r1]
	movs	r2, #63
	ands	r0, r2
	adds	r0, #64
	strb	r0, [r1]
	.loc	2 132 3                         @ source/interlock.c:132:3
	b	.LBB0_25
.Ltmp21:
.LBB0_19:
	.loc	2 133 13                        @ source/interlock.c:133:13
	ldr	r0, __arm_cp.0_8
	ldrb	r0, [r0]
	.loc	2 133 29 is_stmt 0              @ source/interlock.c:133:29
	cmp	r0, #2
	beq	.LBB0_21
	b	.LBB0_20
.LBB0_20:
	.loc	2 133 33                        @ source/interlock.c:133:33
	ldr	r0, __arm_cp.0_9
	ldrb	r0, [r0]
	.loc	2 133 50                        @ source/interlock.c:133:50
	cmp	r0, #2
	bne	.LBB0_23
	b	.LBB0_21
.LBB0_21:
	.loc	2 133 54                        @ source/interlock.c:133:54
	ldr	r0, __arm_cp.0_6
	ldrh	r0, [r0]
.Ltmp22:
	.loc	2 133 11                        @ source/interlock.c:133:11
	cbnz	r0, .LBB0_23
	b	.LBB0_22
.LBB0_22:
.Ltmp23:
	.loc	2 134 17 is_stmt 1              @ source/interlock.c:134:17
	ldr	r1, __arm_cp.0_0
	ldrb	r0, [r1]
	movs	r2, #207
	ands	r0, r2
	adds	r0, #16
	strb	r0, [r1]
	.loc	2 135 19                        @ source/interlock.c:135:19
	ldrb	r0, [r1]
	movs	r2, #63
	ands	r0, r2
	adds	r0, #128
	strb	r0, [r1]
	.loc	2 136 3                         @ source/interlock.c:136:3
	b	.LBB0_24
.Ltmp24:
.LBB0_23:
	.loc	2 0 3 is_stmt 0                 @ source/interlock.c:0:3
	b	.LBB0_24
.LBB0_24:
	b	.LBB0_25
.LBB0_25:
.Ltmp25:
	.loc	2 141 7 is_stmt 1               @ source/interlock.c:141:7
	ldr	r0, __arm_cp.0_10
	ldrb	r0, [r0]
	.loc	2 141 23 is_stmt 0              @ source/interlock.c:141:23
	cmp	r0, #2
	beq	.LBB0_27
	b	.LBB0_26
.LBB0_26:
	.loc	2 141 27                        @ source/interlock.c:141:27
	ldr	r0, __arm_cp.0_11
	ldrb	r0, [r0]
.Ltmp26:
	.loc	2 141 6                         @ source/interlock.c:141:6
	cmp	r0, #2
	bne	.LBB0_28
	b	.LBB0_27
.LBB0_27:
.Ltmp27:
	.loc	2 142 17 is_stmt 1              @ source/interlock.c:142:17
	ldr	r1, __arm_cp.0_0
	ldrb	r0, [r1, #1]
	movs	r2, #252
	ands	r0, r2
	adds	r0, r0, #2
	strb	r0, [r1, #1]
	.loc	2 143 3                         @ source/interlock.c:143:3
	b	.LBB0_29
.Ltmp28:
.LBB0_28:
	.loc	2 145 17                        @ source/interlock.c:145:17
	ldr	r1, __arm_cp.0_0
	ldrb	r0, [r1, #1]
	movs	r2, #252
	ands	r0, r2
	adds	r0, r0, #1
	strb	r0, [r1, #1]
	b	.LBB0_29
.Ltmp29:
.LBB0_29:
	.loc	2 148 30                        @ source/interlock.c:148:30
	ldr	r0, __arm_cp.0_2
	ldrb	r1, [r0]
	.loc	2 148 41 is_stmt 0              @ source/interlock.c:148:41
	lsls	r1, r1, #29
	lsrs	r3, r1, #31
	rsbs	r1, r3, #0
	adcs	r3, r1
	.loc	2 148 3                         @ source/interlock.c:148:3
	ldr	r2, [sp, #60]
	.loc	2 148 17                        @ source/interlock.c:148:17
	ldrb	r1, [r2, #2]
	movs	r4, #254
	ands	r1, r4
	adds	r1, r1, r3
	strb	r1, [r2, #2]
	.loc	2 149 30 is_stmt 1              @ source/interlock.c:149:30
	ldrb	r1, [r0]
	.loc	2 149 41 is_stmt 0              @ source/interlock.c:149:41
	lsls	r1, r1, #28
	lsrs	r3, r1, #31
	rsbs	r1, r3, #0
	adcs	r3, r1
	.loc	2 149 3                         @ source/interlock.c:149:3
	ldr	r2, [sp, #60]
	.loc	2 149 17                        @ source/interlock.c:149:17
	ldrb	r1, [r2, #2]
	lsls	r3, r3, #5
	movs	r4, #223
	ands	r1, r4
	adds	r1, r1, r3
	strb	r1, [r2, #2]
.Ltmp30:
	.loc	2 152 18 is_stmt 1              @ source/interlock.c:152:18
	ldrb	r0, [r0]
	lsls	r0, r0, #25
	lsrs	r0, r0, #31
	.loc	2 152 35 is_stmt 0              @ source/interlock.c:152:35
	cbnz	r0, .LBB0_31
	b	.LBB0_30
.LBB0_30:
	.loc	2 152 49                        @ source/interlock.c:152:49
	ldr	r0, __arm_cp.0_2
	ldrb	r0, [r0]
	lsrs	r0, r0, #7
	.loc	2 152 68                        @ source/interlock.c:152:68
	cmp	r0, #1
	beq	.LBB0_32
	b	.LBB0_31
.LBB0_31:
	.loc	2 152 81                        @ source/interlock.c:152:81
	ldr	r0, __arm_cp.0_2
	ldrb	r0, [r0, #1]
	lsls	r0, r0, #29
	lsrs	r0, r0, #30
.Ltmp31:
	.loc	2 152 6                         @ source/interlock.c:152:6
	cmp	r0, #3
	beq	.LBB0_32
	b	.LBB0_33
.LBB0_32:
.Ltmp32:
	.loc	2 153 5 is_stmt 1               @ source/interlock.c:153:5
	ldr	r1, [sp, #64]
	.loc	2 153 14 is_stmt 0              @ source/interlock.c:153:14
	ldrb	r0, [r1]
	movs	r2, #252
	ands	r0, r2
	adds	r0, r0, #1
	strb	r0, [r1]
	.loc	2 154 5 is_stmt 1               @ source/interlock.c:154:5
	ldr	r1, [sp, #64]
	.loc	2 154 16 is_stmt 0              @ source/interlock.c:154:16
	ldrb	r0, [r1]
	movs	r3, #243
	ands	r0, r3
	adds	r0, #8
	strb	r0, [r1]
	.loc	2 155 5 is_stmt 1               @ source/interlock.c:155:5
	ldr	r1, [sp, #64]
	.loc	2 155 14 is_stmt 0              @ source/interlock.c:155:14
	ldrb	r0, [r1]
	movs	r4, #207
	ands	r0, r4
	adds	r0, #16
	strb	r0, [r1]
	.loc	2 156 5 is_stmt 1               @ source/interlock.c:156:5
	ldr	r1, [sp, #64]
	.loc	2 156 16 is_stmt 0              @ source/interlock.c:156:16
	ldrb	r0, [r1]
	movs	r3, #63
	ands	r0, r3
	adds	r0, #128
	strb	r0, [r1]
	.loc	2 157 5 is_stmt 1               @ source/interlock.c:157:5
	ldr	r1, [sp, #64]
	.loc	2 157 14 is_stmt 0              @ source/interlock.c:157:14
	ldrb	r0, [r1, #1]
	ands	r0, r2
	adds	r0, r0, #1
	strb	r0, [r1, #1]
	.loc	2 159 5 is_stmt 1               @ source/interlock.c:159:5
	ldr	r1, [sp, #60]
	.loc	2 159 19 is_stmt 0              @ source/interlock.c:159:19
	ldrb	r0, [r1]
	movs	r7, #254
	str	r7, [sp, #52]                   @ 4-byte Spill
	ands	r0, r7
	strb	r0, [r1]
	.loc	2 160 5 is_stmt 1               @ source/interlock.c:160:5
	ldr	r1, [sp, #60]
	.loc	2 160 20 is_stmt 0              @ source/interlock.c:160:20
	ldrb	r0, [r1]
	movs	r2, #2
	orrs	r0, r2
	strb	r0, [r1]
	.loc	2 161 5 is_stmt 1               @ source/interlock.c:161:5
	ldr	r1, [sp, #60]
	.loc	2 161 17 is_stmt 0              @ source/interlock.c:161:17
	ldrb	r0, [r1]
	movs	r6, #251
	ands	r0, r6
	strb	r0, [r1]
	.loc	2 162 5 is_stmt 1               @ source/interlock.c:162:5
	ldr	r1, [sp, #60]
	.loc	2 162 16 is_stmt 0              @ source/interlock.c:162:16
	ldrb	r0, [r1]
	movs	r5, #247
	ands	r0, r5
	strb	r0, [r1]
	.loc	2 163 5 is_stmt 1               @ source/interlock.c:163:5
	ldr	r1, [sp, #60]
	.loc	2 163 17 is_stmt 0              @ source/interlock.c:163:17
	ldrb	r0, [r1]
	movs	r2, #239
	str	r2, [sp, #28]                   @ 4-byte Spill
	ands	r0, r2
	strb	r0, [r1]
	.loc	2 164 5 is_stmt 1               @ source/interlock.c:164:5
	ldr	r1, [sp, #60]
	.loc	2 164 20 is_stmt 0              @ source/interlock.c:164:20
	ldrb	r0, [r1]
	movs	r2, #32
	orrs	r0, r2
	strb	r0, [r1]
	.loc	2 165 5 is_stmt 1               @ source/interlock.c:165:5
	ldr	r1, [sp, #60]
	.loc	2 165 17 is_stmt 0              @ source/interlock.c:165:17
	ldrb	r0, [r1]
	movs	r2, #191
	str	r2, [sp, #44]                   @ 4-byte Spill
	ands	r0, r2
	strb	r0, [r1]
	.loc	2 166 5 is_stmt 1               @ source/interlock.c:166:5
	ldr	r1, [sp, #60]
	.loc	2 166 16 is_stmt 0              @ source/interlock.c:166:16
	ldrb	r0, [r1]
	movs	r2, #127
	ands	r0, r2
	strb	r0, [r1]
	.loc	2 167 5 is_stmt 1               @ source/interlock.c:167:5
	ldr	r1, [sp, #60]
	.loc	2 167 17 is_stmt 0              @ source/interlock.c:167:17
	ldrb	r0, [r1, #1]
	ands	r0, r7
	strb	r0, [r1, #1]
	.loc	2 168 5 is_stmt 1               @ source/interlock.c:168:5
	ldr	r1, [sp, #60]
	.loc	2 168 17 is_stmt 0              @ source/interlock.c:168:17
	ldrb	r0, [r1, #1]
	movs	r7, #253
	ands	r0, r7
	strb	r0, [r1, #1]
	.loc	2 169 5 is_stmt 1               @ source/interlock.c:169:5
	ldr	r1, [sp, #60]
	.loc	2 169 19 is_stmt 0              @ source/interlock.c:169:19
	ldrb	r0, [r1, #1]
	ands	r0, r6
	strb	r0, [r1, #1]
	.loc	2 170 5 is_stmt 1               @ source/interlock.c:170:5
	ldr	r1, [sp, #60]
	.loc	2 170 16 is_stmt 0              @ source/interlock.c:170:16
	ldrb	r0, [r1, #1]
	ands	r0, r5
	strb	r0, [r1, #1]
	.loc	2 171 5 is_stmt 1               @ source/interlock.c:171:5
	ldr	r1, [sp, #28]                   @ 4-byte Reload
	ldr	r0, [sp, #60]
	.loc	2 171 16 is_stmt 0              @ source/interlock.c:171:16
	str	r0, [sp]                        @ 4-byte Spill
	ldrb	r0, [r0, #1]
	ands	r0, r1
	ldr	r1, [sp]                        @ 4-byte Reload
	strb	r0, [r1, #1]
	.loc	2 172 5 is_stmt 1               @ source/interlock.c:172:5
	ldr	r0, [sp, #60]
	.loc	2 172 14 is_stmt 0              @ source/interlock.c:172:14
	str	r0, [sp, #4]                    @ 4-byte Spill
	ldrb	r0, [r0, #1]
	movs	r1, #223
	str	r1, [sp, #36]                   @ 4-byte Spill
	ands	r0, r1
	ldr	r1, [sp, #4]                    @ 4-byte Reload
	strb	r0, [r1, #1]
	.loc	2 173 5 is_stmt 1               @ source/interlock.c:173:5
	ldr	r1, [sp, #44]                   @ 4-byte Reload
	ldr	r0, [sp, #60]
	.loc	2 173 13 is_stmt 0              @ source/interlock.c:173:13
	str	r0, [sp, #8]                    @ 4-byte Spill
	ldrb	r0, [r0, #1]
	ands	r0, r1
	ldr	r1, [sp, #8]                    @ 4-byte Reload
	strb	r0, [r1, #1]
	.loc	2 174 5 is_stmt 1               @ source/interlock.c:174:5
	ldr	r1, [sp, #60]
	.loc	2 174 17 is_stmt 0              @ source/interlock.c:174:17
	ldrb	r0, [r1, #1]
	ands	r0, r2
	strb	r0, [r1, #1]
	.loc	2 175 5 is_stmt 1               @ source/interlock.c:175:5
	ldr	r1, [sp, #52]                   @ 4-byte Reload
	ldr	r0, [sp, #60]
	.loc	2 175 19 is_stmt 0              @ source/interlock.c:175:19
	str	r0, [sp, #12]                   @ 4-byte Spill
	ldrb	r0, [r0, #2]
	ands	r0, r1
	ldr	r1, [sp, #12]                   @ 4-byte Reload
	strb	r0, [r1, #2]
	.loc	2 176 5 is_stmt 1               @ source/interlock.c:176:5
	ldr	r1, [sp, #60]
	.loc	2 176 16 is_stmt 0              @ source/interlock.c:176:16
	ldrb	r0, [r1, #2]
	ands	r0, r7
	strb	r0, [r1, #2]
	.loc	2 177 5 is_stmt 1               @ source/interlock.c:177:5
	ldr	r1, [sp, #60]
	.loc	2 177 16 is_stmt 0              @ source/interlock.c:177:16
	ldrb	r0, [r1, #2]
	ands	r0, r6
	strb	r0, [r1, #2]
	.loc	2 178 5 is_stmt 1               @ source/interlock.c:178:5
	ldr	r1, [sp, #60]
	.loc	2 178 17 is_stmt 0              @ source/interlock.c:178:17
	ldrb	r0, [r1, #2]
	ands	r0, r5
	strb	r0, [r1, #2]
	.loc	2 179 5 is_stmt 1               @ source/interlock.c:179:5
	ldr	r1, [sp, #28]                   @ 4-byte Reload
	ldr	r0, [sp, #60]
	.loc	2 179 16 is_stmt 0              @ source/interlock.c:179:16
	str	r0, [sp, #16]                   @ 4-byte Spill
	ldrb	r0, [r0, #2]
	ands	r0, r1
	ldr	r1, [sp, #16]                   @ 4-byte Reload
	strb	r0, [r1, #2]
	.loc	2 180 5 is_stmt 1               @ source/interlock.c:180:5
	ldr	r1, [sp, #36]                   @ 4-byte Reload
	ldr	r0, [sp, #60]
	.loc	2 180 19 is_stmt 0              @ source/interlock.c:180:19
	str	r0, [sp, #20]                   @ 4-byte Spill
	ldrb	r0, [r0, #2]
	ands	r0, r1
	ldr	r1, [sp, #20]                   @ 4-byte Reload
	strb	r0, [r1, #2]
	.loc	2 181 5 is_stmt 1               @ source/interlock.c:181:5
	ldr	r1, [sp, #44]                   @ 4-byte Reload
	ldr	r0, [sp, #60]
	.loc	2 181 21 is_stmt 0              @ source/interlock.c:181:21
	str	r0, [sp, #24]                   @ 4-byte Spill
	ldrb	r0, [r0, #2]
	ands	r0, r1
	ldr	r1, [sp, #24]                   @ 4-byte Reload
	strb	r0, [r1, #2]
	.loc	2 182 5 is_stmt 1               @ source/interlock.c:182:5
	ldr	r1, [sp, #60]
	.loc	2 182 16 is_stmt 0              @ source/interlock.c:182:16
	ldrb	r0, [r1, #3]
	ands	r0, r7
	strb	r0, [r1, #3]
	.loc	2 183 5 is_stmt 1               @ source/interlock.c:183:5
	ldr	r1, [sp, #60]
	.loc	2 183 16 is_stmt 0              @ source/interlock.c:183:16
	ldrb	r0, [r1, #3]
	ands	r0, r6
	strb	r0, [r1, #3]
	.loc	2 184 5 is_stmt 1               @ source/interlock.c:184:5
	ldr	r1, [sp, #60]
	.loc	2 184 17 is_stmt 0              @ source/interlock.c:184:17
	ldrb	r0, [r1, #3]
	ands	r0, r5
	strb	r0, [r1, #3]
	.loc	2 185 5 is_stmt 1               @ source/interlock.c:185:5
	ldr	r1, [sp, #28]                   @ 4-byte Reload
	ldr	r0, [sp, #60]
	.loc	2 185 17 is_stmt 0              @ source/interlock.c:185:17
	str	r0, [sp, #32]                   @ 4-byte Spill
	ldrb	r0, [r0, #3]
	ands	r0, r1
	ldr	r1, [sp, #32]                   @ 4-byte Reload
	strb	r0, [r1, #3]
	.loc	2 186 5 is_stmt 1               @ source/interlock.c:186:5
	ldr	r1, [sp, #36]                   @ 4-byte Reload
	ldr	r0, [sp, #60]
	.loc	2 186 15 is_stmt 0              @ source/interlock.c:186:15
	str	r0, [sp, #40]                   @ 4-byte Spill
	ldrb	r0, [r0, #3]
	ands	r0, r1
	ldr	r1, [sp, #40]                   @ 4-byte Reload
	strb	r0, [r1, #3]
	.loc	2 187 5 is_stmt 1               @ source/interlock.c:187:5
	ldr	r1, [sp, #44]                   @ 4-byte Reload
	ldr	r0, [sp, #60]
	.loc	2 187 25 is_stmt 0              @ source/interlock.c:187:25
	str	r0, [sp, #48]                   @ 4-byte Spill
	ldrb	r0, [r0, #3]
	ands	r0, r1
	ldr	r1, [sp, #48]                   @ 4-byte Reload
	strb	r0, [r1, #3]
	.loc	2 188 5 is_stmt 1               @ source/interlock.c:188:5
	ldr	r1, [sp, #60]
	.loc	2 188 16 is_stmt 0              @ source/interlock.c:188:16
	ldrb	r0, [r1, #3]
	ands	r0, r2
	strb	r0, [r1, #3]
	.loc	2 189 5 is_stmt 1               @ source/interlock.c:189:5
	ldr	r1, [sp, #52]                   @ 4-byte Reload
	ldr	r0, [sp, #60]
	.loc	2 189 21 is_stmt 0              @ source/interlock.c:189:21
	str	r0, [sp, #56]                   @ 4-byte Spill
	ldrb	r0, [r0, #4]
	ands	r0, r1
	ldr	r1, [sp, #56]                   @ 4-byte Reload
	strb	r0, [r1, #4]
	.loc	2 190 5 is_stmt 1               @ source/interlock.c:190:5
	ldr	r1, [sp, #60]
	.loc	2 190 21 is_stmt 0              @ source/interlock.c:190:21
	ldrb	r0, [r1, #4]
	ands	r0, r7
	strb	r0, [r1, #4]
	.loc	2 191 5 is_stmt 1               @ source/interlock.c:191:5
	ldr	r1, [sp, #60]
	.loc	2 191 18 is_stmt 0              @ source/interlock.c:191:18
	ldrb	r0, [r1, #4]
	ands	r0, r6
	strb	r0, [r1, #4]
	.loc	2 192 5 is_stmt 1               @ source/interlock.c:192:5
	ldr	r1, [sp, #60]
	.loc	2 192 28 is_stmt 0              @ source/interlock.c:192:28
	ldrb	r0, [r1, #4]
	ands	r0, r5
	strb	r0, [r1, #4]
	.loc	2 193 5 is_stmt 1               @ source/interlock.c:193:5
	ldr	r1, [sp, #60]
	.loc	2 193 26 is_stmt 0              @ source/interlock.c:193:26
	ldrb	r0, [r1, #4]
	ands	r0, r4
	strb	r0, [r1, #4]
	.loc	2 194 5 is_stmt 1               @ source/interlock.c:194:5
	ldr	r1, [sp, #60]
	.loc	2 194 26 is_stmt 0              @ source/interlock.c:194:26
	ldrb	r0, [r1, #4]
	ands	r0, r3
	strb	r0, [r1, #4]
	.loc	2 195 5 is_stmt 1               @ source/interlock.c:195:5
	ldr	r1, [sp, #60]
	.loc	2 195 22 is_stmt 0              @ source/interlock.c:195:22
	ldrb	r0, [r1, #3]
	movs	r3, #1
	orrs	r0, r3
	strb	r0, [r1, #3]
	.loc	2 196 5 is_stmt 1               @ source/interlock.c:196:5
	ldr	r1, [sp, #60]
	.loc	2 196 20 is_stmt 0              @ source/interlock.c:196:20
	ldrb	r0, [r1, #2]
	ands	r0, r2
	strb	r0, [r1, #2]
	.loc	2 197 25 is_stmt 1              @ source/interlock.c:197:25
	ldr	r1, __arm_cp.0_12
	movw	r0, #2000
	strh	r0, [r1]
	.loc	2 198 3                         @ source/interlock.c:198:3
	b	.LBB0_50
.Ltmp33:
.LBB0_33:
	.loc	2 199 22                        @ source/interlock.c:199:22
	ldr	r0, __arm_cp.0_2
	ldrb	r0, [r0]
	.loc	2 199 39 is_stmt 0              @ source/interlock.c:199:39
	lsls	r0, r0, #25
	lsrs	r0, r0, #31
	cbz	r0, .LBB0_41
	b	.LBB0_34
.LBB0_34:
	.loc	2 199 53                        @ source/interlock.c:199:53
	ldr	r0, __arm_cp.0_2
	ldrb	r0, [r0]
	lsrs	r0, r0, #7
.Ltmp34:
	.loc	2 199 11                        @ source/interlock.c:199:11
	cmp	r0, #1
	bne	.LBB0_41
	b	.LBB0_35
.LBB0_35:
.Ltmp35:
	.loc	2 200 5 is_stmt 1               @ source/interlock.c:200:5
	ldr	r1, [sp, #60]
	.loc	2 200 20 is_stmt 0              @ source/interlock.c:200:20
	ldrb	r0, [r1, #2]
	movs	r2, #128
	orrs	r0, r2
	strb	r0, [r1, #2]
.Ltmp36:
	.loc	2 202 8 is_stmt 1               @ source/interlock.c:202:8
	ldr	r0, __arm_cp.0_12
	ldrh	r0, [r0]
.Ltmp37:
	.loc	2 202 8 is_stmt 0               @ source/interlock.c:202:8
	cbnz	r0, .LBB0_37
	b	.LBB0_36
.LBB0_36:
.Ltmp38:
	.loc	2 203 26 is_stmt 1              @ source/interlock.c:203:26
	ldr	r1, __arm_cp.0_12
	movw	r0, #2000
	strh	r0, [r1]
	.loc	2 204 6                         @ source/interlock.c:204:6
	ldr	r1, [sp, #60]
	.loc	2 204 23 is_stmt 0              @ source/interlock.c:204:23
	ldrb	r0, [r1, #3]
	movs	r2, #254
	ands	r0, r2
	strb	r0, [r1, #3]
	.loc	2 205 5 is_stmt 1               @ source/interlock.c:205:5
	b	.LBB0_40
.Ltmp39:
.LBB0_37:
	.loc	2 206 13                        @ source/interlock.c:206:13
	ldr	r0, __arm_cp.0_12
	ldrh	r0, [r0]
.Ltmp40:
	.loc	2 206 13 is_stmt 0              @ source/interlock.c:206:13
	lsrs	r0, r0, #3
	cmp	r0, #124
	bhi	.LBB0_39
	b	.LBB0_38
.LBB0_38:
.Ltmp41:
	.loc	2 207 6 is_stmt 1               @ source/interlock.c:207:6
	ldr	r1, [sp, #60]
	.loc	2 207 23 is_stmt 0              @ source/interlock.c:207:23
	ldrb	r0, [r1, #3]
	movs	r2, #1
	orrs	r0, r2
	strb	r0, [r1, #3]
	.loc	2 208 5 is_stmt 1               @ source/interlock.c:208:5
	b	.LBB0_39
.Ltmp42:
.LBB0_39:
	.loc	2 0 5 is_stmt 0                 @ source/interlock.c:0:5
	b	.LBB0_40
.LBB0_40:
	.loc	2 209 3 is_stmt 1               @ source/interlock.c:209:3
	b	.LBB0_49
.Ltmp43:
.LBB0_41:
	.loc	2 210 22                        @ source/interlock.c:210:22
	ldr	r0, __arm_cp.0_2
	ldrb	r0, [r0]
	.loc	2 210 39 is_stmt 0              @ source/interlock.c:210:39
	lsls	r0, r0, #25
	lsrs	r0, r0, #31
	cbz	r0, .LBB0_47
	b	.LBB0_42
.LBB0_42:
	.loc	2 210 53                        @ source/interlock.c:210:53
	ldr	r0, __arm_cp.0_2
	ldrb	r0, [r0]
	lsrs	r0, r0, #7
.Ltmp44:
	.loc	2 210 11                        @ source/interlock.c:210:11
	cbnz	r0, .LBB0_47
	b	.LBB0_46
	.loc	2 0 11                          @ :0:11
.Ltmp45:
	.p2align	2
@ %bb.43:
.LCPI0_13:
	.long	vo_u
	.p2align	2
@ %bb.44:
__arm_cp.0_14:
	.long	nvo_u
.Lcpi_end0:
	.size	__arm_cp.0_14, .Lcpi_end0-__arm_cp.0_14
	.p2align	2
@ %bb.45:
.LCPI0_15:
	.long	ctrls_u
	.p2align	1
.LBB0_46:
.Ltmp46:
	.loc	2 211 25 is_stmt 1              @ source/interlock.c:211:25
	ldr	r1, __arm_cp.0_12
	movw	r0, #2000
	strh	r0, [r1]
	.loc	2 212 5                         @ source/interlock.c:212:5
	ldr	r1, [sp, #60]
	.loc	2 212 20 is_stmt 0              @ source/interlock.c:212:20
	ldrb	r0, [r1, #2]
	movs	r2, #128
	orrs	r0, r2
	strb	r0, [r1, #2]
	.loc	2 213 5 is_stmt 1               @ source/interlock.c:213:5
	ldr	r1, [sp, #60]
	.loc	2 213 22 is_stmt 0              @ source/interlock.c:213:22
	ldrb	r0, [r1, #3]
	movs	r2, #254
	ands	r0, r2
	strb	r0, [r1, #3]
	.loc	2 214 3 is_stmt 1               @ source/interlock.c:214:3
	b	.LBB0_48
.Ltmp47:
.LBB0_47:
	.loc	2 216 25                        @ source/interlock.c:216:25
	ldr	r1, __arm_cp.0_12
	movw	r0, #2000
	strh	r0, [r1]
	.loc	2 217 5                         @ source/interlock.c:217:5
	ldr	r1, [sp, #60]
	.loc	2 217 20 is_stmt 0              @ source/interlock.c:217:20
	ldrb	r0, [r1, #2]
	movs	r2, #127
	ands	r0, r2
	strb	r0, [r1, #2]
	.loc	2 218 5 is_stmt 1               @ source/interlock.c:218:5
	ldr	r1, [sp, #60]
	.loc	2 218 22 is_stmt 0              @ source/interlock.c:218:22
	ldrb	r0, [r1, #3]
	movs	r2, #1
	orrs	r0, r2
	strb	r0, [r1, #3]
	b	.LBB0_48
.Ltmp48:
.LBB0_48:
	.loc	2 0 22                          @ source/interlock.c:0:22
	b	.LBB0_49
.LBB0_49:
	b	.LBB0_50
.LBB0_50:
	.loc	2 220 1 epilogue_begin is_stmt 1 @ source/interlock.c:220:1
	add	sp, #68
	pop	{r4, r5, r6, r7, pc}
.Ltmp49:
	.loc	2 0 1 is_stmt 0                 @ :0:1
.Ltmp50:
	.p2align	2
@ %bb.51:
__arm_cp.0_0:
	.long	vo_u
.Lcpi_end1:
	.size	__arm_cp.0_0, .Lcpi_end1-__arm_cp.0_0
__arm_cp.0_2:
	.long	ctrls_u
.Lcpi_end2:
	.size	__arm_cp.0_2, .Lcpi_end2-__arm_cp.0_2
__arm_cp.0_3:
	.long	TGTR_1
.Lcpi_end3:
	.size	__arm_cp.0_3, .Lcpi_end3-__arm_cp.0_3
__arm_cp.0_4:
	.long	TGTR_2
.Lcpi_end4:
	.size	__arm_cp.0_4, .Lcpi_end4-__arm_cp.0_4
__arm_cp.0_5:
	.long	TGTR_3
.Lcpi_end5:
	.size	__arm_cp.0_5, .Lcpi_end5-__arm_cp.0_5
__arm_cp.0_6:
	.long	g_120s_ticks
.Lcpi_end6:
	.size	__arm_cp.0_6, .Lcpi_end6-__arm_cp.0_6
__arm_cp.0_7:
	.long	TCFR_1
.Lcpi_end7:
	.size	__arm_cp.0_7, .Lcpi_end7-__arm_cp.0_7
__arm_cp.0_8:
	.long	TCFR_2
.Lcpi_end8:
	.size	__arm_cp.0_8, .Lcpi_end8-__arm_cp.0_8
__arm_cp.0_9:
	.long	TCFR_3
.Lcpi_end9:
	.size	__arm_cp.0_9, .Lcpi_end9-__arm_cp.0_9
__arm_cp.0_10:
	.long	ASCR_1
.Lcpi_end10:
	.size	__arm_cp.0_10, .Lcpi_end10-__arm_cp.0_10
__arm_cp.0_11:
	.long	ASCR_2
.Lcpi_end11:
	.size	__arm_cp.0_11, .Lcpi_end11-__arm_cp.0_11
__arm_cp.0_12:
	.long	g_SSBPAC_FAIL_ticks
.Lcpi_end12:
	.size	__arm_cp.0_12, .Lcpi_end12-__arm_cp.0_12
.Lfunc_end0:
	.size	interlock, .Lfunc_end0-interlock
	.cfi_endproc
	.cantunwind
	.fnend
                                        @ -- End function
	.section	.text.interlock_set_defaults,"ax",%progbits
	.hidden	interlock_set_defaults          @ -- Begin function interlock_set_defaults
	.globl	interlock_set_defaults
	.p2align	2
	.type	interlock_set_defaults,%function
	.code	16                              @ @interlock_set_defaults
	.thumb_func
interlock_set_defaults:
.Lfunc_begin1:
	.loc	2 251 0 is_stmt 1               @ source/interlock.c:251:0
	.fnstart
	.cfi_startproc
@ %bb.0:
	.save	{r4, r5, r6, r7, lr}
	push	{r4, r5, r6, r7, lr}
	.cfi_def_cfa_offset 20
	.cfi_offset lr, -4
	.cfi_offset r7, -8
	.cfi_offset r6, -12
	.cfi_offset r5, -16
	.cfi_offset r4, -20
	.pad	#136
	sub	sp, #136
	.cfi_def_cfa_offset 156
.Ltmp51:
	.loc	2 252 15 prologue_end           @ source/interlock.c:252:15
	ldr	r0, __arm_cp.1_0
	str	r0, [sp, #132]
	.loc	2 253 16                        @ source/interlock.c:253:16
	ldr	r0, __arm_cp.1_1
	str	r0, [sp, #128]
	.loc	2 254 15                        @ source/interlock.c:254:15
	ldr	r0, __arm_cp.1_2
	str	r0, [sp, #124]
	.loc	2 256 2                         @ source/interlock.c:256:2
	ldr	r1, [sp, #132]
	.loc	2 256 11 is_stmt 0              @ source/interlock.c:256:11
	ldrb	r0, [r1]
	movs	r2, #252
	ands	r0, r2
	adds	r0, r0, #1
	strb	r0, [r1]
	.loc	2 257 2 is_stmt 1               @ source/interlock.c:257:2
	ldr	r1, [sp, #132]
	.loc	2 257 13 is_stmt 0              @ source/interlock.c:257:13
	ldrb	r0, [r1]
	movs	r5, #243
	ands	r0, r5
	adds	r0, #8
	strb	r0, [r1]
	.loc	2 258 2 is_stmt 1               @ source/interlock.c:258:2
	ldr	r1, [sp, #132]
	.loc	2 258 11 is_stmt 0              @ source/interlock.c:258:11
	ldrb	r0, [r1]
	movs	r4, #207
	ands	r0, r4
	adds	r0, #16
	strb	r0, [r1]
	.loc	2 259 2 is_stmt 1               @ source/interlock.c:259:2
	ldr	r1, [sp, #132]
	.loc	2 259 13 is_stmt 0              @ source/interlock.c:259:13
	ldrb	r0, [r1]
	movs	r3, #63
	ands	r0, r3
	adds	r0, #128
	strb	r0, [r1]
	.loc	2 260 2 is_stmt 1               @ source/interlock.c:260:2
	ldr	r1, [sp, #132]
	.loc	2 260 11 is_stmt 0              @ source/interlock.c:260:11
	ldrb	r0, [r1, #1]
	ands	r0, r2
	adds	r0, r0, #1
	strb	r0, [r1, #1]
	.loc	2 263 2 is_stmt 1               @ source/interlock.c:263:2
	ldr	r1, [sp, #128]
	.loc	2 263 16 is_stmt 0              @ source/interlock.c:263:16
	ldrb	r0, [r1]
	movs	r6, #254
	ands	r0, r6
	strb	r0, [r1]
	.loc	2 264 2 is_stmt 1               @ source/interlock.c:264:2
	ldr	r1, [sp, #128]
	.loc	2 264 17 is_stmt 0              @ source/interlock.c:264:17
	ldrb	r0, [r1]
	movs	r6, #2
	str	r6, [sp, #116]                  @ 4-byte Spill
	orrs	r0, r6
	strb	r0, [r1]
	.loc	2 265 2 is_stmt 1               @ source/interlock.c:265:2
	ldr	r1, [sp, #128]
	.loc	2 265 14 is_stmt 0              @ source/interlock.c:265:14
	ldrb	r0, [r1]
	movs	r7, #4
	orrs	r0, r7
	strb	r0, [r1]
	.loc	2 266 2 is_stmt 1               @ source/interlock.c:266:2
	ldr	r1, [sp, #128]
	.loc	2 266 13 is_stmt 0              @ source/interlock.c:266:13
	ldrb	r0, [r1]
	movs	r6, #8
	orrs	r0, r6
	strb	r0, [r1]
	.loc	2 267 2 is_stmt 1               @ source/interlock.c:267:2
	ldr	r0, [sp, #128]
	.loc	2 267 14 is_stmt 0              @ source/interlock.c:267:14
	str	r0, [sp]                        @ 4-byte Spill
	ldrb	r0, [r0]
	movs	r1, #16
	str	r1, [sp, #80]                   @ 4-byte Spill
	orrs	r0, r1
	ldr	r1, [sp]                        @ 4-byte Reload
	strb	r0, [r1]
	.loc	2 268 2 is_stmt 1               @ source/interlock.c:268:2
	ldr	r0, [sp, #128]
	.loc	2 268 17 is_stmt 0              @ source/interlock.c:268:17
	str	r0, [sp, #4]                    @ 4-byte Spill
	ldrb	r0, [r0]
	movs	r1, #32
	str	r1, [sp, #56]                   @ 4-byte Spill
	orrs	r0, r1
	ldr	r1, [sp, #4]                    @ 4-byte Reload
	strb	r0, [r1]
	.loc	2 269 2 is_stmt 1               @ source/interlock.c:269:2
	ldr	r0, [sp, #128]
	.loc	2 269 14 is_stmt 0              @ source/interlock.c:269:14
	str	r0, [sp, #8]                    @ 4-byte Spill
	ldrb	r0, [r0]
	movs	r1, #64
	str	r1, [sp, #92]                   @ 4-byte Spill
	orrs	r0, r1
	ldr	r1, [sp, #8]                    @ 4-byte Reload
	strb	r0, [r1]
	.loc	2 270 2 is_stmt 1               @ source/interlock.c:270:2
	ldr	r0, [sp, #128]
	.loc	2 270 13 is_stmt 0              @ source/interlock.c:270:13
	str	r0, [sp, #12]                   @ 4-byte Spill
	ldrb	r0, [r0]
	movs	r1, #128
	str	r1, [sp, #100]                  @ 4-byte Spill
	orrs	r0, r1
	ldr	r1, [sp, #12]                   @ 4-byte Reload
	strb	r0, [r1]
	.loc	2 271 2 is_stmt 1               @ source/interlock.c:271:2
	ldr	r0, [sp, #128]
	.loc	2 271 14 is_stmt 0              @ source/interlock.c:271:14
	str	r0, [sp, #16]                   @ 4-byte Spill
	ldrb	r0, [r0, #1]
	movs	r1, #1
	str	r1, [sp, #108]                  @ 4-byte Spill
	orrs	r0, r1
	ldr	r1, [sp, #16]                   @ 4-byte Reload
	strb	r0, [r1, #1]
	.loc	2 272 2 is_stmt 1               @ source/interlock.c:272:2
	ldr	r0, [sp, #128]
	.loc	2 272 14 is_stmt 0              @ source/interlock.c:272:14
	str	r0, [sp, #20]                   @ 4-byte Spill
	ldrb	r0, [r0, #1]
	movs	r1, #253
	ands	r0, r1
	ldr	r1, [sp, #20]                   @ 4-byte Reload
	strb	r0, [r1, #1]
	.loc	2 273 2 is_stmt 1               @ source/interlock.c:273:2
	ldr	r0, [sp, #128]
	.loc	2 273 16 is_stmt 0              @ source/interlock.c:273:16
	str	r0, [sp, #24]                   @ 4-byte Spill
	ldrb	r0, [r0, #1]
	movs	r1, #251
	ands	r0, r1
	ldr	r1, [sp, #24]                   @ 4-byte Reload
	strb	r0, [r1, #1]
	.loc	2 274 2 is_stmt 1               @ source/interlock.c:274:2
	ldr	r1, [sp, #128]
	.loc	2 274 13 is_stmt 0              @ source/interlock.c:274:13
	ldrb	r0, [r1, #1]
	orrs	r0, r6
	strb	r0, [r1, #1]
	.loc	2 275 2 is_stmt 1               @ source/interlock.c:275:2
	ldr	r1, [sp, #80]                   @ 4-byte Reload
	ldr	r0, [sp, #128]
	.loc	2 275 13 is_stmt 0              @ source/interlock.c:275:13
	str	r0, [sp, #28]                   @ 4-byte Spill
	ldrb	r0, [r0, #1]
	orrs	r0, r1
	ldr	r1, [sp, #28]                   @ 4-byte Reload
	strb	r0, [r1, #1]
	.loc	2 276 2 is_stmt 1               @ source/interlock.c:276:2
	ldr	r1, [sp, #56]                   @ 4-byte Reload
	ldr	r0, [sp, #128]
	.loc	2 276 11 is_stmt 0              @ source/interlock.c:276:11
	str	r0, [sp, #32]                   @ 4-byte Spill
	ldrb	r0, [r0, #1]
	orrs	r0, r1
	ldr	r1, [sp, #32]                   @ 4-byte Reload
	strb	r0, [r1, #1]
	.loc	2 277 2 is_stmt 1               @ source/interlock.c:277:2
	ldr	r1, [sp, #92]                   @ 4-byte Reload
	ldr	r0, [sp, #128]
	.loc	2 277 10 is_stmt 0              @ source/interlock.c:277:10
	str	r0, [sp, #36]                   @ 4-byte Spill
	ldrb	r0, [r0, #1]
	orrs	r0, r1
	ldr	r1, [sp, #36]                   @ 4-byte Reload
	strb	r0, [r1, #1]
	.loc	2 278 2 is_stmt 1               @ source/interlock.c:278:2
	ldr	r1, [sp, #100]                  @ 4-byte Reload
	ldr	r0, [sp, #128]
	.loc	2 278 14 is_stmt 0              @ source/interlock.c:278:14
	str	r0, [sp, #40]                   @ 4-byte Spill
	ldrb	r0, [r0, #1]
	orrs	r0, r1
	ldr	r1, [sp, #40]                   @ 4-byte Reload
	strb	r0, [r1, #1]
	.loc	2 279 2 is_stmt 1               @ source/interlock.c:279:2
	ldr	r1, [sp, #108]                  @ 4-byte Reload
	ldr	r0, [sp, #128]
	.loc	2 279 16 is_stmt 0              @ source/interlock.c:279:16
	str	r0, [sp, #44]                   @ 4-byte Spill
	ldrb	r0, [r0, #2]
	orrs	r0, r1
	ldr	r1, [sp, #44]                   @ 4-byte Reload
	strb	r0, [r1, #2]
	.loc	2 280 2 is_stmt 1               @ source/interlock.c:280:2
	ldr	r1, [sp, #116]                  @ 4-byte Reload
	ldr	r0, [sp, #128]
	.loc	2 280 13 is_stmt 0              @ source/interlock.c:280:13
	str	r0, [sp, #48]                   @ 4-byte Spill
	ldrb	r0, [r0, #2]
	orrs	r0, r1
	ldr	r1, [sp, #48]                   @ 4-byte Reload
	strb	r0, [r1, #2]
	.loc	2 281 2 is_stmt 1               @ source/interlock.c:281:2
	ldr	r1, [sp, #128]
	.loc	2 281 13 is_stmt 0              @ source/interlock.c:281:13
	ldrb	r0, [r1, #2]
	orrs	r0, r7
	strb	r0, [r1, #2]
	.loc	2 282 2 is_stmt 1               @ source/interlock.c:282:2
	ldr	r1, [sp, #128]
	.loc	2 282 14 is_stmt 0              @ source/interlock.c:282:14
	ldrb	r0, [r1, #2]
	orrs	r0, r6
	strb	r0, [r1, #2]
	.loc	2 283 2 is_stmt 1               @ source/interlock.c:283:2
	ldr	r1, [sp, #80]                   @ 4-byte Reload
	ldr	r0, [sp, #128]
	.loc	2 283 13 is_stmt 0              @ source/interlock.c:283:13
	str	r0, [sp, #52]                   @ 4-byte Spill
	ldrb	r0, [r0, #2]
	orrs	r0, r1
	ldr	r1, [sp, #52]                   @ 4-byte Reload
	strb	r0, [r1, #2]
	.loc	2 284 2 is_stmt 1               @ source/interlock.c:284:2
	ldr	r1, [sp, #56]                   @ 4-byte Reload
	ldr	r0, [sp, #128]
	.loc	2 284 16 is_stmt 0              @ source/interlock.c:284:16
	str	r0, [sp, #60]                   @ 4-byte Spill
	ldrb	r0, [r0, #2]
	orrs	r0, r1
	ldr	r1, [sp, #60]                   @ 4-byte Reload
	strb	r0, [r1, #2]
	.loc	2 285 2 is_stmt 1               @ source/interlock.c:285:2
	ldr	r0, [sp, #128]
	.loc	2 285 18 is_stmt 0              @ source/interlock.c:285:18
	str	r0, [sp, #64]                   @ 4-byte Spill
	ldrb	r0, [r0, #2]
	movs	r1, #191
	ands	r0, r1
	ldr	r1, [sp, #64]                   @ 4-byte Reload
	strb	r0, [r1, #2]
	.loc	2 286 2 is_stmt 1               @ source/interlock.c:286:2
	ldr	r1, [sp, #100]                  @ 4-byte Reload
	ldr	r0, [sp, #128]
	.loc	2 286 17 is_stmt 0              @ source/interlock.c:286:17
	str	r0, [sp, #68]                   @ 4-byte Spill
	ldrb	r0, [r0, #2]
	orrs	r0, r1
	ldr	r1, [sp, #68]                   @ 4-byte Reload
	strb	r0, [r1, #2]
	.loc	2 287 2 is_stmt 1               @ source/interlock.c:287:2
	ldr	r1, [sp, #108]                  @ 4-byte Reload
	ldr	r0, [sp, #128]
	.loc	2 287 19 is_stmt 0              @ source/interlock.c:287:19
	str	r0, [sp, #72]                   @ 4-byte Spill
	ldrb	r0, [r0, #3]
	orrs	r0, r1
	ldr	r1, [sp, #72]                   @ 4-byte Reload
	strb	r0, [r1, #3]
	.loc	2 288 2 is_stmt 1               @ source/interlock.c:288:2
	ldr	r1, [sp, #116]                  @ 4-byte Reload
	ldr	r0, [sp, #128]
	.loc	2 288 13 is_stmt 0              @ source/interlock.c:288:13
	str	r0, [sp, #76]                   @ 4-byte Spill
	ldrb	r0, [r0, #3]
	orrs	r0, r1
	ldr	r1, [sp, #76]                   @ 4-byte Reload
	strb	r0, [r1, #3]
	.loc	2 289 2 is_stmt 1               @ source/interlock.c:289:2
	ldr	r1, [sp, #128]
	.loc	2 289 13 is_stmt 0              @ source/interlock.c:289:13
	ldrb	r0, [r1, #3]
	orrs	r0, r7
	strb	r0, [r1, #3]
	.loc	2 290 2 is_stmt 1               @ source/interlock.c:290:2
	ldr	r1, [sp, #128]
	.loc	2 290 14 is_stmt 0              @ source/interlock.c:290:14
	ldrb	r0, [r1, #3]
	orrs	r0, r6
	strb	r0, [r1, #3]
	.loc	2 291 2 is_stmt 1               @ source/interlock.c:291:2
	ldr	r1, [sp, #80]                   @ 4-byte Reload
	ldr	r0, [sp, #128]
	.loc	2 291 14 is_stmt 0              @ source/interlock.c:291:14
	str	r0, [sp, #84]                   @ 4-byte Spill
	ldrb	r0, [r0, #3]
	orrs	r0, r1
	ldr	r1, [sp, #84]                   @ 4-byte Reload
	strb	r0, [r1, #3]
	.loc	2 292 2 is_stmt 1               @ source/interlock.c:292:2
	ldr	r0, [sp, #128]
	.loc	2 292 12 is_stmt 0              @ source/interlock.c:292:12
	str	r0, [sp, #88]                   @ 4-byte Spill
	ldrb	r0, [r0, #3]
	movs	r1, #223
	ands	r0, r1
	ldr	r1, [sp, #88]                   @ 4-byte Reload
	strb	r0, [r1, #3]
	.loc	2 293 2 is_stmt 1               @ source/interlock.c:293:2
	ldr	r1, [sp, #92]                   @ 4-byte Reload
	ldr	r0, [sp, #128]
	.loc	2 293 22 is_stmt 0              @ source/interlock.c:293:22
	str	r0, [sp, #96]                   @ 4-byte Spill
	ldrb	r0, [r0, #3]
	orrs	r0, r1
	ldr	r1, [sp, #96]                   @ 4-byte Reload
	strb	r0, [r1, #3]
	.loc	2 294 2 is_stmt 1               @ source/interlock.c:294:2
	ldr	r1, [sp, #100]                  @ 4-byte Reload
	ldr	r0, [sp, #128]
	.loc	2 294 13 is_stmt 0              @ source/interlock.c:294:13
	str	r0, [sp, #104]                  @ 4-byte Spill
	ldrb	r0, [r0, #3]
	orrs	r0, r1
	ldr	r1, [sp, #104]                  @ 4-byte Reload
	strb	r0, [r1, #3]
	.loc	2 295 2 is_stmt 1               @ source/interlock.c:295:2
	ldr	r1, [sp, #108]                  @ 4-byte Reload
	ldr	r0, [sp, #128]
	.loc	2 295 18 is_stmt 0              @ source/interlock.c:295:18
	str	r0, [sp, #112]                  @ 4-byte Spill
	ldrb	r0, [r0, #4]
	orrs	r0, r1
	ldr	r1, [sp, #112]                  @ 4-byte Reload
	strb	r0, [r1, #4]
	.loc	2 296 2 is_stmt 1               @ source/interlock.c:296:2
	ldr	r1, [sp, #116]                  @ 4-byte Reload
	ldr	r0, [sp, #128]
	.loc	2 296 18 is_stmt 0              @ source/interlock.c:296:18
	str	r0, [sp, #120]                  @ 4-byte Spill
	ldrb	r0, [r0, #4]
	orrs	r0, r1
	ldr	r1, [sp, #120]                  @ 4-byte Reload
	strb	r0, [r1, #4]
	.loc	2 297 2 is_stmt 1               @ source/interlock.c:297:2
	ldr	r1, [sp, #128]
	.loc	2 297 15 is_stmt 0              @ source/interlock.c:297:15
	ldrb	r0, [r1, #4]
	orrs	r0, r7
	strb	r0, [r1, #4]
	.loc	2 298 2 is_stmt 1               @ source/interlock.c:298:2
	ldr	r1, [sp, #128]
	.loc	2 298 25 is_stmt 0              @ source/interlock.c:298:25
	ldrb	r0, [r1, #4]
	orrs	r0, r6
	strb	r0, [r1, #4]
	.loc	2 299 2 is_stmt 1               @ source/interlock.c:299:2
	ldr	r1, [sp, #128]
	.loc	2 299 23 is_stmt 0              @ source/interlock.c:299:23
	ldrb	r0, [r1, #4]
	ands	r0, r4
	adds	r0, #16
	strb	r0, [r1, #4]
	.loc	2 300 2 is_stmt 1               @ source/interlock.c:300:2
	ldr	r1, [sp, #128]
	.loc	2 300 23 is_stmt 0              @ source/interlock.c:300:23
	ldrb	r0, [r1, #4]
	ands	r0, r3
	adds	r0, #64
	strb	r0, [r1, #4]
	.loc	2 303 2 is_stmt 1               @ source/interlock.c:303:2
	ldr	r1, [sp, #124]
	.loc	2 303 12 is_stmt 0              @ source/interlock.c:303:12
	ldrb	r0, [r1]
	ands	r0, r2
	strb	r0, [r1]
	.loc	2 304 2 is_stmt 1               @ source/interlock.c:304:2
	ldr	r1, [sp, #124]
	.loc	2 304 12 is_stmt 0              @ source/interlock.c:304:12
	ldrb	r0, [r1]
	ands	r0, r5
	strb	r0, [r1]
	.loc	2 305 2 is_stmt 1               @ source/interlock.c:305:2
	ldr	r1, [sp, #124]
	.loc	2 305 12 is_stmt 0              @ source/interlock.c:305:12
	ldrb	r0, [r1]
	ands	r0, r4
	strb	r0, [r1]
	.loc	2 306 2 is_stmt 1               @ source/interlock.c:306:2
	ldr	r1, [sp, #124]
	.loc	2 306 12 is_stmt 0              @ source/interlock.c:306:12
	ldrb	r0, [r1]
	ands	r0, r3
	strb	r0, [r1]
	.loc	2 307 2 is_stmt 1               @ source/interlock.c:307:2
	ldr	r1, [sp, #124]
	.loc	2 307 12 is_stmt 0              @ source/interlock.c:307:12
	ldrb	r0, [r1, #1]
	ands	r0, r2
	strb	r0, [r1, #1]
	.loc	2 308 2 is_stmt 1               @ source/interlock.c:308:2
	ldr	r1, [sp, #124]
	.loc	2 308 14 is_stmt 0              @ source/interlock.c:308:14
	ldrb	r0, [r1, #1]
	ands	r0, r5
	strb	r0, [r1, #1]
	.loc	2 309 2 is_stmt 1               @ source/interlock.c:309:2
	ldr	r1, [sp, #124]
	.loc	2 309 12 is_stmt 0              @ source/interlock.c:309:12
	ldrb	r0, [r1, #1]
	ands	r0, r4
	strb	r0, [r1, #1]
	.loc	2 310 2 is_stmt 1               @ source/interlock.c:310:2
	ldr	r1, [sp, #124]
	.loc	2 310 10 is_stmt 0              @ source/interlock.c:310:10
	ldrb	r0, [r1, #1]
	ands	r0, r3
	strb	r0, [r1, #1]
	.loc	2 311 2 is_stmt 1               @ source/interlock.c:311:2
	ldr	r1, [sp, #124]
	.loc	2 311 11 is_stmt 0              @ source/interlock.c:311:11
	ldrb	r0, [r1, #2]
	ands	r0, r2
	strb	r0, [r1, #2]
	.loc	2 312 2 is_stmt 1               @ source/interlock.c:312:2
	ldr	r1, [sp, #124]
	.loc	2 312 14 is_stmt 0              @ source/interlock.c:312:14
	ldrb	r0, [r1, #2]
	ands	r0, r5
	strb	r0, [r1, #2]
	.loc	2 313 2 is_stmt 1               @ source/interlock.c:313:2
	ldr	r1, [sp, #124]
	.loc	2 313 10 is_stmt 0              @ source/interlock.c:313:10
	ldrb	r0, [r1, #2]
	ands	r0, r4
	strb	r0, [r1, #2]
	.loc	2 314 2 is_stmt 1               @ source/interlock.c:314:2
	ldr	r1, [sp, #124]
	.loc	2 314 11 is_stmt 0              @ source/interlock.c:314:11
	ldrb	r0, [r1, #2]
	ands	r0, r3
	strb	r0, [r1, #2]
	.loc	2 315 2 is_stmt 1               @ source/interlock.c:315:2
	ldr	r1, [sp, #124]
	.loc	2 315 10 is_stmt 0              @ source/interlock.c:315:10
	ldrb	r0, [r1, #3]
	ands	r0, r2
	strb	r0, [r1, #3]
	.loc	2 316 2 is_stmt 1               @ source/interlock.c:316:2
	ldr	r1, [sp, #124]
	.loc	2 316 10 is_stmt 0              @ source/interlock.c:316:10
	ldrb	r0, [r1, #3]
	ands	r0, r5
	strb	r0, [r1, #3]
	.loc	2 317 2 is_stmt 1               @ source/interlock.c:317:2
	ldr	r1, [sp, #124]
	.loc	2 317 11 is_stmt 0              @ source/interlock.c:317:11
	ldrb	r0, [r1, #3]
	ands	r0, r4
	strb	r0, [r1, #3]
	.loc	2 318 2 is_stmt 1               @ source/interlock.c:318:2
	ldr	r1, [sp, #124]
	.loc	2 318 11 is_stmt 0              @ source/interlock.c:318:11
	ldrb	r0, [r1, #3]
	ands	r0, r3
	strb	r0, [r1, #3]
	.loc	2 319 2 is_stmt 1               @ source/interlock.c:319:2
	ldr	r1, [sp, #124]
	.loc	2 319 12 is_stmt 0              @ source/interlock.c:319:12
	ldrb	r0, [r1, #4]
	ands	r0, r2
	strb	r0, [r1, #4]
	.loc	2 320 2 is_stmt 1               @ source/interlock.c:320:2
	ldr	r1, [sp, #124]
	.loc	2 320 13 is_stmt 0              @ source/interlock.c:320:13
	ldrb	r0, [r1, #4]
	ands	r0, r5
	strb	r0, [r1, #4]
	.loc	2 321 2 is_stmt 1               @ source/interlock.c:321:2
	ldr	r1, [sp, #124]
	.loc	2 321 12 is_stmt 0              @ source/interlock.c:321:12
	ldrb	r0, [r1, #4]
	ands	r0, r4
	strb	r0, [r1, #4]
	.loc	2 322 2 is_stmt 1               @ source/interlock.c:322:2
	ldr	r1, [sp, #124]
	.loc	2 322 12 is_stmt 0              @ source/interlock.c:322:12
	ldrb	r0, [r1, #4]
	ands	r0, r3
	strb	r0, [r1, #4]
	.loc	2 323 2 is_stmt 1               @ source/interlock.c:323:2
	ldr	r1, [sp, #124]
	.loc	2 323 12 is_stmt 0              @ source/interlock.c:323:12
	ldrb	r0, [r1, #5]
	ands	r0, r2
	strb	r0, [r1, #5]
	.loc	2 324 2 is_stmt 1               @ source/interlock.c:324:2
	ldr	r1, [sp, #124]
	.loc	2 324 12 is_stmt 0              @ source/interlock.c:324:12
	ldrb	r0, [r1, #5]
	movs	r2, #3
	ands	r0, r2
	strb	r0, [r1, #5]
	.loc	2 325 1 epilogue_begin is_stmt 1 @ source/interlock.c:325:1
	add	sp, #136
	pop	{r4, r5, r6, r7, pc}
.Ltmp52:
	.loc	2 0 1 is_stmt 0                 @ :0:1
.Ltmp53:
	.p2align	2
@ %bb.1:
__arm_cp.1_0:
	.long	vo_u
.Lcpi_end13:
	.size	__arm_cp.1_0, .Lcpi_end13-__arm_cp.1_0
__arm_cp.1_1:
	.long	nvo_u
.Lcpi_end14:
	.size	__arm_cp.1_1, .Lcpi_end14-__arm_cp.1_1
__arm_cp.1_2:
	.long	lo_u
.Lcpi_end15:
	.size	__arm_cp.1_2, .Lcpi_end15-__arm_cp.1_2
.Lfunc_end1:
	.size	interlock_set_defaults, .Lfunc_end1-interlock_set_defaults
	.cfi_endproc
	.cantunwind
	.fnend
                                        @ -- End function
	.hidden	vo_u                            @ @vo_u
	.type	vo_u,%object
	.section	.bss.vo_u,"aw",%nobits
	.globl	vo_u
vo_u:
	.zero	2
	.size	vo_u, 2

	.hidden	nvo_u                           @ @nvo_u
	.type	nvo_u,%object
	.section	.bss.nvo_u,"aw",%nobits
	.globl	nvo_u
nvo_u:
	.zero	5
	.size	nvo_u, 5

	.hidden	TGTR_1                          @ @TGTR_1
	.type	TGTR_1,%object
	.section	.bss.TGTR_1,"aw",%nobits
	.globl	TGTR_1
TGTR_1:
	.byte	0                               @ 0x0
	.size	TGTR_1, 1

	.hidden	TGTR_2                          @ @TGTR_2
	.type	TGTR_2,%object
	.section	.bss.TGTR_2,"aw",%nobits
	.globl	TGTR_2
TGTR_2:
	.byte	0                               @ 0x0
	.size	TGTR_2, 1

	.hidden	TGTR_3                          @ @TGTR_3
	.type	TGTR_3,%object
	.section	.bss.TGTR_3,"aw",%nobits
	.globl	TGTR_3
TGTR_3:
	.byte	0                               @ 0x0
	.size	TGTR_3, 1

	.hidden	TCFR_1                          @ @TCFR_1
	.type	TCFR_1,%object
	.section	.bss.TCFR_1,"aw",%nobits
	.globl	TCFR_1
TCFR_1:
	.byte	0                               @ 0x0
	.size	TCFR_1, 1

	.hidden	TCFR_2                          @ @TCFR_2
	.type	TCFR_2,%object
	.section	.bss.TCFR_2,"aw",%nobits
	.globl	TCFR_2
TCFR_2:
	.byte	0                               @ 0x0
	.size	TCFR_2, 1

	.hidden	TCFR_3                          @ @TCFR_3
	.type	TCFR_3,%object
	.section	.bss.TCFR_3,"aw",%nobits
	.globl	TCFR_3
TCFR_3:
	.byte	0                               @ 0x0
	.size	TCFR_3, 1

	.hidden	ASCR_1                          @ @ASCR_1
	.type	ASCR_1,%object
	.section	.bss.ASCR_1,"aw",%nobits
	.globl	ASCR_1
ASCR_1:
	.byte	0                               @ 0x0
	.size	ASCR_1, 1

	.hidden	ASCR_2                          @ @ASCR_2
	.type	ASCR_2,%object
	.section	.bss.ASCR_2,"aw",%nobits
	.globl	ASCR_2
ASCR_2:
	.byte	0                               @ 0x0
	.size	ASCR_2, 1

	.hidden	lo_u                            @ @lo_u
	.type	lo_u,%object
	.section	.bss.lo_u,"aw",%nobits
	.globl	lo_u
lo_u:
	.zero	6
	.size	lo_u, 6

	.hidden	vi_u                            @ @vi_u
	.type	vi_u,%object
	.section	.bss.vi_u,"aw",%nobits
	.globl	vi_u
vi_u:
	.zero	5
	.size	vi_u, 5

	.hidden	vi_oe_u                         @ @vi_oe_u
	.type	vi_oe_u,%object
	.section	.bss.vi_oe_u,"aw",%nobits
	.globl	vi_oe_u
vi_oe_u:
	.zero	5
	.size	vi_oe_u, 5

	.hidden	lo_oe_u                         @ @lo_oe_u
	.type	lo_oe_u,%object
	.section	.bss.lo_oe_u,"aw",%nobits
	.globl	lo_oe_u
lo_oe_u:
	.zero	6
	.size	lo_oe_u, 6

	.hidden	lo_in_s                         @ @lo_in_s
	.type	lo_in_s,%object
	.section	.bss.lo_in_s,"aw",%nobits
	.globl	lo_in_s
lo_in_s:
	.zero	6
	.size	lo_in_s, 6

	.hidden	vo_oe_u                         @ @vo_oe_u
	.type	vo_oe_u,%object
	.section	.bss.vo_oe_u,"aw",%nobits
	.globl	vo_oe_u
vo_oe_u:
	.zero	2
	.size	vo_oe_u, 2

	.hidden	vo_in_u                         @ @vo_in_u
	.type	vo_in_u,%object
	.section	.bss.vo_in_u,"aw",%nobits
	.globl	vo_in_u
vo_in_u:
	.zero	2
	.size	vo_in_u, 2

	.section	".note.GNU-stack","",%progbits
	.eabi_attribute	30, 6	@ Tag_ABI_optimization_goals
	.ARM_attribute	16, 1	@ Tag_AV_eba