	.text
	.syntax unified
	.eabi_attribute	67, "2.09"	@ Tag_conformance
	.cpu	cortex-m23
	.eabi_attribute	6, 16	@ Tag_CPU_arch
	.eabi_attribute	7, 77	@ Tag_CPU_arch_profile
	.eabi_attribute	8, 0	@ Tag_ARM_ISA_use
	.eabi_attribute	9, 3	@ Tag_THUMB_ISA_use
	.eabi_attribute	34, 0	@ Tag_CPU_unaligned_access
	.eabi_attribute	17, 1	@ Tag_ABI_PCS_GOT_use
	.eabi_attribute	20, 2	@ Tag_ABI_FP_denormal
	.eabi_attribute	21, 0	@ Tag_ABI_FP_exceptions
	.eabi_attribute	23, 1	@ Tag_ABI_FP_number_model
	.eabi_attribute	24, 1	@ Tag_ABI_align_needed
	.eabi_attribute	25, 1	@ Tag_ABI_align_preserved
	.eabi_attribute	38, 1	@ Tag_ABI_FP_16bit_format
	.eabi_attribute	18, 4	@ Tag_ABI_PCS_wchar_t
	.eabi_attribute	26, 2	@ Tag_ABI_enum_size
	.eabi_attribute	14, 0	@ Tag_ABI_PCS_R9_use
	.file	"interlock_DL.c"
	.file	1 "C:\\Users\\Anaya\\AppData\\Local\\Keil_v5\\ARM\\ARMCLANG\\bin\\..\\include" "stdint.h"
	.file	2 "D:\\work\\dheeraj\\local\\CEL\\CCC\\CCC_CPU123\\Code" "source/interlock_DL.c"
	.section	.text.interlock_DL,"ax",%progbits
	.hidden	interlock_DL                    @ -- Begin function interlock_DL
	.globl	interlock_DL
	.p2align	2
	.type	interlock_DL,%function
	.code	16                              @ @interlock_DL
	.thumb_func
interlock_DL:
.Lfunc_begin0:
	.loc	2 86 0                          @ source/interlock_DL.c:86:0
	.fnstart
	.cfi_sections .debug_frame
	.cfi_startproc
@ %bb.0:
	.save	{r4, r5, r6, r7, lr}
	push	{r4, r5, r6, r7, lr}
	.cfi_def_cfa_offset 20
	.cfi_offset lr, -4
	.cfi_offset r7, -8
	.cfi_offset r6, -12
	.cfi_offset r5, -16
	.cfi_offset r4, -20
	.pad	#396
	sub	sp, #396
	.cfi_def_cfa_offset 416
.Ltmp0:
	.loc	2 92 15 prologue_end            @ source/interlock_DL.c:92:15
	ldr	r0, __arm_cp.0_20
	str	r0, [sp, #388]
	.loc	2 93 15                         @ source/interlock_DL.c:93:15
	ldr	r0, __arm_cp.0_21
	str	r0, [sp, #384]
	.loc	2 94 16                         @ source/interlock_DL.c:94:16
	ldr	r0, __arm_cp.0_22
	str	r0, [sp, #380]
	.loc	2 95 15                         @ source/interlock_DL.c:95:15
	ldr	r0, __arm_cp.0_23
	str	r0, [sp, #376]
	.loc	2 96 15                         @ source/interlock_DL.c:96:15
	ldr	r0, __arm_cp.0_24
	str	r0, [sp, #372]
	.loc	2 97 18                         @ source/interlock_DL.c:97:18
	ldr	r0, __arm_cp.0_25
	str	r0, [sp, #368]
	.loc	2 100 18                        @ source/interlock_DL.c:100:18
	ldr	r0, __arm_cp.0_26
	str	r0, [sp, #364]
	.loc	2 101 15                        @ source/interlock_DL.c:101:15
	ldr	r0, __arm_cp.0_27
	str	r0, [sp, #360]
	.loc	2 102 15                        @ source/interlock_DL.c:102:15
	ldr	r0, __arm_cp.0_28
	str	r0, [sp, #356]
	.loc	2 104 9                         @ source/interlock_DL.c:104:9
	ldr	r0, .LCPI0_29
	ldrb	r0, [r0]
	.loc	2 104 2 is_stmt 0               @ source/interlock_DL.c:104:2
	str	r0, [sp, #352]                  @ 4-byte Spill
	cbz	r0, .LBB0_4
	b	.LBB0_1
.LBB0_1:
	ldr	r0, [sp, #352]                  @ 4-byte Reload
	cmp	r0, #1
	bne	.LBB0_2
	b	.LBB0_5
.LBB0_2:
	ldr	r0, [sp, #352]                  @ 4-byte Reload
	cmp	r0, #2
	bne	.LBB0_3
	b	.LBB0_6
.LBB0_3:
	bl	.LBB0_221
.LBB0_4:
.Ltmp1:
	.loc	2 106 4 is_stmt 1               @ source/interlock_DL.c:106:4
	ldr	r1, [sp, #372]
	.loc	2 106 14 is_stmt 0              @ source/interlock_DL.c:106:14
	ldrb	r0, [r1]
	movs	r2, #252
	ands	r0, r2
	adds	r0, r0, #1
	strb	r0, [r1]
	.loc	2 107 4 is_stmt 1               @ source/interlock_DL.c:107:4
	ldr	r1, [sp, #372]
	.loc	2 107 14 is_stmt 0              @ source/interlock_DL.c:107:14
	ldrb	r0, [r1]
	movs	r5, #243
	ands	r0, r5
	adds	r0, r0, #4
	strb	r0, [r1]
	.loc	2 108 4 is_stmt 1               @ source/interlock_DL.c:108:4
	ldr	r1, [sp, #372]
	.loc	2 108 14 is_stmt 0              @ source/interlock_DL.c:108:14
	ldrb	r0, [r1]
	movs	r4, #207
	ands	r0, r4
	adds	r0, #16
	strb	r0, [r1]
	.loc	2 109 4 is_stmt 1               @ source/interlock_DL.c:109:4
	ldr	r1, [sp, #372]
	.loc	2 109 14 is_stmt 0              @ source/interlock_DL.c:109:14
	ldrb	r0, [r1]
	movs	r3, #63
	ands	r0, r3
	adds	r0, #64
	strb	r0, [r1]
	.loc	2 110 4 is_stmt 1               @ source/interlock_DL.c:110:4
	ldr	r1, [sp, #372]
	.loc	2 110 14 is_stmt 0              @ source/interlock_DL.c:110:14
	ldrb	r0, [r1, #1]
	ands	r0, r2
	adds	r0, r0, #1
	strb	r0, [r1, #1]
	.loc	2 111 4 is_stmt 1               @ source/interlock_DL.c:111:4
	ldr	r1, [sp, #372]
	.loc	2 111 16 is_stmt 0              @ source/interlock_DL.c:111:16
	ldrb	r0, [r1, #1]
	ands	r0, r5
	adds	r0, r0, #4
	strb	r0, [r1, #1]
	.loc	2 112 4 is_stmt 1               @ source/interlock_DL.c:112:4
	ldr	r1, [sp, #372]
	.loc	2 112 14 is_stmt 0              @ source/interlock_DL.c:112:14
	ldrb	r0, [r1, #1]
	ands	r0, r4
	adds	r0, #16
	strb	r0, [r1, #1]
	.loc	2 113 4 is_stmt 1               @ source/interlock_DL.c:113:4
	ldr	r1, [sp, #372]
	.loc	2 113 12 is_stmt 0              @ source/interlock_DL.c:113:12
	ldrb	r0, [r1, #1]
	ands	r0, r3
	adds	r0, #64
	strb	r0, [r1, #1]
	.loc	2 114 4 is_stmt 1               @ source/interlock_DL.c:114:4
	ldr	r1, [sp, #372]
	.loc	2 114 13 is_stmt 0              @ source/interlock_DL.c:114:13
	ldrb	r0, [r1, #2]
	ands	r0, r2
	adds	r0, r0, #1
	strb	r0, [r1, #2]
	.loc	2 115 4 is_stmt 1               @ source/interlock_DL.c:115:4
	ldr	r1, [sp, #372]
	.loc	2 115 16 is_stmt 0              @ source/interlock_DL.c:115:16
	ldrb	r0, [r1, #2]
	ands	r0, r5
	adds	r0, r0, #4
	strb	r0, [r1, #2]
	.loc	2 116 4 is_stmt 1               @ source/interlock_DL.c:116:4
	ldr	r1, [sp, #372]
	.loc	2 116 12 is_stmt 0              @ source/interlock_DL.c:116:12
	ldrb	r0, [r1, #2]
	ands	r0, r4
	adds	r0, #16
	strb	r0, [r1, #2]
	.loc	2 117 4 is_stmt 1               @ source/interlock_DL.c:117:4
	ldr	r1, [sp, #372]
	.loc	2 117 13 is_stmt 0              @ source/interlock_DL.c:117:13
	ldrb	r0, [r1, #2]
	ands	r0, r3
	adds	r0, #128
	strb	r0, [r1, #2]
	.loc	2 118 4 is_stmt 1               @ source/interlock_DL.c:118:4
	ldr	r1, [sp, #372]
	.loc	2 118 12 is_stmt 0              @ source/interlock_DL.c:118:12
	ldrb	r0, [r1, #3]
	ands	r0, r2
	adds	r0, r0, #1
	strb	r0, [r1, #3]
	.loc	2 119 4 is_stmt 1               @ source/interlock_DL.c:119:4
	ldr	r1, [sp, #372]
	.loc	2 119 12 is_stmt 0              @ source/interlock_DL.c:119:12
	ldrb	r0, [r1, #3]
	ands	r0, r5
	adds	r0, r0, #4
	strb	r0, [r1, #3]
	.loc	2 120 4 is_stmt 1               @ source/interlock_DL.c:120:4
	ldr	r1, [sp, #372]
	.loc	2 120 13 is_stmt 0              @ source/interlock_DL.c:120:13
	ldrb	r0, [r1, #3]
	ands	r0, r4
	adds	r0, #32
	strb	r0, [r1, #3]
	.loc	2 121 4 is_stmt 1               @ source/interlock_DL.c:121:4
	ldr	r1, [sp, #372]
	.loc	2 121 13 is_stmt 0              @ source/interlock_DL.c:121:13
	ldrb	r0, [r1, #3]
	ands	r0, r3
	adds	r0, #128
	strb	r0, [r1, #3]
	.loc	2 122 4 is_stmt 1               @ source/interlock_DL.c:122:4
	ldr	r1, [sp, #372]
	.loc	2 122 14 is_stmt 0              @ source/interlock_DL.c:122:14
	ldrb	r0, [r1, #4]
	ands	r0, r2
	adds	r0, r0, #1
	strb	r0, [r1, #4]
	.loc	2 123 4 is_stmt 1               @ source/interlock_DL.c:123:4
	ldr	r1, [sp, #372]
	.loc	2 123 15 is_stmt 0              @ source/interlock_DL.c:123:15
	ldrb	r0, [r1, #4]
	ands	r0, r5
	adds	r0, r0, #4
	strb	r0, [r1, #4]
	.loc	2 125 4 is_stmt 1               @ source/interlock_DL.c:125:4
	ldr	r1, [sp, #388]
	.loc	2 125 13 is_stmt 0              @ source/interlock_DL.c:125:13
	ldrb	r0, [r1]
	ands	r0, r2
	adds	r0, r0, #1
	strb	r0, [r1]
	.loc	2 126 4 is_stmt 1               @ source/interlock_DL.c:126:4
	ldr	r1, [sp, #388]
	.loc	2 126 15 is_stmt 0              @ source/interlock_DL.c:126:15
	ldrb	r0, [r1]
	ands	r0, r5
	adds	r0, #8
	strb	r0, [r1]
	.loc	2 127 4 is_stmt 1               @ source/interlock_DL.c:127:4
	ldr	r1, [sp, #388]
	.loc	2 127 13 is_stmt 0              @ source/interlock_DL.c:127:13
	ldrb	r0, [r1]
	ands	r0, r4
	adds	r0, #16
	strb	r0, [r1]
	.loc	2 128 4 is_stmt 1               @ source/interlock_DL.c:128:4
	ldr	r1, [sp, #388]
	.loc	2 128 15 is_stmt 0              @ source/interlock_DL.c:128:15
	ldrb	r0, [r1]
	ands	r0, r3
	adds	r0, #128
	strb	r0, [r1]
	.loc	2 129 4 is_stmt 1               @ source/interlock_DL.c:129:4
	ldr	r1, [sp, #388]
	.loc	2 129 13 is_stmt 0              @ source/interlock_DL.c:129:13
	ldrb	r0, [r1, #1]
	ands	r0, r2
	adds	r0, r0, #1
	strb	r0, [r1, #1]
	.loc	2 131 14 is_stmt 1              @ source/interlock_DL.c:131:14
	ldr	r1, .LCPI0_29
	movs	r0, #1
	strb	r0, [r1]
	.loc	2 132 4                         @ source/interlock_DL.c:132:4
	bl	.LBB0_222
.LBB0_5:
	.loc	2 134 19                        @ source/interlock_DL.c:134:19
	ldr	r0, [sp, #372]
	.loc	2 134 23 is_stmt 0              @ source/interlock_DL.c:134:23
	ldrb	r3, [r0]
	movs	r0, #3
	str	r0, [sp, #348]                  @ 4-byte Spill
	ands	r3, r0
	.loc	2 134 4                         @ source/interlock_DL.c:134:4
	ldr	r2, [sp, #376]
	.loc	2 134 17                        @ source/interlock_DL.c:134:17
	ldrb	r0, [r2]
	movs	r1, #252
	str	r1, [sp, #344]                  @ 4-byte Spill
	ands	r0, r1
	adds	r0, r0, r3
	strb	r0, [r2]
	.loc	2 135 19 is_stmt 1              @ source/interlock_DL.c:135:19
	ldr	r0, [sp, #372]
	.loc	2 135 23 is_stmt 0              @ source/interlock_DL.c:135:23
	ldrb	r4, [r0]
	.loc	2 135 4                         @ source/interlock_DL.c:135:4
	ldr	r2, [sp, #376]
	.loc	2 135 17                        @ source/interlock_DL.c:135:17
	ldrb	r0, [r2]
	movs	r3, #12
	str	r3, [sp, #336]                  @ 4-byte Spill
	ands	r4, r3
	movs	r3, #243
	ands	r0, r3
	adds	r0, r0, r4
	strb	r0, [r2]
	.loc	2 136 19 is_stmt 1              @ source/interlock_DL.c:136:19
	ldr	r0, [sp, #372]
	.loc	2 136 23 is_stmt 0              @ source/interlock_DL.c:136:23
	ldrb	r4, [r0]
	.loc	2 136 4                         @ source/interlock_DL.c:136:4
	ldr	r2, [sp, #376]
	.loc	2 136 17                        @ source/interlock_DL.c:136:17
	ldrb	r0, [r2]
	movs	r6, #48
	ands	r4, r6
	movs	r5, #207
	ands	r0, r5
	adds	r0, r0, r4
	strb	r0, [r2]
	.loc	2 137 19 is_stmt 1              @ source/interlock_DL.c:137:19
	ldr	r0, [sp, #372]
	.loc	2 137 23 is_stmt 0              @ source/interlock_DL.c:137:23
	ldrb	r0, [r0]
	.loc	2 137 4                         @ source/interlock_DL.c:137:4
	ldr	r4, [sp, #376]
	.loc	2 137 17                        @ source/interlock_DL.c:137:17
	ldrb	r2, [r4]
	movs	r7, #192
	str	r7, [sp, #340]                  @ 4-byte Spill
	ands	r0, r7
	movs	r7, #63
	ands	r2, r7
	adds	r2, r2, r0
	ldr	r0, [sp, #348]                  @ 4-byte Reload
	strb	r2, [r4]
	.loc	2 138 19 is_stmt 1              @ source/interlock_DL.c:138:19
	ldr	r2, [sp, #372]
	.loc	2 138 23 is_stmt 0              @ source/interlock_DL.c:138:23
	ldrb	r4, [r2, #1]
	ands	r4, r0
	.loc	2 138 4                         @ source/interlock_DL.c:138:4
	ldr	r2, [sp, #376]
	.loc	2 138 17                        @ source/interlock_DL.c:138:17
	ldrb	r0, [r2, #1]
	ands	r0, r1
	ldr	r1, [sp, #336]                  @ 4-byte Reload
	adds	r0, r0, r4
	strb	r0, [r2, #1]
	.loc	2 139 21 is_stmt 1              @ source/interlock_DL.c:139:21
	ldr	r0, [sp, #372]
	.loc	2 139 25 is_stmt 0              @ source/interlock_DL.c:139:25
	ldrb	r4, [r0, #1]
	.loc	2 139 4                         @ source/interlock_DL.c:139:4
	ldr	r2, [sp, #376]
	.loc	2 139 19                        @ source/interlock_DL.c:139:19
	ldrb	r0, [r2, #1]
	ands	r4, r1
	ldr	r1, [sp, #340]                  @ 4-byte Reload
	ands	r0, r3
	adds	r0, r0, r4
	strb	r0, [r2, #1]
	.loc	2 140 19 is_stmt 1              @ source/interlock_DL.c:140:19
	ldr	r0, [sp, #372]
	.loc	2 140 23 is_stmt 0              @ source/interlock_DL.c:140:23
	ldrb	r4, [r0, #1]
	.loc	2 140 4                         @ source/interlock_DL.c:140:4
	ldr	r2, [sp, #376]
	.loc	2 140 17                        @ source/interlock_DL.c:140:17
	ldrb	r0, [r2, #1]
	ands	r4, r6
	ands	r0, r5
	adds	r0, r0, r4
	strb	r0, [r2, #1]
	.loc	2 141 17 is_stmt 1              @ source/interlock_DL.c:141:17
	ldr	r0, [sp, #372]
	.loc	2 141 21 is_stmt 0              @ source/interlock_DL.c:141:21
	ldrb	r0, [r0, #1]
	.loc	2 141 4                         @ source/interlock_DL.c:141:4
	ldr	r4, [sp, #376]
	.loc	2 141 15                        @ source/interlock_DL.c:141:15
	ldrb	r2, [r4, #1]
	ands	r0, r1
	ldr	r1, [sp, #344]                  @ 4-byte Reload
	ands	r2, r7
	adds	r2, r2, r0
	ldr	r0, [sp, #348]                  @ 4-byte Reload
	strb	r2, [r4, #1]
	.loc	2 142 18 is_stmt 1              @ source/interlock_DL.c:142:18
	ldr	r2, [sp, #372]
	.loc	2 142 22 is_stmt 0              @ source/interlock_DL.c:142:22
	ldrb	r4, [r2, #2]
	ands	r4, r0
	.loc	2 142 4                         @ source/interlock_DL.c:142:4
	ldr	r2, [sp, #376]
	.loc	2 142 16                        @ source/interlock_DL.c:142:16
	ldrb	r0, [r2, #2]
	ands	r0, r1
	ldr	r1, [sp, #336]                  @ 4-byte Reload
	adds	r0, r0, r4
	strb	r0, [r2, #2]
	.loc	2 143 21 is_stmt 1              @ source/interlock_DL.c:143:21
	ldr	r0, [sp, #372]
	.loc	2 143 25 is_stmt 0              @ source/interlock_DL.c:143:25
	ldrb	r4, [r0, #2]
	.loc	2 143 4                         @ source/interlock_DL.c:143:4
	ldr	r2, [sp, #376]
	.loc	2 143 19                        @ source/interlock_DL.c:143:19
	ldrb	r0, [r2, #2]
	ands	r4, r1
	ldr	r1, [sp, #340]                  @ 4-byte Reload
	ands	r0, r3
	adds	r0, r0, r4
	strb	r0, [r2, #2]
	.loc	2 144 17 is_stmt 1              @ source/interlock_DL.c:144:17
	ldr	r0, [sp, #372]
	.loc	2 144 21 is_stmt 0              @ source/interlock_DL.c:144:21
	ldrb	r4, [r0, #2]
	.loc	2 144 4                         @ source/interlock_DL.c:144:4
	ldr	r2, [sp, #376]
	.loc	2 144 15                        @ source/interlock_DL.c:144:15
	ldrb	r0, [r2, #2]
	ands	r4, r6
	ands	r0, r5
	adds	r0, r0, r4
	strb	r0, [r2, #2]
	.loc	2 145 18 is_stmt 1              @ source/interlock_DL.c:145:18
	ldr	r0, [sp, #372]
	.loc	2 145 22 is_stmt 0              @ source/interlock_DL.c:145:22
	ldrb	r0, [r0, #2]
	.loc	2 145 4                         @ source/interlock_DL.c:145:4
	ldr	r4, [sp, #376]
	.loc	2 145 16                        @ source/interlock_DL.c:145:16
	ldrb	r2, [r4, #2]
	ands	r0, r1
	ldr	r1, [sp, #344]                  @ 4-byte Reload
	ands	r2, r7
	adds	r2, r2, r0
	ldr	r0, [sp, #348]                  @ 4-byte Reload
	strb	r2, [r4, #2]
	.loc	2 146 17 is_stmt 1              @ source/interlock_DL.c:146:17
	ldr	r2, [sp, #372]
	.loc	2 146 21 is_stmt 0              @ source/interlock_DL.c:146:21
	ldrb	r4, [r2, #3]
	ands	r4, r0
	.loc	2 146 4                         @ source/interlock_DL.c:146:4
	ldr	r2, [sp, #376]
	.loc	2 146 15                        @ source/interlock_DL.c:146:15
	ldrb	r0, [r2, #3]
	ands	r0, r1
	ldr	r1, [sp, #336]                  @ 4-byte Reload
	adds	r0, r0, r4
	strb	r0, [r2, #3]
	.loc	2 147 17 is_stmt 1              @ source/interlock_DL.c:147:17
	ldr	r0, [sp, #372]
	.loc	2 147 21 is_stmt 0              @ source/interlock_DL.c:147:21
	ldrb	r4, [r0, #3]
	.loc	2 147 4                         @ source/interlock_DL.c:147:4
	ldr	r2, [sp, #376]
	.loc	2 147 15                        @ source/interlock_DL.c:147:15
	ldrb	r0, [r2, #3]
	ands	r4, r1
	ldr	r1, [sp, #340]                  @ 4-byte Reload
	ands	r0, r3
	adds	r0, r0, r4
	strb	r0, [r2, #3]
	.loc	2 148 18 is_stmt 1              @ source/interlock_DL.c:148:18
	ldr	r0, [sp, #372]
	.loc	2 148 22 is_stmt 0              @ source/interlock_DL.c:148:22
	ldrb	r4, [r0, #3]
	.loc	2 148 4                         @ source/interlock_DL.c:148:4
	ldr	r2, [sp, #376]
	.loc	2 148 16                        @ source/interlock_DL.c:148:16
	ldrb	r0, [r2, #3]
	ands	r4, r6
	ands	r0, r5
	adds	r0, r0, r4
	strb	r0, [r2, #3]
	.loc	2 149 18 is_stmt 1              @ source/interlock_DL.c:149:18
	ldr	r0, [sp, #372]
	.loc	2 149 22 is_stmt 0              @ source/interlock_DL.c:149:22
	ldrb	r0, [r0, #3]
	.loc	2 149 4                         @ source/interlock_DL.c:149:4
	ldr	r4, [sp, #376]
	.loc	2 149 16                        @ source/interlock_DL.c:149:16
	ldrb	r2, [r4, #3]
	ands	r0, r1
	ldr	r1, [sp, #348]                  @ 4-byte Reload
	ands	r2, r7
	adds	r2, r2, r0
	ldr	r0, [sp, #344]                  @ 4-byte Reload
	strb	r2, [r4, #3]
	.loc	2 150 19 is_stmt 1              @ source/interlock_DL.c:150:19
	ldr	r2, [sp, #372]
	.loc	2 150 23 is_stmt 0              @ source/interlock_DL.c:150:23
	ldrb	r4, [r2, #4]
	ands	r4, r1
	.loc	2 150 4                         @ source/interlock_DL.c:150:4
	ldr	r2, [sp, #376]
	.loc	2 150 17                        @ source/interlock_DL.c:150:17
	ldrb	r1, [r2, #4]
	ands	r1, r0
	ldr	r0, [sp, #336]                  @ 4-byte Reload
	adds	r1, r1, r4
	strb	r1, [r2, #4]
	.loc	2 151 20 is_stmt 1              @ source/interlock_DL.c:151:20
	ldr	r1, [sp, #372]
	.loc	2 151 24 is_stmt 0              @ source/interlock_DL.c:151:24
	ldrb	r4, [r1, #4]
	.loc	2 151 4                         @ source/interlock_DL.c:151:4
	ldr	r2, [sp, #376]
	.loc	2 151 18                        @ source/interlock_DL.c:151:18
	ldrb	r1, [r2, #4]
	ands	r4, r0
	ldr	r0, [sp, #340]                  @ 4-byte Reload
	ands	r1, r3
	ldr	r3, [sp, #344]                  @ 4-byte Reload
	adds	r1, r1, r4
	strb	r1, [r2, #4]
	.loc	2 153 19 is_stmt 1              @ source/interlock_DL.c:153:19
	ldr	r1, [sp, #372]
	.loc	2 153 23 is_stmt 0              @ source/interlock_DL.c:153:23
	ldrb	r4, [r1, #4]
	.loc	2 153 4                         @ source/interlock_DL.c:153:4
	ldr	r2, [sp, #376]
	.loc	2 153 17                        @ source/interlock_DL.c:153:17
	ldrb	r1, [r2, #4]
	ands	r4, r6
	ands	r1, r5
	adds	r1, r1, r4
	strb	r1, [r2, #4]
	.loc	2 154 19 is_stmt 1              @ source/interlock_DL.c:154:19
	ldr	r1, [sp, #372]
	.loc	2 154 23 is_stmt 0              @ source/interlock_DL.c:154:23
	ldrb	r4, [r1, #4]
	.loc	2 154 4                         @ source/interlock_DL.c:154:4
	ldr	r2, [sp, #376]
	.loc	2 154 17                        @ source/interlock_DL.c:154:17
	ldrb	r1, [r2, #4]
	ands	r4, r0
	ldr	r0, [sp, #348]                  @ 4-byte Reload
	ands	r1, r7
	adds	r1, r1, r4
	strb	r1, [r2, #4]
	.loc	2 155 19 is_stmt 1              @ source/interlock_DL.c:155:19
	ldr	r1, [sp, #372]
	.loc	2 155 23 is_stmt 0              @ source/interlock_DL.c:155:23
	ldrb	r4, [r1, #5]
	ands	r4, r0
	.loc	2 155 4                         @ source/interlock_DL.c:155:4
	ldr	r2, [sp, #376]
	.loc	2 155 17                        @ source/interlock_DL.c:155:17
	ldrb	r1, [r2, #5]
	ands	r1, r3
	adds	r1, r1, r4
	strb	r1, [r2, #5]
	.loc	2 157 18 is_stmt 1              @ source/interlock_DL.c:157:18
	ldr	r1, [sp, #388]
	.loc	2 157 22 is_stmt 0              @ source/interlock_DL.c:157:22
	ldrb	r4, [r1]
	ands	r4, r0
	.loc	2 157 4                         @ source/interlock_DL.c:157:4
	ldr	r2, [sp, #384]
	.loc	2 157 16                        @ source/interlock_DL.c:157:16
	ldrb	r1, [r2]
	ands	r1, r3
	adds	r1, r1, r4
	strb	r1, [r2]
	.loc	2 158 18 is_stmt 1              @ source/interlock_DL.c:158:18
	ldr	r1, [sp, #388]
	.loc	2 158 22 is_stmt 0              @ source/interlock_DL.c:158:22
	ldrb	r4, [r1]
	.loc	2 158 4                         @ source/interlock_DL.c:158:4
	ldr	r2, [sp, #384]
	.loc	2 158 16                        @ source/interlock_DL.c:158:16
	ldrb	r1, [r2]
	ands	r4, r6
	ands	r1, r5
	adds	r1, r1, r4
	strb	r1, [r2]
	.loc	2 159 18 is_stmt 1              @ source/interlock_DL.c:159:18
	ldr	r1, [sp, #388]
	.loc	2 159 22 is_stmt 0              @ source/interlock_DL.c:159:22
	ldrb	r2, [r1, #1]
	ands	r2, r0
	.loc	2 159 4                         @ source/interlock_DL.c:159:4
	ldr	r1, [sp, #384]
	.loc	2 159 16                        @ source/interlock_DL.c:159:16
	ldrb	r0, [r1, #1]
	ands	r0, r3
	adds	r0, r0, r2
	strb	r0, [r1, #1]
	.loc	2 161 14 is_stmt 1              @ source/interlock_DL.c:161:14
	ldr	r1, .LCPI0_29
	movs	r0, #2
	strb	r0, [r1]
	.loc	2 162 4                         @ source/interlock_DL.c:162:4
	bl	.LBB0_222
.LBB0_6:
	.loc	2 164 15                        @ source/interlock_DL.c:164:15
	ldr	r0, [sp, #368]
	.loc	2 164 19 is_stmt 0              @ source/interlock_DL.c:164:19
	ldrb	r0, [r0]
	lsls	r0, r0, #28
	lsrs	r1, r0, #30
	movs	r0, #0
	.loc	2 164 33                        @ source/interlock_DL.c:164:33
	cmp	r1, #2
	str	r0, [sp, #332]                  @ 4-byte Spill
	bne	.LBB0_13
	b	.LBB0_7
.LBB0_7:
	.loc	2 164 37                        @ source/interlock_DL.c:164:37
	ldr	r0, [sp, #368]
	.loc	2 164 41                        @ source/interlock_DL.c:164:41
	ldrb	r0, [r0]
	lsls	r0, r0, #26
	lsrs	r1, r0, #30
	movs	r0, #0
	.loc	2 164 55                        @ source/interlock_DL.c:164:55
	cmp	r1, #2
	str	r0, [sp, #332]                  @ 4-byte Spill
	bne	.LBB0_13
	b	.LBB0_8
.LBB0_8:
	.loc	2 164 59                        @ source/interlock_DL.c:164:59
	ldr	r0, [sp, #368]
	.loc	2 164 63                        @ source/interlock_DL.c:164:63
	ldrb	r0, [r0, #2]
	lsls	r0, r0, #26
	lsrs	r1, r0, #30
	movs	r0, #0
	.loc	2 164 75                        @ source/interlock_DL.c:164:75
	cmp	r1, #2
	str	r0, [sp, #332]                  @ 4-byte Spill
	bne	.LBB0_13
	b	.LBB0_9
.LBB0_9:
	.loc	2 164 79                        @ source/interlock_DL.c:164:79
	ldr	r0, [sp, #368]
	.loc	2 164 83                        @ source/interlock_DL.c:164:83
	ldrb	r0, [r0, #2]
	lsrs	r1, r0, #6
	movs	r0, #0
	.loc	2 164 94                        @ source/interlock_DL.c:164:94
	cmp	r1, #2
	str	r0, [sp, #332]                  @ 4-byte Spill
	bne	.LBB0_13
	b	.LBB0_10
.LBB0_10:
	.loc	2 164 98                        @ source/interlock_DL.c:164:98
	ldr	r0, [sp, #376]
	.loc	2 164 105                       @ source/interlock_DL.c:164:105
	ldrb	r0, [r0]
	lsls	r0, r0, #28
	lsrs	r1, r0, #30
	movs	r0, #0
	.loc	2 164 118                       @ source/interlock_DL.c:164:118
	cmp	r1, #2
	str	r0, [sp, #332]                  @ 4-byte Spill
	bne	.LBB0_13
	b	.LBB0_11
.LBB0_11:
	.loc	2 164 122                       @ source/interlock_DL.c:164:122
	ldr	r0, [sp, #376]
	.loc	2 164 129                       @ source/interlock_DL.c:164:129
	ldrb	r1, [r0]
	movs	r0, #3
	ands	r1, r0
	movs	r0, #0
	.loc	2 164 142                       @ source/interlock_DL.c:164:142
	cmp	r1, #2
	str	r0, [sp, #332]                  @ 4-byte Spill
	bne	.LBB0_13
	b	.LBB0_12
.LBB0_12:
	.loc	2 164 146                       @ source/interlock_DL.c:164:146
	ldr	r0, [sp, #368]
	.loc	2 164 150                       @ source/interlock_DL.c:164:150
	ldrb	r0, [r0, #3]
	lsrs	r0, r0, #6
	.loc	2 164 156                       @ source/interlock_DL.c:164:156
	subs	r0, r0, #2
	rsbs	r1, r0, #0
	adcs	r0, r1
	str	r0, [sp, #332]                  @ 4-byte Spill
	b	.LBB0_13
.LBB0_13:
	.loc	2 0 0                           @ source/interlock_DL.c:0:0
	ldr	r0, [sp, #332]                  @ 4-byte Reload
	.loc	2 164 13                        @ source/interlock_DL.c:164:13
	lsls	r1, r0, #31
	movs	r0, #2
	movs	r2, #1
	str	r2, [sp, #324]                  @ 4-byte Spill
	str	r0, [sp, #328]                  @ 4-byte Spill
	cbnz	r1, .LBB0_15
@ %bb.14:
	.loc	2 0 13                          @ source/interlock_DL.c:0:13
	ldr	r0, [sp, #324]                  @ 4-byte Reload
	str	r0, [sp, #328]                  @ 4-byte Spill
.LBB0_15:
	.loc	2 164 13                        @ source/interlock_DL.c:164:13
	ldr	r0, [sp, #328]                  @ 4-byte Reload
	.loc	2 164 11                        @ source/interlock_DL.c:164:11
	ldr	r1, __arm_cp.0_30
	strb	r0, [r1]
	.loc	2 165 15 is_stmt 1              @ source/interlock_DL.c:165:15
	ldr	r0, [sp, #368]
	.loc	2 165 19 is_stmt 0              @ source/interlock_DL.c:165:19
	ldrb	r0, [r0]
	lsls	r0, r0, #28
	lsrs	r1, r0, #30
	movs	r0, #0
	.loc	2 165 33                        @ source/interlock_DL.c:165:33
	cmp	r1, #2
	str	r0, [sp, #320]                  @ 4-byte Spill
	bne	.LBB0_32
	b	.LBB0_16
.LBB0_16:
	.loc	2 165 37                        @ source/interlock_DL.c:165:37
	ldr	r0, [sp, #368]
	.loc	2 165 41                        @ source/interlock_DL.c:165:41
	ldrb	r0, [r0]
	lsls	r0, r0, #26
	lsrs	r1, r0, #30
	movs	r0, #0
	.loc	2 165 56                        @ source/interlock_DL.c:165:56
	cmp	r1, #2
	str	r0, [sp, #320]                  @ 4-byte Spill
	bne	.LBB0_32
	b	.LBB0_17
.LBB0_17:
	.loc	2 165 60                        @ source/interlock_DL.c:165:60
	ldr	r0, [sp, #368]
	.loc	2 165 64                        @ source/interlock_DL.c:165:64
	ldrb	r0, [r0, #2]
	lsls	r0, r0, #26
	lsrs	r1, r0, #30
	movs	r0, #0
	.loc	2 165 76                        @ source/interlock_DL.c:165:76
	cmp	r1, #1
	str	r0, [sp, #320]                  @ 4-byte Spill
	bne	.LBB0_32
	b	.LBB0_18
.LBB0_18:
	.loc	2 165 80                        @ source/interlock_DL.c:165:80
	ldr	r0, [sp, #368]
	.loc	2 165 84                        @ source/interlock_DL.c:165:84
	ldrb	r0, [r0, #2]
	lsrs	r1, r0, #6
	movs	r0, #0
	.loc	2 165 95                        @ source/interlock_DL.c:165:95
	cmp	r1, #1
	str	r0, [sp, #320]                  @ 4-byte Spill
	bne	.LBB0_32
	b	.LBB0_19
.LBB0_19:
	.loc	2 165 100                       @ source/interlock_DL.c:165:100
	ldr	r0, [sp, #376]
	.loc	2 165 107                       @ source/interlock_DL.c:165:107
	ldrb	r0, [r0]
	lsrs	r1, r0, #6
	movs	r0, #0
	.loc	2 165 120                       @ source/interlock_DL.c:165:120
	cmp	r1, #1
	str	r0, [sp, #320]                  @ 4-byte Spill
	bne	.LBB0_32
	b	.LBB0_31
	.loc	2 0 120                         @ :0:120
.Ltmp2:
	.p2align	2
@ %bb.20:
__arm_cp.0_20:
	.long	vo_u
.Lcpi_end0:
	.size	__arm_cp.0_20, .Lcpi_end0-__arm_cp.0_20
	.p2align	2
@ %bb.21:
__arm_cp.0_21:
	.long	vo_in_u
.Lcpi_end1:
	.size	__arm_cp.0_21, .Lcpi_end1-__arm_cp.0_21
	.p2align	2
@ %bb.22:
__arm_cp.0_22:
	.long	nvo_u
.Lcpi_end2:
	.size	__arm_cp.0_22, .Lcpi_end2-__arm_cp.0_22
	.p2align	2
@ %bb.23:
__arm_cp.0_23:
	.long	lo_in_s
.Lcpi_end3:
	.size	__arm_cp.0_23, .Lcpi_end3-__arm_cp.0_23
	.p2align	2
@ %bb.24:
__arm_cp.0_24:
	.long	lo_u
.Lcpi_end4:
	.size	__arm_cp.0_24, .Lcpi_end4-__arm_cp.0_24
	.p2align	2
@ %bb.25:
__arm_cp.0_25:
	.long	vi_u
.Lcpi_end5:
	.size	__arm_cp.0_25, .Lcpi_end5-__arm_cp.0_25
	.p2align	2
@ %bb.26:
__arm_cp.0_26:
	.long	vi_oe_u
.Lcpi_end6:
	.size	__arm_cp.0_26, .Lcpi_end6-__arm_cp.0_26
	.p2align	2
@ %bb.27:
__arm_cp.0_27:
	.long	lo_oe_u
.Lcpi_end7:
	.size	__arm_cp.0_27, .Lcpi_end7-__arm_cp.0_27
	.p2align	2
@ %bb.28:
__arm_cp.0_28:
	.long	vo_oe_u
.Lcpi_end8:
	.size	__arm_cp.0_28, .Lcpi_end8-__arm_cp.0_28
	.p2align	2
@ %bb.29:
.LCPI0_29:
	.long	interlock_DL.lstate_DL
	.p2align	2
@ %bb.30:
__arm_cp.0_30:
	.long	TGTR_1
.Lcpi_end9:
	.size	__arm_cp.0_30, .Lcpi_end9-__arm_cp.0_30
	.p2align	1
.LBB0_31:
	.loc	2 165 124                       @ source/interlock_DL.c:165:124
	ldr	r0, [sp, #376]
	.loc	2 165 131                       @ source/interlock_DL.c:165:131
	ldrb	r0, [r0]
	lsls	r0, r0, #28
	lsrs	r0, r0, #30
	.loc	2 165 136                       @ source/interlock_DL.c:165:136
	subs	r0, r0, #1
	rsbs	r1, r0, #0
	adcs	r0, r1
	str	r0, [sp, #320]                  @ 4-byte Spill
	b	.LBB0_32
.LBB0_32:
	.loc	2 0 0                           @ source/interlock_DL.c:0:0
	ldr	r0, [sp, #320]                  @ 4-byte Reload
	.loc	2 165 13                        @ source/interlock_DL.c:165:13
	lsls	r1, r0, #31
	movs	r0, #2
	movs	r2, #1
	str	r2, [sp, #312]                  @ 4-byte Spill
	str	r0, [sp, #316]                  @ 4-byte Spill
	cbnz	r1, .LBB0_34
@ %bb.33:
	.loc	2 0 13                          @ source/interlock_DL.c:0:13
	ldr	r0, [sp, #312]                  @ 4-byte Reload
	str	r0, [sp, #316]                  @ 4-byte Spill
.LBB0_34:
	.loc	2 165 13                        @ source/interlock_DL.c:165:13
	ldr	r0, [sp, #312]                  @ 4-byte Reload
	ldr	r1, [sp, #316]                  @ 4-byte Reload
	.loc	2 165 11                        @ source/interlock_DL.c:165:11
	ldr	r2, __arm_cp.0_31
	strb	r1, [r2]
	.loc	2 166 11 is_stmt 1              @ source/interlock_DL.c:166:11
	ldr	r1, __arm_cp.0_32
	strb	r0, [r1]
	.loc	2 168 15                        @ source/interlock_DL.c:168:15
	ldr	r0, [sp, #368]
	.loc	2 168 19 is_stmt 0              @ source/interlock_DL.c:168:19
	ldrb	r1, [r0]
	movs	r0, #3
	ands	r1, r0
	movs	r0, #0
	.loc	2 168 33                        @ source/interlock_DL.c:168:33
	cmp	r1, #2
	str	r0, [sp, #308]                  @ 4-byte Spill
	bne	.LBB0_47
	b	.LBB0_35
.LBB0_35:
	.loc	2 168 37                        @ source/interlock_DL.c:168:37
	ldr	r0, [sp, #368]
	.loc	2 168 41                        @ source/interlock_DL.c:168:41
	ldrb	r0, [r0]
	lsrs	r1, r0, #6
	movs	r0, #0
	.loc	2 168 55                        @ source/interlock_DL.c:168:55
	cmp	r1, #2
	str	r0, [sp, #308]                  @ 4-byte Spill
	bne	.LBB0_47
	b	.LBB0_36
.LBB0_36:
	.loc	2 168 59                        @ source/interlock_DL.c:168:59
	ldr	r0, [sp, #368]
	.loc	2 168 63                        @ source/interlock_DL.c:168:63
	ldrb	r1, [r0, #2]
	movs	r0, #3
	ands	r1, r0
	movs	r0, #0
	.loc	2 168 77                        @ source/interlock_DL.c:168:77
	cmp	r1, #2
	str	r0, [sp, #308]                  @ 4-byte Spill
	bne	.LBB0_47
	b	.LBB0_37
.LBB0_37:
	.loc	2 168 81                        @ source/interlock_DL.c:168:81
	ldr	r0, [sp, #368]
	.loc	2 168 85                        @ source/interlock_DL.c:168:85
	ldrb	r0, [r0, #2]
	lsrs	r1, r0, #6
	movs	r0, #0
	.loc	2 168 96                        @ source/interlock_DL.c:168:96
	cmp	r1, #1
	str	r0, [sp, #308]                  @ 4-byte Spill
	bne	.LBB0_47
	b	.LBB0_38
.LBB0_38:
	.loc	2 168 100                       @ source/interlock_DL.c:168:100
	ldr	r0, [sp, #368]
	.loc	2 168 104                       @ source/interlock_DL.c:168:104
	ldrb	r0, [r0, #3]
	lsls	r0, r0, #28
	lsrs	r1, r0, #30
	movs	r0, #0
	.loc	2 168 115                       @ source/interlock_DL.c:168:115
	cmp	r1, #1
	str	r0, [sp, #308]                  @ 4-byte Spill
	bne	.LBB0_47
	b	.LBB0_39
.LBB0_39:
	.loc	2 168 120                       @ source/interlock_DL.c:168:120
	ldr	r0, [sp, #376]
	.loc	2 168 127                       @ source/interlock_DL.c:168:127
	ldrb	r1, [r0, #1]
	movs	r0, #3
	ands	r1, r0
	movs	r0, #0
	.loc	2 168 140                       @ source/interlock_DL.c:168:140
	cmp	r1, #2
	str	r0, [sp, #308]                  @ 4-byte Spill
	bne	.LBB0_47
	b	.LBB0_40
.LBB0_40:
	.loc	2 168 144                       @ source/interlock_DL.c:168:144
	ldr	r0, [sp, #376]
	.loc	2 168 151                       @ source/interlock_DL.c:168:151
	ldrb	r0, [r0, #2]
	lsrs	r1, r0, #6
	movs	r0, #0
	.loc	2 168 163                       @ source/interlock_DL.c:168:163
	cmp	r1, #2
	str	r0, [sp, #308]                  @ 4-byte Spill
	bne	.LBB0_47
	b	.LBB0_41
.LBB0_41:
	.loc	2 168 167                       @ source/interlock_DL.c:168:167
	ldr	r0, [sp, #376]
	.loc	2 168 174                       @ source/interlock_DL.c:168:174
	ldrb	r0, [r0, #2]
	lsls	r0, r0, #26
	lsrs	r1, r0, #30
	movs	r0, #0
	.loc	2 168 185                       @ source/interlock_DL.c:168:185
	cmp	r1, #1
	str	r0, [sp, #308]                  @ 4-byte Spill
	bne	.LBB0_47
	b	.LBB0_42
.LBB0_42:
	.loc	2 168 189                       @ source/interlock_DL.c:168:189
	ldr	r0, [sp, #376]
	.loc	2 168 196                       @ source/interlock_DL.c:168:196
	ldrb	r0, [r0, #1]
	lsls	r0, r0, #28
	lsrs	r1, r0, #30
	movs	r0, #0
	.loc	2 168 211                       @ source/interlock_DL.c:168:211
	cmp	r1, #2
	str	r0, [sp, #308]                  @ 4-byte Spill
	bne	.LBB0_47
	b	.LBB0_43
.LBB0_43:
	.loc	2 168 215                       @ source/interlock_DL.c:168:215
	ldr	r0, [sp, #376]
	.loc	2 168 222                       @ source/interlock_DL.c:168:222
	ldrb	r0, [r0, #4]
	lsls	r0, r0, #28
	lsrs	r1, r0, #30
	movs	r0, #0
	.loc	2 168 236                       @ source/interlock_DL.c:168:236
	cmp	r1, #1
	str	r0, [sp, #308]                  @ 4-byte Spill
	bne	.LBB0_47
	b	.LBB0_44
.LBB0_44:
	.loc	2 168 240                       @ source/interlock_DL.c:168:240
	ldr	r0, [sp, #376]
	.loc	2 168 247                       @ source/interlock_DL.c:168:247
	ldrb	r0, [r0, #3]
	lsrs	r1, r0, #6
	movs	r0, #0
	.loc	2 168 259                       @ source/interlock_DL.c:168:259
	cmp	r1, #1
	str	r0, [sp, #308]                  @ 4-byte Spill
	bne	.LBB0_47
	b	.LBB0_45
.LBB0_45:
	.loc	2 168 263                       @ source/interlock_DL.c:168:263
	ldr	r0, [sp, #376]
	.loc	2 168 270                       @ source/interlock_DL.c:168:270
	ldrb	r0, [r0, #3]
	lsls	r0, r0, #26
	lsrs	r1, r0, #30
	movs	r0, #0
	.loc	2 168 282                       @ source/interlock_DL.c:168:282
	cmp	r1, #1
	str	r0, [sp, #308]                  @ 4-byte Spill
	bne	.LBB0_47
	b	.LBB0_46
.LBB0_46:
	.loc	2 168 286                       @ source/interlock_DL.c:168:286
	ldr	r0, [sp, #368]
	.loc	2 168 290                       @ source/interlock_DL.c:168:290
	ldrb	r0, [r0, #4]
	movs	r1, #3
	ands	r0, r1
	.loc	2 168 297                       @ source/interlock_DL.c:168:297
	subs	r0, r0, #2
	rsbs	r1, r0, #0
	adcs	r0, r1
	str	r0, [sp, #308]                  @ 4-byte Spill
	b	.LBB0_47
.LBB0_47:
	.loc	2 0 0                           @ source/interlock_DL.c:0:0
	ldr	r0, [sp, #308]                  @ 4-byte Reload
	.loc	2 168 13                        @ source/interlock_DL.c:168:13
	lsls	r1, r0, #31
	movs	r0, #2
	movs	r2, #1
	str	r2, [sp, #300]                  @ 4-byte Spill
	str	r0, [sp, #304]                  @ 4-byte Spill
	cbnz	r1, .LBB0_49
@ %bb.48:
	.loc	2 0 13                          @ source/interlock_DL.c:0:13
	ldr	r0, [sp, #300]                  @ 4-byte Reload
	str	r0, [sp, #304]                  @ 4-byte Spill
.LBB0_49:
	.loc	2 168 13                        @ source/interlock_DL.c:168:13
	ldr	r0, [sp, #304]                  @ 4-byte Reload
	.loc	2 168 11                        @ source/interlock_DL.c:168:11
	ldr	r1, __arm_cp.0_33
	strb	r0, [r1]
	.loc	2 169 15 is_stmt 1              @ source/interlock_DL.c:169:15
	ldr	r0, [sp, #368]
	.loc	2 169 19 is_stmt 0              @ source/interlock_DL.c:169:19
	ldrb	r1, [r0]
	movs	r0, #3
	ands	r1, r0
	movs	r0, #0
	.loc	2 169 33                        @ source/interlock_DL.c:169:33
	cmp	r1, #2
	str	r0, [sp, #296]                  @ 4-byte Spill
	bne	.LBB0_56
	b	.LBB0_50
.LBB0_50:
	.loc	2 169 37                        @ source/interlock_DL.c:169:37
	ldr	r0, [sp, #368]
	.loc	2 169 41                        @ source/interlock_DL.c:169:41
	ldrb	r0, [r0]
	lsrs	r1, r0, #6
	movs	r0, #0
	.loc	2 169 56                        @ source/interlock_DL.c:169:56
	cmp	r1, #2
	str	r0, [sp, #296]                  @ 4-byte Spill
	bne	.LBB0_56
	b	.LBB0_51
.LBB0_51:
	.loc	2 169 61                        @ source/interlock_DL.c:169:61
	ldr	r0, [sp, #368]
	.loc	2 169 65                        @ source/interlock_DL.c:169:65
	ldrb	r0, [r0, #3]
	lsls	r0, r0, #28
	lsrs	r1, r0, #30
	movs	r0, #0
	.loc	2 169 76                        @ source/interlock_DL.c:169:76
	cmp	r1, #1
	str	r0, [sp, #296]                  @ 4-byte Spill
	bne	.LBB0_56
	b	.LBB0_52
.LBB0_52:
	.loc	2 169 80                        @ source/interlock_DL.c:169:80
	ldr	r0, [sp, #376]
	.loc	2 169 87                        @ source/interlock_DL.c:169:87
	ldrb	r1, [r0, #1]
	movs	r0, #3
	ands	r1, r0
	movs	r0, #0
	.loc	2 169 100                       @ source/interlock_DL.c:169:100
	cmp	r1, #1
	str	r0, [sp, #296]                  @ 4-byte Spill
	bne	.LBB0_56
	b	.LBB0_53
.LBB0_53:
	.loc	2 169 104                       @ source/interlock_DL.c:169:104
	ldr	r0, [sp, #376]
	.loc	2 169 111                       @ source/interlock_DL.c:169:111
	ldrb	r0, [r0, #2]
	lsls	r0, r0, #26
	lsrs	r1, r0, #30
	movs	r0, #0
	.loc	2 169 122                       @ source/interlock_DL.c:169:122
	cmp	r1, #2
	str	r0, [sp, #296]                  @ 4-byte Spill
	bne	.LBB0_56
	b	.LBB0_54
.LBB0_54:
	.loc	2 169 126                       @ source/interlock_DL.c:169:126
	ldr	r0, [sp, #376]
	.loc	2 169 133                       @ source/interlock_DL.c:169:133
	ldrb	r0, [r0, #1]
	lsls	r0, r0, #28
	lsrs	r1, r0, #30
	movs	r0, #0
	.loc	2 169 148                       @ source/interlock_DL.c:169:148
	cmp	r1, #2
	str	r0, [sp, #296]                  @ 4-byte Spill
	bne	.LBB0_56
	b	.LBB0_55
.LBB0_55:
	.loc	2 169 152                       @ source/interlock_DL.c:169:152
	ldr	r0, [sp, #376]
	.loc	2 169 159                       @ source/interlock_DL.c:169:159
	ldrb	r0, [r0, #4]
	lsls	r0, r0, #28
	lsrs	r0, r0, #30
	.loc	2 169 165                       @ source/interlock_DL.c:169:165
	subs	r0, r0, #2
	rsbs	r1, r0, #0
	adcs	r0, r1
	str	r0, [sp, #296]                  @ 4-byte Spill
	b	.LBB0_56
.LBB0_56:
	.loc	2 0 0                           @ source/interlock_DL.c:0:0
	ldr	r0, [sp, #296]                  @ 4-byte Reload
	.loc	2 169 13                        @ source/interlock_DL.c:169:13
	lsls	r1, r0, #31
	movs	r0, #2
	movs	r2, #1
	str	r2, [sp, #288]                  @ 4-byte Spill
	str	r0, [sp, #292]                  @ 4-byte Spill
	cbnz	r1, .LBB0_58
@ %bb.57:
	.loc	2 0 13                          @ source/interlock_DL.c:0:13
	ldr	r0, [sp, #288]                  @ 4-byte Reload
	str	r0, [sp, #292]                  @ 4-byte Spill
.LBB0_58:
	.loc	2 169 13                        @ source/interlock_DL.c:169:13
	ldr	r0, [sp, #292]                  @ 4-byte Reload
	.loc	2 169 11                        @ source/interlock_DL.c:169:11
	ldr	r1, __arm_cp.0_34
	strb	r0, [r1]
	.loc	2 170 15 is_stmt 1              @ source/interlock_DL.c:170:15
	ldr	r0, [sp, #368]
	.loc	2 170 19 is_stmt 0              @ source/interlock_DL.c:170:19
	ldrb	r1, [r0]
	movs	r0, #3
	ands	r1, r0
	movs	r0, #0
	.loc	2 170 33                        @ source/interlock_DL.c:170:33
	cmp	r1, #2
	str	r0, [sp, #284]                  @ 4-byte Spill
	bne	.LBB0_65
	b	.LBB0_59
.LBB0_59:
	.loc	2 170 37                        @ source/interlock_DL.c:170:37
	ldr	r0, [sp, #368]
	.loc	2 170 41                        @ source/interlock_DL.c:170:41
	ldrb	r0, [r0]
	lsrs	r1, r0, #6
	movs	r0, #0
	.loc	2 170 56                        @ source/interlock_DL.c:170:56
	cmp	r1, #2
	str	r0, [sp, #284]                  @ 4-byte Spill
	bne	.LBB0_65
	b	.LBB0_60
.LBB0_60:
	.loc	2 170 60                        @ source/interlock_DL.c:170:60
	ldr	r0, [sp, #368]
	.loc	2 170 64                        @ source/interlock_DL.c:170:64
	ldrb	r0, [r0, #3]
	lsls	r0, r0, #28
	lsrs	r1, r0, #30
	movs	r0, #0
	.loc	2 170 75                        @ source/interlock_DL.c:170:75
	cmp	r1, #1
	str	r0, [sp, #284]                  @ 4-byte Spill
	bne	.LBB0_65
	b	.LBB0_61
.LBB0_61:
	.loc	2 170 80                        @ source/interlock_DL.c:170:80
	ldr	r0, [sp, #376]
	.loc	2 170 87                        @ source/interlock_DL.c:170:87
	ldrb	r1, [r0, #1]
	movs	r0, #3
	ands	r1, r0
	movs	r0, #0
	.loc	2 170 100                       @ source/interlock_DL.c:170:100
	cmp	r1, #1
	str	r0, [sp, #284]                  @ 4-byte Spill
	bne	.LBB0_65
	b	.LBB0_62
.LBB0_62:
	.loc	2 170 104                       @ source/interlock_DL.c:170:104
	ldr	r0, [sp, #376]
	.loc	2 170 111                       @ source/interlock_DL.c:170:111
	ldrb	r0, [r0, #2]
	lsls	r0, r0, #26
	lsrs	r1, r0, #30
	movs	r0, #0
	.loc	2 170 122                       @ source/interlock_DL.c:170:122
	cmp	r1, #1
	str	r0, [sp, #284]                  @ 4-byte Spill
	bne	.LBB0_65
	b	.LBB0_63
.LBB0_63:
	.loc	2 170 126                       @ source/interlock_DL.c:170:126
	ldr	r0, [sp, #376]
	.loc	2 170 133                       @ source/interlock_DL.c:170:133
	ldrb	r0, [r0, #1]
	lsls	r0, r0, #28
	lsrs	r1, r0, #30
	movs	r0, #0
	.loc	2 170 148                       @ source/interlock_DL.c:170:148
	cmp	r1, #2
	str	r0, [sp, #284]                  @ 4-byte Spill
	bne	.LBB0_65
	b	.LBB0_64
.LBB0_64:
	.loc	2 170 152                       @ source/interlock_DL.c:170:152
	ldr	r0, [sp, #376]
	.loc	2 170 159                       @ source/interlock_DL.c:170:159
	ldrb	r0, [r0, #3]
	lsls	r0, r0, #26
	lsrs	r0, r0, #30
	.loc	2 170 163                       @ source/interlock_DL.c:170:163
	subs	r0, r0, #2
	rsbs	r1, r0, #0
	adcs	r0, r1
	str	r0, [sp, #284]                  @ 4-byte Spill
	b	.LBB0_65
.LBB0_65:
	.loc	2 0 0                           @ source/interlock_DL.c:0:0
	ldr	r0, [sp, #284]                  @ 4-byte Reload
	.loc	2 170 13                        @ source/interlock_DL.c:170:13
	lsls	r1, r0, #31
	movs	r0, #2
	movs	r2, #1
	str	r2, [sp, #276]                  @ 4-byte Spill
	str	r0, [sp, #280]                  @ 4-byte Spill
	cbnz	r1, .LBB0_67
@ %bb.66:
	.loc	2 0 13                          @ source/interlock_DL.c:0:13
	ldr	r0, [sp, #276]                  @ 4-byte Reload
	str	r0, [sp, #280]                  @ 4-byte Spill
.LBB0_67:
	.loc	2 170 13                        @ source/interlock_DL.c:170:13
	ldr	r0, [sp, #280]                  @ 4-byte Reload
	.loc	2 170 11                        @ source/interlock_DL.c:170:11
	ldr	r1, __arm_cp.0_35
	strb	r0, [r1]
	.loc	2 172 16 is_stmt 1              @ source/interlock_DL.c:172:16
	ldr	r0, [sp, #368]
	.loc	2 172 20 is_stmt 0              @ source/interlock_DL.c:172:20
	ldrb	r0, [r0]
	lsls	r0, r0, #28
	lsrs	r1, r0, #30
	movs	r0, #0
	.loc	2 172 34                        @ source/interlock_DL.c:172:34
	cmp	r1, #2
	str	r0, [sp, #272]                  @ 4-byte Spill
	bne	.LBB0_71
	b	.LBB0_68
.LBB0_68:
	.loc	2 172 38                        @ source/interlock_DL.c:172:38
	ldr	r0, [sp, #368]
	.loc	2 172 42                        @ source/interlock_DL.c:172:42
	ldrb	r0, [r0, #1]
	lsls	r0, r0, #28
	lsrs	r1, r0, #30
	movs	r0, #0
	.loc	2 172 59                        @ source/interlock_DL.c:172:59
	cmp	r1, #2
	str	r0, [sp, #272]                  @ 4-byte Spill
	bne	.LBB0_71
	b	.LBB0_69
.LBB0_69:
	.loc	2 172 63                        @ source/interlock_DL.c:172:63
	ldr	r0, [sp, #384]
	.loc	2 172 70                        @ source/interlock_DL.c:172:70
	ldrb	r1, [r0]
	movs	r0, #3
	ands	r1, r0
	movs	r0, #0
	.loc	2 172 82                        @ source/interlock_DL.c:172:82
	cmp	r1, #2
	str	r0, [sp, #272]                  @ 4-byte Spill
	bne	.LBB0_71
	b	.LBB0_70
.LBB0_70:
	.loc	2 172 86                        @ source/interlock_DL.c:172:86
	ldr	r0, [sp, #376]
	.loc	2 172 93                        @ source/interlock_DL.c:172:93
	ldrb	r0, [r0]
	lsls	r0, r0, #28
	lsrs	r0, r0, #30
	.loc	2 172 98                        @ source/interlock_DL.c:172:98
	subs	r0, r0, #2
	rsbs	r1, r0, #0
	adcs	r0, r1
	str	r0, [sp, #272]                  @ 4-byte Spill
	b	.LBB0_71
.LBB0_71:
	.loc	2 0 0                           @ source/interlock_DL.c:0:0
	ldr	r0, [sp, #272]                  @ 4-byte Reload
	.loc	2 172 14                        @ source/interlock_DL.c:172:14
	lsls	r1, r0, #31
	movs	r0, #2
	movs	r2, #1
	str	r2, [sp, #264]                  @ 4-byte Spill
	str	r0, [sp, #268]                  @ 4-byte Spill
	cbnz	r1, .LBB0_73
@ %bb.72:
	.loc	2 0 14                          @ source/interlock_DL.c:0:14
	ldr	r0, [sp, #264]                  @ 4-byte Reload
	str	r0, [sp, #268]                  @ 4-byte Spill
.LBB0_73:
	.loc	2 172 14                        @ source/interlock_DL.c:172:14
	ldr	r0, [sp, #268]                  @ 4-byte Reload
	.loc	2 172 12                        @ source/interlock_DL.c:172:12
	ldr	r1, __arm_cp.0_36
	strb	r0, [r1]
	.loc	2 173 16 is_stmt 1              @ source/interlock_DL.c:173:16
	ldr	r0, [sp, #368]
	.loc	2 173 20 is_stmt 0              @ source/interlock_DL.c:173:20
	ldrb	r0, [r0]
	lsls	r0, r0, #28
	lsrs	r1, r0, #30
	movs	r0, #0
	.loc	2 173 34                        @ source/interlock_DL.c:173:34
	cmp	r1, #2
	str	r0, [sp, #260]                  @ 4-byte Spill
	bne	.LBB0_77
	b	.LBB0_74
.LBB0_74:
	.loc	2 173 38                        @ source/interlock_DL.c:173:38
	ldr	r0, [sp, #368]
	.loc	2 173 42                        @ source/interlock_DL.c:173:42
	ldrb	r0, [r0, #1]
	lsls	r0, r0, #28
	lsrs	r1, r0, #30
	movs	r0, #0
	.loc	2 173 59                        @ source/interlock_DL.c:173:59
	cmp	r1, #2
	str	r0, [sp, #260]                  @ 4-byte Spill
	bne	.LBB0_77
	b	.LBB0_75
.LBB0_75:
	.loc	2 173 63                        @ source/interlock_DL.c:173:63
	ldr	r0, [sp, #368]
	.loc	2 173 67                        @ source/interlock_DL.c:173:67
	ldrb	r0, [r0, #4]
	lsls	r0, r0, #28
	lsrs	r1, r0, #30
	movs	r0, #0
	.loc	2 173 80                        @ source/interlock_DL.c:173:80
	cmp	r1, #2
	str	r0, [sp, #260]                  @ 4-byte Spill
	bne	.LBB0_77
	b	.LBB0_76
.LBB0_76:
	.loc	2 173 84                        @ source/interlock_DL.c:173:84
	ldr	r0, [sp, #384]
	.loc	2 173 91                        @ source/interlock_DL.c:173:91
	ldrb	r0, [r0]
	movs	r1, #3
	ands	r0, r1
	.loc	2 173 95                        @ source/interlock_DL.c:173:95
	subs	r0, r0, #2
	rsbs	r1, r0, #0
	adcs	r0, r1
	str	r0, [sp, #260]                  @ 4-byte Spill
	b	.LBB0_77
.LBB0_77:
	.loc	2 0 0                           @ source/interlock_DL.c:0:0
	ldr	r0, [sp, #260]                  @ 4-byte Reload
	.loc	2 173 14                        @ source/interlock_DL.c:173:14
	lsls	r1, r0, #31
	movs	r0, #2
	movs	r2, #1
	str	r2, [sp, #252]                  @ 4-byte Spill
	str	r0, [sp, #256]                  @ 4-byte Spill
	cbnz	r1, .LBB0_79
@ %bb.78:
	.loc	2 0 14                          @ source/interlock_DL.c:0:14
	ldr	r0, [sp, #252]                  @ 4-byte Reload
	str	r0, [sp, #256]                  @ 4-byte Spill
.LBB0_79:
	.loc	2 173 14                        @ source/interlock_DL.c:173:14
	ldr	r0, [sp, #256]                  @ 4-byte Reload
	.loc	2 173 12                        @ source/interlock_DL.c:173:12
	ldr	r1, __arm_cp.0_37
	strb	r0, [r1]
	.loc	2 175 18 is_stmt 1              @ source/interlock_DL.c:175:18
	ldr	r0, [sp, #368]
	.loc	2 175 22 is_stmt 0              @ source/interlock_DL.c:175:22
	ldrb	r0, [r0]
	lsls	r0, r0, #28
	lsrs	r1, r0, #30
	movs	r0, #0
	.loc	2 175 36                        @ source/interlock_DL.c:175:36
	cmp	r1, #2
	str	r0, [sp, #248]                  @ 4-byte Spill
	bne	.LBB0_85
	b	.LBB0_80
.LBB0_80:
	.loc	2 175 40                        @ source/interlock_DL.c:175:40
	ldr	r0, [sp, #368]
	.loc	2 175 44                        @ source/interlock_DL.c:175:44
	ldrb	r0, [r0]
	lsls	r0, r0, #26
	lsrs	r1, r0, #30
	movs	r0, #0
	.loc	2 175 58                        @ source/interlock_DL.c:175:58
	cmp	r1, #2
	str	r0, [sp, #248]                  @ 4-byte Spill
	bne	.LBB0_85
	b	.LBB0_81
.LBB0_81:
	.loc	2 175 62                        @ source/interlock_DL.c:175:62
	ldr	r0, [sp, #368]
	.loc	2 175 66                        @ source/interlock_DL.c:175:66
	ldrb	r0, [r0, #2]
	lsls	r0, r0, #26
	lsrs	r1, r0, #30
	movs	r0, #0
	.loc	2 175 78                        @ source/interlock_DL.c:175:78
	cmp	r1, #2
	str	r0, [sp, #248]                  @ 4-byte Spill
	bne	.LBB0_85
	b	.LBB0_82
.LBB0_82:
	.loc	2 175 82                        @ source/interlock_DL.c:175:82
	ldr	r0, [sp, #368]
	.loc	2 175 86                        @ source/interlock_DL.c:175:86
	ldrb	r0, [r0, #2]
	lsrs	r1, r0, #6
	movs	r0, #0
	.loc	2 175 97                        @ source/interlock_DL.c:175:97
	cmp	r1, #2
	str	r0, [sp, #248]                  @ 4-byte Spill
	bne	.LBB0_85
	b	.LBB0_83
.LBB0_83:
	.loc	2 175 101                       @ source/interlock_DL.c:175:101
	ldr	r0, [sp, #384]
	.loc	2 175 108                       @ source/interlock_DL.c:175:108
	ldrb	r1, [r0]
	movs	r0, #3
	ands	r1, r0
	movs	r0, #0
	.loc	2 175 120                       @ source/interlock_DL.c:175:120
	cmp	r1, #1
	str	r0, [sp, #248]                  @ 4-byte Spill
	bne	.LBB0_85
	b	.LBB0_84
.LBB0_84:
	.loc	2 175 124                       @ source/interlock_DL.c:175:124
	ldr	r0, [sp, #368]
	.loc	2 175 128                       @ source/interlock_DL.c:175:128
	ldrb	r0, [r0, #3]
	lsrs	r0, r0, #6
	.loc	2 175 134                       @ source/interlock_DL.c:175:134
	subs	r0, r0, #2
	rsbs	r1, r0, #0
	adcs	r0, r1
	str	r0, [sp, #248]                  @ 4-byte Spill
	b	.LBB0_85
.LBB0_85:
	.loc	2 0 0                           @ source/interlock_DL.c:0:0
	ldr	r0, [sp, #248]                  @ 4-byte Reload
	.loc	2 175 16                        @ source/interlock_DL.c:175:16
	lsls	r1, r0, #31
	movs	r0, #2
	movs	r2, #1
	str	r2, [sp, #240]                  @ 4-byte Spill
	str	r0, [sp, #244]                  @ 4-byte Spill
	cbnz	r1, .LBB0_87
@ %bb.86:
	.loc	2 0 16                          @ source/interlock_DL.c:0:16
	ldr	r0, [sp, #240]                  @ 4-byte Reload
	str	r0, [sp, #244]                  @ 4-byte Spill
.LBB0_87:
	.loc	2 175 16                        @ source/interlock_DL.c:175:16
	ldr	r2, [sp, #244]                  @ 4-byte Reload
	.loc	2 175 4                         @ source/interlock_DL.c:175:4
	ldr	r1, [sp, #372]
	.loc	2 175 14                        @ source/interlock_DL.c:175:14
	ldrb	r0, [r1]
	movs	r3, #252
	ands	r0, r3
	adds	r0, r0, r2
	strb	r0, [r1]
	.loc	2 176 18 is_stmt 1              @ source/interlock_DL.c:176:18
	ldr	r0, [sp, #356]
	.loc	2 176 25 is_stmt 0              @ source/interlock_DL.c:176:25
	ldrb	r0, [r0]
	lsls	r0, r0, #26
	lsrs	r1, r0, #30
	movs	r0, #0
	.loc	2 176 37                        @ source/interlock_DL.c:176:37
	cmp	r1, #2
	str	r0, [sp, #236]                  @ 4-byte Spill
	bne	.LBB0_90
	b	.LBB0_88
.LBB0_88:
	.loc	2 176 41                        @ source/interlock_DL.c:176:41
	ldr	r0, [sp, #360]
	.loc	2 176 48                        @ source/interlock_DL.c:176:48
	ldrb	r0, [r0, #2]
	lsrs	r1, r0, #6
	movs	r0, #0
	.loc	2 176 60                        @ source/interlock_DL.c:176:60
	cmp	r1, #2
	str	r0, [sp, #236]                  @ 4-byte Spill
	bne	.LBB0_90
	b	.LBB0_89
.LBB0_89:
	.loc	2 176 64                        @ source/interlock_DL.c:176:64
	ldr	r0, [sp, #368]
	.loc	2 176 68                        @ source/interlock_DL.c:176:68
	ldrb	r0, [r0, #3]
	lsrs	r0, r0, #6
	.loc	2 176 74                        @ source/interlock_DL.c:176:74
	subs	r0, r0, #2
	rsbs	r1, r0, #0
	adcs	r0, r1
	str	r0, [sp, #236]                  @ 4-byte Spill
	b	.LBB0_90
.LBB0_90:
	.loc	2 0 0                           @ source/interlock_DL.c:0:0
	ldr	r0, [sp, #236]                  @ 4-byte Reload
	.loc	2 176 16                        @ source/interlock_DL.c:176:16
	lsls	r1, r0, #31
	movs	r0, #8
	movs	r2, #4
	str	r2, [sp, #228]                  @ 4-byte Spill
	str	r0, [sp, #232]                  @ 4-byte Spill
	cbnz	r1, .LBB0_92
@ %bb.91:
	.loc	2 0 16                          @ source/interlock_DL.c:0:16
	ldr	r0, [sp, #228]                  @ 4-byte Reload
	str	r0, [sp, #232]                  @ 4-byte Spill
.LBB0_92:
	.loc	2 176 16                        @ source/interlock_DL.c:176:16
	ldr	r2, [sp, #232]                  @ 4-byte Reload
	.loc	2 176 4                         @ source/interlock_DL.c:176:4
	ldr	r1, [sp, #372]
	.loc	2 176 14                        @ source/interlock_DL.c:176:14
	ldrb	r0, [r1]
	movs	r3, #243
	ands	r0, r3
	adds	r0, r0, r2
	strb	r0, [r1]
	.loc	2 177 18 is_stmt 1              @ source/interlock_DL.c:177:18
	ldr	r0, [sp, #356]
	.loc	2 177 25 is_stmt 0              @ source/interlock_DL.c:177:25
	ldrb	r0, [r0]
	lsls	r0, r0, #26
	lsrs	r1, r0, #30
	movs	r0, #0
	.loc	2 177 37                        @ source/interlock_DL.c:177:37
	cmp	r1, #2
	str	r0, [sp, #224]                  @ 4-byte Spill
	bne	.LBB0_101
	b	.LBB0_100
	.loc	2 0 37                          @ :0:37
.Ltmp3:
	.p2align	2
@ %bb.93:
__arm_cp.0_31:
	.long	TGTR_2
.Lcpi_end10:
	.size	__arm_cp.0_31, .Lcpi_end10-__arm_cp.0_31
	.p2align	2
@ %bb.94:
__arm_cp.0_32:
	.long	TGTR_3
.Lcpi_end11:
	.size	__arm_cp.0_32, .Lcpi_end11-__arm_cp.0_32
	.p2align	2
@ %bb.95:
__arm_cp.0_33:
	.long	TCFR_1
.Lcpi_end12:
	.size	__arm_cp.0_33, .Lcpi_end12-__arm_cp.0_33
	.p2align	2
@ %bb.96:
__arm_cp.0_34:
	.long	TCFR_2
.Lcpi_end13:
	.size	__arm_cp.0_34, .Lcpi_end13-__arm_cp.0_34
	.p2align	2
@ %bb.97:
__arm_cp.0_35:
	.long	TCFR_3
.Lcpi_end14:
	.size	__arm_cp.0_35, .Lcpi_end14-__arm_cp.0_35
	.p2align	2
@ %bb.98:
__arm_cp.0_36:
	.long	ASCR_1
.Lcpi_end15:
	.size	__arm_cp.0_36, .Lcpi_end15-__arm_cp.0_36
	.p2align	2
@ %bb.99:
__arm_cp.0_37:
	.long	ASCR_2
.Lcpi_end16:
	.size	__arm_cp.0_37, .Lcpi_end16-__arm_cp.0_37
	.p2align	1
.LBB0_100:
	.loc	2 177 41                        @ source/interlock_DL.c:177:41
	ldr	r0, [sp, #364]
	.loc	2 177 48                        @ source/interlock_DL.c:177:48
	ldrb	r0, [r0]
	lsrs	r0, r0, #6
	.loc	2 177 54                        @ source/interlock_DL.c:177:54
	subs	r0, r0, #2
	rsbs	r1, r0, #0
	adcs	r0, r1
	str	r0, [sp, #224]                  @ 4-byte Spill
	b	.LBB0_101
.LBB0_101:
	.loc	2 0 0                           @ source/interlock_DL.c:0:0
	ldr	r0, [sp, #224]                  @ 4-byte Reload
	.loc	2 177 16                        @ source/interlock_DL.c:177:16
	lsls	r1, r0, #31
	movs	r0, #128
	movs	r2, #64
	str	r2, [sp, #216]                  @ 4-byte Spill
	str	r0, [sp, #220]                  @ 4-byte Spill
	cbnz	r1, .LBB0_103
@ %bb.102:
	.loc	2 0 16                          @ source/interlock_DL.c:0:16
	ldr	r0, [sp, #216]                  @ 4-byte Reload
	str	r0, [sp, #220]                  @ 4-byte Spill
.LBB0_103:
	.loc	2 177 16                        @ source/interlock_DL.c:177:16
	ldr	r2, [sp, #220]                  @ 4-byte Reload
	.loc	2 177 4                         @ source/interlock_DL.c:177:4
	ldr	r1, [sp, #372]
	.loc	2 177 14                        @ source/interlock_DL.c:177:14
	ldrb	r0, [r1]
	movs	r3, #63
	ands	r0, r3
	adds	r0, r0, r2
	strb	r0, [r1]
	.loc	2 178 18 is_stmt 1              @ source/interlock_DL.c:178:18
	ldr	r0, [sp, #360]
	.loc	2 178 25 is_stmt 0              @ source/interlock_DL.c:178:25
	ldrb	r1, [r0]
	movs	r0, #3
	str	r0, [sp, #200]                  @ 4-byte Spill
	ands	r1, r0
	str	r1, [sp, #204]                  @ 4-byte Spill
	movs	r0, #1
	.loc	2 178 16                        @ source/interlock_DL.c:178:16
	str	r0, [sp, #208]                  @ 4-byte Spill
	cmp	r1, #2
	str	r0, [sp, #212]                  @ 4-byte Spill
	bne	.LBB0_105
@ %bb.104:
	.loc	2 0 16                          @ source/interlock_DL.c:0:16
	ldr	r0, [sp, #204]                  @ 4-byte Reload
	str	r0, [sp, #212]                  @ 4-byte Spill
.LBB0_105:
	.loc	2 178 16                        @ source/interlock_DL.c:178:16
	ldr	r0, [sp, #208]                  @ 4-byte Reload
	ldr	r3, [sp, #212]                  @ 4-byte Reload
	.loc	2 178 4                         @ source/interlock_DL.c:178:4
	ldr	r2, [sp, #372]
	.loc	2 178 14                        @ source/interlock_DL.c:178:14
	ldrb	r1, [r2, #1]
	movs	r4, #252
	ands	r1, r4
	adds	r1, r1, r3
	strb	r1, [r2, #1]
	.loc	2 179 20 is_stmt 1              @ source/interlock_DL.c:179:20
	ldr	r1, [sp, #364]
	.loc	2 179 27 is_stmt 0              @ source/interlock_DL.c:179:27
	ldrb	r1, [r1]
	lsls	r1, r1, #26
	lsrs	r1, r1, #30
	.loc	2 179 18                        @ source/interlock_DL.c:179:18
	str	r1, [sp, #192]                  @ 4-byte Spill
	cmp	r1, #2
	str	r0, [sp, #196]                  @ 4-byte Spill
	bne	.LBB0_107
@ %bb.106:
	.loc	2 0 18                          @ source/interlock_DL.c:0:18
	ldr	r0, [sp, #192]                  @ 4-byte Reload
	str	r0, [sp, #196]                  @ 4-byte Spill
.LBB0_107:
	.loc	2 179 18                        @ source/interlock_DL.c:179:18
	ldr	r0, [sp, #200]                  @ 4-byte Reload
	ldr	r3, [sp, #196]                  @ 4-byte Reload
	.loc	2 179 4                         @ source/interlock_DL.c:179:4
	ldr	r2, [sp, #372]
	.loc	2 179 16                        @ source/interlock_DL.c:179:16
	ldrb	r1, [r2, #1]
	lsls	r3, r3, #2
	movs	r4, #243
	ands	r1, r4
	adds	r1, r1, r3
	strb	r1, [r2, #1]
	.loc	2 180 10 is_stmt 1              @ source/interlock_DL.c:180:10
	ldr	r1, [sp, #368]
	.loc	2 180 14 is_stmt 0              @ source/interlock_DL.c:180:14
	ldrb	r1, [r1]
	ands	r1, r0
	movs	r0, #0
	.loc	2 180 28                        @ source/interlock_DL.c:180:28
	cmp	r1, #2
	str	r0, [sp, #188]                  @ 4-byte Spill
	bne	.LBB0_115
	b	.LBB0_108
.LBB0_108:
	.loc	2 180 32                        @ source/interlock_DL.c:180:32
	ldr	r0, [sp, #368]
	.loc	2 180 36                        @ source/interlock_DL.c:180:36
	ldrb	r0, [r0]
	lsrs	r1, r0, #6
	movs	r0, #0
	.loc	2 180 50                        @ source/interlock_DL.c:180:50
	cmp	r1, #2
	str	r0, [sp, #188]                  @ 4-byte Spill
	bne	.LBB0_115
	b	.LBB0_109
.LBB0_109:
	.loc	2 180 54                        @ source/interlock_DL.c:180:54
	ldr	r0, [sp, #368]
	.loc	2 180 58                        @ source/interlock_DL.c:180:58
	ldrb	r0, [r0, #2]
	lsrs	r1, r0, #6
	movs	r0, #0
	.loc	2 180 69                        @ source/interlock_DL.c:180:69
	cmp	r1, #2
	str	r0, [sp, #188]                  @ 4-byte Spill
	bne	.LBB0_115
	b	.LBB0_110
.LBB0_110:
	.loc	2 180 73                        @ source/interlock_DL.c:180:73
	ldr	r0, [sp, #368]
	.loc	2 180 77                        @ source/interlock_DL.c:180:77
	ldrb	r0, [r0, #3]
	lsls	r0, r0, #28
	lsrs	r1, r0, #30
	movs	r0, #0
	.loc	2 180 88                        @ source/interlock_DL.c:180:88
	cmp	r1, #2
	str	r0, [sp, #188]                  @ 4-byte Spill
	bne	.LBB0_115
	b	.LBB0_111
.LBB0_111:
	.loc	2 180 93                        @ source/interlock_DL.c:180:93
	ldr	r0, [sp, #376]
	.loc	2 180 100                       @ source/interlock_DL.c:180:100
	ldrb	r0, [r0, #1]
	lsls	r0, r0, #28
	lsrs	r1, r0, #30
	movs	r0, #0
	.loc	2 180 115                       @ source/interlock_DL.c:180:115
	cmp	r1, #2
	str	r0, [sp, #188]                  @ 4-byte Spill
	bne	.LBB0_115
	b	.LBB0_112
.LBB0_112:
	.loc	2 180 119                       @ source/interlock_DL.c:180:119
	ldr	r0, [sp, #376]
	.loc	2 180 126                       @ source/interlock_DL.c:180:126
	ldrb	r1, [r0, #5]
	movs	r0, #3
	ands	r1, r0
	movs	r0, #0
	.loc	2 180 139                       @ source/interlock_DL.c:180:139
	cmp	r1, #2
	str	r0, [sp, #188]                  @ 4-byte Spill
	bne	.LBB0_115
	b	.LBB0_113
.LBB0_113:
	.loc	2 180 143                       @ source/interlock_DL.c:180:143
	ldr	r0, [sp, #384]
	.loc	2 180 150                       @ source/interlock_DL.c:180:150
	ldrb	r0, [r0]
	lsls	r0, r0, #26
	lsrs	r1, r0, #30
	movs	r0, #0
	.loc	2 180 162                       @ source/interlock_DL.c:180:162
	cmp	r1, #2
	str	r0, [sp, #188]                  @ 4-byte Spill
	bne	.LBB0_115
	b	.LBB0_114
.LBB0_114:
	.loc	2 180 166                       @ source/interlock_DL.c:180:166
	ldr	r0, [sp, #368]
	.loc	2 180 170                       @ source/interlock_DL.c:180:170
	ldrb	r0, [r0, #3]
	lsrs	r0, r0, #6
	.loc	2 180 176                       @ source/interlock_DL.c:180:176
	subs	r0, r0, #2
	rsbs	r1, r0, #0
	adcs	r0, r1
	str	r0, [sp, #188]                  @ 4-byte Spill
	b	.LBB0_115
.LBB0_115:
	.loc	2 0 0                           @ source/interlock_DL.c:0:0
	ldr	r2, [sp, #188]                  @ 4-byte Reload
	movs	r0, #1
	.loc	2 180 6                         @ source/interlock_DL.c:180:6
	ands	r2, r0
	add	r1, sp, #392
	strb	r2, [r1]
	.loc	2 181 8 is_stmt 1               @ source/interlock_DL.c:181:8
	ldrb	r1, [r1]
	.loc	2 181 10 is_stmt 0              @ source/interlock_DL.c:181:10
	lsls	r1, r1, #31
	str	r0, [sp, #184]                  @ 4-byte Spill
	cbnz	r1, .LBB0_120
	b	.LBB0_116
.LBB0_116:
	.loc	2 181 15                        @ source/interlock_DL.c:181:15
	ldr	r0, [sp, #368]
	.loc	2 181 19                        @ source/interlock_DL.c:181:19
	ldrb	r1, [r0]
	movs	r0, #3
	ands	r1, r0
	movs	r0, #0
	.loc	2 181 33                        @ source/interlock_DL.c:181:33
	cmp	r1, #2
	str	r0, [sp, #180]                  @ 4-byte Spill
	bne	.LBB0_119
	b	.LBB0_117
.LBB0_117:
	.loc	2 181 37                        @ source/interlock_DL.c:181:37
	ldr	r0, [sp, #376]
	.loc	2 181 44                        @ source/interlock_DL.c:181:44
	ldrb	r0, [r0, #2]
	lsls	r0, r0, #26
	lsrs	r1, r0, #30
	movs	r0, #0
	.loc	2 181 55                        @ source/interlock_DL.c:181:55
	cmp	r1, #2
	str	r0, [sp, #180]                  @ 4-byte Spill
	bne	.LBB0_119
	b	.LBB0_118
.LBB0_118:
	.loc	2 181 59                        @ source/interlock_DL.c:181:59
	ldr	r0, [sp, #384]
	.loc	2 181 66                        @ source/interlock_DL.c:181:66
	ldrb	r0, [r0]
	lsls	r0, r0, #26
	lsrs	r0, r0, #30
	.loc	2 181 70                        @ source/interlock_DL.c:181:70
	subs	r0, r0, #2
	rsbs	r1, r0, #0
	adcs	r0, r1
	str	r0, [sp, #180]                  @ 4-byte Spill
	b	.LBB0_119
.LBB0_119:
	.loc	2 0 0                           @ source/interlock_DL.c:0:0
	ldr	r0, [sp, #180]                  @ 4-byte Reload
	.loc	2 181 10                        @ source/interlock_DL.c:181:10
	str	r0, [sp, #184]                  @ 4-byte Spill
	b	.LBB0_120
.LBB0_120:
	.loc	2 0 10                          @ source/interlock_DL.c:0:10
	ldr	r1, [sp, #184]                  @ 4-byte Reload
	movs	r0, #1
	.loc	2 181 6                         @ source/interlock_DL.c:181:6
	ands	r1, r0
	add	r0, sp, #392
	strb	r1, [r0]
	.loc	2 182 14 is_stmt 1              @ source/interlock_DL.c:182:14
	ldrb	r0, [r0]
	lsls	r1, r0, #31
	movs	r0, #32
	movs	r2, #16
	str	r2, [sp, #172]                  @ 4-byte Spill
	str	r0, [sp, #176]                  @ 4-byte Spill
	cbnz	r1, .LBB0_122
@ %bb.121:
	.loc	2 0 14 is_stmt 0                @ source/interlock_DL.c:0:14
	ldr	r0, [sp, #172]                  @ 4-byte Reload
	str	r0, [sp, #176]                  @ 4-byte Spill
.LBB0_122:
	.loc	2 182 14                        @ source/interlock_DL.c:182:14
	ldr	r2, [sp, #176]                  @ 4-byte Reload
	.loc	2 182 4                         @ source/interlock_DL.c:182:4
	ldr	r1, [sp, #372]
	.loc	2 182 12                        @ source/interlock_DL.c:182:12
	ldrb	r0, [r1, #2]
	movs	r3, #207
	ands	r0, r3
	adds	r0, r0, r2
	strb	r0, [r1, #2]
	.loc	2 183 10 is_stmt 1              @ source/interlock_DL.c:183:10
	ldr	r0, [sp, #368]
	.loc	2 183 14 is_stmt 0              @ source/interlock_DL.c:183:14
	ldrb	r1, [r0]
	movs	r0, #3
	ands	r1, r0
	movs	r0, #0
	.loc	2 183 28                        @ source/interlock_DL.c:183:28
	cmp	r1, #2
	str	r0, [sp, #168]                  @ 4-byte Spill
	bne	.LBB0_125
	b	.LBB0_123
.LBB0_123:
	.loc	2 183 32                        @ source/interlock_DL.c:183:32
	ldr	r0, [sp, #376]
	.loc	2 183 39                        @ source/interlock_DL.c:183:39
	ldrb	r0, [r0, #2]
	lsls	r0, r0, #26
	lsrs	r1, r0, #30
	movs	r0, #0
	.loc	2 183 50                        @ source/interlock_DL.c:183:50
	cmp	r1, #1
	str	r0, [sp, #168]                  @ 4-byte Spill
	bne	.LBB0_125
	b	.LBB0_124
.LBB0_124:
	.loc	2 183 54                        @ source/interlock_DL.c:183:54
	ldr	r0, [sp, #384]
	.loc	2 183 61                        @ source/interlock_DL.c:183:61
	ldrb	r0, [r0]
	lsls	r0, r0, #26
	lsrs	r0, r0, #30
	.loc	2 183 65                        @ source/interlock_DL.c:183:65
	subs	r0, r0, #1
	rsbs	r1, r0, #0
	adcs	r0, r1
	str	r0, [sp, #168]                  @ 4-byte Spill
	b	.LBB0_125
.LBB0_125:
	.loc	2 0 0                           @ source/interlock_DL.c:0:0
	ldr	r2, [sp, #168]                  @ 4-byte Reload
	movs	r0, #1
	.loc	2 183 6                         @ source/interlock_DL.c:183:6
	ands	r2, r0
	add	r1, sp, #392
	strb	r2, [r1]
	.loc	2 184 8 is_stmt 1               @ source/interlock_DL.c:184:8
	ldrb	r1, [r1]
	.loc	2 184 10 is_stmt 0              @ source/interlock_DL.c:184:10
	lsls	r1, r1, #31
	str	r0, [sp, #164]                  @ 4-byte Spill
	cbnz	r1, .LBB0_130
	b	.LBB0_126
.LBB0_126:
	.loc	2 184 15                        @ source/interlock_DL.c:184:15
	ldr	r0, [sp, #368]
	.loc	2 184 19                        @ source/interlock_DL.c:184:19
	ldrb	r1, [r0]
	movs	r0, #3
	ands	r1, r0
	movs	r0, #0
	.loc	2 184 33                        @ source/interlock_DL.c:184:33
	cmp	r1, #2
	str	r0, [sp, #160]                  @ 4-byte Spill
	bne	.LBB0_129
	b	.LBB0_127
.LBB0_127:
	.loc	2 184 37                        @ source/interlock_DL.c:184:37
	ldr	r0, [sp, #376]
	.loc	2 184 44                        @ source/interlock_DL.c:184:44
	ldrb	r0, [r0, #2]
	lsrs	r1, r0, #6
	movs	r0, #0
	.loc	2 184 56                        @ source/interlock_DL.c:184:56
	cmp	r1, #2
	str	r0, [sp, #160]                  @ 4-byte Spill
	bne	.LBB0_129
	b	.LBB0_128
.LBB0_128:
	.loc	2 184 60                        @ source/interlock_DL.c:184:60
	ldr	r0, [sp, #376]
	.loc	2 184 67                        @ source/interlock_DL.c:184:67
	ldrb	r0, [r0, #2]
	lsls	r0, r0, #26
	lsrs	r0, r0, #30
	.loc	2 184 70                        @ source/interlock_DL.c:184:70
	subs	r0, r0, #1
	rsbs	r1, r0, #0
	adcs	r0, r1
	str	r0, [sp, #160]                  @ 4-byte Spill
	b	.LBB0_129
.LBB0_129:
	.loc	2 0 0                           @ source/interlock_DL.c:0:0
	ldr	r0, [sp, #160]                  @ 4-byte Reload
	.loc	2 184 10                        @ source/interlock_DL.c:184:10
	str	r0, [sp, #164]                  @ 4-byte Spill
	b	.LBB0_130
.LBB0_130:
	.loc	2 0 10                          @ source/interlock_DL.c:0:10
	ldr	r1, [sp, #164]                  @ 4-byte Reload
	movs	r0, #1
	.loc	2 184 6                         @ source/interlock_DL.c:184:6
	ands	r1, r0
	add	r0, sp, #392
	strb	r1, [r0]
	.loc	2 185 15 is_stmt 1              @ source/interlock_DL.c:185:15
	ldrb	r0, [r0]
	lsls	r1, r0, #31
	movs	r0, #128
	movs	r2, #64
	str	r2, [sp, #152]                  @ 4-byte Spill
	str	r0, [sp, #156]                  @ 4-byte Spill
	cbnz	r1, .LBB0_132
@ %bb.131:
	.loc	2 0 15 is_stmt 0                @ source/interlock_DL.c:0:15
	ldr	r0, [sp, #152]                  @ 4-byte Reload
	str	r0, [sp, #156]                  @ 4-byte Spill
.LBB0_132:
	.loc	2 185 15                        @ source/interlock_DL.c:185:15
	ldr	r2, [sp, #156]                  @ 4-byte Reload
	.loc	2 185 4                         @ source/interlock_DL.c:185:4
	ldr	r1, [sp, #372]
	.loc	2 185 13                        @ source/interlock_DL.c:185:13
	ldrb	r0, [r1, #2]
	movs	r3, #63
	ands	r0, r3
	adds	r0, r0, r2
	strb	r0, [r1, #2]
	.loc	2 186 10 is_stmt 1              @ source/interlock_DL.c:186:10
	ldr	r0, [sp, #368]
	.loc	2 186 14 is_stmt 0              @ source/interlock_DL.c:186:14
	ldrb	r1, [r0]
	movs	r0, #3
	ands	r1, r0
	movs	r0, #0
	.loc	2 186 28                        @ source/interlock_DL.c:186:28
	cmp	r1, #2
	str	r0, [sp, #148]                  @ 4-byte Spill
	bne	.LBB0_136
	b	.LBB0_133
.LBB0_133:
	.loc	2 186 32                        @ source/interlock_DL.c:186:32
	ldr	r0, [sp, #376]
	.loc	2 186 39                        @ source/interlock_DL.c:186:39
	ldrb	r0, [r0, #2]
	lsrs	r1, r0, #6
	movs	r0, #0
	.loc	2 186 51                        @ source/interlock_DL.c:186:51
	cmp	r1, #1
	str	r0, [sp, #148]                  @ 4-byte Spill
	bne	.LBB0_136
	b	.LBB0_134
.LBB0_134:
	.loc	2 186 55                        @ source/interlock_DL.c:186:55
	ldr	r0, [sp, #376]
	.loc	2 186 62                        @ source/interlock_DL.c:186:62
	ldrb	r0, [r0, #3]
	lsls	r0, r0, #28
	lsrs	r1, r0, #30
	movs	r0, #0
	.loc	2 186 73                        @ source/interlock_DL.c:186:73
	cmp	r1, #1
	str	r0, [sp, #148]                  @ 4-byte Spill
	bne	.LBB0_136
	b	.LBB0_135
.LBB0_135:
	.loc	2 186 77                        @ source/interlock_DL.c:186:77
	ldr	r0, [sp, #384]
	.loc	2 186 84                        @ source/interlock_DL.c:186:84
	ldrb	r0, [r0]
	lsls	r0, r0, #26
	lsrs	r0, r0, #30
	.loc	2 186 88                        @ source/interlock_DL.c:186:88
	subs	r0, r0, #2
	rsbs	r1, r0, #0
	adcs	r0, r1
	str	r0, [sp, #148]                  @ 4-byte Spill
	b	.LBB0_136
.LBB0_136:
	.loc	2 0 0                           @ source/interlock_DL.c:0:0
	ldr	r2, [sp, #148]                  @ 4-byte Reload
	movs	r0, #1
	.loc	2 186 6                         @ source/interlock_DL.c:186:6
	ands	r2, r0
	add	r1, sp, #392
	strb	r2, [r1]
	.loc	2 187 8 is_stmt 1               @ source/interlock_DL.c:187:8
	ldrb	r1, [r1]
	.loc	2 187 10 is_stmt 0              @ source/interlock_DL.c:187:10
	lsls	r1, r1, #31
	str	r0, [sp, #144]                  @ 4-byte Spill
	cbnz	r1, .LBB0_142
	b	.LBB0_137
.LBB0_137:
	.loc	2 187 15                        @ source/interlock_DL.c:187:15
	ldr	r0, [sp, #368]
	.loc	2 187 19                        @ source/interlock_DL.c:187:19
	ldrb	r0, [r0]
	lsls	r0, r0, #28
	lsrs	r1, r0, #30
	movs	r0, #0
	.loc	2 187 33                        @ source/interlock_DL.c:187:33
	cmp	r1, #2
	str	r0, [sp, #140]                  @ 4-byte Spill
	bne	.LBB0_141
	b	.LBB0_138
.LBB0_138:
	.loc	2 187 37                        @ source/interlock_DL.c:187:37
	ldr	r0, [sp, #376]
	.loc	2 187 44                        @ source/interlock_DL.c:187:44
	ldrb	r0, [r0]
	lsls	r0, r0, #28
	lsrs	r1, r0, #30
	movs	r0, #0
	.loc	2 187 57                        @ source/interlock_DL.c:187:57
	cmp	r1, #1
	str	r0, [sp, #140]                  @ 4-byte Spill
	bne	.LBB0_141
	b	.LBB0_139
.LBB0_139:
	.loc	2 187 61                        @ source/interlock_DL.c:187:61
	ldr	r0, [sp, #376]
	.loc	2 187 68                        @ source/interlock_DL.c:187:68
	ldrb	r0, [r0, #3]
	lsls	r0, r0, #28
	lsrs	r1, r0, #30
	movs	r0, #0
	.loc	2 187 79                        @ source/interlock_DL.c:187:79
	cmp	r1, #1
	str	r0, [sp, #140]                  @ 4-byte Spill
	bne	.LBB0_141
	b	.LBB0_140
.LBB0_140:
	.loc	2 187 83                        @ source/interlock_DL.c:187:83
	ldr	r0, [sp, #384]
	.loc	2 187 90                        @ source/interlock_DL.c:187:90
	ldrb	r0, [r0]
	movs	r1, #3
	ands	r0, r1
	.loc	2 187 94                        @ source/interlock_DL.c:187:94
	subs	r0, r0, #2
	rsbs	r1, r0, #0
	adcs	r0, r1
	str	r0, [sp, #140]                  @ 4-byte Spill
	b	.LBB0_141
.LBB0_141:
	.loc	2 0 0                           @ source/interlock_DL.c:0:0
	ldr	r0, [sp, #140]                  @ 4-byte Reload
	.loc	2 187 10                        @ source/interlock_DL.c:187:10
	str	r0, [sp, #144]                  @ 4-byte Spill
	b	.LBB0_142
.LBB0_142:
	.loc	2 0 10                          @ source/interlock_DL.c:0:10
	ldr	r1, [sp, #144]                  @ 4-byte Reload
	movs	r0, #1
	.loc	2 187 6                         @ source/interlock_DL.c:187:6
	str	r0, [sp, #132]                  @ 4-byte Spill
	ands	r1, r0
	add	r0, sp, #392
	strb	r1, [r0]
	.loc	2 188 14 is_stmt 1              @ source/interlock_DL.c:188:14
	ldrb	r0, [r0]
	lsls	r1, r0, #31
	movs	r0, #2
	str	r0, [sp, #136]                  @ 4-byte Spill
	cbnz	r1, .LBB0_144
@ %bb.143:
	.loc	2 0 14 is_stmt 0                @ source/interlock_DL.c:0:14
	ldr	r0, [sp, #132]                  @ 4-byte Reload
	str	r0, [sp, #136]                  @ 4-byte Spill
.LBB0_144:
	.loc	2 188 14                        @ source/interlock_DL.c:188:14
	ldr	r2, [sp, #136]                  @ 4-byte Reload
	.loc	2 188 4                         @ source/interlock_DL.c:188:4
	ldr	r1, [sp, #372]
	.loc	2 188 12                        @ source/interlock_DL.c:188:12
	ldrb	r0, [r1, #3]
	movs	r3, #252
	ands	r0, r3
	adds	r0, r0, r2
	strb	r0, [r1, #3]
	.loc	2 189 10 is_stmt 1              @ source/interlock_DL.c:189:10
	ldr	r0, [sp, #368]
	.loc	2 189 14 is_stmt 0              @ source/interlock_DL.c:189:14
	ldrb	r1, [r0]
	movs	r0, #3
	ands	r1, r0
	movs	r0, #0
	.loc	2 189 28                        @ source/interlock_DL.c:189:28
	cmp	r1, #2
	str	r0, [sp, #128]                  @ 4-byte Spill
	bne	.LBB0_148
	b	.LBB0_145
.LBB0_145:
	.loc	2 189 32                        @ source/interlock_DL.c:189:32
	ldr	r0, [sp, #376]
	.loc	2 189 39                        @ source/interlock_DL.c:189:39
	ldrb	r0, [r0, #2]
	lsrs	r1, r0, #6
	movs	r0, #0
	.loc	2 189 51                        @ source/interlock_DL.c:189:51
	cmp	r1, #1
	str	r0, [sp, #128]                  @ 4-byte Spill
	bne	.LBB0_148
	b	.LBB0_146
.LBB0_146:
	.loc	2 189 55                        @ source/interlock_DL.c:189:55
	ldr	r0, [sp, #376]
	.loc	2 189 62                        @ source/interlock_DL.c:189:62
	ldrb	r1, [r0, #3]
	movs	r0, #3
	ands	r1, r0
	movs	r0, #0
	.loc	2 189 73                        @ source/interlock_DL.c:189:73
	cmp	r1, #2
	str	r0, [sp, #128]                  @ 4-byte Spill
	bne	.LBB0_148
	b	.LBB0_147
.LBB0_147:
	.loc	2 189 77                        @ source/interlock_DL.c:189:77
	ldr	r0, [sp, #384]
	.loc	2 189 84                        @ source/interlock_DL.c:189:84
	ldrb	r0, [r0]
	lsls	r0, r0, #26
	lsrs	r0, r0, #30
	.loc	2 189 88                        @ source/interlock_DL.c:189:88
	subs	r0, r0, #2
	rsbs	r1, r0, #0
	adcs	r0, r1
	str	r0, [sp, #128]                  @ 4-byte Spill
	b	.LBB0_148
.LBB0_148:
	.loc	2 0 0                           @ source/interlock_DL.c:0:0
	ldr	r2, [sp, #128]                  @ 4-byte Reload
	movs	r0, #1
	.loc	2 189 6                         @ source/interlock_DL.c:189:6
	ands	r2, r0
	add	r1, sp, #392
	strb	r2, [r1]
	.loc	2 190 8 is_stmt 1               @ source/interlock_DL.c:190:8
	ldrb	r1, [r1]
	.loc	2 190 10 is_stmt 0              @ source/interlock_DL.c:190:10
	lsls	r1, r1, #31
	str	r0, [sp, #124]                  @ 4-byte Spill
	cbnz	r1, .LBB0_154
	b	.LBB0_149
.LBB0_149:
	.loc	2 190 15                        @ source/interlock_DL.c:190:15
	ldr	r0, [sp, #368]
	.loc	2 190 19                        @ source/interlock_DL.c:190:19
	ldrb	r0, [r0]
	lsls	r0, r0, #28
	lsrs	r1, r0, #30
	movs	r0, #0
	.loc	2 190 33                        @ source/interlock_DL.c:190:33
	cmp	r1, #2
	str	r0, [sp, #120]                  @ 4-byte Spill
	bne	.LBB0_153
	b	.LBB0_150
.LBB0_150:
	.loc	2 190 37                        @ source/interlock_DL.c:190:37
	ldr	r0, [sp, #376]
	.loc	2 190 44                        @ source/interlock_DL.c:190:44
	ldrb	r0, [r0]
	lsls	r0, r0, #28
	lsrs	r1, r0, #30
	movs	r0, #0
	.loc	2 190 57                        @ source/interlock_DL.c:190:57
	cmp	r1, #1
	str	r0, [sp, #120]                  @ 4-byte Spill
	bne	.LBB0_153
	b	.LBB0_151
.LBB0_151:
	.loc	2 190 61                        @ source/interlock_DL.c:190:61
	ldr	r0, [sp, #376]
	.loc	2 190 68                        @ source/interlock_DL.c:190:68
	ldrb	r1, [r0, #3]
	movs	r0, #3
	ands	r1, r0
	movs	r0, #0
	.loc	2 190 79                        @ source/interlock_DL.c:190:79
	cmp	r1, #2
	str	r0, [sp, #120]                  @ 4-byte Spill
	bne	.LBB0_153
	b	.LBB0_152
.LBB0_152:
	.loc	2 190 83                        @ source/interlock_DL.c:190:83
	ldr	r0, [sp, #384]
	.loc	2 190 90                        @ source/interlock_DL.c:190:90
	ldrb	r0, [r0]
	movs	r1, #3
	ands	r0, r1
	.loc	2 190 94                        @ source/interlock_DL.c:190:94
	subs	r0, r0, #2
	rsbs	r1, r0, #0
	adcs	r0, r1
	str	r0, [sp, #120]                  @ 4-byte Spill
	b	.LBB0_153
.LBB0_153:
	.loc	2 0 0                           @ source/interlock_DL.c:0:0
	ldr	r0, [sp, #120]                  @ 4-byte Reload
	.loc	2 190 10                        @ source/interlock_DL.c:190:10
	str	r0, [sp, #124]                  @ 4-byte Spill
	b	.LBB0_154
.LBB0_154:
	.loc	2 0 10                          @ source/interlock_DL.c:0:10
	ldr	r1, [sp, #124]                  @ 4-byte Reload
	movs	r0, #1
	.loc	2 190 6                         @ source/interlock_DL.c:190:6
	ands	r1, r0
	add	r0, sp, #392
	strb	r1, [r0]
	.loc	2 191 14 is_stmt 1              @ source/interlock_DL.c:191:14
	ldrb	r0, [r0]
	lsls	r1, r0, #31
	movs	r0, #8
	movs	r2, #4
	str	r2, [sp, #112]                  @ 4-byte Spill
	str	r0, [sp, #116]                  @ 4-byte Spill
	cbnz	r1, .LBB0_156
@ %bb.155:
	.loc	2 0 14 is_stmt 0                @ source/interlock_DL.c:0:14
	ldr	r0, [sp, #112]                  @ 4-byte Reload
	str	r0, [sp, #116]                  @ 4-byte Spill
.LBB0_156:
	.loc	2 191 14                        @ source/interlock_DL.c:191:14
	ldr	r2, [sp, #116]                  @ 4-byte Reload
	.loc	2 191 4                         @ source/interlock_DL.c:191:4
	ldr	r1, [sp, #372]
	.loc	2 191 12                        @ source/interlock_DL.c:191:12
	ldrb	r0, [r1, #3]
	movs	r3, #243
	ands	r0, r3
	adds	r0, r0, r2
	strb	r0, [r1, #3]
	.loc	2 192 10 is_stmt 1              @ source/interlock_DL.c:192:10
	ldr	r0, [sp, #368]
	.loc	2 192 14 is_stmt 0              @ source/interlock_DL.c:192:14
	ldrb	r0, [r0, #1]
	lsrs	r1, r0, #6
	movs	r0, #0
	.loc	2 192 28                        @ source/interlock_DL.c:192:28
	cmp	r1, #2
	str	r0, [sp, #108]                  @ 4-byte Spill
	bne	.LBB0_160
	b	.LBB0_157
.LBB0_157:
	.loc	2 192 32                        @ source/interlock_DL.c:192:32
	ldr	r0, [sp, #368]
	.loc	2 192 36                        @ source/interlock_DL.c:192:36
	ldrb	r1, [r0, #2]
	movs	r0, #3
	ands	r1, r0
	movs	r0, #0
	.loc	2 192 50                        @ source/interlock_DL.c:192:50
	cmp	r1, #1
	str	r0, [sp, #108]                  @ 4-byte Spill
	bne	.LBB0_160
	b	.LBB0_158
.LBB0_158:
	.loc	2 192 54                        @ source/interlock_DL.c:192:54
	ldr	r0, [sp, #376]
	.loc	2 192 61                        @ source/interlock_DL.c:192:61
	ldrb	r0, [r0, #2]
	lsrs	r1, r0, #6
	movs	r0, #0
	.loc	2 192 73                        @ source/interlock_DL.c:192:73
	cmp	r1, #1
	str	r0, [sp, #108]                  @ 4-byte Spill
	bne	.LBB0_160
	b	.LBB0_159
.LBB0_159:
	.loc	2 192 77                        @ source/interlock_DL.c:192:77
	ldr	r0, [sp, #376]
	.loc	2 192 84                        @ source/interlock_DL.c:192:84
	ldrb	r0, [r0, #3]
	lsrs	r0, r0, #6
	.loc	2 192 88                        @ source/interlock_DL.c:192:88
	subs	r0, r0, #2
	rsbs	r1, r0, #0
	adcs	r0, r1
	str	r0, [sp, #108]                  @ 4-byte Spill
	b	.LBB0_160
.LBB0_160:
	.loc	2 0 0                           @ source/interlock_DL.c:0:0
	ldr	r2, [sp, #108]                  @ 4-byte Reload
	movs	r0, #1
	.loc	2 192 6                         @ source/interlock_DL.c:192:6
	ands	r2, r0
	add	r1, sp, #392
	strb	r2, [r1]
	.loc	2 193 8 is_stmt 1               @ source/interlock_DL.c:193:8
	ldrb	r1, [r1]
	.loc	2 193 10 is_stmt 0              @ source/interlock_DL.c:193:10
	lsls	r1, r1, #31
	str	r0, [sp, #104]                  @ 4-byte Spill
	cbnz	r1, .LBB0_164
	b	.LBB0_161
.LBB0_161:
	.loc	2 193 15                        @ source/interlock_DL.c:193:15
	ldr	r0, [sp, #376]
	.loc	2 193 22                        @ source/interlock_DL.c:193:22
	ldrb	r0, [r0, #2]
	lsrs	r1, r0, #6
	movs	r0, #0
	.loc	2 193 34                        @ source/interlock_DL.c:193:34
	cmp	r1, #1
	str	r0, [sp, #100]                  @ 4-byte Spill
	bne	.LBB0_163
	b	.LBB0_162
.LBB0_162:
	.loc	2 193 38                        @ source/interlock_DL.c:193:38
	ldr	r0, [sp, #376]
	.loc	2 193 45                        @ source/interlock_DL.c:193:45
	ldrb	r0, [r0, #3]
	lsls	r0, r0, #26
	lsrs	r0, r0, #30
	.loc	2 193 49                        @ source/interlock_DL.c:193:49
	subs	r0, r0, #2
	rsbs	r1, r0, #0
	adcs	r0, r1
	str	r0, [sp, #100]                  @ 4-byte Spill
	b	.LBB0_163
.LBB0_163:
	.loc	2 0 0                           @ source/interlock_DL.c:0:0
	ldr	r0, [sp, #100]                  @ 4-byte Reload
	.loc	2 193 10                        @ source/interlock_DL.c:193:10
	str	r0, [sp, #104]                  @ 4-byte Spill
	b	.LBB0_164
.LBB0_164:
	.loc	2 0 10                          @ source/interlock_DL.c:0:10
	ldr	r1, [sp, #104]                  @ 4-byte Reload
	movs	r0, #1
	.loc	2 193 6                         @ source/interlock_DL.c:193:6
	ands	r1, r0
	add	r0, sp, #392
	strb	r1, [r0]
	.loc	2 194 15 is_stmt 1              @ source/interlock_DL.c:194:15
	ldrb	r0, [r0]
	lsls	r1, r0, #31
	movs	r0, #32
	movs	r2, #16
	str	r2, [sp, #92]                   @ 4-byte Spill
	str	r0, [sp, #96]                   @ 4-byte Spill
	cbnz	r1, .LBB0_166
@ %bb.165:
	.loc	2 0 15 is_stmt 0                @ source/interlock_DL.c:0:15
	ldr	r0, [sp, #92]                   @ 4-byte Reload
	str	r0, [sp, #96]                   @ 4-byte Spill
.LBB0_166:
	.loc	2 194 15                        @ source/interlock_DL.c:194:15
	ldr	r2, [sp, #96]                   @ 4-byte Reload
	.loc	2 194 4                         @ source/interlock_DL.c:194:4
	ldr	r1, [sp, #372]
	.loc	2 194 13                        @ source/interlock_DL.c:194:13
	ldrb	r0, [r1, #3]
	movs	r3, #207
	ands	r0, r3
	adds	r0, r0, r2
	strb	r0, [r1, #3]
	.loc	2 195 10 is_stmt 1              @ source/interlock_DL.c:195:10
	ldr	r0, [sp, #368]
	.loc	2 195 14 is_stmt 0              @ source/interlock_DL.c:195:14
	ldrb	r1, [r0, #2]
	movs	r0, #3
	ands	r1, r0
	movs	r0, #0
	.loc	2 195 28                        @ source/interlock_DL.c:195:28
	cmp	r1, #2
	str	r0, [sp, #88]                   @ 4-byte Spill
	bne	.LBB0_169
	b	.LBB0_167
.LBB0_167:
	.loc	2 195 32                        @ source/interlock_DL.c:195:32
	ldr	r0, [sp, #376]
	.loc	2 195 39                        @ source/interlock_DL.c:195:39
	ldrb	r0, [r0, #3]
	lsls	r0, r0, #26
	lsrs	r1, r0, #30
	movs	r0, #0
	.loc	2 195 51                        @ source/interlock_DL.c:195:51
	cmp	r1, #1
	str	r0, [sp, #88]                   @ 4-byte Spill
	bne	.LBB0_169
	b	.LBB0_168
.LBB0_168:
	.loc	2 195 55                        @ source/interlock_DL.c:195:55
	ldr	r0, [sp, #384]
	.loc	2 195 62                        @ source/interlock_DL.c:195:62
	ldrb	r0, [r0]
	lsls	r0, r0, #26
	lsrs	r0, r0, #30
	.loc	2 195 66                        @ source/interlock_DL.c:195:66
	subs	r0, r0, #2
	rsbs	r1, r0, #0
	adcs	r0, r1
	str	r0, [sp, #88]                   @ 4-byte Spill
	b	.LBB0_169
.LBB0_169:
	.loc	2 0 0                           @ source/interlock_DL.c:0:0
	ldr	r2, [sp, #88]                   @ 4-byte Reload
	movs	r0, #1
	.loc	2 195 6                         @ source/interlock_DL.c:195:6
	ands	r2, r0
	add	r1, sp, #392
	strb	r2, [r1]
	.loc	2 196 8 is_stmt 1               @ source/interlock_DL.c:196:8
	ldrb	r1, [r1]
	.loc	2 196 10 is_stmt 0              @ source/interlock_DL.c:196:10
	lsls	r1, r1, #31
	str	r0, [sp, #84]                   @ 4-byte Spill
	cbnz	r1, .LBB0_173
	b	.LBB0_170
.LBB0_170:
	.loc	2 196 15                        @ source/interlock_DL.c:196:15
	ldr	r0, [sp, #368]
	.loc	2 196 19                        @ source/interlock_DL.c:196:19
	ldrb	r0, [r0, #1]
	lsrs	r1, r0, #6
	movs	r0, #0
	.loc	2 196 33                        @ source/interlock_DL.c:196:33
	cmp	r1, #1
	str	r0, [sp, #80]                   @ 4-byte Spill
	bne	.LBB0_172
	b	.LBB0_171
.LBB0_171:
	.loc	2 196 37                        @ source/interlock_DL.c:196:37
	ldr	r0, [sp, #376]
	.loc	2 196 44                        @ source/interlock_DL.c:196:44
	ldrb	r0, [r0, #3]
	lsrs	r0, r0, #6
	.loc	2 196 48                        @ source/interlock_DL.c:196:48
	subs	r0, r0, #2
	rsbs	r1, r0, #0
	adcs	r0, r1
	str	r0, [sp, #80]                   @ 4-byte Spill
	b	.LBB0_172
.LBB0_172:
	.loc	2 0 0                           @ source/interlock_DL.c:0:0
	ldr	r0, [sp, #80]                   @ 4-byte Reload
	.loc	2 196 10                        @ source/interlock_DL.c:196:10
	str	r0, [sp, #84]                   @ 4-byte Spill
	b	.LBB0_173
.LBB0_173:
	.loc	2 0 10                          @ source/interlock_DL.c:0:10
	ldr	r1, [sp, #84]                   @ 4-byte Reload
	movs	r0, #1
	.loc	2 196 6                         @ source/interlock_DL.c:196:6
	ands	r1, r0
	add	r0, sp, #392
	strb	r1, [r0]
	.loc	2 197 16 is_stmt 1              @ source/interlock_DL.c:197:16
	ldrb	r0, [r0]
	.loc	2 197 15 is_stmt 0              @ source/interlock_DL.c:197:15
	lsls	r1, r0, #31
	movs	r0, #128
	movs	r2, #64
	str	r2, [sp, #72]                   @ 4-byte Spill
	str	r0, [sp, #76]                   @ 4-byte Spill
	cbnz	r1, .LBB0_175
@ %bb.174:
	.loc	2 0 15                          @ source/interlock_DL.c:0:15
	ldr	r0, [sp, #72]                   @ 4-byte Reload
	str	r0, [sp, #76]                   @ 4-byte Spill
.LBB0_175:
	.loc	2 197 15                        @ source/interlock_DL.c:197:15
	ldr	r2, [sp, #76]                   @ 4-byte Reload
	.loc	2 197 4                         @ source/interlock_DL.c:197:4
	ldr	r1, [sp, #372]
	.loc	2 197 13                        @ source/interlock_DL.c:197:13
	ldrb	r0, [r1, #3]
	movs	r3, #63
	ands	r0, r3
	adds	r0, r0, r2
	strb	r0, [r1, #3]
	.loc	2 199 19 is_stmt 1              @ source/interlock_DL.c:199:19
	ldr	r0, __arm_cp.0_38
	ldrh	r1, [r0]
	movs	r0, #0
	.loc	2 199 40 is_stmt 0              @ source/interlock_DL.c:199:40
	cmp	r1, #10
	str	r0, [sp, #68]                   @ 4-byte Spill
	bhi	.LBB0_177
	b	.LBB0_176
.LBB0_176:
	.loc	2 199 44                        @ source/interlock_DL.c:199:44
	ldr	r0, __arm_cp.0_38
	ldrh	r0, [r0]
	.loc	2 199 57                        @ source/interlock_DL.c:199:57
	subs	r1, r0, #1
	sbcs	r0, r1
	str	r0, [sp, #68]                   @ 4-byte Spill
	b	.LBB0_177
.LBB0_177:
	.loc	2 0 0                           @ source/interlock_DL.c:0:0
	ldr	r0, [sp, #68]                   @ 4-byte Reload
	.loc	2 199 17                        @ source/interlock_DL.c:199:17
	lsls	r1, r0, #31
	movs	r0, #8
	movs	r2, #4
	str	r2, [sp, #60]                   @ 4-byte Spill
	str	r0, [sp, #64]                   @ 4-byte Spill
	cbnz	r1, .LBB0_179
@ %bb.178:
	.loc	2 0 17                          @ source/interlock_DL.c:0:17
	ldr	r0, [sp, #60]                   @ 4-byte Reload
	str	r0, [sp, #64]                   @ 4-byte Spill
.LBB0_179:
	.loc	2 199 17                        @ source/interlock_DL.c:199:17
	ldr	r2, [sp, #64]                   @ 4-byte Reload
	.loc	2 199 4                         @ source/interlock_DL.c:199:4
	ldr	r1, [sp, #372]
	.loc	2 199 15                        @ source/interlock_DL.c:199:15
	ldrb	r0, [r1, #4]
	movs	r3, #243
	ands	r0, r3
	adds	r0, r0, r2
	strb	r0, [r1, #4]
.Ltmp4:
	.loc	2 200 7 is_stmt 1               @ source/interlock_DL.c:200:7
	ldr	r0, __arm_cp.0_39
	ldrb	r0, [r0]
.Ltmp5:
	.loc	2 200 7 is_stmt 0               @ source/interlock_DL.c:200:7
	cmp	r0, #2
	bne	.LBB0_181
	b	.LBB0_180
.LBB0_180:
.Ltmp6:
	.loc	2 200 53                        @ source/interlock_DL.c:200:53
	ldr	r1, __arm_cp.0_39
	movs	r0, #0
	strb	r0, [r1]
	.loc	2 200 57                        @ source/interlock_DL.c:200:57
	b	.LBB0_182
.Ltmp7:
.LBB0_181:
	.loc	2 0 57                          @ source/interlock_DL.c:0:57
	b	.LBB0_182
.LBB0_182:
	.loc	2 203 18 is_stmt 1              @ source/interlock_DL.c:203:18
	ldr	r0, [sp, #384]
	.loc	2 203 25 is_stmt 0              @ source/interlock_DL.c:203:25
	ldrb	r0, [r0]
	lsls	r0, r0, #26
	lsrs	r1, r0, #30
	movs	r0, #2
	str	r0, [sp, #48]                   @ 4-byte Spill
	movs	r2, #1
	.loc	2 203 16                        @ source/interlock_DL.c:203:16
	str	r2, [sp, #52]                   @ 4-byte Spill
	cmp	r1, #1
	str	r0, [sp, #56]                   @ 4-byte Spill
	beq	.LBB0_184
@ %bb.183:
	.loc	2 0 16                          @ source/interlock_DL.c:0:16
	ldr	r0, [sp, #52]                   @ 4-byte Reload
	str	r0, [sp, #56]                   @ 4-byte Spill
.LBB0_184:
	.loc	2 203 16                        @ source/interlock_DL.c:203:16
	ldr	r0, [sp, #52]                   @ 4-byte Reload
	ldr	r3, [sp, #56]                   @ 4-byte Reload
	.loc	2 203 4                         @ source/interlock_DL.c:203:4
	ldr	r2, [sp, #372]
	.loc	2 203 14                        @ source/interlock_DL.c:203:14
	ldrb	r1, [r2, #4]
	lsls	r3, r3, #4
	movs	r4, #207
	ands	r1, r4
	adds	r1, r1, r3
	strb	r1, [r2, #4]
	.loc	2 204 18 is_stmt 1              @ source/interlock_DL.c:204:18
	ldr	r1, [sp, #364]
	.loc	2 204 25 is_stmt 0              @ source/interlock_DL.c:204:25
	ldrb	r1, [r1]
	lsls	r1, r1, #26
	lsrs	r1, r1, #30
	.loc	2 204 16                        @ source/interlock_DL.c:204:16
	str	r1, [sp, #40]                   @ 4-byte Spill
	cmp	r1, #2
	str	r0, [sp, #44]                   @ 4-byte Spill
	bne	.LBB0_186
@ %bb.185:
	.loc	2 0 16                          @ source/interlock_DL.c:0:16
	ldr	r0, [sp, #40]                   @ 4-byte Reload
	str	r0, [sp, #44]                   @ 4-byte Spill
.LBB0_186:
	.loc	2 204 16                        @ source/interlock_DL.c:204:16
	ldr	r0, [sp, #48]                   @ 4-byte Reload
	ldr	r3, [sp, #44]                   @ 4-byte Reload
	.loc	2 204 4                         @ source/interlock_DL.c:204:4
	ldr	r2, [sp, #372]
	.loc	2 204 14                        @ source/interlock_DL.c:204:14
	ldrb	r1, [r2, #5]
	movs	r4, #252
	ands	r1, r4
	adds	r1, r1, r3
	strb	r1, [r2, #5]
	.loc	2 205 18 is_stmt 1              @ source/interlock_DL.c:205:18
	ldr	r1, [sp, #384]
	.loc	2 205 25 is_stmt 0              @ source/interlock_DL.c:205:25
	ldrb	r1, [r1]
	movs	r2, #3
	ands	r1, r2
	.loc	2 205 16                        @ source/interlock_DL.c:205:16
	cmp	r1, #1
	str	r0, [sp, #36]                   @ 4-byte Spill
	beq	.LBB0_188
@ %bb.187:
	.loc	2 0 16                          @ source/interlock_DL.c:0:16
	ldr	r0, [sp, #52]                   @ 4-byte Reload
	str	r0, [sp, #36]                   @ 4-byte Spill
.LBB0_188:
	.loc	2 205 16                        @ source/interlock_DL.c:205:16
	ldr	r2, [sp, #36]                   @ 4-byte Reload
	.loc	2 205 4                         @ source/interlock_DL.c:205:4
	ldr	r1, [sp, #372]
	.loc	2 205 14                        @ source/interlock_DL.c:205:14
	ldrb	r0, [r1, #4]
	lsls	r2, r2, #6
	movs	r3, #63
	ands	r0, r3
	adds	r0, r0, r2
	strb	r0, [r1, #4]
	.loc	2 207 21 is_stmt 1              @ source/interlock_DL.c:207:21
	ldr	r0, [sp, #376]
	.loc	2 207 28 is_stmt 0              @ source/interlock_DL.c:207:28
	ldrb	r0, [r0, #2]
	lsls	r0, r0, #26
	lsrs	r0, r0, #30
	.loc	2 207 31                        @ source/interlock_DL.c:207:31
	subs	r2, r0, #2
	rsbs	r0, r2, #0
	adcs	r2, r0
	.loc	2 207 4                         @ source/interlock_DL.c:207:4
	ldr	r1, [sp, #380]
	.loc	2 207 18                        @ source/interlock_DL.c:207:18
	ldrb	r0, [r1]
	movs	r3, #254
	ands	r0, r3
	adds	r0, r0, r2
	strb	r0, [r1]
	.loc	2 208 23 is_stmt 1              @ source/interlock_DL.c:208:23
	ldr	r0, [sp, #368]
	.loc	2 208 27 is_stmt 0              @ source/interlock_DL.c:208:27
	ldrb	r0, [r0]
	lsls	r0, r0, #28
	lsrs	r1, r0, #30
	movs	r0, #0
	.loc	2 208 41                        @ source/interlock_DL.c:208:41
	cmp	r1, #1
	str	r0, [sp, #32]                   @ 4-byte Spill
	bne	.LBB0_190
	b	.LBB0_189
.LBB0_189:
	.loc	2 208 45                        @ source/interlock_DL.c:208:45
	ldr	r0, [sp, #384]
	.loc	2 208 52                        @ source/interlock_DL.c:208:52
	ldrb	r0, [r0]
	movs	r1, #3
	ands	r0, r1
	.loc	2 208 56                        @ source/interlock_DL.c:208:56
	subs	r0, r0, #2
	rsbs	r1, r0, #0
	adcs	r0, r1
	str	r0, [sp, #32]                   @ 4-byte Spill
	b	.LBB0_190
.LBB0_190:
	.loc	2 0 0                           @ source/interlock_DL.c:0:0
	ldr	r2, [sp, #32]                   @ 4-byte Reload
	.loc	2 208 4                         @ source/interlock_DL.c:208:4
	ldr	r1, [sp, #380]
	.loc	2 208 19                        @ source/interlock_DL.c:208:19
	ldrb	r0, [r1]
	lsls	r2, r2, #31
	lsrs	r2, r2, #30
	movs	r3, #253
	ands	r0, r3
	adds	r0, r0, r2
	strb	r0, [r1]
	.loc	2 209 20 is_stmt 1              @ source/interlock_DL.c:209:20
	ldr	r0, [sp, #368]
	.loc	2 209 24 is_stmt 0              @ source/interlock_DL.c:209:24
	ldrb	r0, [r0]
	lsls	r0, r0, #28
	lsrs	r1, r0, #30
	movs	r0, #0
	.loc	2 209 38                        @ source/interlock_DL.c:209:38
	cmp	r1, #1
	str	r0, [sp, #28]                   @ 4-byte Spill
	bne	.LBB0_192
	b	.LBB0_191
.LBB0_191:
	.loc	2 209 42                        @ source/interlock_DL.c:209:42
	ldr	r0, [sp, #384]
	.loc	2 209 49                        @ source/interlock_DL.c:209:49
	ldrb	r0, [r0]
	movs	r1, #3
	ands	r0, r1
	.loc	2 209 53                        @ source/interlock_DL.c:209:53
	subs	r0, r0, #2
	rsbs	r1, r0, #0
	adcs	r0, r1
	str	r0, [sp, #28]                   @ 4-byte Spill
	b	.LBB0_192
.LBB0_192:
	.loc	2 0 0                           @ source/interlock_DL.c:0:0
	ldr	r2, [sp, #28]                   @ 4-byte Reload
	.loc	2 209 4                         @ source/interlock_DL.c:209:4
	ldr	r1, [sp, #380]
	.loc	2 209 16                        @ source/interlock_DL.c:209:16
	ldrb	r0, [r1]
	lsls	r2, r2, #31
	lsrs	r2, r2, #29
	movs	r3, #251
	ands	r0, r3
	adds	r0, r0, r2
	strb	r0, [r1]
	.loc	2 210 23 is_stmt 1              @ source/interlock_DL.c:210:23
	ldr	r0, [sp, #368]
	.loc	2 210 27 is_stmt 0              @ source/interlock_DL.c:210:27
	ldrb	r1, [r0]
	movs	r0, #3
	ands	r1, r0
	movs	r0, #0
	.loc	2 210 41                        @ source/interlock_DL.c:210:41
	cmp	r1, #1
	str	r0, [sp, #24]                   @ 4-byte Spill
	bne	.LBB0_194
	b	.LBB0_193
.LBB0_193:
	.loc	2 210 45                        @ source/interlock_DL.c:210:45
	ldr	r0, [sp, #384]
	.loc	2 210 52                        @ source/interlock_DL.c:210:52
	ldrb	r0, [r0]
	lsls	r0, r0, #26
	lsrs	r0, r0, #30
	.loc	2 210 56                        @ source/interlock_DL.c:210:56
	subs	r0, r0, #2
	rsbs	r1, r0, #0
	adcs	r0, r1
	str	r0, [sp, #24]                   @ 4-byte Spill
	b	.LBB0_194
.LBB0_194:
	.loc	2 0 0                           @ source/interlock_DL.c:0:0
	ldr	r2, [sp, #24]                   @ 4-byte Reload
	.loc	2 210 4                         @ source/interlock_DL.c:210:4
	ldr	r1, [sp, #380]
	.loc	2 210 19                        @ source/interlock_DL.c:210:19
	ldrb	r0, [r1]
	lsls	r2, r2, #31
	lsrs	r2, r2, #26
	movs	r3, #223
	ands	r0, r3
	adds	r0, r0, r2
	strb	r0, [r1]
	.loc	2 211 20 is_stmt 1              @ source/interlock_DL.c:211:20
	ldr	r0, [sp, #368]
	.loc	2 211 24 is_stmt 0              @ source/interlock_DL.c:211:24
	ldrb	r1, [r0]
	movs	r0, #3
	ands	r1, r0
	movs	r0, #0
	.loc	2 211 38                        @ source/interlock_DL.c:211:38
	cmp	r1, #1
	str	r0, [sp, #20]                   @ 4-byte Spill
	bne	.LBB0_196
	b	.LBB0_195
.LBB0_195:
	.loc	2 211 42                        @ source/interlock_DL.c:211:42
	ldr	r0, [sp, #384]
	.loc	2 211 49                        @ source/interlock_DL.c:211:49
	ldrb	r0, [r0]
	lsls	r0, r0, #26
	lsrs	r0, r0, #30
	.loc	2 211 53                        @ source/interlock_DL.c:211:53
	subs	r0, r0, #2
	rsbs	r1, r0, #0
	adcs	r0, r1
	str	r0, [sp, #20]                   @ 4-byte Spill
	b	.LBB0_196
.LBB0_196:
	.loc	2 0 0                           @ source/interlock_DL.c:0:0
	ldr	r2, [sp, #20]                   @ 4-byte Reload
	.loc	2 211 4                         @ source/interlock_DL.c:211:4
	ldr	r1, [sp, #380]
	.loc	2 211 16                        @ source/interlock_DL.c:211:16
	ldrb	r0, [r1]
	lsls	r2, r2, #31
	lsrs	r2, r2, #25
	movs	r3, #191
	ands	r0, r3
	adds	r0, r0, r2
	strb	r0, [r1]
	.loc	2 213 18 is_stmt 1              @ source/interlock_DL.c:213:18
	ldr	r0, [sp, #368]
	.loc	2 213 22 is_stmt 0              @ source/interlock_DL.c:213:22
	ldrb	r0, [r0, #3]
	lsrs	r0, r0, #6
	.loc	2 213 28                        @ source/interlock_DL.c:213:28
	subs	r2, r0, #2
	rsbs	r0, r2, #0
	adcs	r2, r0
	.loc	2 213 4                         @ source/interlock_DL.c:213:4
	ldr	r1, [sp, #380]
	.loc	2 213 15                        @ source/interlock_DL.c:213:15
	ldrb	r0, [r1, #1]
	lsls	r2, r2, #3
	movs	r3, #247
	ands	r0, r3
	adds	r0, r0, r2
	strb	r0, [r1, #1]
	.loc	2 214 18 is_stmt 1              @ source/interlock_DL.c:214:18
	ldr	r0, [sp, #356]
	.loc	2 214 25 is_stmt 0              @ source/interlock_DL.c:214:25
	ldrb	r0, [r0, #1]
	movs	r1, #3
	ands	r0, r1
	.loc	2 214 29                        @ source/interlock_DL.c:214:29
	subs	r2, r0, #1
	rsbs	r0, r2, #0
	adcs	r2, r0
	.loc	2 214 4                         @ source/interlock_DL.c:214:4
	ldr	r1, [sp, #380]
	.loc	2 214 15                        @ source/interlock_DL.c:214:15
	ldrb	r0, [r1, #1]
	lsls	r2, r2, #4
	movs	r3, #239
	ands	r0, r3
	adds	r0, r0, r2
	strb	r0, [r1, #1]
	.loc	2 215 16 is_stmt 1              @ source/interlock_DL.c:215:16
	ldr	r0, [sp, #368]
	.loc	2 215 20 is_stmt 0              @ source/interlock_DL.c:215:20
	ldrb	r0, [r0, #4]
	lsls	r0, r0, #28
	lsrs	r0, r0, #30
	.loc	2 215 25                        @ source/interlock_DL.c:215:25
	subs	r2, r0, #1
	rsbs	r0, r2, #0
	adcs	r2, r0
	.loc	2 215 4                         @ source/interlock_DL.c:215:4
	ldr	r1, [sp, #380]
	.loc	2 215 13                        @ source/interlock_DL.c:215:13
	ldrb	r0, [r1, #1]
	lsls	r2, r2, #5
	movs	r3, #223
	ands	r0, r3
	adds	r0, r0, r2
	strb	r0, [r1, #1]
	.loc	2 216 16 is_stmt 1              @ source/interlock_DL.c:216:16
	ldr	r0, [sp, #368]
	.loc	2 216 20 is_stmt 0              @ source/interlock_DL.c:216:20
	ldrb	r0, [r0]
	lsls	r0, r0, #28
	lsrs	r1, r0, #30
	movs	r0, #0
	.loc	2 216 34                        @ source/interlock_DL.c:216:34
	cmp	r1, #2
	str	r0, [sp, #16]                   @ 4-byte Spill
	bne	.LBB0_204
	b	.LBB0_197
.LBB0_197:
	.loc	2 216 38                        @ source/interlock_DL.c:216:38
	ldr	r0, [sp, #368]
	.loc	2 216 42                        @ source/interlock_DL.c:216:42
	ldrb	r0, [r0]
	lsls	r0, r0, #26
	lsrs	r1, r0, #30
	movs	r0, #0
	.loc	2 216 56                        @ source/interlock_DL.c:216:56
	cmp	r1, #2
	str	r0, [sp, #16]                   @ 4-byte Spill
	bne	.LBB0_204
	b	.LBB0_198
.LBB0_198:
	.loc	2 216 60                        @ source/interlock_DL.c:216:60
	ldr	r0, [sp, #364]
	.loc	2 216 67                        @ source/interlock_DL.c:216:67
	ldrb	r0, [r0]
	lsrs	r1, r0, #6
	movs	r0, #0
	.loc	2 216 81                        @ source/interlock_DL.c:216:81
	cmp	r1, #2
	str	r0, [sp, #16]                   @ 4-byte Spill
	bne	.LBB0_204
	b	.LBB0_199
.LBB0_199:
	.loc	2 216 85                        @ source/interlock_DL.c:216:85
	ldr	r0, [sp, #364]
	.loc	2 216 92                        @ source/interlock_DL.c:216:92
	ldrb	r0, [r0, #1]
	lsrs	r1, r0, #6
	movs	r0, #0
	.loc	2 216 106                       @ source/interlock_DL.c:216:106
	cmp	r1, #2
	str	r0, [sp, #16]                   @ 4-byte Spill
	bne	.LBB0_204
	b	.LBB0_200
.LBB0_200:
	.loc	2 216 110                       @ source/interlock_DL.c:216:110
	ldr	r0, [sp, #364]
	.loc	2 216 117                       @ source/interlock_DL.c:216:117
	ldrb	r1, [r0, #2]
	movs	r0, #3
	ands	r1, r0
	movs	r0, #0
	.loc	2 216 131                       @ source/interlock_DL.c:216:131
	cmp	r1, #2
	str	r0, [sp, #16]                   @ 4-byte Spill
	bne	.LBB0_204
	b	.LBB0_201
.LBB0_201:
	.loc	2 216 135                       @ source/interlock_DL.c:216:135
	ldr	r0, [sp, #368]
	.loc	2 216 139                       @ source/interlock_DL.c:216:139
	ldrb	r0, [r0, #4]
	lsls	r0, r0, #28
	lsrs	r1, r0, #30
	movs	r0, #0
	.loc	2 216 152                       @ source/interlock_DL.c:216:152
	cmp	r1, #1
	str	r0, [sp, #16]                   @ 4-byte Spill
	bne	.LBB0_204
	b	.LBB0_202
.LBB0_202:
	.loc	2 216 156                       @ source/interlock_DL.c:216:156
	ldr	r0, [sp, #356]
	.loc	2 216 163                       @ source/interlock_DL.c:216:163
	ldrb	r0, [r0]
	lsls	r0, r0, #26
	lsrs	r1, r0, #30
	movs	r0, #0
	.loc	2 216 175                       @ source/interlock_DL.c:216:175
	cmp	r1, #1
	str	r0, [sp, #16]                   @ 4-byte Spill
	bne	.LBB0_204
	b	.LBB0_203
.LBB0_203:
	.loc	2 216 179                       @ source/interlock_DL.c:216:179
	ldr	r0, [sp, #384]
	.loc	2 216 186                       @ source/interlock_DL.c:216:186
	ldrb	r0, [r0]
	movs	r1, #3
	ands	r0, r1
	.loc	2 216 190                       @ source/interlock_DL.c:216:190
	subs	r0, r0, #1
	rsbs	r1, r0, #0
	adcs	r0, r1
	str	r0, [sp, #16]                   @ 4-byte Spill
	b	.LBB0_204
.LBB0_204:
	.loc	2 0 0                           @ source/interlock_DL.c:0:0
	ldr	r2, [sp, #16]                   @ 4-byte Reload
	.loc	2 216 4                         @ source/interlock_DL.c:216:4
	ldr	r1, [sp, #380]
	.loc	2 216 12                        @ source/interlock_DL.c:216:12
	ldrb	r0, [r1, #1]
	lsls	r2, r2, #31
	lsrs	r2, r2, #25
	movs	r3, #191
	ands	r0, r3
	adds	r0, r0, r2
	strb	r0, [r1, #1]
	.loc	2 217 19 is_stmt 1              @ source/interlock_DL.c:217:19
	ldr	r0, [sp, #368]
	.loc	2 217 23 is_stmt 0              @ source/interlock_DL.c:217:23
	ldrb	r0, [r0, #4]
	lsls	r0, r0, #26
	lsrs	r1, r0, #30
	movs	r0, #0
	.loc	2 217 38                        @ source/interlock_DL.c:217:38
	cmp	r1, #2
	str	r0, [sp, #12]                   @ 4-byte Spill
	bne	.LBB0_206
	b	.LBB0_205
.LBB0_205:
	.loc	2 217 42                        @ source/interlock_DL.c:217:42
	ldr	r0, [sp, #368]
	.loc	2 217 46                        @ source/interlock_DL.c:217:46
	ldrb	r0, [r0, #3]
	lsrs	r0, r0, #6
	.loc	2 217 52                        @ source/interlock_DL.c:217:52
	subs	r0, r0, #1
	rsbs	r1, r0, #0
	adcs	r0, r1
	str	r0, [sp, #12]                   @ 4-byte Spill
	b	.LBB0_206
.LBB0_206:
	.loc	2 0 0                           @ source/interlock_DL.c:0:0
	ldr	r2, [sp, #12]                   @ 4-byte Reload
	.loc	2 217 4                         @ source/interlock_DL.c:217:4
	ldr	r1, [sp, #380]
	.loc	2 217 15                        @ source/interlock_DL.c:217:15
	ldrb	r0, [r1, #2]
	lsls	r2, r2, #31
	lsrs	r2, r2, #30
	movs	r4, #253
	ands	r0, r4
	adds	r0, r0, r2
	strb	r0, [r1, #2]
	.loc	2 218 18 is_stmt 1              @ source/interlock_DL.c:218:18
	ldr	r0, [sp, #368]
	.loc	2 218 22 is_stmt 0              @ source/interlock_DL.c:218:22
	ldrb	r0, [r0, #3]
	lsrs	r0, r0, #6
	.loc	2 218 28                        @ source/interlock_DL.c:218:28
	subs	r2, r0, #2
	rsbs	r0, r2, #0
	adcs	r2, r0
	.loc	2 218 4                         @ source/interlock_DL.c:218:4
	ldr	r1, [sp, #380]
	.loc	2 218 15                        @ source/interlock_DL.c:218:15
	ldrb	r0, [r1, #2]
	lsls	r2, r2, #2
	movs	r3, #251
	ands	r0, r3
	adds	r0, r0, r2
	strb	r0, [r1, #2]
	.loc	2 220 23 is_stmt 1              @ source/interlock_DL.c:220:23
	ldr	r0, [sp, #368]
	.loc	2 220 27 is_stmt 0              @ source/interlock_DL.c:220:27
	ldrb	r0, [r0, #4]
	lsrs	r0, r0, #6
	.loc	2 220 34                        @ source/interlock_DL.c:220:34
	subs	r2, r0, #2
	rsbs	r0, r2, #0
	adcs	r2, r0
	.loc	2 220 4                         @ source/interlock_DL.c:220:4
	ldr	r1, [sp, #380]
	.loc	2 220 20                        @ source/interlock_DL.c:220:20
	ldrb	r0, [r1, #2]
	lsls	r2, r2, #6
	movs	r5, #191
	ands	r0, r5
	adds	r0, r0, r2
	strb	r0, [r1, #2]
	.loc	2 221 19 is_stmt 1              @ source/interlock_DL.c:221:19
	ldr	r0, [sp, #368]
	.loc	2 221 23 is_stmt 0              @ source/interlock_DL.c:221:23
	ldrb	r0, [r0, #4]
	lsls	r0, r0, #28
	lsrs	r0, r0, #30
	.loc	2 221 28                        @ source/interlock_DL.c:221:28
	subs	r2, r0, #1
	rsbs	r0, r2, #0
	adcs	r2, r0
	.loc	2 221 4                         @ source/interlock_DL.c:221:4
	ldr	r1, [sp, #380]
	.loc	2 221 15                        @ source/interlock_DL.c:221:15
	ldrb	r0, [r1, #3]
	lsls	r2, r2, #1
	ands	r0, r4
	adds	r0, r0, r2
	strb	r0, [r1, #3]
	.loc	2 222 19 is_stmt 1              @ source/interlock_DL.c:222:19
	ldr	r0, [sp, #368]
	.loc	2 222 23 is_stmt 0              @ source/interlock_DL.c:222:23
	ldrb	r0, [r0, #4]
	lsls	r0, r0, #28
	lsrs	r0, r0, #30
	.loc	2 222 28                        @ source/interlock_DL.c:222:28
	subs	r2, r0, #2
	rsbs	r0, r2, #0
	adcs	r2, r0
	.loc	2 222 4                         @ source/interlock_DL.c:222:4
	ldr	r1, [sp, #380]
	.loc	2 222 15                        @ source/interlock_DL.c:222:15
	ldrb	r0, [r1, #3]
	lsls	r2, r2, #2
	ands	r0, r3
	adds	r0, r0, r2
	strb	r0, [r1, #3]
	.loc	2 223 20 is_stmt 1              @ source/interlock_DL.c:223:20
	ldr	r0, [sp, #368]
	.loc	2 223 24 is_stmt 0              @ source/interlock_DL.c:223:24
	ldrb	r0, [r0]
	lsls	r0, r0, #28
	lsrs	r0, r0, #30
	.loc	2 223 30                        @ source/interlock_DL.c:223:30
	subs	r2, r0, #2
	rsbs	r0, r2, #0
	adcs	r2, r0
	.loc	2 223 4                         @ source/interlock_DL.c:223:4
	ldr	r1, [sp, #380]
	.loc	2 223 16                        @ source/interlock_DL.c:223:16
	ldrb	r0, [r1, #3]
	lsls	r2, r2, #3
	movs	r3, #247
	ands	r0, r3
	adds	r0, r0, r2
	strb	r0, [r1, #3]
	.loc	2 224 20 is_stmt 1              @ source/interlock_DL.c:224:20
	ldr	r0, [sp, #368]
	.loc	2 224 24 is_stmt 0              @ source/interlock_DL.c:224:24
	ldrb	r0, [r0]
	lsls	r0, r0, #28
	lsrs	r0, r0, #30
	.loc	2 224 30                        @ source/interlock_DL.c:224:30
	subs	r2, r0, #1
	rsbs	r0, r2, #0
	adcs	r2, r0
	.loc	2 224 4                         @ source/interlock_DL.c:224:4
	ldr	r1, [sp, #380]
	.loc	2 224 16                        @ source/interlock_DL.c:224:16
	ldrb	r0, [r1, #3]
	lsls	r2, r2, #4
	movs	r3, #239
	ands	r0, r3
	adds	r0, r0, r2
	strb	r0, [r1, #3]
	.loc	2 225 18 is_stmt 1              @ source/interlock_DL.c:225:18
	ldr	r0, [sp, #364]
	.loc	2 225 25 is_stmt 0              @ source/interlock_DL.c:225:25
	ldrb	r0, [r0, #2]
	lsrs	r1, r0, #6
	movs	r0, #0
	.loc	2 225 36                        @ source/interlock_DL.c:225:36
	cmp	r1, #2
	str	r0, [sp, #8]                    @ 4-byte Spill
	bne	.LBB0_208
	b	.LBB0_207
.LBB0_207:
	.loc	2 225 40                        @ source/interlock_DL.c:225:40
	ldr	r0, [sp, #364]
	.loc	2 225 47                        @ source/interlock_DL.c:225:47
	ldrb	r0, [r0, #3]
	lsrs	r0, r0, #6
	.loc	2 225 53                        @ source/interlock_DL.c:225:53
	subs	r0, r0, #2
	rsbs	r1, r0, #0
	adcs	r0, r1
	str	r0, [sp, #8]                    @ 4-byte Spill
	b	.LBB0_208
.LBB0_208:
	.loc	2 0 0                           @ source/interlock_DL.c:0:0
	ldr	r2, [sp, #8]                    @ 4-byte Reload
	.loc	2 225 4                         @ source/interlock_DL.c:225:4
	ldr	r1, [sp, #380]
	.loc	2 225 14                        @ source/interlock_DL.c:225:14
	ldrb	r0, [r1, #3]
	lsls	r2, r2, #31
	lsrs	r2, r2, #26
	movs	r3, #223
	ands	r0, r3
	adds	r0, r0, r2
	strb	r0, [r1, #3]
	.loc	2 226 19 is_stmt 1              @ source/interlock_DL.c:226:19
	ldr	r0, [sp, #368]
	.loc	2 226 23 is_stmt 0              @ source/interlock_DL.c:226:23
	ldrb	r1, [r0]
	movs	r0, #3
	ands	r1, r0
	movs	r0, #0
	.loc	2 226 37                        @ source/interlock_DL.c:226:37
	cmp	r1, #2
	str	r0, [sp, #4]                    @ 4-byte Spill
	bne	.LBB0_218
	b	.LBB0_209
.LBB0_209:
	.loc	2 226 41                        @ source/interlock_DL.c:226:41
	ldr	r0, [sp, #364]
	.loc	2 226 48                        @ source/interlock_DL.c:226:48
	ldrb	r0, [r0]
	lsls	r0, r0, #26
	lsrs	r1, r0, #30
	movs	r0, #0
	.loc	2 226 62                        @ source/interlock_DL.c:226:62
	cmp	r1, #2
	str	r0, [sp, #4]                    @ 4-byte Spill
	bne	.LBB0_218
	b	.LBB0_210
.LBB0_210:
	.loc	2 226 66                        @ source/interlock_DL.c:226:66
	ldr	r0, [sp, #368]
	.loc	2 226 70                        @ source/interlock_DL.c:226:70
	ldrb	r0, [r0]
	lsrs	r1, r0, #6
	movs	r0, #0
	.loc	2 226 84                        @ source/interlock_DL.c:226:84
	cmp	r1, #2
	str	r0, [sp, #4]                    @ 4-byte Spill
	bne	.LBB0_218
	b	.LBB0_211
.LBB0_211:
	.loc	2 226 88                        @ source/interlock_DL.c:226:88
	ldr	r0, [sp, #368]
	.loc	2 226 92                        @ source/interlock_DL.c:226:92
	ldrb	r0, [r0, #1]
	lsrs	r1, r0, #6
	movs	r0, #0
	.loc	2 226 106                       @ source/interlock_DL.c:226:106
	cmp	r1, #2
	str	r0, [sp, #4]                    @ 4-byte Spill
	bne	.LBB0_218
	b	.LBB0_214
	.loc	2 0 106                         @ :0:106
.Ltmp8:
	.p2align	2
@ %bb.212:
__arm_cp.0_38:
	.long	g_120s_ticks
.Lcpi_end17:
	.size	__arm_cp.0_38, .Lcpi_end17-__arm_cp.0_38
	.p2align	2
@ %bb.213:
__arm_cp.0_39:
	.long	g_tcf_120jpr_state
.Lcpi_end18:
	.size	__arm_cp.0_39, .Lcpi_end18-__arm_cp.0_39
	.p2align	1
.LBB0_214:
	.loc	2 226 110                       @ source/interlock_DL.c:226:110
	ldr	r0, [sp, #368]
	.loc	2 226 114                       @ source/interlock_DL.c:226:114
	ldrb	r1, [r0, #2]
	movs	r0, #3
	ands	r1, r0
	movs	r0, #0
	.loc	2 226 128                       @ source/interlock_DL.c:226:128
	cmp	r1, #2
	str	r0, [sp, #4]                    @ 4-byte Spill
	bne	.LBB0_218
	b	.LBB0_215
.LBB0_215:
	.loc	2 226 132                       @ source/interlock_DL.c:226:132
	ldr	r0, [sp, #364]
	.loc	2 226 139                       @ source/interlock_DL.c:226:139
	ldrb	r0, [r0, #4]
	lsls	r0, r0, #28
	lsrs	r1, r0, #30
	movs	r0, #0
	.loc	2 226 152                       @ source/interlock_DL.c:226:152
	cmp	r1, #1
	str	r0, [sp, #4]                    @ 4-byte Spill
	bne	.LBB0_218
	b	.LBB0_216
.LBB0_216:
	.loc	2 226 156                       @ source/interlock_DL.c:226:156
	ldr	r0, [sp, #384]
	.loc	2 226 163                       @ source/interlock_DL.c:226:163
	ldrb	r0, [r0]
	lsls	r0, r0, #26
	lsrs	r1, r0, #30
	movs	r0, #0
	.loc	2 226 175                       @ source/interlock_DL.c:226:175
	cmp	r1, #1
	str	r0, [sp, #4]                    @ 4-byte Spill
	bne	.LBB0_218
	b	.LBB0_217
.LBB0_217:
	.loc	2 226 179                       @ source/interlock_DL.c:226:179
	ldr	r0, [sp, #356]
	.loc	2 226 186                       @ source/interlock_DL.c:226:186
	ldrb	r0, [r0]
	movs	r1, #3
	ands	r0, r1
	.loc	2 226 190                       @ source/interlock_DL.c:226:190
	subs	r0, r0, #1
	rsbs	r1, r0, #0
	adcs	r0, r1
	str	r0, [sp, #4]                    @ 4-byte Spill
	b	.LBB0_218
.LBB0_218:
	.loc	2 0 0                           @ source/interlock_DL.c:0:0
	ldr	r2, [sp, #4]                    @ 4-byte Reload
	.loc	2 226 4                         @ source/interlock_DL.c:226:4
	ldr	r1, [sp, #380]
	.loc	2 226 15                        @ source/interlock_DL.c:226:15
	ldrb	r0, [r1, #3]
	lsls	r2, r2, #7
	movs	r3, #127
	ands	r0, r3
	adds	r0, r0, r2
	strb	r0, [r1, #3]
	.loc	2 228 23 is_stmt 1              @ source/interlock_DL.c:228:23
	ldr	r0, [sp, #368]
	.loc	2 228 27 is_stmt 0              @ source/interlock_DL.c:228:27
	ldrb	r0, [r0]
	movs	r1, #3
	ands	r0, r1
	.loc	2 228 34                        @ source/interlock_DL.c:228:34
	subs	r3, r0, #2
	rsbs	r0, r3, #0
	adcs	r3, r0
	.loc	2 228 4                         @ source/interlock_DL.c:228:4
	ldr	r2, [sp, #380]
	.loc	2 228 20                        @ source/interlock_DL.c:228:20
	ldrb	r0, [r2, #4]
	movs	r4, #254
	ands	r0, r4
	adds	r0, r0, r3
	strb	r0, [r2, #4]
	.loc	2 229 23 is_stmt 1              @ source/interlock_DL.c:229:23
	ldr	r0, [sp, #368]
	.loc	2 229 27 is_stmt 0              @ source/interlock_DL.c:229:27
	ldrb	r0, [r0]
	ands	r0, r1
	.loc	2 229 34                        @ source/interlock_DL.c:229:34
	subs	r2, r0, #1
	rsbs	r0, r2, #0
	adcs	r2, r0
	.loc	2 229 4                         @ source/interlock_DL.c:229:4
	ldr	r1, [sp, #380]
	.loc	2 229 20                        @ source/interlock_DL.c:229:20
	ldrb	r0, [r1, #4]
	lsls	r2, r2, #1
	movs	r3, #253
	ands	r0, r3
	adds	r0, r0, r2
	strb	r0, [r1, #4]
	.loc	2 231 19 is_stmt 1              @ source/interlock_DL.c:231:19
	ldr	r0, [sp, #368]
	.loc	2 231 23 is_stmt 0              @ source/interlock_DL.c:231:23
	ldrb	r0, [r0]
	lsrs	r1, r0, #6
	movs	r0, #0
	.loc	2 231 39                        @ source/interlock_DL.c:231:39
	cmp	r1, #2
	str	r0, [sp]                        @ 4-byte Spill
	bne	.LBB0_220
	b	.LBB0_219
.LBB0_219:
	.loc	2 231 43                        @ source/interlock_DL.c:231:43
	ldr	r0, [sp, #364]
	.loc	2 231 50                        @ source/interlock_DL.c:231:50
	ldrb	r0, [r0, #4]
	lsls	r0, r0, #28
	lsrs	r0, r0, #30
	.loc	2 231 55                        @ source/interlock_DL.c:231:55
	subs	r0, r0, #1
	rsbs	r1, r0, #0
	adcs	r0, r1
	str	r0, [sp]                        @ 4-byte Spill
	b	.LBB0_220
.LBB0_220:
	.loc	2 0 0                           @ source/interlock_DL.c:0:0
	ldr	r2, [sp]                        @ 4-byte Reload
	.loc	2 231 4                         @ source/interlock_DL.c:231:4
	ldr	r1, [sp, #380]
	.loc	2 231 15                        @ source/interlock_DL.c:231:15
	ldrb	r0, [r1, #2]
	lsls	r2, r2, #31
	lsrs	r2, r2, #27
	movs	r3, #239
	ands	r0, r3
	adds	r0, r0, r2
	strb	r0, [r1, #2]
	.loc	2 232 20 is_stmt 1              @ source/interlock_DL.c:232:20
	ldr	r0, [sp, #368]
	.loc	2 232 24 is_stmt 0              @ source/interlock_DL.c:232:24
	ldrb	r0, [r0, #4]
	movs	r1, #3
	ands	r0, r1
	.loc	2 232 32                        @ source/interlock_DL.c:232:32
	subs	r2, r0, #1
	subs	r0, r2, #1
	sbcs	r2, r0
	.loc	2 232 4                         @ source/interlock_DL.c:232:4
	ldr	r1, [sp, #380]
	.loc	2 232 17                        @ source/interlock_DL.c:232:17
	ldrb	r0, [r1, #4]
	lsls	r2, r2, #2
	movs	r3, #251
	ands	r0, r3
	adds	r0, r0, r2
	strb	r0, [r1, #4]
	.loc	2 233 14 is_stmt 1              @ source/interlock_DL.c:233:14
	ldr	r1, __arm_cp.0_9
	movs	r0, #1
	strb	r0, [r1]
	.loc	2 234 4                         @ source/interlock_DL.c:234:4
	b	.LBB0_222
.LBB0_221:
.Ltmp9:
	.loc	2 237 4                         @ source/interlock_DL.c:237:4
	b	.LBB0_222
.Ltmp10:
.LBB0_222:
	.loc	2 240 1 epilogue_begin          @ source/interlock_DL.c:240:1
	add	sp, #396
	pop	{r4, r5, r6, r7, pc}
.Ltmp11:
	.loc	2 0 1 is_stmt 0                 @ :0:1
.Ltmp12:
	.p2align	2
@ %bb.223:
__arm_cp.0_9:
	.long	interlock_DL.lstate_DL
.Lcpi_end19:
	.size	__arm_cp.0_9, .Lcpi_end19-__arm_cp.0_9
.Lfunc_end0:
	.size	interlock_DL, .Lfunc_end0-interlock_DL
	.cfi_endproc
	.cantunwind
	.fnend
                                        @ -- End function
	.section	.text.interlock_TGT_SM_DL,"ax",%progbits
	.hidden	interlock_TGT_SM_DL             @ -- Begin function interlock_TGT_SM_DL
	.globl	interlock_TGT_SM_DL
	.p2align	2
	.type	interlock_TGT_SM_DL,%function
	.code	16                              @ @interlock_TGT_SM_DL
	.thumb_func
interlock_TGT_SM_DL:
.Lfunc_begin1:
	.loc	2 283 0 is_stmt 1               @ source/interlock_DL.c:283:0
	.fnstart
	.cfi_startproc
@ %bb.0:
	.pad	#32
	sub	sp, #32
	.cfi_def_cfa_offset 32
.Ltmp13:
	.loc	2 287 15 prologue_end           @ source/interlock_DL.c:287:15
	ldr	r0, __arm_cp.1_0
	str	r0, [sp, #28]
	.loc	2 288 15                        @ source/interlock_DL.c:288:15
	ldr	r0, __arm_cp.1_1
	str	r0, [sp, #24]
	.loc	2 289 16                        @ source/interlock_DL.c:289:16
	ldr	r0, __arm_cp.1_2
	str	r0, [sp, #20]
	.loc	2 290 15                        @ source/interlock_DL.c:290:15
	ldr	r0, __arm_cp.1_3
	str	r0, [sp, #16]
	.loc	2 291 15                        @ source/interlock_DL.c:291:15
	ldr	r0, __arm_cp.1_4
	str	r0, [sp, #12]
	.loc	2 293 18                        @ source/interlock_DL.c:293:18
	ldr	r0, __arm_cp.1_5
	str	r0, [sp, #8]
	.loc	2 294 18                        @ source/interlock_DL.c:294:18
	ldr	r0, __arm_cp.1_6
	str	r0, [sp, #4]
.Ltmp14:
	.loc	2 299 5                         @ source/interlock_DL.c:299:5
	ldr	r0, __arm_cp.1_7
	ldrb	r0, [r0]
.Ltmp15:
	.loc	2 299 5 is_stmt 0               @ source/interlock_DL.c:299:5
	cbz	r0, .LBB1_1
	b	.LBB1_52
.LBB1_1:
.Ltmp16:
	.loc	2 300 11 is_stmt 1              @ source/interlock_DL.c:300:11
	ldr	r0, __arm_cp.1_8
	ldrb	r0, [r0]
	.loc	2 300 3 is_stmt 0               @ source/interlock_DL.c:300:3
	str	r0, [sp]                        @ 4-byte Spill
	cmp	r0, #4
	bls	.LBB1_2
	b	.LBB1_50
.LBB1_2:
	ldr	r1, [sp]                        @ 4-byte Reload
	lsls	r2, r1, #2
	adr	r0, .LJTI1_0
	adds	r0, r0, r2
	mov	pc, r0
@ %bb.3:
	.loc	2 0 3                           @ source/interlock_DL.c:0:3
	.p2align	2
.LJTI1_0:
	b.w	.LBB1_4
	b.w	.LBB1_13
	b.w	.LBB1_17
	b.w	.LBB1_28
	b.w	.LBB1_45
.LBB1_4:
.Ltmp17:
	.loc	2 304 8 is_stmt 1               @ source/interlock_DL.c:304:8
	ldr	r0, __arm_cp.1_10
	ldrh	r0, [r0]
.Ltmp18:
	.loc	2 304 8 is_stmt 0               @ source/interlock_DL.c:304:8
	cbz	r0, .LBB1_8
	b	.LBB1_5
.LBB1_5:
.Ltmp19:
	.loc	2 305 9 is_stmt 1               @ source/interlock_DL.c:305:9
	ldr	r0, __arm_cp.1_9
	ldrh	r0, [r0]
.Ltmp20:
	.loc	2 305 9 is_stmt 0               @ source/interlock_DL.c:305:9
	cbnz	r0, .LBB1_7
	b	.LBB1_6
.LBB1_6:
.Ltmp21:
	.loc	2 306 22 is_stmt 1              @ source/interlock_DL.c:306:22
	ldr	r1, [sp, #20]
	.loc	2 306 27 is_stmt 0              @ source/interlock_DL.c:306:27
	ldrb	r0, [r1]
	lsls	r2, r0, #28
	lsrs	r2, r2, #31
	.loc	2 306 33                        @ source/interlock_DL.c:306:33
	rsbs	r3, r2, #0
	adcs	r2, r3
	.loc	2 306 19                        @ source/interlock_DL.c:306:19
	lsls	r2, r2, #3
	movs	r3, #247
	ands	r0, r3
	adds	r0, r0, r2
	strb	r0, [r1]
	.loc	2 307 22 is_stmt 1              @ source/interlock_DL.c:307:22
	ldr	r1, [sp, #20]
	.loc	2 307 27 is_stmt 0              @ source/interlock_DL.c:307:27
	ldrb	r0, [r1]
	lsls	r2, r0, #27
	lsrs	r2, r2, #31
	.loc	2 307 34                        @ source/interlock_DL.c:307:34
	rsbs	r3, r2, #0
	adcs	r2, r3
	.loc	2 307 19                        @ source/interlock_DL.c:307:19
	lsls	r2, r2, #4
	movs	r3, #239
	ands	r0, r3
	adds	r0, r0, r2
	strb	r0, [r1]
	.loc	2 308 19 is_stmt 1              @ source/interlock_DL.c:308:19
	ldr	r1, __arm_cp.1_9
	movw	r0, #1000
	strh	r0, [r1]
	.loc	2 309 6                         @ source/interlock_DL.c:309:6
	b	.LBB1_7
.Ltmp22:
.LBB1_7:
	.loc	2 310 5                         @ source/interlock_DL.c:310:5
	b	.LBB1_12
.Ltmp23:
.LBB1_8:
	.loc	2 311 13                        @ source/interlock_DL.c:311:13
	ldr	r0, [sp, #24]
	.loc	2 311 20 is_stmt 0              @ source/interlock_DL.c:311:20
	ldrb	r0, [r0]
	movs	r1, #3
	ands	r0, r1
.Ltmp24:
	.loc	2 311 13                        @ source/interlock_DL.c:311:13
	cmp	r0, #1
	bne	.LBB1_10
	b	.LBB1_9
.LBB1_9:
.Ltmp25:
	.loc	2 312 6 is_stmt 1               @ source/interlock_DL.c:312:6
	ldr	r1, [sp, #20]
	.loc	2 312 17 is_stmt 0              @ source/interlock_DL.c:312:17
	ldrb	r0, [r1]
	movs	r2, #247
	ands	r0, r2
	strb	r0, [r1]
	.loc	2 313 6 is_stmt 1               @ source/interlock_DL.c:313:6
	ldr	r1, [sp, #20]
	.loc	2 313 18 is_stmt 0              @ source/interlock_DL.c:313:18
	ldrb	r0, [r1]
	movs	r2, #239
	ands	r0, r2
	strb	r0, [r1]
	.loc	2 314 23 is_stmt 1              @ source/interlock_DL.c:314:23
	ldr	r1, __arm_cp.1_8
	movs	r0, #1
	strb	r0, [r1]
	.loc	2 315 5                         @ source/interlock_DL.c:315:5
	b	.LBB1_11
.Ltmp26:
.LBB1_10:
	.loc	2 0 5 is_stmt 0                 @ source/interlock_DL.c:0:5
	b	.LBB1_11
.LBB1_11:
	b	.LBB1_12
.LBB1_12:
	.loc	2 319 5 is_stmt 1               @ source/interlock_DL.c:319:5
	b	.LBB1_51
.LBB1_13:
.Ltmp27:
	.loc	2 322 9                         @ source/interlock_DL.c:322:9
	ldr	r0, [sp, #24]
	.loc	2 322 16 is_stmt 0              @ source/interlock_DL.c:322:16
	ldrb	r0, [r0]
	movs	r1, #3
	ands	r0, r1
	.loc	2 322 30                        @ source/interlock_DL.c:322:30
	cmp	r0, #2
	bne	.LBB1_16
	b	.LBB1_14
.LBB1_14:
	.loc	2 322 34                        @ source/interlock_DL.c:322:34
	ldr	r0, [sp, #8]
	.loc	2 322 38                        @ source/interlock_DL.c:322:38
	ldrb	r0, [r0]
	lsls	r0, r0, #28
	lsrs	r0, r0, #30
.Ltmp28:
	.loc	2 322 8                         @ source/interlock_DL.c:322:8
	cmp	r0, #2
	bne	.LBB1_16
	b	.LBB1_15
.LBB1_15:
.Ltmp29:
	.loc	2 323 6 is_stmt 1               @ source/interlock_DL.c:323:6
	ldr	r1, [sp, #20]
	.loc	2 323 17 is_stmt 0              @ source/interlock_DL.c:323:17
	ldrb	r0, [r1]
	movs	r2, #8
	orrs	r0, r2
	strb	r0, [r1]
	.loc	2 324 6 is_stmt 1               @ source/interlock_DL.c:324:6
	ldr	r1, [sp, #20]
	.loc	2 324 18 is_stmt 0              @ source/interlock_DL.c:324:18
	ldrb	r0, [r1]
	movs	r2, #16
	orrs	r0, r2
	strb	r0, [r1]
	.loc	2 327 6 is_stmt 1               @ source/interlock_DL.c:327:6
	ldr	r1, [sp, #20]
	.loc	2 327 27 is_stmt 0              @ source/interlock_DL.c:327:27
	ldrb	r0, [r1, #4]
	movs	r2, #63
	ands	r0, r2
	adds	r0, #64
	strb	r0, [r1, #4]
	.loc	2 329 23 is_stmt 1              @ source/interlock_DL.c:329:23
	ldr	r1, __arm_cp.1_8
	movs	r0, #2
	strb	r0, [r1]
	.loc	2 330 5                         @ source/interlock_DL.c:330:5
	b	.LBB1_16
.Ltmp30:
.LBB1_16:
	.loc	2 331 5                         @ source/interlock_DL.c:331:5
	b	.LBB1_51
.LBB1_17:
.Ltmp31:
	.loc	2 334 9                         @ source/interlock_DL.c:334:9
	ldr	r0, [sp, #24]
	.loc	2 334 16 is_stmt 0              @ source/interlock_DL.c:334:16
	ldrb	r0, [r0]
	movs	r1, #3
	ands	r0, r1
	.loc	2 334 30                        @ source/interlock_DL.c:334:30
	cmp	r0, #2
	bne	.LBB1_20
	b	.LBB1_18
.LBB1_18:
	.loc	2 334 34                        @ source/interlock_DL.c:334:34
	ldr	r0, [sp, #8]
	.loc	2 334 38                        @ source/interlock_DL.c:334:38
	ldrb	r0, [r0]
	lsls	r0, r0, #28
	lsrs	r0, r0, #30
.Ltmp32:
	.loc	2 334 8                         @ source/interlock_DL.c:334:8
	cmp	r0, #1
	bne	.LBB1_20
	b	.LBB1_19
.LBB1_19:
.Ltmp33:
	.loc	2 335 6 is_stmt 1               @ source/interlock_DL.c:335:6
	ldr	r1, [sp, #20]
	.loc	2 335 17 is_stmt 0              @ source/interlock_DL.c:335:17
	ldrb	r0, [r1]
	movs	r2, #247
	ands	r0, r2
	strb	r0, [r1]
	.loc	2 336 6 is_stmt 1               @ source/interlock_DL.c:336:6
	ldr	r1, [sp, #20]
	.loc	2 336 18 is_stmt 0              @ source/interlock_DL.c:336:18
	ldrb	r0, [r1]
	movs	r2, #239
	ands	r0, r2
	strb	r0, [r1]
	.loc	2 339 23 is_stmt 1              @ source/interlock_DL.c:339:23
	ldr	r1, __arm_cp.1_8
	movs	r0, #3
	strb	r0, [r1]
	.loc	2 340 5                         @ source/interlock_DL.c:340:5
	b	.LBB1_27
.Ltmp34:
.LBB1_20:
	.loc	2 342 10                        @ source/interlock_DL.c:342:10
	ldr	r0, [sp, #4]
	.loc	2 342 17 is_stmt 0              @ source/interlock_DL.c:342:17
	ldrb	r0, [r0, #3]
	lsls	r0, r0, #28
	lsrs	r0, r0, #30
	.loc	2 342 30                        @ source/interlock_DL.c:342:30
	cmp	r0, #2
	bne	.LBB1_23
	b	.LBB1_21
.LBB1_21:
	.loc	2 342 34                        @ source/interlock_DL.c:342:34
	ldr	r0, [sp, #4]
	.loc	2 342 41                        @ source/interlock_DL.c:342:41
	ldrb	r0, [r0, #2]
	lsrs	r0, r0, #6
.Ltmp35:
	.loc	2 342 9                         @ source/interlock_DL.c:342:9
	cmp	r0, #2
	bne	.LBB1_23
	b	.LBB1_22
.LBB1_22:
.Ltmp36:
	.loc	2 343 7 is_stmt 1               @ source/interlock_DL.c:343:7
	ldr	r1, [sp, #20]
	.loc	2 343 21 is_stmt 0              @ source/interlock_DL.c:343:21
	ldrb	r0, [r1, #1]
	movs	r2, #4
	orrs	r0, r2
	strb	r0, [r1, #1]
	.loc	2 344 6 is_stmt 1               @ source/interlock_DL.c:344:6
	b	.LBB1_23
.Ltmp37:
.LBB1_23:
	.loc	2 345 10                        @ source/interlock_DL.c:345:10
	ldr	r0, [sp, #8]
	.loc	2 345 14 is_stmt 0              @ source/interlock_DL.c:345:14
	ldrb	r0, [r0, #3]
	lsls	r0, r0, #26
	lsrs	r0, r0, #30
	.loc	2 345 32                        @ source/interlock_DL.c:345:32
	cmp	r0, #2
	bne	.LBB1_26
	b	.LBB1_24
.LBB1_24:
	.loc	2 345 36                        @ source/interlock_DL.c:345:36
	ldr	r0, [sp, #20]
	.loc	2 345 41                        @ source/interlock_DL.c:345:41
	ldrb	r0, [r0, #1]
.Ltmp38:
	.loc	2 345 9                         @ source/interlock_DL.c:345:9
	lsls	r0, r0, #29
	lsrs	r0, r0, #31
	cbz	r0, .LBB1_26
	b	.LBB1_25
.LBB1_25:
.Ltmp39:
	.loc	2 346 20 is_stmt 1              @ source/interlock_DL.c:346:20
	ldr	r1, __arm_cp.1_10
	movs	r0, #120
	strh	r0, [r1]
	.loc	2 347 7                         @ source/interlock_DL.c:347:7
	ldr	r1, [sp, #20]
	.loc	2 347 21 is_stmt 0              @ source/interlock_DL.c:347:21
	ldrb	r0, [r1, #1]
	movs	r2, #251
	ands	r0, r2
	strb	r0, [r1, #1]
	.loc	2 348 24 is_stmt 1              @ source/interlock_DL.c:348:24
	ldr	r1, __arm_cp.1_8
	movs	r0, #0
	strb	r0, [r1]
	.loc	2 349 6                         @ source/interlock_DL.c:349:6
	b	.LBB1_26
.Ltmp40:
.LBB1_26:
	.loc	2 0 6 is_stmt 0                 @ source/interlock_DL.c:0:6
	b	.LBB1_27
.LBB1_27:
	.loc	2 351 5 is_stmt 1               @ source/interlock_DL.c:351:5
	b	.LBB1_51
.LBB1_28:
.Ltmp41:
	.loc	2 354 9                         @ source/interlock_DL.c:354:9
	ldr	r0, [sp, #24]
	.loc	2 354 16 is_stmt 0              @ source/interlock_DL.c:354:16
	ldrb	r0, [r0]
	movs	r1, #3
	ands	r0, r1
	.loc	2 354 30                        @ source/interlock_DL.c:354:30
	cmp	r0, #2
	bne	.LBB1_39
	b	.LBB1_29
.LBB1_29:
	.loc	2 354 34                        @ source/interlock_DL.c:354:34
	ldr	r0, [sp, #8]
	.loc	2 354 38                        @ source/interlock_DL.c:354:38
	ldrb	r0, [r0]
	lsls	r0, r0, #28
	lsrs	r0, r0, #30
.Ltmp42:
	.loc	2 354 8                         @ source/interlock_DL.c:354:8
	cmp	r0, #2
	bne	.LBB1_39
	b	.LBB1_30
.LBB1_30:
.Ltmp43:
	.loc	2 358 9 is_stmt 1               @ source/interlock_DL.c:358:9
	ldr	r0, __arm_cp.1_9
	ldrh	r0, [r0]
.Ltmp44:
	.loc	2 358 9 is_stmt 0               @ source/interlock_DL.c:358:9
	cbnz	r0, .LBB1_32
	b	.LBB1_31
.LBB1_31:
.Ltmp45:
	.loc	2 359 22 is_stmt 1              @ source/interlock_DL.c:359:22
	ldr	r1, [sp, #20]
	.loc	2 359 27 is_stmt 0              @ source/interlock_DL.c:359:27
	ldrb	r0, [r1]
	lsls	r2, r0, #28
	lsrs	r2, r2, #31
	.loc	2 359 33                        @ source/interlock_DL.c:359:33
	rsbs	r3, r2, #0
	adcs	r2, r3
	.loc	2 359 19                        @ source/interlock_DL.c:359:19
	lsls	r2, r2, #3
	movs	r3, #247
	ands	r0, r3
	adds	r0, r0, r2
	strb	r0, [r1]
	.loc	2 360 22 is_stmt 1              @ source/interlock_DL.c:360:22
	ldr	r1, [sp, #20]
	.loc	2 360 27 is_stmt 0              @ source/interlock_DL.c:360:27
	ldrb	r0, [r1]
	lsls	r2, r0, #27
	lsrs	r2, r2, #31
	.loc	2 360 34                        @ source/interlock_DL.c:360:34
	rsbs	r3, r2, #0
	adcs	r2, r3
	.loc	2 360 19                        @ source/interlock_DL.c:360:19
	lsls	r2, r2, #4
	movs	r3, #239
	ands	r0, r3
	adds	r0, r0, r2
	strb	r0, [r1]
	.loc	2 361 19 is_stmt 1              @ source/interlock_DL.c:361:19
	ldr	r1, __arm_cp.1_9
	movw	r0, #1000
	strh	r0, [r1]
	.loc	2 362 6                         @ source/interlock_DL.c:362:6
	b	.LBB1_32
.Ltmp46:
.LBB1_32:
	.loc	2 363 10                        @ source/interlock_DL.c:363:10
	ldr	r0, [sp, #4]
	.loc	2 363 17 is_stmt 0              @ source/interlock_DL.c:363:17
	ldrb	r0, [r0, #3]
	lsls	r0, r0, #28
	lsrs	r0, r0, #30
	.loc	2 363 30                        @ source/interlock_DL.c:363:30
	cmp	r0, #2
	bne	.LBB1_35
	b	.LBB1_33
.LBB1_33:
	.loc	2 363 34                        @ source/interlock_DL.c:363:34
	ldr	r0, [sp, #4]
	.loc	2 363 41                        @ source/interlock_DL.c:363:41
	ldrb	r0, [r0, #2]
	lsrs	r0, r0, #6
.Ltmp47:
	.loc	2 363 9                         @ source/interlock_DL.c:363:9
	cmp	r0, #2
	bne	.LBB1_35
	b	.LBB1_34
.LBB1_34:
.Ltmp48:
	.loc	2 364 7 is_stmt 1               @ source/interlock_DL.c:364:7
	ldr	r1, [sp, #20]
	.loc	2 364 21 is_stmt 0              @ source/interlock_DL.c:364:21
	ldrb	r0, [r1, #1]
	movs	r2, #4
	orrs	r0, r2
	strb	r0, [r1, #1]
	.loc	2 365 6 is_stmt 1               @ source/interlock_DL.c:365:6
	b	.LBB1_35
.Ltmp49:
.LBB1_35:
	.loc	2 366 10                        @ source/interlock_DL.c:366:10
	ldr	r0, [sp, #8]
	.loc	2 366 14 is_stmt 0              @ source/interlock_DL.c:366:14
	ldrb	r0, [r0, #3]
	lsls	r0, r0, #26
	lsrs	r0, r0, #30
	.loc	2 366 32                        @ source/interlock_DL.c:366:32
	cmp	r0, #2
	bne	.LBB1_38
	b	.LBB1_36
.LBB1_36:
	.loc	2 366 36                        @ source/interlock_DL.c:366:36
	ldr	r0, [sp, #20]
	.loc	2 366 41                        @ source/interlock_DL.c:366:41
	ldrb	r0, [r0, #1]
.Ltmp50:
	.loc	2 366 9                         @ source/interlock_DL.c:366:9
	lsls	r0, r0, #29
	lsrs	r0, r0, #31
	cbz	r0, .LBB1_38
	b	.LBB1_37
.LBB1_37:
.Ltmp51:
	.loc	2 367 20 is_stmt 1              @ source/interlock_DL.c:367:20
	ldr	r1, __arm_cp.1_10
	movs	r0, #120
	strh	r0, [r1]
	.loc	2 368 7                         @ source/interlock_DL.c:368:7
	ldr	r1, [sp, #20]
	.loc	2 368 21 is_stmt 0              @ source/interlock_DL.c:368:21
	ldrb	r0, [r1, #1]
	movs	r2, #251
	ands	r0, r2
	strb	r0, [r1, #1]
	.loc	2 369 24 is_stmt 1              @ source/interlock_DL.c:369:24
	ldr	r1, __arm_cp.1_8
	movs	r0, #0
	strb	r0, [r1]
	.loc	2 370 6                         @ source/interlock_DL.c:370:6
	b	.LBB1_38
.Ltmp52:
.LBB1_38:
	.loc	2 372 6                         @ source/interlock_DL.c:372:6
	ldr	r1, [sp, #20]
	.loc	2 372 27 is_stmt 0              @ source/interlock_DL.c:372:27
	ldrb	r0, [r1, #4]
	movs	r2, #63
	ands	r0, r2
	adds	r0, #128
	strb	r0, [r1, #4]
	.loc	2 373 5 is_stmt 1               @ source/interlock_DL.c:373:5
	b	.LBB1_44
.Ltmp53:
.LBB1_39:
	.loc	2 374 14                        @ source/interlock_DL.c:374:14
	ldr	r0, [sp, #24]
	.loc	2 374 21 is_stmt 0              @ source/interlock_DL.c:374:21
	ldrb	r0, [r0]
	movs	r1, #3
	ands	r0, r1
	.loc	2 374 35                        @ source/interlock_DL.c:374:35
	cmp	r0, #1
	bne	.LBB1_42
	b	.LBB1_40
.LBB1_40:
	.loc	2 374 39                        @ source/interlock_DL.c:374:39
	ldr	r0, [sp, #8]
	.loc	2 374 43                        @ source/interlock_DL.c:374:43
	ldrb	r0, [r0]
	lsls	r0, r0, #28
	lsrs	r0, r0, #30
.Ltmp54:
	.loc	2 374 13                        @ source/interlock_DL.c:374:13
	cmp	r0, #2
	bne	.LBB1_42
	b	.LBB1_41
.LBB1_41:
.Ltmp55:
	.loc	2 375 23 is_stmt 1              @ source/interlock_DL.c:375:23
	ldr	r1, __arm_cp.1_8
	movs	r0, #4
	strb	r0, [r1]
	.loc	2 376 5                         @ source/interlock_DL.c:376:5
	b	.LBB1_43
.Ltmp56:
.LBB1_42:
	.loc	2 0 5 is_stmt 0                 @ source/interlock_DL.c:0:5
	b	.LBB1_43
.LBB1_43:
	b	.LBB1_44
.LBB1_44:
	.loc	2 380 5 is_stmt 1               @ source/interlock_DL.c:380:5
	b	.LBB1_51
.LBB1_45:
.Ltmp57:
	.loc	2 383 9                         @ source/interlock_DL.c:383:9
	ldr	r0, [sp, #24]
	.loc	2 383 16 is_stmt 0              @ source/interlock_DL.c:383:16
	ldrb	r0, [r0]
	movs	r1, #3
	ands	r0, r1
	.loc	2 383 30                        @ source/interlock_DL.c:383:30
	cmp	r0, #1
	bne	.LBB1_48
	b	.LBB1_46
.LBB1_46:
	.loc	2 383 34                        @ source/interlock_DL.c:383:34
	ldr	r0, [sp, #8]
	.loc	2 383 38                        @ source/interlock_DL.c:383:38
	ldrb	r0, [r0]
	lsls	r0, r0, #28
	lsrs	r0, r0, #30
.Ltmp58:
	.loc	2 383 8                         @ source/interlock_DL.c:383:8
	cmp	r0, #2
	bne	.LBB1_48
	b	.LBB1_47
.LBB1_47:
.Ltmp59:
	.loc	2 384 6 is_stmt 1               @ source/interlock_DL.c:384:6
	ldr	r1, [sp, #20]
	.loc	2 384 17 is_stmt 0              @ source/interlock_DL.c:384:17
	ldrb	r0, [r1]
	movs	r2, #247
	ands	r0, r2
	strb	r0, [r1]
	.loc	2 385 6 is_stmt 1               @ source/interlock_DL.c:385:6
	ldr	r1, [sp, #20]
	.loc	2 385 18 is_stmt 0              @ source/interlock_DL.c:385:18
	ldrb	r0, [r1]
	movs	r2, #239
	ands	r0, r2
	strb	r0, [r1]
	.loc	2 386 6 is_stmt 1               @ source/interlock_DL.c:386:6
	ldr	r1, [sp, #20]
	.loc	2 386 20 is_stmt 0              @ source/interlock_DL.c:386:20
	ldrb	r0, [r1, #1]
	movs	r2, #251
	ands	r0, r2
	strb	r0, [r1, #1]
	.loc	2 387 23 is_stmt 1              @ source/interlock_DL.c:387:23
	ldr	r1, __arm_cp.1_8
	movs	r0, #0
	strb	r0, [r1]
	.loc	2 390 6                         @ source/interlock_DL.c:390:6
	ldr	r1, [sp, #20]
	.loc	2 390 27 is_stmt 0              @ source/interlock_DL.c:390:27
	ldrb	r0, [r1, #4]
	movs	r2, #192
	orrs	r0, r2
	strb	r0, [r1, #4]
	.loc	2 391 5 is_stmt 1               @ source/interlock_DL.c:391:5
	b	.LBB1_49
.Ltmp60:
.LBB1_48:
	.loc	2 0 5 is_stmt 0                 @ source/interlock_DL.c:0:5
	b	.LBB1_49
.LBB1_49:
	.loc	2 395 5 is_stmt 1               @ source/interlock_DL.c:395:5
	b	.LBB1_51
.LBB1_50:
	.loc	2 399 5                         @ source/interlock_DL.c:399:5
	b	.LBB1_51
.Ltmp61:
.LBB1_51:
	.loc	2 401 2                         @ source/interlock_DL.c:401:2
	b	.LBB1_52
.Ltmp62:
.LBB1_52:
	.loc	2 402 1 epilogue_begin          @ source/interlock_DL.c:402:1
	add	sp, #32
	bx	lr
.Ltmp63:
	.loc	2 0 1 is_stmt 0                 @ :0:1
.Ltmp64:
	.p2align	2
@ %bb.53:
__arm_cp.1_0:
	.long	vo_u
.Lcpi_end20:
	.size	__arm_cp.1_0, .Lcpi_end20-__arm_cp.1_0
__arm_cp.1_1:
	.long	vo_in_u
.Lcpi_end21:
	.size	__arm_cp.1_1, .Lcpi_end21-__arm_cp.1_1
__arm_cp.1_2:
	.long	nvo_u
.Lcpi_end22:
	.size	__arm_cp.1_2, .Lcpi_end22-__arm_cp.1_2
__arm_cp.1_3:
	.long	lo_in_s
.Lcpi_end23:
	.size	__arm_cp.1_3, .Lcpi_end23-__arm_cp.1_3
__arm_cp.1_4:
	.long	lo_u
.Lcpi_end24:
	.size	__arm_cp.1_4, .Lcpi_end24-__arm_cp.1_4
__arm_cp.1_5:
	.long	vi_u
.Lcpi_end25:
	.size	__arm_cp.1_5, .Lcpi_end25-__arm_cp.1_5
__arm_cp.1_6:
	.long	vi_oe_u
.Lcpi_end26:
	.size	__arm_cp.1_6, .Lcpi_end26-__arm_cp.1_6
__arm_cp.1_7:
	.long	interlock_TGT_SM_DL.shkr_state
.Lcpi_end27:
	.size	__arm_cp.1_7, .Lcpi_end27-__arm_cp.1_7
__arm_cp.1_8:
	.long	interlock_TGT_SM_DL.lstate_TGT_SM_DL
.Lcpi_end28:
	.size	__arm_cp.1_8, .Lcpi_end28-__arm_cp.1_8
__arm_cp.1_9:
	.long	g_TGT_ticks
.Lcpi_end29:
	.size	__arm_cp.1_9, .Lcpi_end29-__arm_cp.1_9
__arm_cp.1_10:
	.long	g_120s_ticks
.Lcpi_end30:
	.size	__arm_cp.1_10, .Lcpi_end30-__arm_cp.1_10
.Lfunc_end1:
	.size	interlock_TGT_SM_DL, .Lfunc_end1-interlock_TGT_SM_DL
	.cfi_endproc
	.cantunwind
	.fnend
                                        @ -- End function
	.section	.text.interlock_TCF_SM_DL,"ax",%progbits
	.hidden	interlock_TCF_SM_DL             @ -- Begin function interlock_TCF_SM_DL
	.globl	interlock_TCF_SM_DL
	.p2align	2
	.type	interlock_TCF_SM_DL,%function
	.code	16                              @ @interlock_TCF_SM_DL
	.thumb_func
interlock_TCF_SM_DL:
.Lfunc_begin2:
	.loc	2 441 0 is_stmt 1               @ source/interlock_DL.c:441:0
	.fnstart
	.cfi_startproc
@ %bb.0:
	.pad	#32
	sub	sp, #32
	.cfi_def_cfa_offset 32
.Ltmp65:
	.loc	2 444 15 prologue_end           @ source/interlock_DL.c:444:15
	ldr	r0, __arm_cp.2_0
	str	r0, [sp, #28]
	.loc	2 445 15                        @ source/interlock_DL.c:445:15
	ldr	r0, __arm_cp.2_1
	str	r0, [sp, #24]
	.loc	2 446 16                        @ source/interlock_DL.c:446:16
	ldr	r0, __arm_cp.2_2
	str	r0, [sp, #20]
	.loc	2 447 15                        @ source/interlock_DL.c:447:15
	ldr	r0, __arm_cp.2_3
	str	r0, [sp, #16]
	.loc	2 448 15                        @ source/interlock_DL.c:448:15
	ldr	r0, __arm_cp.2_4
	str	r0, [sp, #12]
	.loc	2 450 18                        @ source/interlock_DL.c:450:18
	ldr	r0, __arm_cp.2_5
	str	r0, [sp, #8]
	.loc	2 451 18                        @ source/interlock_DL.c:451:18
	ldr	r0, __arm_cp.2_6
	str	r0, [sp, #4]
	.loc	2 455 10                        @ source/interlock_DL.c:455:10
	ldr	r0, __arm_cp.2_7
	ldrb	r0, [r0]
	.loc	2 455 2 is_stmt 0               @ source/interlock_DL.c:455:2
	str	r0, [sp]                        @ 4-byte Spill
	cmp	r0, #4
	bls	.LBB2_1
	b	.LBB2_47
.LBB2_1:
	ldr	r1, [sp]                        @ 4-byte Reload
	lsls	r2, r1, #2
	adr	r0, .LJTI2_0
	adds	r0, r0, r2
	mov	pc, r0
@ %bb.2:
	.loc	2 0 2                           @ source/interlock_DL.c:0:2
	.p2align	2
.LJTI2_0:
	b.w	.LBB2_3
	b.w	.LBB2_12
	b.w	.LBB2_16
	b.w	.LBB2_26
	b.w	.LBB2_43
.LBB2_3:
.Ltmp66:
	.loc	2 458 7 is_stmt 1               @ source/interlock_DL.c:458:7
	ldr	r0, __arm_cp.2_10
	ldrh	r0, [r0]
.Ltmp67:
	.loc	2 458 7 is_stmt 0               @ source/interlock_DL.c:458:7
	cbz	r0, .LBB2_7
	b	.LBB2_4
.LBB2_4:
.Ltmp68:
	.loc	2 459 8 is_stmt 1               @ source/interlock_DL.c:459:8
	ldr	r0, __arm_cp.2_8
	ldrh	r0, [r0]
.Ltmp69:
	.loc	2 459 8 is_stmt 0               @ source/interlock_DL.c:459:8
	cbnz	r0, .LBB2_6
	b	.LBB2_5
.LBB2_5:
.Ltmp70:
	.loc	2 460 21 is_stmt 1              @ source/interlock_DL.c:460:21
	ldr	r1, [sp, #20]
	.loc	2 460 26 is_stmt 0              @ source/interlock_DL.c:460:26
	ldrb	r0, [r1]
	lsrs	r2, r0, #7
	.loc	2 460 32                        @ source/interlock_DL.c:460:32
	rsbs	r3, r2, #0
	adcs	r2, r3
	.loc	2 460 18                        @ source/interlock_DL.c:460:18
	lsls	r2, r2, #7
	movs	r3, #127
	ands	r0, r3
	adds	r0, r0, r2
	strb	r0, [r1]
	.loc	2 461 21 is_stmt 1              @ source/interlock_DL.c:461:21
	ldr	r1, [sp, #20]
	.loc	2 461 26 is_stmt 0              @ source/interlock_DL.c:461:26
	ldrb	r0, [r1, #1]
	movs	r3, #1
	mov	r2, r0
	ands	r2, r3
	.loc	2 461 33                        @ source/interlock_DL.c:461:33
	rsbs	r3, r2, #0
	adcs	r2, r3
	movs	r3, #254
	.loc	2 461 18                        @ source/interlock_DL.c:461:18
	ands	r0, r3
	adds	r0, r0, r2
	strb	r0, [r1, #1]
	.loc	2 462 21 is_stmt 1              @ source/interlock_DL.c:462:21
	ldr	r1, [sp, #20]
	.loc	2 462 26 is_stmt 0              @ source/interlock_DL.c:462:26
	ldrb	r0, [r1, #1]
	lsls	r2, r0, #30
	lsrs	r2, r2, #31
	.loc	2 462 33                        @ source/interlock_DL.c:462:33
	rsbs	r3, r2, #0
	adcs	r2, r3
	.loc	2 462 18                        @ source/interlock_DL.c:462:18
	lsls	r2, r2, #1
	movs	r3, #253
	ands	r0, r3
	adds	r0, r0, r2
	strb	r0, [r1, #1]
	.loc	2 463 18 is_stmt 1              @ source/interlock_DL.c:463:18
	ldr	r1, __arm_cp.2_8
	movw	r0, #1000
	strh	r0, [r1]
	.loc	2 464 5                         @ source/interlock_DL.c:464:5
	b	.LBB2_6
.Ltmp71:
.LBB2_6:
	.loc	2 465 4                         @ source/interlock_DL.c:465:4
	b	.LBB2_11
.Ltmp72:
.LBB2_7:
	.loc	2 466 12                        @ source/interlock_DL.c:466:12
	ldr	r0, [sp, #24]
	.loc	2 466 19 is_stmt 0              @ source/interlock_DL.c:466:19
	ldrb	r0, [r0]
	lsls	r0, r0, #26
	lsrs	r0, r0, #30
.Ltmp73:
	.loc	2 466 12                        @ source/interlock_DL.c:466:12
	cmp	r0, #1
	bne	.LBB2_9
	b	.LBB2_8
.LBB2_8:
.Ltmp74:
	.loc	2 467 5 is_stmt 1               @ source/interlock_DL.c:467:5
	ldr	r1, [sp, #20]
	.loc	2 467 16 is_stmt 0              @ source/interlock_DL.c:467:16
	ldrb	r0, [r1]
	movs	r2, #127
	ands	r0, r2
	strb	r0, [r1]
	.loc	2 468 5 is_stmt 1               @ source/interlock_DL.c:468:5
	ldr	r1, [sp, #20]
	.loc	2 468 17 is_stmt 0              @ source/interlock_DL.c:468:17
	ldrb	r0, [r1, #1]
	movs	r2, #254
	ands	r0, r2
	strb	r0, [r1, #1]
	.loc	2 469 5 is_stmt 1               @ source/interlock_DL.c:469:5
	ldr	r1, [sp, #20]
	.loc	2 469 17 is_stmt 0              @ source/interlock_DL.c:469:17
	ldrb	r0, [r1, #1]
	movs	r2, #253
	ands	r0, r2
	strb	r0, [r1, #1]
	.loc	2 470 22 is_stmt 1              @ source/interlock_DL.c:470:22
	ldr	r1, __arm_cp.2_7
	movs	r0, #1
	strb	r0, [r1]
	.loc	2 471 4                         @ source/interlock_DL.c:471:4
	b	.LBB2_10
.Ltmp75:
.LBB2_9:
	.loc	2 0 4 is_stmt 0                 @ source/interlock_DL.c:0:4
	b	.LBB2_10
.LBB2_10:
	b	.LBB2_11
.LBB2_11:
	.loc	2 475 4 is_stmt 1               @ source/interlock_DL.c:475:4
	b	.LBB2_48
.LBB2_12:
.Ltmp76:
	.loc	2 478 8                         @ source/interlock_DL.c:478:8
	ldr	r0, [sp, #24]
	.loc	2 478 15 is_stmt 0              @ source/interlock_DL.c:478:15
	ldrb	r0, [r0]
	lsls	r0, r0, #26
	lsrs	r0, r0, #30
	.loc	2 478 29                        @ source/interlock_DL.c:478:29
	cmp	r0, #2
	bne	.LBB2_15
	b	.LBB2_13
.LBB2_13:
	.loc	2 478 33                        @ source/interlock_DL.c:478:33
	ldr	r0, [sp, #8]
	.loc	2 478 37                        @ source/interlock_DL.c:478:37
	ldrb	r0, [r0]
	movs	r1, #3
	ands	r0, r1
.Ltmp77:
	.loc	2 478 7                         @ source/interlock_DL.c:478:7
	cmp	r0, #2
	bne	.LBB2_15
	b	.LBB2_14
.LBB2_14:
.Ltmp78:
	.loc	2 479 5 is_stmt 1               @ source/interlock_DL.c:479:5
	ldr	r1, [sp, #20]
	.loc	2 479 16 is_stmt 0              @ source/interlock_DL.c:479:16
	ldrb	r0, [r1]
	movs	r2, #128
	orrs	r0, r2
	strb	r0, [r1]
	.loc	2 480 5 is_stmt 1               @ source/interlock_DL.c:480:5
	ldr	r1, [sp, #20]
	.loc	2 480 17 is_stmt 0              @ source/interlock_DL.c:480:17
	ldrb	r0, [r1, #1]
	movs	r2, #1
	orrs	r0, r2
	strb	r0, [r1, #1]
	.loc	2 481 22 is_stmt 1              @ source/interlock_DL.c:481:22
	ldr	r1, __arm_cp.2_7
	movs	r0, #2
	strb	r0, [r1]
	.loc	2 484 5                         @ source/interlock_DL.c:484:5
	ldr	r1, [sp, #20]
	.loc	2 484 26 is_stmt 0              @ source/interlock_DL.c:484:26
	ldrb	r0, [r1, #4]
	movs	r2, #207
	ands	r0, r2
	adds	r0, #16
	strb	r0, [r1, #4]
	.loc	2 485 4 is_stmt 1               @ source/interlock_DL.c:485:4
	b	.LBB2_15
.Ltmp79:
.LBB2_15:
	.loc	2 486 4                         @ source/interlock_DL.c:486:4
	b	.LBB2_48
.LBB2_16:
.Ltmp80:
	.loc	2 489 8                         @ source/interlock_DL.c:489:8
	ldr	r0, [sp, #24]
	.loc	2 489 15 is_stmt 0              @ source/interlock_DL.c:489:15
	ldrb	r0, [r0]
	lsls	r0, r0, #26
	lsrs	r0, r0, #30
	.loc	2 489 29                        @ source/interlock_DL.c:489:29
	cmp	r0, #2
	bne	.LBB2_19
	b	.LBB2_17
.LBB2_17:
	.loc	2 489 33                        @ source/interlock_DL.c:489:33
	ldr	r0, [sp, #8]
	.loc	2 489 37                        @ source/interlock_DL.c:489:37
	ldrb	r0, [r0]
	movs	r1, #3
	ands	r0, r1
.Ltmp81:
	.loc	2 489 7                         @ source/interlock_DL.c:489:7
	cmp	r0, #1
	bne	.LBB2_19
	b	.LBB2_18
.LBB2_18:
.Ltmp82:
	.loc	2 490 5 is_stmt 1               @ source/interlock_DL.c:490:5
	ldr	r1, [sp, #20]
	.loc	2 490 16 is_stmt 0              @ source/interlock_DL.c:490:16
	ldrb	r0, [r1]
	movs	r2, #127
	ands	r0, r2
	strb	r0, [r1]
	.loc	2 491 5 is_stmt 1               @ source/interlock_DL.c:491:5
	ldr	r1, [sp, #20]
	.loc	2 491 17 is_stmt 0              @ source/interlock_DL.c:491:17
	ldrb	r0, [r1, #1]
	movs	r2, #254
	ands	r0, r2
	strb	r0, [r1, #1]
	.loc	2 493 22 is_stmt 1              @ source/interlock_DL.c:493:22
	ldr	r1, __arm_cp.2_7
	movs	r0, #3
	strb	r0, [r1]
	.loc	2 494 4                         @ source/interlock_DL.c:494:4
	b	.LBB2_19
.Ltmp83:
.LBB2_19:
	.loc	2 495 8                         @ source/interlock_DL.c:495:8
	ldr	r0, [sp, #8]
	.loc	2 495 12 is_stmt 0              @ source/interlock_DL.c:495:12
	ldrb	r0, [r0, #3]
	lsls	r0, r0, #28
	lsrs	r0, r0, #30
	.loc	2 495 25                        @ source/interlock_DL.c:495:25
	cmp	r0, #2
	bne	.LBB2_22
	b	.LBB2_20
.LBB2_20:
	.loc	2 495 29                        @ source/interlock_DL.c:495:29
	ldr	r0, [sp, #8]
	.loc	2 495 33                        @ source/interlock_DL.c:495:33
	ldrb	r0, [r0, #2]
	lsrs	r0, r0, #6
.Ltmp84:
	.loc	2 495 7                         @ source/interlock_DL.c:495:7
	cmp	r0, #2
	bne	.LBB2_22
	b	.LBB2_21
.LBB2_21:
.Ltmp85:
	.loc	2 496 16 is_stmt 1              @ source/interlock_DL.c:496:16
	ldr	r1, __arm_cp.2_9
	movs	r0, #1
	strb	r0, [r1]
	.loc	2 497 4                         @ source/interlock_DL.c:497:4
	b	.LBB2_22
.Ltmp86:
.LBB2_22:
	.loc	2 498 8                         @ source/interlock_DL.c:498:8
	ldr	r0, [sp, #4]
	.loc	2 498 15 is_stmt 0              @ source/interlock_DL.c:498:15
	ldrb	r0, [r0, #3]
	lsls	r0, r0, #26
	lsrs	r0, r0, #30
	.loc	2 498 33                        @ source/interlock_DL.c:498:33
	cmp	r0, #2
	bne	.LBB2_25
	b	.LBB2_23
.LBB2_23:
	.loc	2 498 37                        @ source/interlock_DL.c:498:37
	ldr	r0, __arm_cp.2_9
	ldrb	r0, [r0]
.Ltmp87:
	.loc	2 498 7                         @ source/interlock_DL.c:498:7
	cbz	r0, .LBB2_25
	b	.LBB2_24
.LBB2_24:
.Ltmp88:
	.loc	2 499 18 is_stmt 1              @ source/interlock_DL.c:499:18
	ldr	r1, __arm_cp.2_10
	movs	r0, #120
	strh	r0, [r1]
	.loc	2 500 16                        @ source/interlock_DL.c:500:16
	ldr	r1, __arm_cp.2_9
	movs	r0, #0
	strb	r0, [r1]
	.loc	2 501 22                        @ source/interlock_DL.c:501:22
	ldr	r1, __arm_cp.2_7
	strb	r0, [r1]
	.loc	2 502 4                         @ source/interlock_DL.c:502:4
	b	.LBB2_25
.Ltmp89:
.LBB2_25:
	.loc	2 503 4                         @ source/interlock_DL.c:503:4
	b	.LBB2_48
.LBB2_26:
.Ltmp90:
	.loc	2 506 8                         @ source/interlock_DL.c:506:8
	ldr	r0, [sp, #24]
	.loc	2 506 15 is_stmt 0              @ source/interlock_DL.c:506:15
	ldrb	r0, [r0]
	lsls	r0, r0, #26
	lsrs	r0, r0, #30
	.loc	2 506 29                        @ source/interlock_DL.c:506:29
	cmp	r0, #2
	bne	.LBB2_37
	b	.LBB2_27
.LBB2_27:
	.loc	2 506 33                        @ source/interlock_DL.c:506:33
	ldr	r0, [sp, #8]
	.loc	2 506 37                        @ source/interlock_DL.c:506:37
	ldrb	r0, [r0]
	movs	r1, #3
	ands	r0, r1
.Ltmp91:
	.loc	2 506 7                         @ source/interlock_DL.c:506:7
	cmp	r0, #2
	bne	.LBB2_37
	b	.LBB2_28
.LBB2_28:
.Ltmp92:
	.loc	2 508 8 is_stmt 1               @ source/interlock_DL.c:508:8
	ldr	r0, __arm_cp.2_8
	ldrh	r0, [r0]
.Ltmp93:
	.loc	2 508 8 is_stmt 0               @ source/interlock_DL.c:508:8
	cbnz	r0, .LBB2_30
	b	.LBB2_29
.LBB2_29:
.Ltmp94:
	.loc	2 509 21 is_stmt 1              @ source/interlock_DL.c:509:21
	ldr	r1, [sp, #20]
	.loc	2 509 26 is_stmt 0              @ source/interlock_DL.c:509:26
	ldrb	r0, [r1]
	lsrs	r2, r0, #7
	.loc	2 509 32                        @ source/interlock_DL.c:509:32
	rsbs	r3, r2, #0
	adcs	r2, r3
	.loc	2 509 18                        @ source/interlock_DL.c:509:18
	lsls	r2, r2, #7
	movs	r3, #127
	ands	r0, r3
	adds	r0, r0, r2
	strb	r0, [r1]
	.loc	2 510 21 is_stmt 1              @ source/interlock_DL.c:510:21
	ldr	r1, [sp, #20]
	.loc	2 510 26 is_stmt 0              @ source/interlock_DL.c:510:26
	ldrb	r0, [r1, #1]
	movs	r3, #1
	mov	r2, r0
	ands	r2, r3
	.loc	2 510 33                        @ source/interlock_DL.c:510:33
	rsbs	r3, r2, #0
	adcs	r2, r3
	movs	r3, #254
	.loc	2 510 18                        @ source/interlock_DL.c:510:18
	ands	r0, r3
	adds	r0, r0, r2
	strb	r0, [r1, #1]
	.loc	2 511 18 is_stmt 1              @ source/interlock_DL.c:511:18
	ldr	r1, __arm_cp.2_8
	movw	r0, #1000
	strh	r0, [r1]
	.loc	2 512 5                         @ source/interlock_DL.c:512:5
	b	.LBB2_30
.Ltmp95:
.LBB2_30:
	.loc	2 513 9                         @ source/interlock_DL.c:513:9
	ldr	r0, [sp, #8]
	.loc	2 513 13 is_stmt 0              @ source/interlock_DL.c:513:13
	ldrb	r0, [r0, #3]
	lsls	r0, r0, #28
	lsrs	r0, r0, #30
	.loc	2 513 26                        @ source/interlock_DL.c:513:26
	cmp	r0, #2
	bne	.LBB2_33
	b	.LBB2_31
.LBB2_31:
	.loc	2 513 30                        @ source/interlock_DL.c:513:30
	ldr	r0, [sp, #8]
	.loc	2 513 34                        @ source/interlock_DL.c:513:34
	ldrb	r0, [r0, #2]
	lsrs	r0, r0, #6
.Ltmp96:
	.loc	2 513 8                         @ source/interlock_DL.c:513:8
	cmp	r0, #2
	bne	.LBB2_33
	b	.LBB2_32
.LBB2_32:
.Ltmp97:
	.loc	2 514 17 is_stmt 1              @ source/interlock_DL.c:514:17
	ldr	r1, __arm_cp.2_9
	movs	r0, #1
	strb	r0, [r1]
	.loc	2 515 5                         @ source/interlock_DL.c:515:5
	b	.LBB2_33
.Ltmp98:
.LBB2_33:
	.loc	2 516 9                         @ source/interlock_DL.c:516:9
	ldr	r0, [sp, #4]
	.loc	2 516 16 is_stmt 0              @ source/interlock_DL.c:516:16
	ldrb	r0, [r0, #3]
	lsls	r0, r0, #26
	lsrs	r0, r0, #30
	.loc	2 516 34                        @ source/interlock_DL.c:516:34
	cmp	r0, #2
	bne	.LBB2_36
	b	.LBB2_34
.LBB2_34:
	.loc	2 516 38                        @ source/interlock_DL.c:516:38
	ldr	r0, __arm_cp.2_9
	ldrb	r0, [r0]
.Ltmp99:
	.loc	2 516 8                         @ source/interlock_DL.c:516:8
	cbz	r0, .LBB2_36
	b	.LBB2_35
.LBB2_35:
.Ltmp100:
	.loc	2 517 19 is_stmt 1              @ source/interlock_DL.c:517:19
	ldr	r1, __arm_cp.2_10
	movs	r0, #120
	strh	r0, [r1]
	.loc	2 518 17                        @ source/interlock_DL.c:518:17
	ldr	r1, __arm_cp.2_9
	movs	r0, #0
	strb	r0, [r1]
	.loc	2 519 23                        @ source/interlock_DL.c:519:23
	ldr	r1, __arm_cp.2_7
	strb	r0, [r1]
	.loc	2 520 5                         @ source/interlock_DL.c:520:5
	b	.LBB2_36
.Ltmp101:
.LBB2_36:
	.loc	2 522 5                         @ source/interlock_DL.c:522:5
	ldr	r1, [sp, #20]
	.loc	2 522 26 is_stmt 0              @ source/interlock_DL.c:522:26
	ldrb	r0, [r1, #4]
	movs	r2, #207
	ands	r0, r2
	adds	r0, #32
	strb	r0, [r1, #4]
	.loc	2 523 4 is_stmt 1               @ source/interlock_DL.c:523:4
	b	.LBB2_42
.Ltmp102:
.LBB2_37:
	.loc	2 524 13                        @ source/interlock_DL.c:524:13
	ldr	r0, [sp, #24]
	.loc	2 524 20 is_stmt 0              @ source/interlock_DL.c:524:20
	ldrb	r0, [r0]
	lsls	r0, r0, #26
	lsrs	r0, r0, #30
	.loc	2 524 34                        @ source/interlock_DL.c:524:34
	cmp	r0, #1
	bne	.LBB2_40
	b	.LBB2_38
.LBB2_38:
	.loc	2 524 38                        @ source/interlock_DL.c:524:38
	ldr	r0, [sp, #8]
	.loc	2 524 42                        @ source/interlock_DL.c:524:42
	ldrb	r0, [r0]
	movs	r1, #3
	ands	r0, r1
.Ltmp103:
	.loc	2 524 12                        @ source/interlock_DL.c:524:12
	cmp	r0, #2
	bne	.LBB2_40
	b	.LBB2_39
.LBB2_39:
.Ltmp104:
	.loc	2 525 22 is_stmt 1              @ source/interlock_DL.c:525:22
	ldr	r1, __arm_cp.2_7
	movs	r0, #4
	strb	r0, [r1]
	.loc	2 526 4                         @ source/interlock_DL.c:526:4
	b	.LBB2_41
.Ltmp105:
.LBB2_40:
	.loc	2 0 4 is_stmt 0                 @ source/interlock_DL.c:0:4
	b	.LBB2_41
.LBB2_41:
	b	.LBB2_42
.LBB2_42:
	.loc	2 530 4 is_stmt 1               @ source/interlock_DL.c:530:4
	b	.LBB2_48
.LBB2_43:
.Ltmp106:
	.loc	2 533 8                         @ source/interlock_DL.c:533:8
	ldr	r0, [sp, #24]
	.loc	2 533 15 is_stmt 0              @ source/interlock_DL.c:533:15
	ldrb	r0, [r0]
	lsls	r0, r0, #26
	lsrs	r0, r0, #30
	.loc	2 533 29                        @ source/interlock_DL.c:533:29
	cmp	r0, #1
	bne	.LBB2_46
	b	.LBB2_44
.LBB2_44:
	.loc	2 533 33                        @ source/interlock_DL.c:533:33
	ldr	r0, [sp, #8]
	.loc	2 533 37                        @ source/interlock_DL.c:533:37
	ldrb	r0, [r0]
	movs	r1, #3
	ands	r0, r1
.Ltmp107:
	.loc	2 533 7                         @ source/interlock_DL.c:533:7
	cmp	r0, #2
	bne	.LBB2_46
	b	.LBB2_45
.LBB2_45:
.Ltmp108:
	.loc	2 534 5 is_stmt 1               @ source/interlock_DL.c:534:5
	ldr	r1, [sp, #20]
	.loc	2 534 16 is_stmt 0              @ source/interlock_DL.c:534:16
	ldrb	r0, [r1]
	movs	r2, #127
	ands	r0, r2
	strb	r0, [r1]
	.loc	2 535 5 is_stmt 1               @ source/interlock_DL.c:535:5
	ldr	r1, [sp, #20]
	.loc	2 535 17 is_stmt 0              @ source/interlock_DL.c:535:17
	ldrb	r0, [r1, #1]
	movs	r2, #254
	ands	r0, r2
	strb	r0, [r1, #1]
	.loc	2 536 22 is_stmt 1              @ source/interlock_DL.c:536:22
	ldr	r1, __arm_cp.2_7
	movs	r0, #0
	strb	r0, [r1]
	.loc	2 539 5                         @ source/interlock_DL.c:539:5
	ldr	r1, [sp, #20]
	.loc	2 539 26 is_stmt 0              @ source/interlock_DL.c:539:26
	ldrb	r0, [r1, #4]
	movs	r2, #48
	orrs	r0, r2
	strb	r0, [r1, #4]
	.loc	2 540 4 is_stmt 1               @ source/interlock_DL.c:540:4
	b	.LBB2_46
.Ltmp109:
.LBB2_46:
	.loc	2 541 4                         @ source/interlock_DL.c:541:4
	b	.LBB2_48
.LBB2_47:
	.loc	2 545 4                         @ source/interlock_DL.c:545:4
	b	.LBB2_48
.Ltmp110:
.LBB2_48:
	.loc	2 547 1 epilogue_begin          @ source/interlock_DL.c:547:1
	add	sp, #32
	bx	lr
.Ltmp111:
	.loc	2 0 1 is_stmt 0                 @ :0:1
.Ltmp112:
	.p2align	2
@ %bb.49:
__arm_cp.2_0:
	.long	vo_u
.Lcpi_end31:
	.size	__arm_cp.2_0, .Lcpi_end31-__arm_cp.2_0
__arm_cp.2_1:
	.long	vo_in_u
.Lcpi_end32:
	.size	__arm_cp.2_1, .Lcpi_end32-__arm_cp.2_1
__arm_cp.2_2:
	.long	nvo_u
.Lcpi_end33:
	.size	__arm_cp.2_2, .Lcpi_end33-__arm_cp.2_2
__arm_cp.2_3:
	.long	lo_in_s
.Lcpi_end34:
	.size	__arm_cp.2_3, .Lcpi_end34-__arm_cp.2_3
__arm_cp.2_4:
	.long	lo_u
.Lcpi_end35:
	.size	__arm_cp.2_4, .Lcpi_end35-__arm_cp.2_4
__arm_cp.2_5:
	.long	vi_u
.Lcpi_end36:
	.size	__arm_cp.2_5, .Lcpi_end36-__arm_cp.2_5
__arm_cp.2_6:
	.long	vi_oe_u
.Lcpi_end37:
	.size	__arm_cp.2_6, .Lcpi_end37-__arm_cp.2_6
__arm_cp.2_7:
	.long	interlock_TCF_SM_DL.lstate_TCF_SM_DL
.Lcpi_end38:
	.size	__arm_cp.2_7, .Lcpi_end38-__arm_cp.2_7
__arm_cp.2_8:
	.long	g_TCF_ticks
.Lcpi_end39:
	.size	__arm_cp.2_8, .Lcpi_end39-__arm_cp.2_8
__arm_cp.2_9:
	.long	interlock_TCF_SM_DL.cancel_req
.Lcpi_end40:
	.size	__arm_cp.2_9, .Lcpi_end40-__arm_cp.2_9
__arm_cp.2_10:
	.long	g_120s_ticks
.Lcpi_end41:
	.size	__arm_cp.2_10, .Lcpi_end41-__arm_cp.2_10
.Lfunc_end2:
	.size	interlock_TCF_SM_DL, .Lfunc_end2-interlock_TCF_SM_DL
	.cfi_endproc
	.cantunwind
	.fnend
                                        @ -- End function
	.section	.text.interlock_Buzzer_SM_TGT_DL,"ax",%progbits
	.hidden	interlock_Buzzer_SM_TGT_DL      @ -- Begin function interlock_Buzzer_SM_TGT_DL
	.globl	interlock_Buzzer_SM_TGT_DL
	.p2align	2
	.type	interlock_Buzzer_SM_TGT_DL,%function
	.code	16                              @ @interlock_Buzzer_SM_TGT_DL
	.thumb_func
interlock_Buzzer_SM_TGT_DL:
.Lfunc_begin3:
	.loc	2 575 0 is_stmt 1               @ source/interlock_DL.c:575:0
	.fnstart
	.cfi_startproc
@ %bb.0:
	.save	{r4, lr}
	push	{r4, lr}
	.cfi_def_cfa_offset 8
	.cfi_offset lr, -4
	.cfi_offset r4, -8
	.pad	#28
	sub	sp, #28
	.cfi_def_cfa_offset 36
.Ltmp113:
	.loc	2 578 15 prologue_end           @ source/interlock_DL.c:578:15
	ldr	r0, __arm_cp.3_0
	str	r0, [sp, #24]
	.loc	2 579 15                        @ source/interlock_DL.c:579:15
	ldr	r0, __arm_cp.3_1
	str	r0, [sp, #20]
	.loc	2 580 16                        @ source/interlock_DL.c:580:16
	ldr	r0, __arm_cp.3_2
	str	r0, [sp, #16]
	.loc	2 581 15                        @ source/interlock_DL.c:581:15
	ldr	r0, __arm_cp.3_3
	str	r0, [sp, #12]
	.loc	2 582 15                        @ source/interlock_DL.c:582:15
	ldr	r0, __arm_cp.3_4
	str	r0, [sp, #8]
	.loc	2 584 18                        @ source/interlock_DL.c:584:18
	ldr	r0, __arm_cp.3_5
	str	r0, [sp, #4]
.Ltmp114:
	.loc	2 586 6                         @ source/interlock_DL.c:586:6
	ldr	r0, [sp, #4]
	.loc	2 586 10 is_stmt 0              @ source/interlock_DL.c:586:10
	ldrb	r0, [r0, #3]
	movs	r1, #3
	ands	r0, r1
	.loc	2 586 28                        @ source/interlock_DL.c:586:28
	cmp	r0, #2
	bne	.LBB3_3
	b	.LBB3_1
.LBB3_1:
	.loc	2 586 32                        @ source/interlock_DL.c:586:32
	ldr	r0, __arm_cp.3_6
	ldrh	r0, [r0]
.Ltmp115:
	.loc	2 586 5                         @ source/interlock_DL.c:586:5
	cbnz	r0, .LBB3_3
	b	.LBB3_2
.LBB3_2:
.Ltmp116:
	.loc	2 587 3 is_stmt 1               @ source/interlock_DL.c:587:3
	ldr	r1, [sp, #16]
	.loc	2 587 15 is_stmt 0              @ source/interlock_DL.c:587:15
	ldrb	r0, [r1, #2]
	movs	r3, #247
	ands	r0, r3
	strb	r0, [r1, #2]
	.loc	2 588 3 is_stmt 1               @ source/interlock_DL.c:588:3
	ldr	r1, [sp, #16]
	.loc	2 588 23 is_stmt 0              @ source/interlock_DL.c:588:23
	ldrb	r0, [r1, #3]
	movs	r2, #191
	ands	r0, r2
	strb	r0, [r1, #3]
	.loc	2 589 17 is_stmt 1              @ source/interlock_DL.c:589:17
	ldr	r1, [sp, #16]
	.loc	2 589 22 is_stmt 0              @ source/interlock_DL.c:589:22
	ldrb	r2, [r1, #3]
	.loc	2 589 15                        @ source/interlock_DL.c:589:15
	ldrb	r0, [r1, #2]
	lsrs	r2, r2, #3
	movs	r4, #8
	ands	r2, r4
	ands	r0, r3
	adds	r0, r0, r2
	strb	r0, [r1, #2]
	.loc	2 590 2 is_stmt 1               @ source/interlock_DL.c:590:2
	b	.LBB3_4
.Ltmp117:
.LBB3_3:
	.loc	2 0 2 is_stmt 0                 @ source/interlock_DL.c:0:2
	b	.LBB3_4
.LBB3_4:
	.loc	2 597 10 is_stmt 1              @ source/interlock_DL.c:597:10
	ldr	r0, __arm_cp.3_7
	ldrb	r0, [r0]
	.loc	2 597 2 is_stmt 0               @ source/interlock_DL.c:597:2
	str	r0, [sp]                        @ 4-byte Spill
	cbz	r0, .LBB3_7
	b	.LBB3_5
.LBB3_5:
	ldr	r0, [sp]                        @ 4-byte Reload
	cmp	r0, #1
	beq	.LBB3_14
	b	.LBB3_6
.LBB3_6:
	ldr	r0, [sp]                        @ 4-byte Reload
	cmp	r0, #2
	beq	.LBB3_18
	b	.LBB3_22
.LBB3_7:
.Ltmp118:
	.loc	2 600 7 is_stmt 1               @ source/interlock_DL.c:600:7
	ldr	r0, [sp, #4]
	.loc	2 600 11 is_stmt 0              @ source/interlock_DL.c:600:11
	ldrb	r0, [r0]
	lsls	r0, r0, #28
	lsrs	r0, r0, #30
.Ltmp119:
	.loc	2 600 7                         @ source/interlock_DL.c:600:7
	cmp	r0, #1
	bne	.LBB3_9
	b	.LBB3_8
.LBB3_8:
.Ltmp120:
	.loc	2 601 29 is_stmt 1              @ source/interlock_DL.c:601:29
	ldr	r1, __arm_cp.3_7
	movs	r0, #2
	strb	r0, [r1]
	.loc	2 602 4                         @ source/interlock_DL.c:602:4
	b	.LBB3_13
.Ltmp121:
.LBB3_9:
	.loc	2 603 12                        @ source/interlock_DL.c:603:12
	ldr	r0, [sp, #4]
	.loc	2 603 16 is_stmt 0              @ source/interlock_DL.c:603:16
	ldrb	r0, [r0]
	lsls	r0, r0, #28
	lsrs	r0, r0, #30
.Ltmp122:
	.loc	2 603 12                        @ source/interlock_DL.c:603:12
	cmp	r0, #2
	bne	.LBB3_11
	b	.LBB3_10
.LBB3_10:
.Ltmp123:
	.loc	2 604 29 is_stmt 1              @ source/interlock_DL.c:604:29
	ldr	r1, __arm_cp.3_7
	movs	r0, #1
	strb	r0, [r1]
	.loc	2 605 4                         @ source/interlock_DL.c:605:4
	b	.LBB3_12
.Ltmp124:
.LBB3_11:
	.loc	2 0 4 is_stmt 0                 @ source/interlock_DL.c:0:4
	b	.LBB3_12
.LBB3_12:
	b	.LBB3_13
.LBB3_13:
	.loc	2 609 4 is_stmt 1               @ source/interlock_DL.c:609:4
	ldr	r1, [sp, #16]
	.loc	2 609 16 is_stmt 0              @ source/interlock_DL.c:609:16
	ldrb	r0, [r1, #2]
	movs	r3, #247
	ands	r0, r3
	strb	r0, [r1, #2]
	.loc	2 610 4 is_stmt 1               @ source/interlock_DL.c:610:4
	ldr	r1, [sp, #16]
	.loc	2 610 24 is_stmt 0              @ source/interlock_DL.c:610:24
	ldrb	r0, [r1, #3]
	movs	r2, #191
	ands	r0, r2
	strb	r0, [r1, #3]
	.loc	2 611 18 is_stmt 1              @ source/interlock_DL.c:611:18
	ldr	r1, [sp, #16]
	.loc	2 611 23 is_stmt 0              @ source/interlock_DL.c:611:23
	ldrb	r2, [r1, #3]
	.loc	2 611 16                        @ source/interlock_DL.c:611:16
	ldrb	r0, [r1, #2]
	lsrs	r2, r2, #3
	movs	r4, #8
	ands	r2, r4
	ands	r0, r3
	adds	r0, r0, r2
	strb	r0, [r1, #2]
	.loc	2 612 4 is_stmt 1               @ source/interlock_DL.c:612:4
	b	.LBB3_23
.LBB3_14:
.Ltmp125:
	.loc	2 615 7                         @ source/interlock_DL.c:615:7
	ldr	r0, [sp, #4]
	.loc	2 615 11 is_stmt 0              @ source/interlock_DL.c:615:11
	ldrb	r0, [r0]
	lsls	r0, r0, #28
	lsrs	r0, r0, #30
.Ltmp126:
	.loc	2 615 7                         @ source/interlock_DL.c:615:7
	cmp	r0, #1
	bne	.LBB3_16
	b	.LBB3_15
.LBB3_15:
.Ltmp127:
	.loc	2 616 5 is_stmt 1               @ source/interlock_DL.c:616:5
	ldr	r1, [sp, #16]
	.loc	2 616 17 is_stmt 0              @ source/interlock_DL.c:616:17
	ldrb	r0, [r1, #2]
	movs	r2, #8
	orrs	r0, r2
	strb	r0, [r1, #2]
	.loc	2 617 5 is_stmt 1               @ source/interlock_DL.c:617:5
	ldr	r1, [sp, #16]
	.loc	2 617 25 is_stmt 0              @ source/interlock_DL.c:617:25
	ldrb	r0, [r1, #3]
	movs	r2, #64
	orrs	r0, r2
	strb	r0, [r1, #3]
	.loc	2 618 20 is_stmt 1              @ source/interlock_DL.c:618:20
	ldr	r1, __arm_cp.3_6
	movw	r0, #2000
	strh	r0, [r1]
	.loc	2 619 29                        @ source/interlock_DL.c:619:29
	ldr	r1, __arm_cp.3_7
	movs	r0, #2
	strb	r0, [r1]
	.loc	2 620 4                         @ source/interlock_DL.c:620:4
	b	.LBB3_17
.Ltmp128:
.LBB3_16:
	.loc	2 0 4 is_stmt 0                 @ source/interlock_DL.c:0:4
	b	.LBB3_17
.LBB3_17:
	.loc	2 624 4 is_stmt 1               @ source/interlock_DL.c:624:4
	b	.LBB3_23
.LBB3_18:
.Ltmp129:
	.loc	2 626 7                         @ source/interlock_DL.c:626:7
	ldr	r0, [sp, #4]
	.loc	2 626 11 is_stmt 0              @ source/interlock_DL.c:626:11
	ldrb	r0, [r0]
	lsls	r0, r0, #28
	lsrs	r0, r0, #30
.Ltmp130:
	.loc	2 626 7                         @ source/interlock_DL.c:626:7
	cmp	r0, #2
	bne	.LBB3_20
	b	.LBB3_19
.LBB3_19:
.Ltmp131:
	.loc	2 627 5 is_stmt 1               @ source/interlock_DL.c:627:5
	ldr	r1, [sp, #16]
	.loc	2 627 17 is_stmt 0              @ source/interlock_DL.c:627:17
	ldrb	r0, [r1, #2]
	movs	r2, #8
	orrs	r0, r2
	strb	r0, [r1, #2]
	.loc	2 628 5 is_stmt 1               @ source/interlock_DL.c:628:5
	ldr	r1, [sp, #16]
	.loc	2 628 25 is_stmt 0              @ source/interlock_DL.c:628:25
	ldrb	r0, [r1, #3]
	movs	r2, #64
	orrs	r0, r2
	strb	r0, [r1, #3]
	.loc	2 629 20 is_stmt 1              @ source/interlock_DL.c:629:20
	ldr	r1, __arm_cp.3_6
	movw	r0, #2000
	strh	r0, [r1]
	.loc	2 630 29                        @ source/interlock_DL.c:630:29
	ldr	r1, __arm_cp.3_7
	movs	r0, #1
	strb	r0, [r1]
	.loc	2 631 4                         @ source/interlock_DL.c:631:4
	b	.LBB3_21
.Ltmp132:
.LBB3_20:
	.loc	2 0 4 is_stmt 0                 @ source/interlock_DL.c:0:4
	b	.LBB3_21
.LBB3_21:
	.loc	2 635 4 is_stmt 1               @ source/interlock_DL.c:635:4
	b	.LBB3_23
.LBB3_22:
	.loc	2 639 4                         @ source/interlock_DL.c:639:4
	b	.LBB3_23
.Ltmp133:
.LBB3_23:
	.loc	2 641 1 epilogue_begin          @ source/interlock_DL.c:641:1
	add	sp, #28
	pop	{r4, pc}
.Ltmp134:
	.loc	2 0 1 is_stmt 0                 @ :0:1
.Ltmp135:
	.p2align	2
@ %bb.24:
__arm_cp.3_0:
	.long	vo_u
.Lcpi_end42:
	.size	__arm_cp.3_0, .Lcpi_end42-__arm_cp.3_0
__arm_cp.3_1:
	.long	vo_in_u
.Lcpi_end43:
	.size	__arm_cp.3_1, .Lcpi_end43-__arm_cp.3_1
__arm_cp.3_2:
	.long	nvo_u
.Lcpi_end44:
	.size	__arm_cp.3_2, .Lcpi_end44-__arm_cp.3_2
__arm_cp.3_3:
	.long	lo_in_s
.Lcpi_end45:
	.size	__arm_cp.3_3, .Lcpi_end45-__arm_cp.3_3
__arm_cp.3_4:
	.long	lo_u
.Lcpi_end46:
	.size	__arm_cp.3_4, .Lcpi_end46-__arm_cp.3_4
__arm_cp.3_5:
	.long	vi_u
.Lcpi_end47:
	.size	__arm_cp.3_5, .Lcpi_end47-__arm_cp.3_5
__arm_cp.3_6:
	.long	g_ACKN_D_ticks
.Lcpi_end48:
	.size	__arm_cp.3_6, .Lcpi_end48-__arm_cp.3_6
__arm_cp.3_7:
	.long	interlock_Buzzer_SM_TGT_DL.lstate_Buzzer_SM_TGT_DL
.Lcpi_end49:
	.size	__arm_cp.3_7, .Lcpi_end49-__arm_cp.3_7
.Lfunc_end3:
	.size	interlock_Buzzer_SM_TGT_DL, .Lfunc_end3-interlock_Buzzer_SM_TGT_DL
	.cfi_endproc
	.cantunwind
	.fnend
                                        @ -- End function
	.section	.text.interlock_Buzzer_SM_TCF_DL,"ax",%progbits
	.hidden	interlock_Buzzer_SM_TCF_DL      @ -- Begin function interlock_Buzzer_SM_TCF_DL
	.globl	interlock_Buzzer_SM_TCF_DL
	.p2align	2
	.type	interlock_Buzzer_SM_TCF_DL,%function
	.code	16                              @ @interlock_Buzzer_SM_TCF_DL
	.thumb_func
interlock_Buzzer_SM_TCF_DL:
.Lfunc_begin4:
	.loc	2 670 0 is_stmt 1               @ source/interlock_DL.c:670:0
	.fnstart
	.cfi_startproc
@ %bb.0:
	.save	{r4, lr}
	push	{r4, lr}
	.cfi_def_cfa_offset 8
	.cfi_offset lr, -4
	.cfi_offset r4, -8
	.pad	#28
	sub	sp, #28
	.cfi_def_cfa_offset 36
.Ltmp136:
	.loc	2 672 15 prologue_end           @ source/interlock_DL.c:672:15
	ldr	r0, __arm_cp.4_0
	str	r0, [sp, #24]
	.loc	2 673 15                        @ source/interlock_DL.c:673:15
	ldr	r0, __arm_cp.4_1
	str	r0, [sp, #20]
	.loc	2 674 16                        @ source/interlock_DL.c:674:16
	ldr	r0, __arm_cp.4_2
	str	r0, [sp, #16]
	.loc	2 675 15                        @ source/interlock_DL.c:675:15
	ldr	r0, __arm_cp.4_3
	str	r0, [sp, #12]
	.loc	2 676 15                        @ source/interlock_DL.c:676:15
	ldr	r0, __arm_cp.4_4
	str	r0, [sp, #8]
	.loc	2 678 18                        @ source/interlock_DL.c:678:18
	ldr	r0, __arm_cp.4_5
	str	r0, [sp, #4]
.Ltmp137:
	.loc	2 681 6                         @ source/interlock_DL.c:681:6
	ldr	r0, [sp, #4]
	.loc	2 681 10 is_stmt 0              @ source/interlock_DL.c:681:10
	ldrb	r0, [r0, #1]
	lsls	r0, r0, #26
	lsrs	r0, r0, #30
	.loc	2 681 29                        @ source/interlock_DL.c:681:29
	cmp	r0, #2
	bne	.LBB4_3
	b	.LBB4_1
.LBB4_1:
	.loc	2 681 33                        @ source/interlock_DL.c:681:33
	ldr	r0, __arm_cp.4_6
	ldrh	r0, [r0]
.Ltmp138:
	.loc	2 681 5                         @ source/interlock_DL.c:681:5
	cbnz	r0, .LBB4_3
	b	.LBB4_2
.LBB4_2:
.Ltmp139:
	.loc	2 682 3 is_stmt 1               @ source/interlock_DL.c:682:3
	ldr	r1, [sp, #16]
	.loc	2 682 15 is_stmt 0              @ source/interlock_DL.c:682:15
	ldrb	r0, [r1, #1]
	movs	r3, #127
	ands	r0, r3
	strb	r0, [r1, #1]
	.loc	2 683 3 is_stmt 1               @ source/interlock_DL.c:683:3
	ldr	r1, [sp, #16]
	.loc	2 683 26 is_stmt 0              @ source/interlock_DL.c:683:26
	ldrb	r0, [r1, #4]
	movs	r2, #247
	ands	r0, r2
	strb	r0, [r1, #4]
	.loc	2 684 17 is_stmt 1              @ source/interlock_DL.c:684:17
	ldr	r1, [sp, #16]
	.loc	2 684 22 is_stmt 0              @ source/interlock_DL.c:684:22
	ldrb	r2, [r1, #4]
	.loc	2 684 15                        @ source/interlock_DL.c:684:15
	ldrb	r0, [r1, #1]
	lsls	r2, r2, #4
	movs	r4, #128
	ands	r2, r4
	ands	r0, r3
	adds	r0, r0, r2
	strb	r0, [r1, #1]
	.loc	2 685 2 is_stmt 1               @ source/interlock_DL.c:685:2
	b	.LBB4_4
.Ltmp140:
.LBB4_3:
	.loc	2 0 2 is_stmt 0                 @ source/interlock_DL.c:0:2
	b	.LBB4_4
.LBB4_4:
	.loc	2 693 10 is_stmt 1              @ source/interlock_DL.c:693:10
	ldr	r0, __arm_cp.4_7
	ldrb	r0, [r0]
	.loc	2 693 2 is_stmt 0               @ source/interlock_DL.c:693:2
	str	r0, [sp]                        @ 4-byte Spill
	cbz	r0, .LBB4_7
	b	.LBB4_5
.LBB4_5:
	ldr	r0, [sp]                        @ 4-byte Reload
	cmp	r0, #1
	beq	.LBB4_14
	b	.LBB4_6
.LBB4_6:
	ldr	r0, [sp]                        @ 4-byte Reload
	cmp	r0, #2
	beq	.LBB4_18
	b	.LBB4_22
.LBB4_7:
.Ltmp141:
	.loc	2 696 7 is_stmt 1               @ source/interlock_DL.c:696:7
	ldr	r0, [sp, #4]
	.loc	2 696 11 is_stmt 0              @ source/interlock_DL.c:696:11
	ldrb	r0, [r0]
	movs	r1, #3
	ands	r0, r1
.Ltmp142:
	.loc	2 696 7                         @ source/interlock_DL.c:696:7
	cmp	r0, #1
	bne	.LBB4_9
	b	.LBB4_8
.LBB4_8:
.Ltmp143:
	.loc	2 697 29 is_stmt 1              @ source/interlock_DL.c:697:29
	ldr	r1, __arm_cp.4_7
	movs	r0, #2
	strb	r0, [r1]
	.loc	2 698 4                         @ source/interlock_DL.c:698:4
	b	.LBB4_13
.Ltmp144:
.LBB4_9:
	.loc	2 699 12                        @ source/interlock_DL.c:699:12
	ldr	r0, [sp, #4]
	.loc	2 699 16 is_stmt 0              @ source/interlock_DL.c:699:16
	ldrb	r0, [r0]
	movs	r1, #3
	ands	r0, r1
.Ltmp145:
	.loc	2 699 12                        @ source/interlock_DL.c:699:12
	cmp	r0, #2
	bne	.LBB4_11
	b	.LBB4_10
.LBB4_10:
.Ltmp146:
	.loc	2 700 29 is_stmt 1              @ source/interlock_DL.c:700:29
	ldr	r1, __arm_cp.4_7
	movs	r0, #1
	strb	r0, [r1]
	.loc	2 701 4                         @ source/interlock_DL.c:701:4
	b	.LBB4_12
.Ltmp147:
.LBB4_11:
	.loc	2 0 4 is_stmt 0                 @ source/interlock_DL.c:0:4
	b	.LBB4_12
.LBB4_12:
	b	.LBB4_13
.LBB4_13:
	.loc	2 705 4 is_stmt 1               @ source/interlock_DL.c:705:4
	ldr	r1, [sp, #16]
	.loc	2 705 16 is_stmt 0              @ source/interlock_DL.c:705:16
	ldrb	r0, [r1, #1]
	movs	r3, #127
	ands	r0, r3
	strb	r0, [r1, #1]
	.loc	2 706 4 is_stmt 1               @ source/interlock_DL.c:706:4
	ldr	r1, [sp, #16]
	.loc	2 706 27 is_stmt 0              @ source/interlock_DL.c:706:27
	ldrb	r0, [r1, #4]
	movs	r2, #247
	ands	r0, r2
	strb	r0, [r1, #4]
	.loc	2 707 18 is_stmt 1              @ source/interlock_DL.c:707:18
	ldr	r1, [sp, #16]
	.loc	2 707 23 is_stmt 0              @ source/interlock_DL.c:707:23
	ldrb	r2, [r1, #4]
	.loc	2 707 16                        @ source/interlock_DL.c:707:16
	ldrb	r0, [r1, #1]
	lsls	r2, r2, #4
	movs	r4, #128
	ands	r2, r4
	ands	r0, r3
	adds	r0, r0, r2
	strb	r0, [r1, #1]
	.loc	2 708 4 is_stmt 1               @ source/interlock_DL.c:708:4
	b	.LBB4_23
.LBB4_14:
.Ltmp148:
	.loc	2 711 7                         @ source/interlock_DL.c:711:7
	ldr	r0, [sp, #4]
	.loc	2 711 11 is_stmt 0              @ source/interlock_DL.c:711:11
	ldrb	r0, [r0]
	movs	r1, #3
	ands	r0, r1
.Ltmp149:
	.loc	2 711 7                         @ source/interlock_DL.c:711:7
	cmp	r0, #1
	bne	.LBB4_16
	b	.LBB4_15
.LBB4_15:
.Ltmp150:
	.loc	2 712 5 is_stmt 1               @ source/interlock_DL.c:712:5
	ldr	r1, [sp, #16]
	.loc	2 712 17 is_stmt 0              @ source/interlock_DL.c:712:17
	ldrb	r0, [r1, #1]
	movs	r2, #128
	orrs	r0, r2
	strb	r0, [r1, #1]
	.loc	2 713 5 is_stmt 1               @ source/interlock_DL.c:713:5
	ldr	r1, [sp, #16]
	.loc	2 713 28 is_stmt 0              @ source/interlock_DL.c:713:28
	ldrb	r0, [r1, #4]
	movs	r2, #8
	orrs	r0, r2
	strb	r0, [r1, #4]
	.loc	2 714 20 is_stmt 1              @ source/interlock_DL.c:714:20
	ldr	r1, __arm_cp.4_6
	movw	r0, #2000
	strh	r0, [r1]
	.loc	2 715 29                        @ source/interlock_DL.c:715:29
	ldr	r1, __arm_cp.4_7
	movs	r0, #2
	strb	r0, [r1]
	.loc	2 716 4                         @ source/interlock_DL.c:716:4
	b	.LBB4_17
.Ltmp151:
.LBB4_16:
	.loc	2 0 4 is_stmt 0                 @ source/interlock_DL.c:0:4
	b	.LBB4_17
.LBB4_17:
	.loc	2 720 4 is_stmt 1               @ source/interlock_DL.c:720:4
	b	.LBB4_23
.LBB4_18:
.Ltmp152:
	.loc	2 722 7                         @ source/interlock_DL.c:722:7
	ldr	r0, [sp, #4]
	.loc	2 722 11 is_stmt 0              @ source/interlock_DL.c:722:11
	ldrb	r0, [r0]
	movs	r1, #3
	ands	r0, r1
.Ltmp153:
	.loc	2 722 7                         @ source/interlock_DL.c:722:7
	cmp	r0, #2
	bne	.LBB4_20
	b	.LBB4_19
.LBB4_19:
.Ltmp154:
	.loc	2 723 5 is_stmt 1               @ source/interlock_DL.c:723:5
	ldr	r1, [sp, #16]
	.loc	2 723 17 is_stmt 0              @ source/interlock_DL.c:723:17
	ldrb	r0, [r1, #1]
	movs	r2, #128
	orrs	r0, r2
	strb	r0, [r1, #1]
	.loc	2 724 5 is_stmt 1               @ source/interlock_DL.c:724:5
	ldr	r1, [sp, #16]
	.loc	2 724 28 is_stmt 0              @ source/interlock_DL.c:724:28
	ldrb	r0, [r1, #4]
	movs	r2, #8
	orrs	r0, r2
	strb	r0, [r1, #4]
	.loc	2 725 20 is_stmt 1              @ source/interlock_DL.c:725:20
	ldr	r1, __arm_cp.4_6
	movw	r0, #2000
	strh	r0, [r1]
	.loc	2 726 29                        @ source/interlock_DL.c:726:29
	ldr	r1, __arm_cp.4_7
	movs	r0, #1
	strb	r0, [r1]
	.loc	2 727 4                         @ source/interlock_DL.c:727:4
	b	.LBB4_21
.Ltmp155:
.LBB4_20:
	.loc	2 0 4 is_stmt 0                 @ source/interlock_DL.c:0:4
	b	.LBB4_21
.LBB4_21:
	.loc	2 731 4 is_stmt 1               @ source/interlock_DL.c:731:4
	b	.LBB4_23
.LBB4_22:
	.loc	2 735 4                         @ source/interlock_DL.c:735:4
	b	.LBB4_23
.Ltmp156:
.LBB4_23:
	.loc	2 737 1 epilogue_begin          @ source/interlock_DL.c:737:1
	add	sp, #28
	pop	{r4, pc}
.Ltmp157:
	.loc	2 0 1 is_stmt 0                 @ :0:1
.Ltmp158:
	.p2align	2
@ %bb.24:
__arm_cp.4_0:
	.long	vo_u
.Lcpi_end50:
	.size	__arm_cp.4_0, .Lcpi_end50-__arm_cp.4_0
__arm_cp.4_1:
	.long	vo_in_u
.Lcpi_end51:
	.size	__arm_cp.4_1, .Lcpi_end51-__arm_cp.4_1
__arm_cp.4_2:
	.long	nvo_u
.Lcpi_end52:
	.size	__arm_cp.4_2, .Lcpi_end52-__arm_cp.4_2
__arm_cp.4_3:
	.long	lo_in_s
.Lcpi_end53:
	.size	__arm_cp.4_3, .Lcpi_end53-__arm_cp.4_3
__arm_cp.4_4:
	.long	lo_u
.Lcpi_end54:
	.size	__arm_cp.4_4, .Lcpi_end54-__arm_cp.4_4
__arm_cp.4_5:
	.long	vi_u
.Lcpi_end55:
	.size	__arm_cp.4_5, .Lcpi_end55-__arm_cp.4_5
__arm_cp.4_6:
	.long	g_ACKN_R_ticks
.Lcpi_end56:
	.size	__arm_cp.4_6, .Lcpi_end56-__arm_cp.4_6
__arm_cp.4_7:
	.long	interlock_Buzzer_SM_TCF_DL.lstate_Buzzer_SM_TCF_DL
.Lcpi_end57:
	.size	__arm_cp.4_7, .Lcpi_end57-__arm_cp.4_7
.Lfunc_end4:
	.size	interlock_Buzzer_SM_TCF_DL, .Lfunc_end4-interlock_Buzzer_SM_TCF_DL
	.cfi_endproc
	.cantunwind
	.fnend
                                        @ -- End function
	.type	interlock_DL.lstate_DL,%object  @ @interlock_DL.lstate_DL
	.section	.bss.interlock_DL.lstate_DL,"aw",%nobits
interlock_DL.lstate_DL:
	.byte	0                               @ 0x0
	.size	interlock_DL.lstate_DL, 1

	.type	g_tcf_120jpr_state,%object      @ @g_tcf_120jpr_state
	.section	.bss.g_tcf_120jpr_state,"aw",%nobits
g_tcf_120jpr_state:
	.byte	0                               @ 0x0
	.size	g_tcf_120jpr_state, 1

	.type	interlock_TGT_SM_DL.lstate_TGT_SM_DL,%object @ @interlock_TGT_SM_DL.lstate_TGT_SM_DL
	.section	.bss.interlock_TGT_SM_DL.lstate_TGT_SM_DL,"aw",%nobits
interlock_TGT_SM_DL.lstate_TGT_SM_DL:
	.byte	0                               @ 0x0
	.size	interlock_TGT_SM_DL.lstate_TGT_SM_DL, 1

	.type	interlock_TGT_SM_DL.shkr_state,%object @ @interlock_TGT_SM_DL.shkr_state
	.section	.bss.interlock_TGT_SM_DL.shkr_state,"aw",%nobits
interlock_TGT_SM_DL.shkr_state:
	.byte	0                               @ 0x0
	.size	interlock_TGT_SM_DL.shkr_state, 1

	.type	interlock_TCF_SM_DL.cancel_req,%object @ @interlock_TCF_SM_DL.cancel_req
	.section	.bss.interlock_TCF_SM_DL.cancel_req,"aw",%nobits
interlock_TCF_SM_DL.cancel_req:
	.byte	0                               @ 0x0
	.size	interlock_TCF_SM_DL.cancel_req, 1

	.type	interlock_TCF_SM_DL.lstate_TCF_SM_DL,%object @ @interlock_TCF_SM_DL.lstate_TCF_SM_DL
	.section	.bss.interlock_TCF_SM_DL.lstate_TCF_SM_DL,"aw",%nobits
interlock_TCF_SM_DL.lstate_TCF_SM_DL:
	.byte	0                               @ 0x0
	.size	interlock_TCF_SM_DL.lstate_TCF_SM_DL, 1

	.type	interlock_Buzzer_SM_TGT_DL.lstate_Buzzer_SM_TGT_DL,%object @ @interlock_Buzzer_SM_TGT_DL.lstate_Buzzer_SM_TGT_DL
	.section	.bss.interlock_Buzzer_SM_TGT_DL.lstate_Buzzer_SM_TGT_DL,"aw",%nobits
interlock_Buzzer_SM_TGT_DL.lstate_Buzzer_SM_TGT_DL:
	.byte	0                               @ 0x0
	.size	interlock_Buzzer_SM_TGT_DL.lstate_Buzzer_SM_TGT_DL, 1

	.type	interlock_Buzzer_SM_TCF_DL.lstate_Buzzer_SM_TCF_DL,%object @ @interlock_Buzzer_SM_TCF_DL.lstate_Buzzer_SM_TCF_DL
	.section	.bss.interlock_Buzzer_SM_TCF_DL.lstate_Buzzer_SM_TCF_DL,"aw",%nobits
interlock_Buzzer_SM_TCF_DL.lstate_Buzzer_SM_TCF_DL:
	.byte	0                               @ 0x0
	.size	interlock_Buzzer_SM_TCF_DL.lstate_Buzzer_SM_TCF_DL, 1

	.file	3 "D:\\work\\dheeraj\\local\\CEL\\CCC\\CCC_CPU123\\Code" "source/Include\\interlock.h"
	.section	".note.GNU-stack","",%progbits
	.eabi_attribute	30, 6	@ Tag_ABI_optimization_goals
	.ARM_attribute	16, 1	@ Tag_AV_eba