	.text
	.syntax unified
	.eabi_attribute	67, "2.09"	@ Tag_conformance
	.cpu	cortex-m23
	.eabi_attribute	6, 16	@ Tag_CPU_arch
	.eabi_attribute	7, 77	@ Tag_CPU_arch_profile
	.eabi_attribute	8, 0	@ Tag_ARM_ISA_use
	.eabi_attribute	9, 3	@ Tag_THUMB_ISA_use
	.eabi_attribute	34, 0	@ Tag_CPU_unaligned_access
	.eabi_attribute	17, 1	@ Tag_ABI_PCS_GOT_use
	.eabi_attribute	20, 2	@ Tag_ABI_FP_denormal
	.eabi_attribute	21, 0	@ Tag_ABI_FP_exceptions
	.eabi_attribute	23, 1	@ Tag_ABI_FP_number_model
	.eabi_attribute	24, 1	@ Tag_ABI_align_needed
	.eabi_attribute	25, 1	@ Tag_ABI_align_preserved
	.eabi_attribute	38, 1	@ Tag_ABI_FP_16bit_format
	.eabi_attribute	18, 4	@ Tag_ABI_PCS_wchar_t
	.eabi_attribute	26, 2	@ Tag_ABI_enum_size
	.eabi_attribute	14, 0	@ Tag_ABI_PCS_R9_use
	.file	"interlock_BYPASS.c"
	.section	.text.interlock_Bypass,"ax",%progbits
	.hidden	interlock_Bypass                @ -- Begin function interlock_Bypass
	.globl	interlock_Bypass
	.p2align	2
	.type	interlock_Bypass,%function
	.code	16                              @ @interlock_Bypass
	.thumb_func
interlock_Bypass:
.Lfunc_begin0:
	.file	1 "D:\\work\\dheeraj\\local\\CEL\\CCC\\CCC_CPU123\\Code" "source/interlock_BYPASS.c"
	.loc	1 70 0                          @ source/interlock_BYPASS.c:70:0
	.fnstart
	.cfi_sections .debug_frame
	.cfi_startproc
@ %bb.0:
	.save	{r4, r5, r6, r7, lr}
	push	{r4, r5, r6, r7, lr}
	.cfi_def_cfa_offset 20
	.cfi_offset lr, -4
	.cfi_offset r7, -8
	.cfi_offset r6, -12
	.cfi_offset r5, -16
	.cfi_offset r4, -20
	.pad	#28
	sub	sp, #28
	.cfi_def_cfa_offset 48
.Ltmp0:
	.loc	1 71 15 prologue_end            @ source/interlock_BYPASS.c:71:15
	ldr	r0, __arm_cp.0_0
	str	r0, [sp, #24]
	.loc	1 72 18                         @ source/interlock_BYPASS.c:72:18
	ldr	r0, __arm_cp.0_1
	str	r0, [sp, #20]
	.loc	1 74 13                         @ source/interlock_BYPASS.c:74:13
	ldr	r0, [sp, #20]
	.loc	1 74 20 is_stmt 0               @ source/interlock_BYPASS.c:74:20
	ldrb	r3, [r0]
	movs	r0, #3
	str	r0, [sp, #4]                    @ 4-byte Spill
	ands	r3, r0
	.loc	1 74 2                          @ source/interlock_BYPASS.c:74:2
	ldr	r2, [sp, #24]
	.loc	1 74 11                         @ source/interlock_BYPASS.c:74:11
	ldrb	r0, [r2]
	movs	r1, #252
	ands	r0, r1
	adds	r0, r0, r3
	strb	r0, [r2]
	.loc	1 75 15 is_stmt 1               @ source/interlock_BYPASS.c:75:15
	ldr	r0, [sp, #20]
	.loc	1 75 22 is_stmt 0               @ source/interlock_BYPASS.c:75:22
	ldrb	r3, [r0]
	.loc	1 75 2                          @ source/interlock_BYPASS.c:75:2
	ldr	r2, [sp, #24]
	.loc	1 75 13                         @ source/interlock_BYPASS.c:75:13
	ldrb	r0, [r2]
	movs	r4, #12
	str	r4, [sp, #12]                   @ 4-byte Spill
	ands	r3, r4
	movs	r7, #243
	ands	r0, r7
	adds	r0, r0, r3
	strb	r0, [r2]
	.loc	1 76 13 is_stmt 1               @ source/interlock_BYPASS.c:76:13
	ldr	r0, [sp, #20]
	.loc	1 76 20 is_stmt 0               @ source/interlock_BYPASS.c:76:20
	ldrb	r3, [r0]
	.loc	1 76 2                          @ source/interlock_BYPASS.c:76:2
	ldr	r2, [sp, #24]
	.loc	1 76 11                         @ source/interlock_BYPASS.c:76:11
	ldrb	r0, [r2]
	movs	r6, #48
	ands	r3, r6
	movs	r5, #207
	ands	r0, r5
	adds	r0, r0, r3
	strb	r0, [r2]
	.loc	1 77 15 is_stmt 1               @ source/interlock_BYPASS.c:77:15
	ldr	r0, [sp, #20]
	.loc	1 77 22 is_stmt 0               @ source/interlock_BYPASS.c:77:22
	ldrb	r0, [r0]
	.loc	1 77 2                          @ source/interlock_BYPASS.c:77:2
	ldr	r2, [sp, #24]
	.loc	1 77 13                         @ source/interlock_BYPASS.c:77:13
	str	r2, [sp]                        @ 4-byte Spill
	ldrb	r2, [r2]
	movs	r4, #192
	ands	r0, r4
	movs	r3, #63
	ands	r2, r3
	adds	r2, r2, r0
	ldr	r0, [sp]                        @ 4-byte Reload
	strb	r2, [r0]
	.loc	1 78 13 is_stmt 1               @ source/interlock_BYPASS.c:78:13
	ldr	r0, [sp, #4]                    @ 4-byte Reload
	ldr	r2, [sp, #20]
	.loc	1 78 20 is_stmt 0               @ source/interlock_BYPASS.c:78:20
	ldrb	r2, [r2, #1]
	ands	r2, r0
	.loc	1 78 2                          @ source/interlock_BYPASS.c:78:2
	ldr	r0, [sp, #24]
	.loc	1 78 11                         @ source/interlock_BYPASS.c:78:11
	str	r0, [sp, #8]                    @ 4-byte Spill
	ldrb	r0, [r0, #1]
	ands	r0, r1
	ldr	r1, [sp, #8]                    @ 4-byte Reload
	adds	r0, r0, r2
	strb	r0, [r1, #1]
	.loc	1 79 15 is_stmt 1               @ source/interlock_BYPASS.c:79:15
	ldr	r0, [sp, #20]
	.loc	1 79 22 is_stmt 0               @ source/interlock_BYPASS.c:79:22
	ldrb	r2, [r0, #1]
	.loc	1 79 2                          @ source/interlock_BYPASS.c:79:2
	ldr	r1, [sp, #24]
	.loc	1 79 13                         @ source/interlock_BYPASS.c:79:13
	ldrb	r0, [r1, #1]
	str	r0, [sp, #16]                   @ 4-byte Spill
	ldr	r0, [sp, #12]                   @ 4-byte Reload
	ands	r2, r0
	ldr	r0, [sp, #16]                   @ 4-byte Reload
	ands	r0, r7
	adds	r0, r0, r2
	strb	r0, [r1, #1]
	.loc	1 80 15 is_stmt 1               @ source/interlock_BYPASS.c:80:15
	ldr	r0, [sp, #20]
	.loc	1 80 22 is_stmt 0               @ source/interlock_BYPASS.c:80:22
	ldrb	r2, [r0, #1]
	.loc	1 80 2                          @ source/interlock_BYPASS.c:80:2
	ldr	r1, [sp, #24]
	.loc	1 80 13                         @ source/interlock_BYPASS.c:80:13
	ldrb	r0, [r1, #1]
	ands	r2, r6
	ands	r0, r5
	adds	r0, r0, r2
	strb	r0, [r1, #1]
	.loc	1 81 15 is_stmt 1               @ source/interlock_BYPASS.c:81:15
	ldr	r0, [sp, #20]
	.loc	1 81 22 is_stmt 0               @ source/interlock_BYPASS.c:81:22
	ldrb	r2, [r0, #1]
	.loc	1 81 2                          @ source/interlock_BYPASS.c:81:2
	ldr	r1, [sp, #24]
	.loc	1 81 13                         @ source/interlock_BYPASS.c:81:13
	ldrb	r0, [r1, #1]
	ands	r2, r4
	ands	r0, r3
	adds	r0, r0, r2
	strb	r0, [r1, #1]
	.loc	1 82 1 epilogue_begin is_stmt 1 @ source/interlock_BYPASS.c:82:1
	add	sp, #28
	pop	{r4, r5, r6, r7, pc}
.Ltmp1:
	.loc	1 0 1 is_stmt 0                 @ :0:1
.Ltmp2:
	.p2align	2
@ %bb.1:
__arm_cp.0_0:
	.long	vo_u
.Lcpi_end0:
	.size	__arm_cp.0_0, .Lcpi_end0-__arm_cp.0_0
__arm_cp.0_1:
	.long	vi_oe_u
.Lcpi_end1:
	.size	__arm_cp.0_1, .Lcpi_end1-__arm_cp.0_1
.Lfunc_end0:
	.size	interlock_Bypass, .Lfunc_end0-interlock_Bypass
	.cfi_endproc
	.cantunwind
	.fnend
                                        @ -- End function
	.file	2 "D:\\work\\dheeraj\\local\\CEL\\CCC\\CCC_CPU123\\Code" "source/Include\\interlock.h"
	.section	".note.GNU-stack","",%progbits
	.eabi_attribute	30, 6	@ Tag_ABI_optimization_goals
	.ARM_attribute	16, 1	@ Tag_AV_eba