	.text
	.syntax unified
	.eabi_attribute	67, "2.09"	@ Tag_conformance
	.cpu	cortex-m23
	.eabi_attribute	6, 16	@ Tag_CPU_arch
	.eabi_attribute	7, 77	@ Tag_CPU_arch_profile
	.eabi_attribute	8, 0	@ Tag_ARM_ISA_use
	.eabi_attribute	9, 3	@ Tag_THUMB_ISA_use
	.eabi_attribute	34, 0	@ Tag_CPU_unaligned_access
	.eabi_attribute	17, 1	@ Tag_ABI_PCS_GOT_use
	.eabi_attribute	20, 2	@ Tag_ABI_FP_denormal
	.eabi_attribute	21, 0	@ Tag_ABI_FP_exceptions
	.eabi_attribute	23, 1	@ Tag_ABI_FP_number_model
	.eabi_attribute	24, 1	@ Tag_ABI_align_needed
	.eabi_attribute	25, 1	@ Tag_ABI_align_preserved
	.eabi_attribute	38, 1	@ Tag_ABI_FP_16bit_format
	.eabi_attribute	18, 4	@ Tag_ABI_PCS_wchar_t
	.eabi_attribute	26, 2	@ Tag_ABI_enum_size
	.eabi_attribute	14, 0	@ Tag_ABI_PCS_R9_use
	.file	"isp_user.c"
	.file	1 "C:\\Users\\Anaya\\AppData\\Local\\Keil_v5\\ARM\\ARMCLANG\\bin\\..\\include" "stdint.h"
	.file	2 "D:\\work\\dheeraj\\local\\CEL\\CCC\\CCC_CPU123\\Code" "source/isp_user.c"
	.file	3 "D:\\work\\dheeraj\\local\\CEL\\CCC\\CCC_CPU123\\Code" "../../CCC_common/Library/Device/Nuvoton/M261/Include\\sys_reg.h"
	.file	4 "D:\\work\\dheeraj\\local\\CEL\\CCC\\CCC_CPU123\\Code" "../../CCC_common/Library/Device/Nuvoton/M261/Include\\fmc_reg.h"
	.file	5 "D:\\work\\dheeraj\\local\\CEL\\CCC\\CCC_CPU123\\Code" "../../CCC_common/Library/CMSIS/Include\\core_armv8mbl.h"
	.section	.text.ParseCmd,"ax",%progbits
	.hidden	ParseCmd                        @ -- Begin function ParseCmd
	.globl	ParseCmd
	.p2align	2
	.type	ParseCmd,%function
	.code	16                              @ @ParseCmd
	.thumb_func
ParseCmd:
.Lfunc_begin0:
	.loc	2 32 0                          @ source/isp_user.c:32:0
	.fnstart
	.cfi_sections .debug_frame
	.cfi_startproc
@ %bb.0:
	.save	{r7, lr}
	push	{r7, lr}
	.cfi_def_cfa_offset 8
	.cfi_offset lr, -4
	.cfi_offset r7, -8
	.pad	#48
	sub	sp, #48
	.cfi_def_cfa_offset 56
                                        @ kill: def $r2 killed $r1
	str	r0, [sp, #44]
	add	r0, sp, #40
	strb	r1, [r0]
.Ltmp0:
	.loc	2 39 14 prologue_end            @ source/isp_user.c:39:14
	ldr	r1, __arm_cp.0_0
	str	r1, [sp, #36]
	.loc	2 40 12                         @ source/isp_user.c:40:12
	ldr	r1, [sp, #44]
	.loc	2 40 10 is_stmt 0               @ source/isp_user.c:40:10
	str	r1, [sp, #16]
	.loc	2 41 14 is_stmt 1               @ source/isp_user.c:41:14
	ldrb	r0, [r0]
	.loc	2 41 12 is_stmt 0               @ source/isp_user.c:41:12
	str	r0, [sp, #24]
	.loc	2 42 12 is_stmt 1               @ source/isp_user.c:42:12
	ldr	r0, [sp, #16]
	ldr	r0, [r0]
	.loc	2 42 10 is_stmt 0               @ source/isp_user.c:42:10
	str	r0, [sp, #28]
	.loc	2 43 5 is_stmt 1                @ source/isp_user.c:43:5
	ldr	r1, [sp, #36]
	movs	r0, #0
	str	r0, [r1, #4]
	.loc	2 44 10                         @ source/isp_user.c:44:10
	ldr	r0, [sp, #16]
	adds	r0, #8
	str	r0, [sp, #16]
	.loc	2 45 12                         @ source/isp_user.c:45:12
	ldr	r0, [sp, #24]
	subs	r0, #8
	str	r0, [sp, #24]
	.loc	2 46 50                         @ source/isp_user.c:46:50
	ldr	r2, [sp, #36]
	.loc	2 46 59 is_stmt 0               @ source/isp_user.c:46:59
	adds	r2, #8
	movs	r0, #3
	lsls	r0, r0, #20
	ldr	r1, __arm_cp.0_1
	.loc	2 46 5                          @ source/isp_user.c:46:5
	bl	ReadData
.Ltmp1:
	.loc	2 48 8 is_stmt 1                @ source/isp_user.c:48:8
	ldr	r0, [sp, #28]
.Ltmp2:
	.loc	2 48 8 is_stmt 0                @ source/isp_user.c:48:8
	cmp	r0, #164
	bne	.LBB0_2
	b	.LBB0_1
.LBB0_1:
.Ltmp3:
	.loc	2 50 20 is_stmt 1               @ source/isp_user.c:50:20
	ldr	r0, [sp, #16]
	ldr	r0, [r0]
	.loc	2 50 18 is_stmt 0               @ source/isp_user.c:50:18
	ldr	r1, __arm_cp.0_2
	str	r0, [r1]
	.loc	2 51 5 is_stmt 1                @ source/isp_user.c:51:5
	b	.LBB0_2
.Ltmp4:
.LBB0_2:
	.loc	2 53 9                          @ source/isp_user.c:53:9
	ldr	r0, [sp, #28]
	.loc	2 53 15 is_stmt 0               @ source/isp_user.c:53:15
	cbz	r0, .LBB0_5
	b	.LBB0_3
.LBB0_3:
	.loc	2 53 19                         @ source/isp_user.c:53:19
	ldr	r0, [sp, #28]
.Ltmp5:
	.loc	2 53 8                          @ source/isp_user.c:53:8
	cmp	r0, #255
	beq	.LBB0_5
	b	.LBB0_4
.LBB0_4:
.Ltmp6:
	.loc	2 55 16 is_stmt 1               @ source/isp_user.c:55:16
	ldr	r0, [sp, #28]
	.loc	2 55 14 is_stmt 0               @ source/isp_user.c:55:14
	ldr	r1, __arm_cp.0_3
	str	r0, [r1]
	.loc	2 56 5 is_stmt 1                @ source/isp_user.c:56:5
	b	.LBB0_5
.Ltmp7:
.LBB0_5:
	.loc	2 58 8                          @ source/isp_user.c:58:8
	ldr	r0, [sp, #28]
.Ltmp8:
	.loc	2 58 8 is_stmt 0                @ source/isp_user.c:58:8
	cmp	r0, #166
	bne	.LBB0_7
	b	.LBB0_6
.LBB0_6:
.Ltmp9:
	.loc	2 60 9 is_stmt 1                @ source/isp_user.c:60:9
	ldr	r1, [sp, #36]
	movs	r0, #50
	.loc	2 60 21 is_stmt 0               @ source/isp_user.c:60:21
	strb	r0, [r1, #8]
	.loc	2 61 5 is_stmt 1                @ source/isp_user.c:61:5
	b	.LBB0_20
.Ltmp10:
.LBB0_7:
	.loc	2 62 13                         @ source/isp_user.c:62:13
	ldr	r0, [sp, #28]
.Ltmp11:
	.loc	2 62 13 is_stmt 0               @ source/isp_user.c:62:13
	cmp	r0, #177
	bne	.LBB0_9
	b	.LBB0_8
.LBB0_8:
	.loc	2 0 13                          @ source/isp_user.c:0:13
	movs	r0, #1
	lsls	r0, r0, #30
.Ltmp12:
	.loc	2 64 9 is_stmt 1                @ source/isp_user.c:64:9
	ldr	r0, [r0]
	ldr	r1, [sp, #36]
	str	r0, [r1, #8]
	.loc	2 65 9                          @ source/isp_user.c:65:9
	b	.LBB0_45
.Ltmp13:
.LBB0_9:
	.loc	2 67 13                         @ source/isp_user.c:67:13
	ldr	r0, [sp, #28]
.Ltmp14:
	.loc	2 67 13 is_stmt 0               @ source/isp_user.c:67:13
	cmp	r0, #171
	bne	.LBB0_12
	b	.LBB0_10
.LBB0_10:
	.loc	2 0 13                          @ source/isp_user.c:0:13
	movs	r0, #0
.Ltmp15:
	.loc	2 69 9 is_stmt 1                @ source/isp_user.c:69:9
	bl	FMC_SetVectorPageAddr
	.loc	2 70 9                          @ source/isp_user.c:70:9
	bl	__NVIC_SystemReset
	.loc	2 73 9                          @ source/isp_user.c:73:9
	b	.LBB0_11
.LBB0_11:                               @ =>This Inner Loop Header: Depth=1
	b	.LBB0_11
.Ltmp16:
.LBB0_12:
	.loc	2 75 13                         @ source/isp_user.c:75:13
	ldr	r0, [sp, #28]
.Ltmp17:
	.loc	2 75 13 is_stmt 0               @ source/isp_user.c:75:13
	cmp	r0, #174
	bne	.LBB0_14
	b	.LBB0_13
.LBB0_13:
.Ltmp18:
	.loc	2 77 18 is_stmt 1               @ source/isp_user.c:77:18
	ldr	r1, __arm_cp.0_2
	movs	r0, #1
	str	r0, [r1]
	.loc	2 78 9                          @ source/isp_user.c:78:9
	ldr	r0, __arm_cp.0_4
	ldr	r0, [r0]
	ldr	r1, [sp, #36]
	str	r0, [r1, #8]
	.loc	2 79 9                          @ source/isp_user.c:79:9
	ldr	r0, __arm_cp.0_5
	ldr	r0, [r0]
	ldr	r1, [sp, #36]
	str	r0, [r1, #12]
	.loc	2 80 9                          @ source/isp_user.c:80:9
	b	.LBB0_45
.Ltmp19:
.LBB0_14:
	.loc	2 82 13                         @ source/isp_user.c:82:13
	ldr	r0, [sp, #28]
.Ltmp20:
	.loc	2 82 13 is_stmt 0               @ source/isp_user.c:82:13
	cmp	r0, #163
	bne	.LBB0_16
	b	.LBB0_15
.LBB0_15:
.Ltmp21:
	.loc	2 84 33 is_stmt 1               @ source/isp_user.c:84:33
	ldr	r0, __arm_cp.0_4
	ldr	r1, [r0]
	movs	r0, #0
	.loc	2 84 9 is_stmt 0                @ source/isp_user.c:84:9
	bl	EraseAP
	.loc	2 85 5 is_stmt 1                @ source/isp_user.c:85:5
	b	.LBB0_16
.Ltmp22:
.LBB0_16:
	.loc	2 0 5 is_stmt 0                 @ source/isp_user.c:0:5
	b	.LBB0_17
.LBB0_17:
	b	.LBB0_18
.LBB0_18:
	b	.LBB0_19
.LBB0_19:
	b	.LBB0_20
.LBB0_20:
.Ltmp23:
	.loc	2 87 9 is_stmt 1                @ source/isp_user.c:87:9
	ldr	r0, [sp, #28]
	.loc	2 87 35 is_stmt 0               @ source/isp_user.c:87:35
	cmp	r0, #160
	beq	.LBB0_22
	b	.LBB0_21
.LBB0_21:
	.loc	2 87 39                         @ source/isp_user.c:87:39
	ldr	r0, [sp, #28]
.Ltmp24:
	.loc	2 87 8                          @ source/isp_user.c:87:8
	cmp	r0, #195
	bne	.LBB0_29
	b	.LBB0_22
.LBB0_22:
.Ltmp25:
	.loc	2 89 12 is_stmt 1               @ source/isp_user.c:89:12
	ldr	r0, [sp, #28]
.Ltmp26:
	.loc	2 89 12 is_stmt 0               @ source/isp_user.c:89:12
	cmp	r0, #195
	bne	.LBB0_27
	b	.LBB0_23
.LBB0_23:
.Ltmp27:
	.loc	2 91 28 is_stmt 1               @ source/isp_user.c:91:28
	ldr	r0, __arm_cp.0_5
	ldr	r0, [r0]
	.loc	2 91 26 is_stmt 0               @ source/isp_user.c:91:26
	ldr	r1, __arm_cp.0_7
	str	r0, [r1]
.Ltmp28:
	.loc	2 93 16 is_stmt 1               @ source/isp_user.c:93:16
	ldr	r0, __arm_cp.0_12
	ldr	r0, [r0]
.Ltmp29:
	.loc	2 93 16 is_stmt 0               @ source/isp_user.c:93:16
	cbz	r0, .LBB0_25
	b	.LBB0_24
.LBB0_24:
.Ltmp30:
	.loc	2 95 25 is_stmt 1               @ source/isp_user.c:95:25
	ldr	r0, __arm_cp.0_5
	ldr	r0, [r0]
	.loc	2 95 42 is_stmt 0               @ source/isp_user.c:95:42
	ldr	r1, __arm_cp.0_12
	ldr	r1, [r1]
	.loc	2 95 17                         @ source/isp_user.c:95:17
	bl	EraseAP
	.loc	2 96 13 is_stmt 1               @ source/isp_user.c:96:13
	b	.LBB0_26
.Ltmp31:
.LBB0_25:
	.loc	2 99 17                         @ source/isp_user.c:99:17
	b	.LBB0_45
.Ltmp32:
.LBB0_26:
	.loc	2 101 9                         @ source/isp_user.c:101:9
	b	.LBB0_28
.Ltmp33:
.LBB0_27:
	.loc	2 104 28                        @ source/isp_user.c:104:28
	ldr	r0, [sp, #16]
	ldr	r1, [r0]
	.loc	2 104 26 is_stmt 0              @ source/isp_user.c:104:26
	ldr	r0, __arm_cp.0_7
	str	r1, [r0]
	.loc	2 105 24 is_stmt 1              @ source/isp_user.c:105:24
	ldr	r1, [sp, #16]
	ldr	r2, [r1, #4]
	.loc	2 105 22 is_stmt 0              @ source/isp_user.c:105:22
	ldr	r1, __arm_cp.0_8
	str	r2, [r1]
	.loc	2 106 21 is_stmt 1              @ source/isp_user.c:106:21
	ldr	r0, [r0]
	.loc	2 106 35 is_stmt 0              @ source/isp_user.c:106:35
	ldr	r1, [r1]
	.loc	2 106 13                        @ source/isp_user.c:106:13
	bl	EraseAP
	b	.LBB0_28
.Ltmp34:
.LBB0_28:
	.loc	2 110 20 is_stmt 1              @ source/isp_user.c:110:20
	ldr	r0, [sp, #16]
	ldr	r1, [r0, #4]
	.loc	2 110 18 is_stmt 0              @ source/isp_user.c:110:18
	ldr	r0, __arm_cp.0_8
	str	r1, [r0]
	.loc	2 111 14 is_stmt 1              @ source/isp_user.c:111:14
	ldr	r1, [sp, #16]
	adds	r1, #8
	str	r1, [sp, #16]
	.loc	2 112 16                        @ source/isp_user.c:112:16
	ldr	r1, [sp, #24]
	subs	r1, #8
	str	r1, [sp, #24]
	.loc	2 113 28                        @ source/isp_user.c:113:28
	ldr	r1, __arm_cp.0_7
	ldr	r1, [r1]
	.loc	2 113 26 is_stmt 0              @ source/isp_user.c:113:26
	ldr	r2, __arm_cp.0_13
	str	r1, [r2]
	.loc	2 114 24 is_stmt 1              @ source/isp_user.c:114:24
	ldr	r0, [r0]
	.loc	2 114 22 is_stmt 0              @ source/isp_user.c:114:22
	ldr	r1, __arm_cp.0_14
	str	r0, [r1]
	.loc	2 115 5 is_stmt 1               @ source/isp_user.c:115:5
	b	.LBB0_39
.Ltmp35:
.LBB0_29:
	.loc	2 116 13                        @ source/isp_user.c:116:13
	ldr	r0, [sp, #28]
.Ltmp36:
	.loc	2 116 13 is_stmt 0              @ source/isp_user.c:116:13
	cmp	r0, #161
	bne	.LBB0_31
	b	.LBB0_30
.LBB0_30:
.Ltmp37:
	.loc	2 118 35 is_stmt 1              @ source/isp_user.c:118:35
	ldr	r0, [sp, #16]
	.loc	2 118 55 is_stmt 0              @ source/isp_user.c:118:55
	ldr	r1, [sp, #36]
	.loc	2 118 64                        @ source/isp_user.c:118:64
	adds	r1, #8
	.loc	2 118 9                         @ source/isp_user.c:118:9
	bl	UpdateConfig
	.loc	2 119 9 is_stmt 1               @ source/isp_user.c:119:9
	b	.LBB0_45
.Ltmp38:
.LBB0_31:
	.loc	2 121 13                        @ source/isp_user.c:121:13
	ldr	r0, [sp, #28]
.Ltmp39:
	.loc	2 121 13 is_stmt 0              @ source/isp_user.c:121:13
	cmp	r0, #255
	bne	.LBB0_37
	b	.LBB0_32
.LBB0_32:
.Ltmp40:
	.loc	2 124 25 is_stmt 1              @ source/isp_user.c:124:25
	ldr	r1, __arm_cp.0_6
	ldr	r3, [r1]
	.loc	2 124 22 is_stmt 0              @ source/isp_user.c:124:22
	ldr	r0, __arm_cp.0_7
	ldr	r2, [r0]
	subs	r2, r2, r3
	str	r2, [r0]
	.loc	2 125 21 is_stmt 1              @ source/isp_user.c:125:21
	ldr	r3, [r1]
	.loc	2 125 18 is_stmt 0              @ source/isp_user.c:125:18
	ldr	r2, __arm_cp.0_8
	ldr	r1, [r2]
	adds	r1, r1, r3
	str	r1, [r2]
	.loc	2 126 23 is_stmt 1              @ source/isp_user.c:126:23
	ldr	r0, [r0]
	ldr	r1, __arm_cp.0_9
	.loc	2 126 36 is_stmt 0              @ source/isp_user.c:126:36
	ands	r0, r1
	.loc	2 126 21                        @ source/isp_user.c:126:21
	str	r0, [sp, #12]
.Ltmp41:
	.loc	2 128 12 is_stmt 1              @ source/isp_user.c:128:12
	ldr	r0, [sp, #12]
.Ltmp42:
	.loc	2 128 12 is_stmt 0              @ source/isp_user.c:128:12
	lsrs	r0, r0, #20
	cmp	r0, #3
	blo	.LBB0_34
	b	.LBB0_33
.LBB0_33:
.Ltmp43:
	.loc	2 130 13 is_stmt 1              @ source/isp_user.c:130:13
	b	.LBB0_45
.Ltmp44:
.LBB0_34:
	.loc	2 133 18                        @ source/isp_user.c:133:18
	ldr	r0, [sp, #12]
	.loc	2 133 31 is_stmt 0              @ source/isp_user.c:133:31
	ldr	r1, __arm_cp.0_7
	str	r1, [sp, #8]                    @ 4-byte Spill
	ldr	r1, [r1]
	.loc	2 133 9                         @ source/isp_user.c:133:9
	ldr	r2, __arm_cp.0_10
	str	r2, [sp, #4]                    @ 4-byte Spill
	bl	ReadData
	.loc	2 134 24 is_stmt 1              @ source/isp_user.c:134:24
	ldr	r0, [sp, #12]
	.loc	2 134 9 is_stmt 0               @ source/isp_user.c:134:9
	bl	FMC_Erase_User
	ldr	r2, [sp, #4]                    @ 4-byte Reload
	ldr	r1, [sp, #8]                    @ 4-byte Reload
	.loc	2 135 19 is_stmt 1              @ source/isp_user.c:135:19
	ldr	r0, [sp, #12]
	.loc	2 135 32 is_stmt 0              @ source/isp_user.c:135:32
	ldr	r1, [r1]
	.loc	2 135 9                         @ source/isp_user.c:135:9
	bl	WriteData
	ldr	r0, [sp, #8]                    @ 4-byte Reload
.Ltmp45:
	.loc	2 137 13 is_stmt 1              @ source/isp_user.c:137:13
	ldr	r0, [r0]
	ldr	r1, __arm_cp.0_11
	.loc	2 137 26 is_stmt 0              @ source/isp_user.c:137:26
	ands	r0, r1
	.loc	2 137 75                        @ source/isp_user.c:137:75
	ldr	r1, __arm_cp.0_6
	ldr	r2, [r1]
	movw	r1, #2048
	.loc	2 137 73                        @ source/isp_user.c:137:73
	subs	r1, r1, r2
.Ltmp46:
	.loc	2 137 12                        @ source/isp_user.c:137:12
	cmp	r0, r1
	blo	.LBB0_36
	b	.LBB0_35
.LBB0_35:
.Ltmp47:
	.loc	2 139 28 is_stmt 1              @ source/isp_user.c:139:28
	ldr	r0, [sp, #12]
	movw	r1, #2048
	.loc	2 139 40 is_stmt 0              @ source/isp_user.c:139:40
	adds	r0, r0, r1
	.loc	2 139 13                        @ source/isp_user.c:139:13
	bl	FMC_Erase_User
	.loc	2 140 9 is_stmt 1               @ source/isp_user.c:140:9
	b	.LBB0_36
.Ltmp48:
.LBB0_36:
	.loc	2 142 9                         @ source/isp_user.c:142:9
	b	.LBB0_45
.Ltmp49:
.LBB0_37:
	.loc	2 0 9 is_stmt 0                 @ source/isp_user.c:0:9
	b	.LBB0_38
.LBB0_38:
	b	.LBB0_39
.LBB0_39:
.Ltmp50:
	.loc	2 145 9 is_stmt 1               @ source/isp_user.c:145:9
	ldr	r0, __arm_cp.0_3
	ldr	r0, [r0]
	.loc	2 145 35 is_stmt 0              @ source/isp_user.c:145:35
	cmp	r0, #160
	beq	.LBB0_41
	b	.LBB0_40
.LBB0_40:
	.loc	2 145 39                        @ source/isp_user.c:145:39
	ldr	r0, __arm_cp.0_3
	ldr	r0, [r0]
.Ltmp51:
	.loc	2 145 8                         @ source/isp_user.c:145:8
	cmp	r0, #195
	bne	.LBB0_44
	b	.LBB0_41
.LBB0_41:
.Ltmp52:
	.loc	2 147 12 is_stmt 1              @ source/isp_user.c:147:12
	ldr	r0, __arm_cp.0_8
	ldr	r0, [r0]
	.loc	2 147 23 is_stmt 0              @ source/isp_user.c:147:23
	ldr	r1, [sp, #24]
.Ltmp53:
	.loc	2 147 12                        @ source/isp_user.c:147:12
	cmp	r0, r1
	bhs	.LBB0_43
	b	.LBB0_42
.LBB0_42:
.Ltmp54:
	.loc	2 149 22 is_stmt 1              @ source/isp_user.c:149:22
	ldr	r0, __arm_cp.0_8
	ldr	r0, [r0]
	.loc	2 149 20 is_stmt 0              @ source/isp_user.c:149:20
	str	r0, [sp, #24]
	.loc	2 150 9 is_stmt 1               @ source/isp_user.c:150:9
	b	.LBB0_43
.Ltmp55:
.LBB0_43:
	.loc	2 152 21                        @ source/isp_user.c:152:21
	ldr	r2, [sp, #24]
	.loc	2 152 18 is_stmt 0              @ source/isp_user.c:152:18
	ldr	r1, __arm_cp.0_8
	ldr	r0, [r1]
	subs	r0, r0, r2
	str	r0, [r1]
	.loc	2 153 19 is_stmt 1              @ source/isp_user.c:153:19
	ldr	r0, __arm_cp.0_7
	str	r0, [sp]                        @ 4-byte Spill
	ldr	r0, [r0]
	.loc	2 153 48 is_stmt 0              @ source/isp_user.c:153:48
	ldr	r1, [sp, #24]
	.loc	2 153 46                        @ source/isp_user.c:153:46
	adds	r1, r0, r1
	.loc	2 153 68                        @ source/isp_user.c:153:68
	ldr	r2, [sp, #16]
	.loc	2 153 9                         @ source/isp_user.c:153:9
	bl	WriteData
	.loc	2 154 16 is_stmt 1              @ source/isp_user.c:154:16
	ldr	r0, [sp, #16]
	.loc	2 154 25 is_stmt 0              @ source/isp_user.c:154:25
	ldr	r1, [sp, #24]
	.loc	2 154 9                         @ source/isp_user.c:154:9
	bl	__aeabi_memclr
	ldr	r0, [sp]                        @ 4-byte Reload
	.loc	2 155 18 is_stmt 1              @ source/isp_user.c:155:18
	ldr	r0, [r0]
	.loc	2 155 47 is_stmt 0              @ source/isp_user.c:155:47
	ldr	r1, [sp, #24]
	.loc	2 155 45                        @ source/isp_user.c:155:45
	adds	r1, r0, r1
	.loc	2 155 67                        @ source/isp_user.c:155:67
	ldr	r2, [sp, #16]
	.loc	2 155 9                         @ source/isp_user.c:155:9
	bl	ReadData
	ldr	r1, [sp]                        @ 4-byte Reload
	.loc	2 156 25 is_stmt 1              @ source/isp_user.c:156:25
	ldr	r2, [sp, #24]
	.loc	2 156 22 is_stmt 0              @ source/isp_user.c:156:22
	ldr	r0, [r1]
	adds	r0, r0, r2
	str	r0, [r1]
	.loc	2 157 24 is_stmt 1              @ source/isp_user.c:157:24
	ldr	r0, [sp, #24]
	.loc	2 157 21 is_stmt 0              @ source/isp_user.c:157:21
	ldr	r1, __arm_cp.0_6
	str	r0, [r1]
	.loc	2 158 5 is_stmt 1               @ source/isp_user.c:158:5
	b	.LBB0_44
.Ltmp56:
.LBB0_44:
	.loc	2 145 67                        @ source/isp_user.c:145:67
	b	.LBB0_45
.Ltmp57:
.LBB0_45:
	@DEBUG_LABEL: ParseCmd:out
	.loc	2 161 23                        @ source/isp_user.c:161:23
	ldr	r0, [sp, #44]
	add	r1, sp, #40
	.loc	2 161 31 is_stmt 0              @ source/isp_user.c:161:31
	ldrb	r1, [r1]
	.loc	2 161 14                        @ source/isp_user.c:161:14
	bl	Checksum
	add	r1, sp, #32
	.loc	2 161 12                        @ source/isp_user.c:161:12
	strh	r0, [r1]
	.loc	2 162 5 is_stmt 1               @ source/isp_user.c:162:5
	ldr	r0, [sp, #32]
	ldr	r1, [sp, #36]
	strh	r0, [r1]
	.loc	2 163 5                         @ source/isp_user.c:163:5
	ldr	r1, __arm_cp.0_2
	ldr	r0, [r1]
	adds	r0, r0, #1
	str	r0, [r1]
	.loc	2 164 5                         @ source/isp_user.c:164:5
	ldr	r0, [r1]
	ldr	r2, [sp, #36]
	str	r0, [r2, #4]
	.loc	2 165 13                        @ source/isp_user.c:165:13
	ldr	r0, [r1]
	adds	r0, r0, #1
	str	r0, [r1]
	movs	r0, #0
	.loc	2 166 5 epilogue_begin          @ source/isp_user.c:166:5
	add	sp, #48
	pop	{r7, pc}
.Ltmp58:
	.loc	2 0 5 is_stmt 0                 @ :0:5
.Ltmp59:
	.p2align	2
@ %bb.46:
__arm_cp.0_0:
	.long	response_buff
.Lcpi_end0:
	.size	__arm_cp.0_0, .Lcpi_end0-__arm_cp.0_0
__arm_cp.0_1:
	.long	3145744                         @ 0x300010
.Lcpi_end1:
	.size	__arm_cp.0_1, .Lcpi_end1-__arm_cp.0_1
__arm_cp.0_2:
	.long	ParseCmd.g_packno
.Lcpi_end2:
	.size	__arm_cp.0_2, .Lcpi_end2-__arm_cp.0_2
__arm_cp.0_3:
	.long	ParseCmd.gcmd
.Lcpi_end3:
	.size	__arm_cp.0_3, .Lcpi_end3-__arm_cp.0_3
__arm_cp.0_4:
	.long	g_apromSize
.Lcpi_end4:
	.size	__arm_cp.0_4, .Lcpi_end4-__arm_cp.0_4
__arm_cp.0_5:
	.long	g_dataFlashAddr
.Lcpi_end5:
	.size	__arm_cp.0_5, .Lcpi_end5-__arm_cp.0_5
__arm_cp.0_6:
	.long	ParseCmd.LastDataLen
.Lcpi_end6:
	.size	__arm_cp.0_6, .Lcpi_end6-__arm_cp.0_6
__arm_cp.0_7:
	.long	ParseCmd.StartAddress
.Lcpi_end7:
	.size	__arm_cp.0_7, .Lcpi_end7-__arm_cp.0_7
__arm_cp.0_8:
	.long	ParseCmd.TotalLen
.Lcpi_end8:
	.size	__arm_cp.0_8, .Lcpi_end8-__arm_cp.0_8
__arm_cp.0_9:
	.long	1046528                         @ 0xff800
.Lcpi_end9:
	.size	__arm_cp.0_9, .Lcpi_end9-__arm_cp.0_9
__arm_cp.0_10:
	.long	aprom_buf
.Lcpi_end10:
	.size	__arm_cp.0_10, .Lcpi_end10-__arm_cp.0_10
__arm_cp.0_11:
	.long	2047                            @ 0x7ff
.Lcpi_end11:
	.size	__arm_cp.0_11, .Lcpi_end11-__arm_cp.0_11
__arm_cp.0_12:
	.long	g_dataFlashSize
.Lcpi_end12:
	.size	__arm_cp.0_12, .Lcpi_end12-__arm_cp.0_12
__arm_cp.0_13:
	.long	ParseCmd.StartAddress_bak
.Lcpi_end13:
	.size	__arm_cp.0_13, .Lcpi_end13-__arm_cp.0_13
__arm_cp.0_14:
	.long	ParseCmd.TotalLen_bak
.Lcpi_end14:
	.size	__arm_cp.0_14, .Lcpi_end14-__arm_cp.0_14
.Lfunc_end0:
	.size	ParseCmd, .Lfunc_end0-ParseCmd
	.cfi_endproc
	.cantunwind
	.fnend
                                        @ -- End function
	.section	.text.FMC_SetVectorPageAddr,"ax",%progbits
	.p2align	2                               @ -- Begin function FMC_SetVectorPageAddr
	.type	FMC_SetVectorPageAddr,%function
	.code	16                              @ @FMC_SetVectorPageAddr
	.thumb_func
FMC_SetVectorPageAddr:
.Lfunc_begin1:
	.file	6 "D:\\work\\dheeraj\\local\\CEL\\CCC\\CCC_CPU123\\Code" "../../CCC_common/Library/StdDriver/inc\\fmc.h"
	.loc	6 517 0 is_stmt 1               @ ../../CCC_common/Library/StdDriver/inc\fmc.h:517:0
	.fnstart
	.cfi_startproc
@ %bb.0:
	.pad	#12
	sub	sp, #12
	.cfi_def_cfa_offset 12
	str	r0, [sp, #4]
.Ltmp60:
	.loc	6 518 29 prologue_end           @ ../../CCC_common/Library/StdDriver/inc\fmc.h:518:29
	ldr	r0, __arm_cp.1_0
	ldr	r0, [r0]
	lsrs	r0, r0, #3
	.loc	6 518 13 is_stmt 0              @ ../../CCC_common/Library/StdDriver/inc\fmc.h:518:13
	str	r0, [sp]
	.loc	6 520 22 is_stmt 1              @ ../../CCC_common/Library/StdDriver/inc\fmc.h:520:22
	ldr	r1, __arm_cp.1_1
	movs	r0, #0
	str	r0, [r1]
	ldr	r1, __arm_cp.1_2
	movs	r0, #46
	.loc	6 522 17                        @ ../../CCC_common/Library/StdDriver/inc\fmc.h:522:17
	str	r0, [r1]
	.loc	6 523 20                        @ ../../CCC_common/Library/StdDriver/inc\fmc.h:523:20
	ldr	r0, [sp, #4]
	ldr	r1, __arm_cp.1_3
	.loc	6 523 18 is_stmt 0              @ ../../CCC_common/Library/StdDriver/inc\fmc.h:523:18
	str	r0, [r1]
	ldr	r1, __arm_cp.1_4
	movs	r0, #1
	.loc	6 524 17 is_stmt 1              @ ../../CCC_common/Library/StdDriver/inc\fmc.h:524:17
	str	r0, [r1]
	.loc	6 528 5                         @ ../../CCC_common/Library/StdDriver/inc\fmc.h:528:5
	b	.LBB1_1
.LBB1_1:                                @ =>This Inner Loop Header: Depth=1
	.loc	6 0 5 is_stmt 0                 @ ../../CCC_common/Library/StdDriver/inc\fmc.h:0:5
	ldr	r0, __arm_cp.1_4
	.loc	6 528 16                        @ ../../CCC_common/Library/StdDriver/inc\fmc.h:528:16
	ldr	r0, [r0]
	.loc	6 528 5                         @ ../../CCC_common/Library/StdDriver/inc\fmc.h:528:5
	cbz	r0, .LBB1_5
	b	.LBB1_2
.LBB1_2:                                @   in Loop: Header=BB1_1 Depth=1
.Ltmp61:
	.loc	6 530 26 is_stmt 1              @ ../../CCC_common/Library/StdDriver/inc\fmc.h:530:26
	ldr	r0, [sp]
	subs	r1, r0, #1
	str	r1, [sp]
.Ltmp62:
	.loc	6 530 13 is_stmt 0              @ ../../CCC_common/Library/StdDriver/inc\fmc.h:530:13
	cmp	r0, #0
	bgt	.LBB1_4
	b	.LBB1_3
.LBB1_3:
.Ltmp63:
	.loc	6 532 30 is_stmt 1              @ ../../CCC_common/Library/StdDriver/inc\fmc.h:532:30
	ldr	r1, __arm_cp.1_1
	movs	r0, #0
	mvns	r0, r0
	str	r0, [r1]
	.loc	6 533 13                        @ ../../CCC_common/Library/StdDriver/inc\fmc.h:533:13
	str	r0, [sp, #8]
	b	.LBB1_6
.Ltmp64:
.LBB1_4:                                @   in Loop: Header=BB1_1 Depth=1
	.loc	6 528 5                         @ ../../CCC_common/Library/StdDriver/inc\fmc.h:528:5
	b	.LBB1_1
.LBB1_5:
	.loc	6 0 5 is_stmt 0                 @ ../../CCC_common/Library/StdDriver/inc\fmc.h:0:5
	movs	r0, #0
	.loc	6 537 5 is_stmt 1               @ ../../CCC_common/Library/StdDriver/inc\fmc.h:537:5
	str	r0, [sp, #8]
	b	.LBB1_6
.LBB1_6:
	.loc	6 538 1                         @ ../../CCC_common/Library/StdDriver/inc\fmc.h:538:1
	ldr	r0, [sp, #8]
	.loc	6 538 1 epilogue_begin is_stmt 0 @ ../../CCC_common/Library/StdDriver/inc\fmc.h:538:1
	add	sp, #12
	bx	lr
.Ltmp65:
	.loc	6 0 1                           @ :0:1
.Ltmp66:
	.p2align	2
@ %bb.7:
__arm_cp.1_0:
	.long	SystemCoreClock
.Lcpi_end15:
	.size	__arm_cp.1_0, .Lcpi_end15-__arm_cp.1_0
__arm_cp.1_1:
	.long	g_FMC_i32ErrCode
.Lcpi_end16:
	.size	__arm_cp.1_1, .Lcpi_end16-__arm_cp.1_1
__arm_cp.1_2:
	.long	1073790988                      @ 0x4000c00c
.Lcpi_end17:
	.size	__arm_cp.1_2, .Lcpi_end17-__arm_cp.1_2
__arm_cp.1_3:
	.long	1073790980                      @ 0x4000c004
.Lcpi_end18:
	.size	__arm_cp.1_3, .Lcpi_end18-__arm_cp.1_3
__arm_cp.1_4:
	.long	1073790992                      @ 0x4000c010
.Lcpi_end19:
	.size	__arm_cp.1_4, .Lcpi_end19-__arm_cp.1_4
.Lfunc_end1:
	.size	FMC_SetVectorPageAddr, .Lfunc_end1-FMC_SetVectorPageAddr
	.cfi_endproc
	.cantunwind
	.fnend
                                        @ -- End function
	.section	.text.__NVIC_SystemReset,"ax",%progbits
	.p2align	2                               @ -- Begin function __NVIC_SystemReset
	.type	__NVIC_SystemReset,%function
	.code	16                              @ @__NVIC_SystemReset
	.thumb_func
__NVIC_SystemReset:
.Lfunc_begin2:
	.fnstart
	.cfi_startproc
@ %bb.0:
	.loc	5 1554 3 prologue_end is_stmt 1 @ ../../CCC_common/Library/CMSIS/Include\core_armv8mbl.h:1554:3
	dsb	sy
	ldr	r1, __arm_cp.2_0
	ldr	r0, __arm_cp.2_1
	.loc	5 1556 15                       @ ../../CCC_common/Library/CMSIS/Include\core_armv8mbl.h:1556:15
	str	r0, [r1]
	.loc	5 1558 3                        @ ../../CCC_common/Library/CMSIS/Include\core_armv8mbl.h:1558:3
	dsb	sy
	.loc	5 1560 3                        @ ../../CCC_common/Library/CMSIS/Include\core_armv8mbl.h:1560:3
	b	.LBB2_1
.LBB2_1:                                @ =>This Inner Loop Header: Depth=1
.Ltmp67:
	.loc	5 1562 5                        @ ../../CCC_common/Library/CMSIS/Include\core_armv8mbl.h:1562:5
	nop
.Ltmp68:
	.loc	5 1560 3                        @ ../../CCC_common/Library/CMSIS/Include\core_armv8mbl.h:1560:3
	b	.LBB2_1
.Ltmp69:
	.loc	5 0 3 is_stmt 0                 @ :0:3
.Ltmp70:
	.p2align	2
@ %bb.2:
__arm_cp.2_0:
	.long	3758157068                      @ 0xe000ed0c
.Lcpi_end20:
	.size	__arm_cp.2_0, .Lcpi_end20-__arm_cp.2_0
__arm_cp.2_1:
	.long	100270084                       @ 0x5fa0004
.Lcpi_end21:
	.size	__arm_cp.2_1, .Lcpi_end21-__arm_cp.2_1
.Lfunc_end2:
	.size	__NVIC_SystemReset, .Lfunc_end2-__NVIC_SystemReset
	.cfi_endproc
	.cantunwind
	.fnend
                                        @ -- End function
	.section	.text.Checksum,"ax",%progbits
	.p2align	1                               @ -- Begin function Checksum
	.type	Checksum,%function
	.code	16                              @ @Checksum
	.thumb_func
Checksum:
.Lfunc_begin3:
	.loc	2 19 0 is_stmt 1                @ source/isp_user.c:19:0
	.fnstart
	.cfi_startproc
@ %bb.0:
	.pad	#16
	sub	sp, #16
	.cfi_def_cfa_offset 16
	str	r0, [sp, #12]
	str	r1, [sp, #8]
	mov	r1, sp
	movs	r0, #0
.Ltmp71:
	.loc	2 23 11 prologue_end            @ source/isp_user.c:23:11
	strh	r0, [r1]
	.loc	2 23 18 is_stmt 0               @ source/isp_user.c:23:18
	str	r0, [sp, #4]
	.loc	2 23 9                          @ source/isp_user.c:23:9
	b	.LBB3_1
.LBB3_1:                                @ =>This Inner Loop Header: Depth=1
.Ltmp72:
	.loc	2 23 24                         @ source/isp_user.c:23:24
	ldr	r0, [sp, #4]
	.loc	2 23 28                         @ source/isp_user.c:23:28
	ldr	r1, [sp, #8]
.Ltmp73:
	.loc	2 23 5                          @ source/isp_user.c:23:5
	cmp	r0, r1
	bge	.LBB3_4
	b	.LBB3_2
.LBB3_2:                                @   in Loop: Header=BB3_1 Depth=1
.Ltmp74:
	.loc	2 25 14 is_stmt 1               @ source/isp_user.c:25:14
	ldr	r0, [sp, #12]
	.loc	2 25 18 is_stmt 0               @ source/isp_user.c:25:18
	ldr	r1, [sp, #4]
	.loc	2 25 14                         @ source/isp_user.c:25:14
	ldrb	r1, [r0, r1]
	.loc	2 25 11                         @ source/isp_user.c:25:11
	ldr	r0, [sp]
	adds	r0, r0, r1
	mov	r1, sp
	strh	r0, [r1]
	.loc	2 26 5 is_stmt 1                @ source/isp_user.c:26:5
	b	.LBB3_3
.Ltmp75:
.LBB3_3:                                @   in Loop: Header=BB3_1 Depth=1
	.loc	2 23 34                         @ source/isp_user.c:23:34
	ldr	r0, [sp, #4]
	adds	r0, r0, #1
	str	r0, [sp, #4]
	.loc	2 23 5 is_stmt 0                @ source/isp_user.c:23:5
	b	.LBB3_1
.Ltmp76:
.LBB3_4:
	.loc	2 0 5                           @ source/isp_user.c:0:5
	mov	r0, sp
	.loc	2 28 13 is_stmt 1               @ source/isp_user.c:28:13
	ldrh	r0, [r0]
	.loc	2 28 5 epilogue_begin is_stmt 0 @ source/isp_user.c:28:5
	add	sp, #16
	bx	lr
.Ltmp77:
.Lfunc_end3:
	.size	Checksum, .Lfunc_end3-Checksum
	.cfi_endproc
	.cantunwind
	.fnend
                                        @ -- End function
	.type	ParseCmd.StartAddress,%object   @ @ParseCmd.StartAddress
	.section	.bss.ParseCmd.StartAddress,"aw",%nobits
	.p2align	2, 0x0
ParseCmd.StartAddress:
	.long	0                               @ 0x0
	.size	ParseCmd.StartAddress, 4

	.type	ParseCmd.StartAddress_bak,%object @ @ParseCmd.StartAddress_bak
	.section	.bss.ParseCmd.StartAddress_bak,"aw",%nobits
	.p2align	2, 0x0
ParseCmd.StartAddress_bak:
	.long	0                               @ 0x0
	.size	ParseCmd.StartAddress_bak, 4

	.type	ParseCmd.TotalLen,%object       @ @ParseCmd.TotalLen
	.section	.bss.ParseCmd.TotalLen,"aw",%nobits
	.p2align	2, 0x0
ParseCmd.TotalLen:
	.long	0                               @ 0x0
	.size	ParseCmd.TotalLen, 4

	.type	ParseCmd.TotalLen_bak,%object   @ @ParseCmd.TotalLen_bak
	.section	.bss.ParseCmd.TotalLen_bak,"aw",%nobits
	.p2align	2, 0x0
ParseCmd.TotalLen_bak:
	.long	0                               @ 0x0
	.size	ParseCmd.TotalLen_bak, 4

	.type	ParseCmd.LastDataLen,%object    @ @ParseCmd.LastDataLen
	.section	.bss.ParseCmd.LastDataLen,"aw",%nobits
	.p2align	2, 0x0
ParseCmd.LastDataLen:
	.long	0                               @ 0x0
	.size	ParseCmd.LastDataLen, 4

	.type	ParseCmd.g_packno,%object       @ @ParseCmd.g_packno
	.section	.data.ParseCmd.g_packno,"aw",%progbits
	.p2align	2, 0x0
ParseCmd.g_packno:
	.long	1                               @ 0x1
	.size	ParseCmd.g_packno, 4

	.type	ParseCmd.gcmd,%object           @ @ParseCmd.gcmd
	.section	.bss.ParseCmd.gcmd,"aw",%nobits
	.p2align	2, 0x0
ParseCmd.gcmd:
	.long	0                               @ 0x0
	.size	ParseCmd.gcmd, 4

	.hidden	response_buff                   @ @response_buff
	.type	response_buff,%object
	.section	.bss.response_buff,"aw",%nobits
	.globl	response_buff
	.p2align	2, 0x0
response_buff:
	.zero	64
	.size	response_buff, 64

	.hidden	g_apromSize                     @ @g_apromSize
	.type	g_apromSize,%object
	.section	.bss.g_apromSize,"aw",%nobits
	.globl	g_apromSize
	.p2align	2, 0x0
g_apromSize:
	.long	0                               @ 0x0
	.size	g_apromSize, 4

	.hidden	g_dataFlashAddr                 @ @g_dataFlashAddr
	.type	g_dataFlashAddr,%object
	.section	.bss.g_dataFlashAddr,"aw",%nobits
	.globl	g_dataFlashAddr
	.p2align	2, 0x0
g_dataFlashAddr:
	.long	0                               @ 0x0
	.size	g_dataFlashAddr, 4

	.hidden	g_dataFlashSize                 @ @g_dataFlashSize
	.type	g_dataFlashSize,%object
	.section	.bss.g_dataFlashSize,"aw",%nobits
	.globl	g_dataFlashSize
	.p2align	2, 0x0
g_dataFlashSize:
	.long	0                               @ 0x0
	.size	g_dataFlashSize, 4

	.type	aprom_buf,%object               @ @aprom_buf
	.section	.bss.aprom_buf,"aw",%nobits
	.p2align	2, 0x0
aprom_buf:
	.zero	2048
	.size	aprom_buf, 2048

	.section	".note.GNU-stack","",%progbits
	.eabi_attribute	30, 6	@ Tag_ABI_optimization_goals
	.ARM_attribute	16, 1	@ Tag_AV_eba