	.text
	.syntax unified
	.eabi_attribute	67, "2.09"	@ Tag_conformance
	.cpu	cortex-m23
	.eabi_attribute	6, 16	@ Tag_CPU_arch
	.eabi_attribute	7, 77	@ Tag_CPU_arch_profile
	.eabi_attribute	8, 0	@ Tag_ARM_ISA_use
	.eabi_attribute	9, 3	@ Tag_THUMB_ISA_use
	.eabi_attribute	34, 0	@ Tag_CPU_unaligned_access
	.eabi_attribute	17, 1	@ Tag_ABI_PCS_GOT_use
	.eabi_attribute	20, 2	@ Tag_ABI_FP_denormal
	.eabi_attribute	21, 0	@ Tag_ABI_FP_exceptions
	.eabi_attribute	23, 1	@ Tag_ABI_FP_number_model
	.eabi_attribute	24, 1	@ Tag_ABI_align_needed
	.eabi_attribute	25, 1	@ Tag_ABI_align_preserved
	.eabi_attribute	38, 1	@ Tag_ABI_FP_16bit_format
	.eabi_attribute	18, 4	@ Tag_ABI_PCS_wchar_t
	.eabi_attribute	26, 2	@ Tag_ABI_enum_size
	.eabi_attribute	14, 0	@ Tag_ABI_PCS_R9_use
	.file	"uart.c"
	.file	1 "D:\\work\\dheeraj\\local\\CEL\\CCC\\CCC_CPU123\\Code" "../../CCC_common/Library/Device/Nuvoton/M261/Include\\M261.h"
	.file	2 "C:\\Users\\Anaya\\AppData\\Local\\Keil_v5\\ARM\\ARMCLANG\\bin\\..\\include" "stdint.h"
	.file	3 "D:\\work\\dheeraj\\local\\CEL\\CCC\\CCC_CPU123\\Code" "../../CCC_common/Library/CMSIS/Include\\core_armv8mbl.h"
	.section	.text.UART_ClearIntFlag,"ax",%progbits
	.hidden	UART_ClearIntFlag               @ -- Begin function UART_ClearIntFlag
	.globl	UART_ClearIntFlag
	.p2align	2
	.type	UART_ClearIntFlag,%function
	.code	16                              @ @UART_ClearIntFlag
	.thumb_func
UART_ClearIntFlag:
.Lfunc_begin0:
	.file	4 "D:\\work\\dheeraj\\local\\CEL\\CCC\\CCC_CPU123\\Code" "../../CCC_common/Library/StdDriver/src/uart.c"
	.loc	4 44 0                          @ ../../CCC_common/Library/StdDriver/src/uart.c:44:0
	.fnstart
	.cfi_sections .debug_frame
	.cfi_startproc
@ %bb.0:
	.pad	#8
	sub	sp, #8
	.cfi_def_cfa_offset 8
	str	r0, [sp, #4]
	str	r1, [sp]
	mov	r0, sp
.Ltmp0:
	.loc	4 46 8 prologue_end             @ ../../CCC_common/Library/StdDriver/src/uart.c:46:8
	ldrb	r0, [r0, #1]
	lsls	r0, r0, #29
	cmp	r0, #0
	bpl	.LBB0_2
	b	.LBB0_1
.LBB0_1:
.Ltmp1:
	.loc	4 48 9                          @ ../../CCC_common/Library/StdDriver/src/uart.c:48:9
	ldr	r1, [sp, #4]
	movs	r0, #120
	.loc	4 48 23 is_stmt 0               @ ../../CCC_common/Library/StdDriver/src/uart.c:48:23
	str	r0, [r1, #24]
	.loc	4 49 5 is_stmt 1                @ ../../CCC_common/Library/StdDriver/src/uart.c:49:5
	b	.LBB0_2
.Ltmp2:
.LBB0_2:
	.loc	4 0 5 is_stmt 0                 @ ../../CCC_common/Library/StdDriver/src/uart.c:0:5
	mov	r0, sp
	.loc	4 51 8 is_stmt 1                @ ../../CCC_common/Library/StdDriver/src/uart.c:51:8
	ldrb	r0, [r0, #1]
	lsls	r0, r0, #28
	cmp	r0, #0
	bpl	.LBB0_4
	b	.LBB0_3
.LBB0_3:
.Ltmp3:
	.loc	4 53 9                          @ ../../CCC_common/Library/StdDriver/src/uart.c:53:9
	ldr	r1, [sp, #4]
	.loc	4 53 24 is_stmt 0               @ ../../CCC_common/Library/StdDriver/src/uart.c:53:24
	ldr	r0, [r1, #20]
	movs	r2, #1
	orrs	r0, r2
	str	r0, [r1, #20]
	.loc	4 54 5 is_stmt 1                @ ../../CCC_common/Library/StdDriver/src/uart.c:54:5
	b	.LBB0_4
.Ltmp4:
.LBB0_4:
	.loc	4 0 5 is_stmt 0                 @ ../../CCC_common/Library/StdDriver/src/uart.c:0:5
	mov	r0, sp
	.loc	4 56 8 is_stmt 1                @ ../../CCC_common/Library/StdDriver/src/uart.c:56:8
	ldrb	r0, [r0, #1]
	lsls	r0, r0, #26
	cmp	r0, #0
	bpl	.LBB0_6
	b	.LBB0_5
.LBB0_5:
.Ltmp5:
	.loc	4 58 9                          @ ../../CCC_common/Library/StdDriver/src/uart.c:58:9
	ldr	r1, [sp, #4]
	ldr	r0, __arm_cp.0_0
	.loc	4 58 23 is_stmt 0               @ ../../CCC_common/Library/StdDriver/src/uart.c:58:23
	str	r0, [r1, #24]
	.loc	4 59 5 is_stmt 1                @ ../../CCC_common/Library/StdDriver/src/uart.c:59:5
	b	.LBB0_6
.Ltmp6:
.LBB0_6:
	.loc	4 0 5 is_stmt 0                 @ ../../CCC_common/Library/StdDriver/src/uart.c:0:5
	mov	r0, sp
	.loc	4 61 8 is_stmt 1                @ ../../CCC_common/Library/StdDriver/src/uart.c:61:8
	ldrb	r0, [r0, #1]
	lsls	r0, r0, #25
	cmp	r0, #0
	bpl	.LBB0_8
	b	.LBB0_7
.LBB0_7:
.Ltmp7:
	.loc	4 63 9                          @ ../../CCC_common/Library/StdDriver/src/uart.c:63:9
	ldr	r1, [sp, #4]
	movs	r0, #31
	.loc	4 63 21 is_stmt 0               @ ../../CCC_common/Library/StdDriver/src/uart.c:63:21
	str	r0, [r1, #68]
	.loc	4 66 5 is_stmt 1                @ ../../CCC_common/Library/StdDriver/src/uart.c:66:5
	b	.LBB0_8
.Ltmp8:
.LBB0_8:
	.loc	4 0 5 is_stmt 0                 @ ../../CCC_common/Library/StdDriver/src/uart.c:0:5
	mov	r0, sp
	.loc	4 68 8 is_stmt 1                @ ../../CCC_common/Library/StdDriver/src/uart.c:68:8
	ldrb	r0, [r0, #1]
	lsls	r0, r0, #24
	cmp	r0, #0
	bpl	.LBB0_10
	b	.LBB0_9
.LBB0_9:
.Ltmp9:
	.loc	4 70 9                          @ ../../CCC_common/Library/StdDriver/src/uart.c:70:9
	ldr	r1, [sp, #4]
	movs	r0, #128
	.loc	4 70 22 is_stmt 0               @ ../../CCC_common/Library/StdDriver/src/uart.c:70:22
	str	r0, [r1, #28]
	.loc	4 71 9 is_stmt 1                @ ../../CCC_common/Library/StdDriver/src/uart.c:71:9
	ldr	r1, [sp, #4]
	ldr	r0, __arm_cp.0_1
	.loc	4 71 22 is_stmt 0               @ ../../CCC_common/Library/StdDriver/src/uart.c:71:22
	str	r0, [r1, #56]
	.loc	4 74 5 is_stmt 1                @ ../../CCC_common/Library/StdDriver/src/uart.c:74:5
	b	.LBB0_10
.Ltmp10:
.LBB0_10:
	.loc	4 76 1 epilogue_begin           @ ../../CCC_common/Library/StdDriver/src/uart.c:76:1
	add	sp, #8
	bx	lr
.Ltmp11:
	.loc	4 0 1 is_stmt 0                 @ :0:1
.Ltmp12:
	.p2align	2
@ %bb.11:
__arm_cp.0_0:
	.long	16777217                        @ 0x1000001
.Lcpi_end0:
	.size	__arm_cp.0_0, .Lcpi_end0-__arm_cp.0_0
__arm_cp.0_1:
	.long	783                             @ 0x30f
.Lcpi_end1:
	.size	__arm_cp.0_1, .Lcpi_end1-__arm_cp.0_1
.Lfunc_end0:
	.size	UART_ClearIntFlag, .Lfunc_end0-UART_ClearIntFlag
	.cfi_endproc
	.cantunwind
	.fnend
                                        @ -- End function
	.section	.text.UART_Close,"ax",%progbits
	.hidden	UART_Close                      @ -- Begin function UART_Close
	.globl	UART_Close
	.p2align	1
	.type	UART_Close,%function
	.code	16                              @ @UART_Close
	.thumb_func
UART_Close:
.Lfunc_begin1:
	.loc	4 89 0 is_stmt 1                @ ../../CCC_common/Library/StdDriver/src/uart.c:89:0
	.fnstart
	.cfi_startproc
@ %bb.0:
	.pad	#4
	sub	sp, #4
	.cfi_def_cfa_offset 4
	str	r0, [sp]
.Ltmp13:
	.loc	4 90 5 prologue_end             @ ../../CCC_common/Library/StdDriver/src/uart.c:90:5
	ldr	r1, [sp]
	movs	r0, #0
	.loc	4 90 17 is_stmt 0               @ ../../CCC_common/Library/StdDriver/src/uart.c:90:17
	str	r0, [r1, #4]
	.loc	4 91 1 epilogue_begin is_stmt 1 @ ../../CCC_common/Library/StdDriver/src/uart.c:91:1
	add	sp, #4
	bx	lr
.Ltmp14:
.Lfunc_end1:
	.size	UART_Close, .Lfunc_end1-UART_Close
	.cfi_endproc
	.cantunwind
	.fnend
                                        @ -- End function
	.section	.text.UART_DisableFlowCtrl,"ax",%progbits
	.hidden	UART_DisableFlowCtrl            @ -- Begin function UART_DisableFlowCtrl
	.globl	UART_DisableFlowCtrl
	.p2align	1
	.type	UART_DisableFlowCtrl,%function
	.code	16                              @ @UART_DisableFlowCtrl
	.thumb_func
UART_DisableFlowCtrl:
.Lfunc_begin2:
	.loc	4 104 0                         @ ../../CCC_common/Library/StdDriver/src/uart.c:104:0
	.fnstart
	.cfi_startproc
@ %bb.0:
	.pad	#4
	sub	sp, #4
	.cfi_def_cfa_offset 4
	str	r0, [sp]
.Ltmp15:
	.loc	4 105 5 prologue_end            @ ../../CCC_common/Library/StdDriver/src/uart.c:105:5
	ldr	r1, [sp]
	.loc	4 105 17 is_stmt 0              @ ../../CCC_common/Library/StdDriver/src/uart.c:105:17
	ldr	r0, [r1, #4]
	movw	r2, #12288
	bics	r0, r2
	str	r0, [r1, #4]
	.loc	4 106 1 epilogue_begin is_stmt 1 @ ../../CCC_common/Library/StdDriver/src/uart.c:106:1
	add	sp, #4
	bx	lr
.Ltmp16:
.Lfunc_end2:
	.size	UART_DisableFlowCtrl, .Lfunc_end2-UART_DisableFlowCtrl
	.cfi_endproc
	.cantunwind
	.fnend
                                        @ -- End function
	.section	.text.UART_DisableInt,"ax",%progbits
	.hidden	UART_DisableInt                 @ -- Begin function UART_DisableInt
	.globl	UART_DisableInt
	.p2align	2
	.type	UART_DisableInt,%function
	.code	16                              @ @UART_DisableInt
	.thumb_func
UART_DisableInt:
.Lfunc_begin3:
	.loc	4 130 0                         @ ../../CCC_common/Library/StdDriver/src/uart.c:130:0
	.fnstart
	.cfi_startproc
@ %bb.0:
	.save	{r7, lr}
	push	{r7, lr}
	.cfi_def_cfa_offset 8
	.cfi_offset lr, -4
	.cfi_offset r7, -8
	.pad	#16
	sub	sp, #16
	.cfi_def_cfa_offset 24
	str	r0, [sp, #12]
	str	r1, [sp, #8]
.Ltmp17:
	.loc	4 132 5 prologue_end            @ ../../CCC_common/Library/StdDriver/src/uart.c:132:5
	ldr	r2, [sp, #8]
	ldr	r1, [sp, #12]
	ldr	r0, [r1, #4]
	bics	r0, r2
	str	r0, [r1, #4]
	.loc	4 135 22                        @ ../../CCC_common/Library/StdDriver/src/uart.c:135:22
	ldr	r0, [sp, #12]
	str	r0, [sp, #4]                    @ 4-byte Spill
	ldr	r1, __arm_cp.3_0
	.loc	4 135 5 is_stmt 0               @ ../../CCC_common/Library/StdDriver/src/uart.c:135:5
	cmp	r0, r1
	beq	.LBB3_6
	b	.LBB3_1
.LBB3_1:
	.loc	4 0 5                           @ ../../CCC_common/Library/StdDriver/src/uart.c:0:5
	ldr	r0, [sp, #4]                    @ 4-byte Reload
	ldr	r1, __arm_cp.3_1
	.loc	4 135 5                         @ ../../CCC_common/Library/StdDriver/src/uart.c:135:5
	cmp	r0, r1
	beq	.LBB3_7
	b	.LBB3_2
.LBB3_2:
	.loc	4 0 5                           @ ../../CCC_common/Library/StdDriver/src/uart.c:0:5
	ldr	r0, [sp, #4]                    @ 4-byte Reload
	ldr	r1, __arm_cp.3_2
	.loc	4 135 5                         @ ../../CCC_common/Library/StdDriver/src/uart.c:135:5
	cmp	r0, r1
	beq	.LBB3_8
	b	.LBB3_3
.LBB3_3:
	.loc	4 0 5                           @ ../../CCC_common/Library/StdDriver/src/uart.c:0:5
	ldr	r0, [sp, #4]                    @ 4-byte Reload
	ldr	r1, __arm_cp.3_3
	.loc	4 135 5                         @ ../../CCC_common/Library/StdDriver/src/uart.c:135:5
	cmp	r0, r1
	beq	.LBB3_9
	b	.LBB3_4
.LBB3_4:
	.loc	4 0 5                           @ ../../CCC_common/Library/StdDriver/src/uart.c:0:5
	ldr	r0, [sp, #4]                    @ 4-byte Reload
	ldr	r1, __arm_cp.3_4
	.loc	4 135 5                         @ ../../CCC_common/Library/StdDriver/src/uart.c:135:5
	cmp	r0, r1
	beq	.LBB3_10
	b	.LBB3_5
.LBB3_5:
	.loc	4 0 5                           @ ../../CCC_common/Library/StdDriver/src/uart.c:0:5
	ldr	r0, [sp, #4]                    @ 4-byte Reload
	ldr	r1, __arm_cp.3_5
	.loc	4 135 5                         @ ../../CCC_common/Library/StdDriver/src/uart.c:135:5
	cmp	r0, r1
	beq	.LBB3_11
	b	.LBB3_12
.LBB3_6:
	.loc	4 0 5                           @ ../../CCC_common/Library/StdDriver/src/uart.c:0:5
	movs	r0, #36
.Ltmp18:
	.loc	4 138 13 is_stmt 1              @ ../../CCC_common/Library/StdDriver/src/uart.c:138:13
	bl	__NVIC_DisableIRQ
	.loc	4 139 13                        @ ../../CCC_common/Library/StdDriver/src/uart.c:139:13
	b	.LBB3_13
.LBB3_7:
	.loc	4 0 13 is_stmt 0                @ ../../CCC_common/Library/StdDriver/src/uart.c:0:13
	movs	r0, #37
	.loc	4 141 13 is_stmt 1              @ ../../CCC_common/Library/StdDriver/src/uart.c:141:13
	bl	__NVIC_DisableIRQ
	.loc	4 142 13                        @ ../../CCC_common/Library/StdDriver/src/uart.c:142:13
	b	.LBB3_13
.LBB3_8:
	.loc	4 0 13 is_stmt 0                @ ../../CCC_common/Library/StdDriver/src/uart.c:0:13
	movs	r0, #48
	.loc	4 144 13 is_stmt 1              @ ../../CCC_common/Library/StdDriver/src/uart.c:144:13
	bl	__NVIC_DisableIRQ
	.loc	4 145 13                        @ ../../CCC_common/Library/StdDriver/src/uart.c:145:13
	b	.LBB3_13
.LBB3_9:
	.loc	4 0 13 is_stmt 0                @ ../../CCC_common/Library/StdDriver/src/uart.c:0:13
	movs	r0, #49
	.loc	4 147 13 is_stmt 1              @ ../../CCC_common/Library/StdDriver/src/uart.c:147:13
	bl	__NVIC_DisableIRQ
	.loc	4 148 13                        @ ../../CCC_common/Library/StdDriver/src/uart.c:148:13
	b	.LBB3_13
.LBB3_10:
	.loc	4 0 13 is_stmt 0                @ ../../CCC_common/Library/StdDriver/src/uart.c:0:13
	movs	r0, #74
	.loc	4 150 13 is_stmt 1              @ ../../CCC_common/Library/StdDriver/src/uart.c:150:13
	bl	__NVIC_DisableIRQ
	.loc	4 151 13                        @ ../../CCC_common/Library/StdDriver/src/uart.c:151:13
	b	.LBB3_13
.LBB3_11:
	.loc	4 0 13 is_stmt 0                @ ../../CCC_common/Library/StdDriver/src/uart.c:0:13
	movs	r0, #75
	.loc	4 153 13 is_stmt 1              @ ../../CCC_common/Library/StdDriver/src/uart.c:153:13
	bl	__NVIC_DisableIRQ
	.loc	4 154 13                        @ ../../CCC_common/Library/StdDriver/src/uart.c:154:13
	b	.LBB3_13
.LBB3_12:
	.loc	4 156 13                        @ ../../CCC_common/Library/StdDriver/src/uart.c:156:13
	b	.LBB3_13
.Ltmp19:
.LBB3_13:
	.loc	4 158 1 epilogue_begin          @ ../../CCC_common/Library/StdDriver/src/uart.c:158:1
	add	sp, #16
	pop	{r7, pc}
.Ltmp20:
	.loc	4 0 1 is_stmt 0                 @ :0:1
.Ltmp21:
	.p2align	2
@ %bb.14:
__arm_cp.3_0:
	.long	1074200576                      @ 0x40070000
.Lcpi_end2:
	.size	__arm_cp.3_0, .Lcpi_end2-__arm_cp.3_0
__arm_cp.3_1:
	.long	1074204672                      @ 0x40071000
.Lcpi_end3:
	.size	__arm_cp.3_1, .Lcpi_end3-__arm_cp.3_1
__arm_cp.3_2:
	.long	1074208768                      @ 0x40072000
.Lcpi_end4:
	.size	__arm_cp.3_2, .Lcpi_end4-__arm_cp.3_2
__arm_cp.3_3:
	.long	1074212864                      @ 0x40073000
.Lcpi_end5:
	.size	__arm_cp.3_3, .Lcpi_end5-__arm_cp.3_3
__arm_cp.3_4:
	.long	1074216960                      @ 0x40074000
.Lcpi_end6:
	.size	__arm_cp.3_4, .Lcpi_end6-__arm_cp.3_4
__arm_cp.3_5:
	.long	1074221056                      @ 0x40075000
.Lcpi_end7:
	.size	__arm_cp.3_5, .Lcpi_end7-__arm_cp.3_5
.Lfunc_end3:
	.size	UART_DisableInt, .Lfunc_end3-UART_DisableInt
	.cfi_endproc
	.cantunwind
	.fnend
                                        @ -- End function
	.section	.text.__NVIC_DisableIRQ,"ax",%progbits
	.p2align	2                               @ -- Begin function __NVIC_DisableIRQ
	.type	__NVIC_DisableIRQ,%function
	.code	16                              @ @__NVIC_DisableIRQ
	.thumb_func
__NVIC_DisableIRQ:
.Lfunc_begin4:
	.loc	3 1312 0 is_stmt 1              @ ../../CCC_common/Library/CMSIS/Include\core_armv8mbl.h:1312:0
	.fnstart
	.cfi_startproc
@ %bb.0:
	.pad	#4
	sub	sp, #4
	.cfi_def_cfa_offset 4
	str	r0, [sp]
.Ltmp22:
	.loc	3 1313 17 prologue_end          @ ../../CCC_common/Library/CMSIS/Include\core_armv8mbl.h:1313:17
	ldr	r0, [sp]
.Ltmp23:
	.loc	3 1313 7 is_stmt 0              @ ../../CCC_common/Library/CMSIS/Include\core_armv8mbl.h:1313:7
	cmp	r0, #0
	bmi	.LBB4_2
	b	.LBB4_1
.LBB4_1:
.Ltmp24:
	.loc	3 1315 93 is_stmt 1             @ ../../CCC_common/Library/CMSIS/Include\core_armv8mbl.h:1315:93
	ldr	r1, [sp]
	movs	r0, #31
	.loc	3 1315 99 is_stmt 0             @ ../../CCC_common/Library/CMSIS/Include\core_armv8mbl.h:1315:99
	mov	r2, r1
	ands	r2, r0
	movs	r0, #1
	.loc	3 1315 69                       @ ../../CCC_common/Library/CMSIS/Include\core_armv8mbl.h:1315:69
	lsls	r0, r2
	.loc	3 1315 5                        @ ../../CCC_common/Library/CMSIS/Include\core_armv8mbl.h:1315:5
	lsrs	r1, r1, #5
	lsls	r1, r1, #2
	ldr	r2, __arm_cp.4_0
	.loc	3 1315 52                       @ ../../CCC_common/Library/CMSIS/Include\core_armv8mbl.h:1315:52
	str	r0, [r1, r2]
	.loc	3 1316 5 is_stmt 1              @ ../../CCC_common/Library/CMSIS/Include\core_armv8mbl.h:1316:5
	dsb	sy
	.loc	3 1317 5                        @ ../../CCC_common/Library/CMSIS/Include\core_armv8mbl.h:1317:5
	isb	sy
	.loc	3 1318 3                        @ ../../CCC_common/Library/CMSIS/Include\core_armv8mbl.h:1318:3
	b	.LBB4_2
.Ltmp25:
.LBB4_2:
	.loc	3 1319 1 epilogue_begin         @ ../../CCC_common/Library/CMSIS/Include\core_armv8mbl.h:1319:1
	add	sp, #4
	bx	lr
.Ltmp26:
	.loc	3 0 1 is_stmt 0                 @ :0:1
.Ltmp27:
	.p2align	2
@ %bb.3:
__arm_cp.4_0:
	.long	3758154112                      @ 0xe000e180
.Lcpi_end8:
	.size	__arm_cp.4_0, .Lcpi_end8-__arm_cp.4_0
.Lfunc_end4:
	.size	__NVIC_DisableIRQ, .Lfunc_end4-__NVIC_DisableIRQ
	.cfi_endproc
	.cantunwind
	.fnend
                                        @ -- End function
	.section	.text.UART_EnableFlowCtrl,"ax",%progbits
	.hidden	UART_EnableFlowCtrl             @ -- Begin function UART_EnableFlowCtrl
	.globl	UART_EnableFlowCtrl
	.p2align	1
	.type	UART_EnableFlowCtrl,%function
	.code	16                              @ @UART_EnableFlowCtrl
	.thumb_func
UART_EnableFlowCtrl:
.Lfunc_begin5:
	.loc	4 171 0 is_stmt 1               @ ../../CCC_common/Library/StdDriver/src/uart.c:171:0
	.fnstart
	.cfi_startproc
@ %bb.0:
	.pad	#4
	sub	sp, #4
	.cfi_def_cfa_offset 4
	str	r0, [sp]
.Ltmp28:
	.loc	4 173 5 prologue_end            @ ../../CCC_common/Library/StdDriver/src/uart.c:173:5
	ldr	r1, [sp]
	.loc	4 173 17 is_stmt 0              @ ../../CCC_common/Library/StdDriver/src/uart.c:173:17
	ldr	r0, [r1, #16]
	movw	r2, #512
	orrs	r0, r2
	str	r0, [r1, #16]
	.loc	4 176 5 is_stmt 1               @ ../../CCC_common/Library/StdDriver/src/uart.c:176:5
	ldr	r1, [sp]
	.loc	4 176 20 is_stmt 0              @ ../../CCC_common/Library/StdDriver/src/uart.c:176:20
	ldr	r0, [r1, #20]
	movw	r2, #256
	orrs	r0, r2
	str	r0, [r1, #20]
	.loc	4 179 5 is_stmt 1               @ ../../CCC_common/Library/StdDriver/src/uart.c:179:5
	ldr	r1, [sp]
	.loc	4 179 17 is_stmt 0              @ ../../CCC_common/Library/StdDriver/src/uart.c:179:17
	ldr	r0, [r1, #4]
	movw	r2, #12288
	orrs	r0, r2
	str	r0, [r1, #4]
	.loc	4 180 1 epilogue_begin is_stmt 1 @ ../../CCC_common/Library/StdDriver/src/uart.c:180:1
	add	sp, #4
	bx	lr
.Ltmp29:
.Lfunc_end5:
	.size	UART_EnableFlowCtrl, .Lfunc_end5-UART_EnableFlowCtrl
	.cfi_endproc
	.cantunwind
	.fnend
                                        @ -- End function
	.section	.text.UART_EnableInt,"ax",%progbits
	.hidden	UART_EnableInt                  @ -- Begin function UART_EnableInt
	.globl	UART_EnableInt
	.p2align	2
	.type	UART_EnableInt,%function
	.code	16                              @ @UART_EnableInt
	.thumb_func
UART_EnableInt:
.Lfunc_begin6:
	.loc	4 204 0                         @ ../../CCC_common/Library/StdDriver/src/uart.c:204:0
	.fnstart
	.cfi_startproc
@ %bb.0:
	.save	{r7, lr}
	push	{r7, lr}
	.cfi_def_cfa_offset 8
	.cfi_offset lr, -4
	.cfi_offset r7, -8
	.pad	#16
	sub	sp, #16
	.cfi_def_cfa_offset 24
	str	r0, [sp, #12]
	str	r1, [sp, #8]
.Ltmp30:
	.loc	4 207 5 prologue_end            @ ../../CCC_common/Library/StdDriver/src/uart.c:207:5
	ldr	r2, [sp, #8]
	ldr	r1, [sp, #12]
	ldr	r0, [r1, #4]
	orrs	r0, r2
	str	r0, [r1, #4]
	.loc	4 210 22                        @ ../../CCC_common/Library/StdDriver/src/uart.c:210:22
	ldr	r0, [sp, #12]
	str	r0, [sp, #4]                    @ 4-byte Spill
	ldr	r1, __arm_cp.6_0
	.loc	4 210 5 is_stmt 0               @ ../../CCC_common/Library/StdDriver/src/uart.c:210:5
	cmp	r0, r1
	beq	.LBB6_6
	b	.LBB6_1
.LBB6_1:
	.loc	4 0 5                           @ ../../CCC_common/Library/StdDriver/src/uart.c:0:5
	ldr	r0, [sp, #4]                    @ 4-byte Reload
	ldr	r1, __arm_cp.6_1
	.loc	4 210 5                         @ ../../CCC_common/Library/StdDriver/src/uart.c:210:5
	cmp	r0, r1
	beq	.LBB6_7
	b	.LBB6_2
.LBB6_2:
	.loc	4 0 5                           @ ../../CCC_common/Library/StdDriver/src/uart.c:0:5
	ldr	r0, [sp, #4]                    @ 4-byte Reload
	ldr	r1, __arm_cp.6_2
	.loc	4 210 5                         @ ../../CCC_common/Library/StdDriver/src/uart.c:210:5
	cmp	r0, r1
	beq	.LBB6_8
	b	.LBB6_3
.LBB6_3:
	.loc	4 0 5                           @ ../../CCC_common/Library/StdDriver/src/uart.c:0:5
	ldr	r0, [sp, #4]                    @ 4-byte Reload
	ldr	r1, __arm_cp.6_3
	.loc	4 210 5                         @ ../../CCC_common/Library/StdDriver/src/uart.c:210:5
	cmp	r0, r1
	beq	.LBB6_9
	b	.LBB6_4
.LBB6_4:
	.loc	4 0 5                           @ ../../CCC_common/Library/StdDriver/src/uart.c:0:5
	ldr	r0, [sp, #4]                    @ 4-byte Reload
	ldr	r1, __arm_cp.6_4
	.loc	4 210 5                         @ ../../CCC_common/Library/StdDriver/src/uart.c:210:5
	cmp	r0, r1
	beq	.LBB6_10
	b	.LBB6_5
.LBB6_5:
	.loc	4 0 5                           @ ../../CCC_common/Library/StdDriver/src/uart.c:0:5
	ldr	r0, [sp, #4]                    @ 4-byte Reload
	ldr	r1, __arm_cp.6_5
	.loc	4 210 5                         @ ../../CCC_common/Library/StdDriver/src/uart.c:210:5
	cmp	r0, r1
	beq	.LBB6_11
	b	.LBB6_12
.LBB6_6:
	.loc	4 0 5                           @ ../../CCC_common/Library/StdDriver/src/uart.c:0:5
	movs	r0, #36
.Ltmp31:
	.loc	4 213 13 is_stmt 1              @ ../../CCC_common/Library/StdDriver/src/uart.c:213:13
	bl	__NVIC_EnableIRQ
	.loc	4 214 13                        @ ../../CCC_common/Library/StdDriver/src/uart.c:214:13
	b	.LBB6_13
.LBB6_7:
	.loc	4 0 13 is_stmt 0                @ ../../CCC_common/Library/StdDriver/src/uart.c:0:13
	movs	r0, #37
	.loc	4 216 13 is_stmt 1              @ ../../CCC_common/Library/StdDriver/src/uart.c:216:13
	bl	__NVIC_EnableIRQ
	.loc	4 217 13                        @ ../../CCC_common/Library/StdDriver/src/uart.c:217:13
	b	.LBB6_13
.LBB6_8:
	.loc	4 0 13 is_stmt 0                @ ../../CCC_common/Library/StdDriver/src/uart.c:0:13
	movs	r0, #48
	.loc	4 219 13 is_stmt 1              @ ../../CCC_common/Library/StdDriver/src/uart.c:219:13
	bl	__NVIC_EnableIRQ
	.loc	4 220 13                        @ ../../CCC_common/Library/StdDriver/src/uart.c:220:13
	b	.LBB6_13
.LBB6_9:
	.loc	4 0 13 is_stmt 0                @ ../../CCC_common/Library/StdDriver/src/uart.c:0:13
	movs	r0, #49
	.loc	4 222 13 is_stmt 1              @ ../../CCC_common/Library/StdDriver/src/uart.c:222:13
	bl	__NVIC_EnableIRQ
	.loc	4 223 13                        @ ../../CCC_common/Library/StdDriver/src/uart.c:223:13
	b	.LBB6_13
.LBB6_10:
	.loc	4 0 13 is_stmt 0                @ ../../CCC_common/Library/StdDriver/src/uart.c:0:13
	movs	r0, #74
	.loc	4 225 13 is_stmt 1              @ ../../CCC_common/Library/StdDriver/src/uart.c:225:13
	bl	__NVIC_EnableIRQ
	.loc	4 226 13                        @ ../../CCC_common/Library/StdDriver/src/uart.c:226:13
	b	.LBB6_13
.LBB6_11:
	.loc	4 0 13 is_stmt 0                @ ../../CCC_common/Library/StdDriver/src/uart.c:0:13
	movs	r0, #75
	.loc	4 228 13 is_stmt 1              @ ../../CCC_common/Library/StdDriver/src/uart.c:228:13
	bl	__NVIC_EnableIRQ
	.loc	4 229 13                        @ ../../CCC_common/Library/StdDriver/src/uart.c:229:13
	b	.LBB6_13
.LBB6_12:
	.loc	4 231 13                        @ ../../CCC_common/Library/StdDriver/src/uart.c:231:13
	b	.LBB6_13
.Ltmp32:
.LBB6_13:
	.loc	4 234 1 epilogue_begin          @ ../../CCC_common/Library/StdDriver/src/uart.c:234:1
	add	sp, #16
	pop	{r7, pc}
.Ltmp33:
	.loc	4 0 1 is_stmt 0                 @ :0:1
.Ltmp34:
	.p2align	2
@ %bb.14:
__arm_cp.6_0:
	.long	1074200576                      @ 0x40070000
.Lcpi_end9:
	.size	__arm_cp.6_0, .Lcpi_end9-__arm_cp.6_0
__arm_cp.6_1:
	.long	1074204672                      @ 0x40071000
.Lcpi_end10:
	.size	__arm_cp.6_1, .Lcpi_end10-__arm_cp.6_1
__arm_cp.6_2:
	.long	1074208768                      @ 0x40072000
.Lcpi_end11:
	.size	__arm_cp.6_2, .Lcpi_end11-__arm_cp.6_2
__arm_cp.6_3:
	.long	1074212864                      @ 0x40073000
.Lcpi_end12:
	.size	__arm_cp.6_3, .Lcpi_end12-__arm_cp.6_3
__arm_cp.6_4:
	.long	1074216960                      @ 0x40074000
.Lcpi_end13:
	.size	__arm_cp.6_4, .Lcpi_end13-__arm_cp.6_4
__arm_cp.6_5:
	.long	1074221056                      @ 0x40075000
.Lcpi_end14:
	.size	__arm_cp.6_5, .Lcpi_end14-__arm_cp.6_5
.Lfunc_end6:
	.size	UART_EnableInt, .Lfunc_end6-UART_EnableInt
	.cfi_endproc
	.cantunwind
	.fnend
                                        @ -- End function
	.section	.text.__NVIC_EnableIRQ,"ax",%progbits
	.p2align	2                               @ -- Begin function __NVIC_EnableIRQ
	.type	__NVIC_EnableIRQ,%function
	.code	16                              @ @__NVIC_EnableIRQ
	.thumb_func
__NVIC_EnableIRQ:
.Lfunc_begin7:
	.loc	3 1276 0 is_stmt 1              @ ../../CCC_common/Library/CMSIS/Include\core_armv8mbl.h:1276:0
	.fnstart
	.cfi_startproc
@ %bb.0:
	.pad	#4
	sub	sp, #4
	.cfi_def_cfa_offset 4
	str	r0, [sp]
.Ltmp35:
	.loc	3 1277 17 prologue_end          @ ../../CCC_common/Library/CMSIS/Include\core_armv8mbl.h:1277:17
	ldr	r0, [sp]
.Ltmp36:
	.loc	3 1277 7 is_stmt 0              @ ../../CCC_common/Library/CMSIS/Include\core_armv8mbl.h:1277:7
	cmp	r0, #0
	bmi	.LBB7_2
	b	.LBB7_1
.LBB7_1:
.Ltmp37:
	.loc	3 1279 93 is_stmt 1             @ ../../CCC_common/Library/CMSIS/Include\core_armv8mbl.h:1279:93
	ldr	r1, [sp]
	movs	r0, #31
	.loc	3 1279 99 is_stmt 0             @ ../../CCC_common/Library/CMSIS/Include\core_armv8mbl.h:1279:99
	mov	r2, r1
	ands	r2, r0
	movs	r0, #1
	.loc	3 1279 69                       @ ../../CCC_common/Library/CMSIS/Include\core_armv8mbl.h:1279:69
	lsls	r0, r2
	.loc	3 1279 5                        @ ../../CCC_common/Library/CMSIS/Include\core_armv8mbl.h:1279:5
	lsrs	r1, r1, #5
	lsls	r1, r1, #2
	ldr	r2, __arm_cp.7_0
	.loc	3 1279 52                       @ ../../CCC_common/Library/CMSIS/Include\core_armv8mbl.h:1279:52
	str	r0, [r1, r2]
	.loc	3 1280 3 is_stmt 1              @ ../../CCC_common/Library/CMSIS/Include\core_armv8mbl.h:1280:3
	b	.LBB7_2
.Ltmp38:
.LBB7_2:
	.loc	3 1281 1 epilogue_begin         @ ../../CCC_common/Library/CMSIS/Include\core_armv8mbl.h:1281:1
	add	sp, #4
	bx	lr
.Ltmp39:
	.loc	3 0 1 is_stmt 0                 @ :0:1
.Ltmp40:
	.p2align	2
@ %bb.3:
__arm_cp.7_0:
	.long	3758153984                      @ 0xe000e100
.Lcpi_end15:
	.size	__arm_cp.7_0, .Lcpi_end15-__arm_cp.7_0
.Lfunc_end7:
	.size	__NVIC_EnableIRQ, .Lfunc_end7-__NVIC_EnableIRQ
	.cfi_endproc
	.cantunwind
	.fnend
                                        @ -- End function
	.section	.text.UART_Open,"ax",%progbits
	.hidden	UART_Open                       @ -- Begin function UART_Open
	.globl	UART_Open
	.p2align	2
	.type	UART_Open,%function
	.code	16                              @ @UART_Open
	.thumb_func
UART_Open:
.Lfunc_begin8:
	.loc	4 248 0 is_stmt 1               @ ../../CCC_common/Library/StdDriver/src/uart.c:248:0
	.fnstart
	.cfi_startproc
@ %bb.0:
	.save	{r7, lr}
	push	{r7, lr}
	.cfi_def_cfa_offset 8
	.cfi_offset lr, -4
	.cfi_offset r7, -8
	.pad	#64
	sub	sp, #64
	.cfi_def_cfa_offset 72
	str	r0, [sp, #60]
	str	r1, [sp, #56]
	ldr	r1, __arm_cp.8_0
.Ltmp41:
	.loc	4 250 14 prologue_end           @ ../../CCC_common/Library/StdDriver/src/uart.c:250:14
	str	r1, [sp, #44]
	movw	r0, #32768
	str	r0, [sp, #40]
	movs	r0, #0
	str	r0, [sp, #36]
	str	r1, [sp, #32]
	.loc	4 251 14                        @ ../../CCC_common/Library/StdDriver/src/uart.c:251:14
	str	r0, [sp, #28]
	.loc	4 254 22                        @ ../../CCC_common/Library/StdDriver/src/uart.c:254:22
	ldr	r0, [sp, #60]
	str	r0, [sp, #24]                   @ 4-byte Spill
	ldr	r1, __arm_cp.8_1
	.loc	4 254 5 is_stmt 0               @ ../../CCC_common/Library/StdDriver/src/uart.c:254:5
	cmp	r0, r1
	beq	.LBB8_6
	b	.LBB8_1
.LBB8_1:
	.loc	4 0 5                           @ ../../CCC_common/Library/StdDriver/src/uart.c:0:5
	ldr	r0, [sp, #24]                   @ 4-byte Reload
	ldr	r1, __arm_cp.8_2
	.loc	4 254 5                         @ ../../CCC_common/Library/StdDriver/src/uart.c:254:5
	cmp	r0, r1
	beq	.LBB8_7
	b	.LBB8_2
.LBB8_2:
	.loc	4 0 5                           @ ../../CCC_common/Library/StdDriver/src/uart.c:0:5
	ldr	r0, [sp, #24]                   @ 4-byte Reload
	ldr	r1, __arm_cp.8_3
	.loc	4 254 5                         @ ../../CCC_common/Library/StdDriver/src/uart.c:254:5
	cmp	r0, r1
	beq	.LBB8_8
	b	.LBB8_3
.LBB8_3:
	.loc	4 0 5                           @ ../../CCC_common/Library/StdDriver/src/uart.c:0:5
	ldr	r0, [sp, #24]                   @ 4-byte Reload
	ldr	r1, __arm_cp.8_4
	.loc	4 254 5                         @ ../../CCC_common/Library/StdDriver/src/uart.c:254:5
	cmp	r0, r1
	beq	.LBB8_9
	b	.LBB8_4
.LBB8_4:
	.loc	4 0 5                           @ ../../CCC_common/Library/StdDriver/src/uart.c:0:5
	ldr	r0, [sp, #24]                   @ 4-byte Reload
	ldr	r1, __arm_cp.8_5
	.loc	4 254 5                         @ ../../CCC_common/Library/StdDriver/src/uart.c:254:5
	cmp	r0, r1
	beq	.LBB8_10
	b	.LBB8_5
.LBB8_5:
	.loc	4 0 5                           @ ../../CCC_common/Library/StdDriver/src/uart.c:0:5
	ldr	r0, [sp, #24]                   @ 4-byte Reload
	ldr	r1, __arm_cp.8_6
	.loc	4 254 5                         @ ../../CCC_common/Library/StdDriver/src/uart.c:254:5
	cmp	r0, r1
	beq	.LBB8_11
	b	.LBB8_12
.LBB8_6:
	.loc	4 0 5                           @ ../../CCC_common/Library/StdDriver/src/uart.c:0:5
	ldr	r0, __arm_cp.8_12
.Ltmp42:
	.loc	4 257 32 is_stmt 1              @ ../../CCC_common/Library/StdDriver/src/uart.c:257:32
	str	r0, [sp, #20]                   @ 4-byte Spill
	bl	CLK_GetModuleClockSource
	mov	r1, r0
	.loc	4 257 30 is_stmt 0              @ ../../CCC_common/Library/StdDriver/src/uart.c:257:30
	ldr	r0, [sp, #20]                   @ 4-byte Reload
	str	r1, [sp, #52]
	.loc	4 258 32 is_stmt 1              @ ../../CCC_common/Library/StdDriver/src/uart.c:258:32
	bl	CLK_GetModuleClockDivider
	.loc	4 258 30 is_stmt 0              @ ../../CCC_common/Library/StdDriver/src/uart.c:258:30
	str	r0, [sp, #48]
	.loc	4 259 13 is_stmt 1              @ ../../CCC_common/Library/StdDriver/src/uart.c:259:13
	b	.LBB8_13
.LBB8_7:
	.loc	4 0 13 is_stmt 0                @ ../../CCC_common/Library/StdDriver/src/uart.c:0:13
	ldr	r0, __arm_cp.8_11
	.loc	4 261 32 is_stmt 1              @ ../../CCC_common/Library/StdDriver/src/uart.c:261:32
	str	r0, [sp, #16]                   @ 4-byte Spill
	bl	CLK_GetModuleClockSource
	mov	r1, r0
	.loc	4 261 30 is_stmt 0              @ ../../CCC_common/Library/StdDriver/src/uart.c:261:30
	ldr	r0, [sp, #16]                   @ 4-byte Reload
	str	r1, [sp, #52]
	.loc	4 262 32 is_stmt 1              @ ../../CCC_common/Library/StdDriver/src/uart.c:262:32
	bl	CLK_GetModuleClockDivider
	.loc	4 262 30 is_stmt 0              @ ../../CCC_common/Library/StdDriver/src/uart.c:262:30
	str	r0, [sp, #48]
	.loc	4 263 13 is_stmt 1              @ ../../CCC_common/Library/StdDriver/src/uart.c:263:13
	b	.LBB8_13
.LBB8_8:
	.loc	4 0 13 is_stmt 0                @ ../../CCC_common/Library/StdDriver/src/uart.c:0:13
	ldr	r0, __arm_cp.8_10
	.loc	4 265 32 is_stmt 1              @ ../../CCC_common/Library/StdDriver/src/uart.c:265:32
	str	r0, [sp, #12]                   @ 4-byte Spill
	bl	CLK_GetModuleClockSource
	mov	r1, r0
	.loc	4 265 30 is_stmt 0              @ ../../CCC_common/Library/StdDriver/src/uart.c:265:30
	ldr	r0, [sp, #12]                   @ 4-byte Reload
	str	r1, [sp, #52]
	.loc	4 266 32 is_stmt 1              @ ../../CCC_common/Library/StdDriver/src/uart.c:266:32
	bl	CLK_GetModuleClockDivider
	.loc	4 266 30 is_stmt 0              @ ../../CCC_common/Library/StdDriver/src/uart.c:266:30
	str	r0, [sp, #48]
	.loc	4 267 13 is_stmt 1              @ ../../CCC_common/Library/StdDriver/src/uart.c:267:13
	b	.LBB8_13
.LBB8_9:
	.loc	4 0 13 is_stmt 0                @ ../../CCC_common/Library/StdDriver/src/uart.c:0:13
	ldr	r0, __arm_cp.8_9
	.loc	4 269 32 is_stmt 1              @ ../../CCC_common/Library/StdDriver/src/uart.c:269:32
	str	r0, [sp, #8]                    @ 4-byte Spill
	bl	CLK_GetModuleClockSource
	mov	r1, r0
	.loc	4 269 30 is_stmt 0              @ ../../CCC_common/Library/StdDriver/src/uart.c:269:30
	ldr	r0, [sp, #8]                    @ 4-byte Reload
	str	r1, [sp, #52]
	.loc	4 270 32 is_stmt 1              @ ../../CCC_common/Library/StdDriver/src/uart.c:270:32
	bl	CLK_GetModuleClockDivider
	.loc	4 270 30 is_stmt 0              @ ../../CCC_common/Library/StdDriver/src/uart.c:270:30
	str	r0, [sp, #48]
	.loc	4 271 13 is_stmt 1              @ ../../CCC_common/Library/StdDriver/src/uart.c:271:13
	b	.LBB8_13
.LBB8_10:
	.loc	4 0 13 is_stmt 0                @ ../../CCC_common/Library/StdDriver/src/uart.c:0:13
	ldr	r0, __arm_cp.8_8
	.loc	4 273 32 is_stmt 1              @ ../../CCC_common/Library/StdDriver/src/uart.c:273:32
	str	r0, [sp, #4]                    @ 4-byte Spill
	bl	CLK_GetModuleClockSource
	mov	r1, r0
	.loc	4 273 30 is_stmt 0              @ ../../CCC_common/Library/StdDriver/src/uart.c:273:30
	ldr	r0, [sp, #4]                    @ 4-byte Reload
	str	r1, [sp, #52]
	.loc	4 274 32 is_stmt 1              @ ../../CCC_common/Library/StdDriver/src/uart.c:274:32
	bl	CLK_GetModuleClockDivider
	.loc	4 274 30 is_stmt 0              @ ../../CCC_common/Library/StdDriver/src/uart.c:274:30
	str	r0, [sp, #48]
	.loc	4 275 13 is_stmt 1              @ ../../CCC_common/Library/StdDriver/src/uart.c:275:13
	b	.LBB8_13
.LBB8_11:
	.loc	4 0 13 is_stmt 0                @ ../../CCC_common/Library/StdDriver/src/uart.c:0:13
	ldr	r0, __arm_cp.8_7
	.loc	4 277 32 is_stmt 1              @ ../../CCC_common/Library/StdDriver/src/uart.c:277:32
	str	r0, [sp]                        @ 4-byte Spill
	bl	CLK_GetModuleClockSource
	mov	r1, r0
	.loc	4 277 30 is_stmt 0              @ ../../CCC_common/Library/StdDriver/src/uart.c:277:30
	ldr	r0, [sp]                        @ 4-byte Reload
	str	r1, [sp, #52]
	.loc	4 278 32 is_stmt 1              @ ../../CCC_common/Library/StdDriver/src/uart.c:278:32
	bl	CLK_GetModuleClockDivider
	.loc	4 278 30 is_stmt 0              @ ../../CCC_common/Library/StdDriver/src/uart.c:278:30
	str	r0, [sp, #48]
	.loc	4 279 13 is_stmt 1              @ ../../CCC_common/Library/StdDriver/src/uart.c:279:13
	b	.LBB8_13
.LBB8_12:
	.loc	4 281 13                        @ ../../CCC_common/Library/StdDriver/src/uart.c:281:13
	b	.LBB8_20
.Ltmp43:
.LBB8_13:
	.loc	4 285 5                         @ ../../CCC_common/Library/StdDriver/src/uart.c:285:5
	ldr	r1, [sp, #60]
	movs	r0, #0
	.loc	4 285 19 is_stmt 0              @ ../../CCC_common/Library/StdDriver/src/uart.c:285:19
	str	r0, [r1, #48]
	.loc	4 288 5 is_stmt 1               @ ../../CCC_common/Library/StdDriver/src/uart.c:288:5
	ldr	r1, [sp, #60]
	movs	r0, #3
	.loc	4 288 16 is_stmt 0              @ ../../CCC_common/Library/StdDriver/src/uart.c:288:16
	str	r0, [r1, #12]
	.loc	4 291 5 is_stmt 1               @ ../../CCC_common/Library/StdDriver/src/uart.c:291:5
	ldr	r1, [sp, #60]
	.loc	4 291 16 is_stmt 0              @ ../../CCC_common/Library/StdDriver/src/uart.c:291:16
	ldr	r0, [r1, #8]
	ldr	r2, __arm_cp.8_13
	ands	r0, r2
	str	r0, [r1, #8]
.Ltmp44:
	.loc	4 294 8 is_stmt 1               @ ../../CCC_common/Library/StdDriver/src/uart.c:294:8
	ldr	r0, [sp, #52]
.Ltmp45:
	.loc	4 294 8 is_stmt 0               @ ../../CCC_common/Library/StdDriver/src/uart.c:294:8
	cmp	r0, #1
	bne	.LBB8_15
	b	.LBB8_14
.LBB8_14:
.Ltmp46:
	.loc	4 296 40 is_stmt 1              @ ../../CCC_common/Library/StdDriver/src/uart.c:296:40
	bl	CLK_GetPLLClockFreq
	.loc	4 296 20 is_stmt 0              @ ../../CCC_common/Library/StdDriver/src/uart.c:296:20
	ldr	r1, [sp, #52]
	.loc	4 296 9                         @ ../../CCC_common/Library/StdDriver/src/uart.c:296:9
	lsls	r2, r1, #2
	add	r1, sp, #32
	.loc	4 296 38                        @ ../../CCC_common/Library/StdDriver/src/uart.c:296:38
	str	r0, [r1, r2]
	.loc	4 297 5 is_stmt 1               @ ../../CCC_common/Library/StdDriver/src/uart.c:297:5
	b	.LBB8_15
.Ltmp47:
.LBB8_15:
	.loc	4 300 8                         @ ../../CCC_common/Library/StdDriver/src/uart.c:300:8
	ldr	r0, [sp, #56]
.Ltmp48:
	.loc	4 300 8 is_stmt 0               @ ../../CCC_common/Library/StdDriver/src/uart.c:300:8
	cbz	r0, .LBB8_20
	b	.LBB8_16
.LBB8_16:
.Ltmp49:
	.loc	4 302 22 is_stmt 1              @ ../../CCC_common/Library/StdDriver/src/uart.c:302:22
	ldr	r0, [sp, #52]
	lsls	r1, r0, #2
	add	r0, sp, #32
	ldr	r0, [r0, r1]
	ldr	r1, [sp, #48]
	adds	r1, r1, #1
	udiv	r0, r0, r1
	ldr	r1, [sp, #56]
	lsrs	r2, r1, #1
	adds	r0, r0, r2
	udiv	r0, r0, r1
	subs	r0, r0, #2
	.loc	4 302 20 is_stmt 0              @ ../../CCC_common/Library/StdDriver/src/uart.c:302:20
	str	r0, [sp, #28]
	add	r0, sp, #28
.Ltmp50:
	.loc	4 304 12 is_stmt 1              @ ../../CCC_common/Library/StdDriver/src/uart.c:304:12
	ldrh	r0, [r0, #2]
.Ltmp51:
	.loc	4 304 12 is_stmt 0              @ ../../CCC_common/Library/StdDriver/src/uart.c:304:12
	cbz	r0, .LBB8_18
	b	.LBB8_17
.LBB8_17:
.Ltmp52:
	.loc	4 306 45 is_stmt 1              @ ../../CCC_common/Library/StdDriver/src/uart.c:306:45
	ldr	r0, [sp, #52]
	lsls	r1, r0, #2
	add	r0, sp, #32
	ldr	r0, [r0, r1]
	ldr	r1, [sp, #48]
	adds	r1, r1, #1
	udiv	r0, r0, r1
	ldr	r1, [sp, #56]
	lsls	r2, r1, #3
	adds	r0, r0, r2
	udiv	r0, r0, r1
	lsrs	r0, r0, #4
	subs	r0, r0, #2
	.loc	4 306 13 is_stmt 0              @ ../../CCC_common/Library/StdDriver/src/uart.c:306:13
	ldr	r1, [sp, #60]
	.loc	4 306 24                        @ ../../CCC_common/Library/StdDriver/src/uart.c:306:24
	str	r0, [r1, #36]
	.loc	4 307 9 is_stmt 1               @ ../../CCC_common/Library/StdDriver/src/uart.c:307:9
	b	.LBB8_19
.Ltmp53:
.LBB8_18:
	.loc	4 310 45                        @ ../../CCC_common/Library/StdDriver/src/uart.c:310:45
	ldr	r0, [sp, #28]
	movs	r1, #3
	lsls	r1, r1, #28
	.loc	4 310 43 is_stmt 0              @ ../../CCC_common/Library/StdDriver/src/uart.c:310:43
	orrs	r0, r1
	.loc	4 310 13                        @ ../../CCC_common/Library/StdDriver/src/uart.c:310:13
	ldr	r1, [sp, #60]
	.loc	4 310 24                        @ ../../CCC_common/Library/StdDriver/src/uart.c:310:24
	str	r0, [r1, #36]
	b	.LBB8_19
.Ltmp54:
.LBB8_19:
	.loc	4 312 5 is_stmt 1               @ ../../CCC_common/Library/StdDriver/src/uart.c:312:5
	b	.LBB8_20
.Ltmp55:
.LBB8_20:
	.loc	4 313 1 epilogue_begin          @ ../../CCC_common/Library/StdDriver/src/uart.c:313:1
	add	sp, #64
	pop	{r7, pc}
.Ltmp56:
	.loc	4 0 1 is_stmt 0                 @ :0:1
.Ltmp57:
	.p2align	2
@ %bb.21:
__arm_cp.8_0:
	.long	12000000                        @ 0xb71b00
.Lcpi_end16:
	.size	__arm_cp.8_0, .Lcpi_end16-__arm_cp.8_0
__arm_cp.8_1:
	.long	1074200576                      @ 0x40070000
.Lcpi_end17:
	.size	__arm_cp.8_1, .Lcpi_end17-__arm_cp.8_1
__arm_cp.8_2:
	.long	1074204672                      @ 0x40071000
.Lcpi_end18:
	.size	__arm_cp.8_2, .Lcpi_end18-__arm_cp.8_2
__arm_cp.8_3:
	.long	1074208768                      @ 0x40072000
.Lcpi_end19:
	.size	__arm_cp.8_3, .Lcpi_end19-__arm_cp.8_3
__arm_cp.8_4:
	.long	1074212864                      @ 0x40073000
.Lcpi_end20:
	.size	__arm_cp.8_4, .Lcpi_end20-__arm_cp.8_4
__arm_cp.8_5:
	.long	1074216960                      @ 0x40074000
.Lcpi_end21:
	.size	__arm_cp.8_5, .Lcpi_end21-__arm_cp.8_5
__arm_cp.8_6:
	.long	1074221056                      @ 0x40075000
.Lcpi_end22:
	.size	__arm_cp.8_6, .Lcpi_end22-__arm_cp.8_6
__arm_cp.8_7:
	.long	2011970965                      @ 0x77ec3d95
.Lcpi_end23:
	.size	__arm_cp.8_7, .Lcpi_end23-__arm_cp.8_7
__arm_cp.8_8:
	.long	2009873684                      @ 0x77cc3d14
.Lcpi_end24:
	.size	__arm_cp.8_8, .Lcpi_end24-__arm_cp.8_8
__arm_cp.8_9:
	.long	2007776403                      @ 0x77ac3c93
.Lcpi_end25:
	.size	__arm_cp.8_9, .Lcpi_end25-__arm_cp.8_9
__arm_cp.8_10:
	.long	2005679122                      @ 0x778c3c12
.Lcpi_end26:
	.size	__arm_cp.8_10, .Lcpi_end26-__arm_cp.8_10
__arm_cp.8_11:
	.long	1470119313                      @ 0x57a03d91
.Lcpi_end27:
	.size	__arm_cp.8_11, .Lcpi_end27-__arm_cp.8_11
__arm_cp.8_12:
	.long	1468022032                      @ 0x57803d10
.Lcpi_end28:
	.size	__arm_cp.8_12, .Lcpi_end28-__arm_cp.8_12
__arm_cp.8_13:
	.long	4293984015                      @ 0xfff0ff0f
.Lcpi_end29:
	.size	__arm_cp.8_13, .Lcpi_end29-__arm_cp.8_13
.Lfunc_end8:
	.size	UART_Open, .Lfunc_end8-UART_Open
	.cfi_endproc
	.cantunwind
	.fnend
                                        @ -- End function
	.section	.text.UART_Read,"ax",%progbits
	.hidden	UART_Read                       @ -- Begin function UART_Read
	.globl	UART_Read
	.p2align	1
	.type	UART_Read,%function
	.code	16                              @ @UART_Read
	.thumb_func
UART_Read:
.Lfunc_begin9:
	.loc	4 328 0 is_stmt 1               @ ../../CCC_common/Library/StdDriver/src/uart.c:328:0
	.fnstart
	.cfi_startproc
@ %bb.0:
	.pad	#24
	sub	sp, #24
	.cfi_def_cfa_offset 24
	str	r0, [sp, #20]
	str	r1, [sp, #16]
	str	r2, [sp, #12]
	movs	r0, #0
.Ltmp58:
	.loc	4 330 15 prologue_end           @ ../../CCC_common/Library/StdDriver/src/uart.c:330:15
	str	r0, [sp]
.Ltmp59:
	.loc	4 332 18                        @ ../../CCC_common/Library/StdDriver/src/uart.c:332:18
	str	r0, [sp, #8]
	.loc	4 332 9 is_stmt 0               @ ../../CCC_common/Library/StdDriver/src/uart.c:332:9
	b	.LBB9_1
.LBB9_1:                                @ =>This Loop Header: Depth=1
                                        @     Child Loop BB9_3 Depth 2
.Ltmp60:
	.loc	4 332 25                        @ ../../CCC_common/Library/StdDriver/src/uart.c:332:25
	ldr	r0, [sp, #8]
	.loc	4 332 36                        @ ../../CCC_common/Library/StdDriver/src/uart.c:332:36
	ldr	r1, [sp, #12]
.Ltmp61:
	.loc	4 332 5                         @ ../../CCC_common/Library/StdDriver/src/uart.c:332:5
	cmp	r0, r1
	bhs	.LBB9_13
	b	.LBB9_2
.LBB9_2:                                @   in Loop: Header=BB9_1 Depth=1
	.loc	4 0 5                           @ ../../CCC_common/Library/StdDriver/src/uart.c:0:5
	movs	r0, #0
.Ltmp62:
	.loc	4 334 20 is_stmt 1              @ ../../CCC_common/Library/StdDriver/src/uart.c:334:20
	str	r0, [sp, #4]
	.loc	4 336 9                         @ ../../CCC_common/Library/StdDriver/src/uart.c:336:9
	b	.LBB9_3
.LBB9_3:                                @   Parent Loop BB9_1 Depth=1
                                        @ =>  This Inner Loop Header: Depth=2
	.loc	4 336 15 is_stmt 0              @ ../../CCC_common/Library/StdDriver/src/uart.c:336:15
	ldr	r0, [sp, #20]
	.loc	4 336 21                        @ ../../CCC_common/Library/StdDriver/src/uart.c:336:21
	ldr	r0, [r0, #24]
	.loc	4 336 9                         @ ../../CCC_common/Library/StdDriver/src/uart.c:336:9
	lsls	r0, r0, #17
	cmp	r0, #0
	bpl	.LBB9_8
	b	.LBB9_4
.LBB9_4:                                @   in Loop: Header=BB9_3 Depth=2
.Ltmp63:
	.loc	4 338 23 is_stmt 1              @ ../../CCC_common/Library/StdDriver/src/uart.c:338:23
	ldr	r0, [sp, #4]
	adds	r0, r0, #1
	str	r0, [sp, #4]
.Ltmp64:
	.loc	4 339 16                        @ ../../CCC_common/Library/StdDriver/src/uart.c:339:16
	ldr	r0, [sp, #4]
.Ltmp65:
	.loc	4 339 16 is_stmt 0              @ ../../CCC_common/Library/StdDriver/src/uart.c:339:16
	lsrs	r0, r0, #30
	cbz	r0, .LBB9_6
	b	.LBB9_5
.LBB9_5:                                @   in Loop: Header=BB9_1 Depth=1
	.loc	4 0 16                          @ ../../CCC_common/Library/StdDriver/src/uart.c:0:16
	movs	r0, #1
.Ltmp66:
	.loc	4 341 25 is_stmt 1              @ ../../CCC_common/Library/StdDriver/src/uart.c:341:25
	str	r0, [sp]
	.loc	4 342 17                        @ ../../CCC_common/Library/StdDriver/src/uart.c:342:17
	b	.LBB9_8
.Ltmp67:
.LBB9_6:                                @   in Loop: Header=BB9_3 Depth=2
	.loc	4 0 17 is_stmt 0                @ ../../CCC_common/Library/StdDriver/src/uart.c:0:17
	b	.LBB9_7
.LBB9_7:                                @   in Loop: Header=BB9_3 Depth=2
	.loc	4 336 9 is_stmt 1               @ ../../CCC_common/Library/StdDriver/src/uart.c:336:9
	b	.LBB9_3
.LBB9_8:                                @   in Loop: Header=BB9_1 Depth=1
.Ltmp68:
	.loc	4 349 12                        @ ../../CCC_common/Library/StdDriver/src/uart.c:349:12
	ldr	r0, [sp]
.Ltmp69:
	.loc	4 349 12 is_stmt 0              @ ../../CCC_common/Library/StdDriver/src/uart.c:349:12
	cmp	r0, #1
	bne	.LBB9_10
	b	.LBB9_9
.LBB9_9:
.Ltmp70:
	.loc	4 351 13 is_stmt 1              @ ../../CCC_common/Library/StdDriver/src/uart.c:351:13
	b	.LBB9_13
.Ltmp71:
.LBB9_10:                               @   in Loop: Header=BB9_1 Depth=1
	.loc	4 355 43                        @ ../../CCC_common/Library/StdDriver/src/uart.c:355:43
	ldr	r0, [sp, #20]
	.loc	4 355 49 is_stmt 0              @ ../../CCC_common/Library/StdDriver/src/uart.c:355:49
	ldr	r0, [r0]
	.loc	4 355 13                        @ ../../CCC_common/Library/StdDriver/src/uart.c:355:13
	ldr	r1, [sp, #16]
	.loc	4 355 22                        @ ../../CCC_common/Library/StdDriver/src/uart.c:355:22
	ldr	r2, [sp, #8]
	.loc	4 355 32                        @ ../../CCC_common/Library/StdDriver/src/uart.c:355:32
	strb	r0, [r1, r2]
	b	.LBB9_11
.Ltmp72:
.LBB9_11:                               @   in Loop: Header=BB9_1 Depth=1
	.loc	4 357 5 is_stmt 1               @ ../../CCC_common/Library/StdDriver/src/uart.c:357:5
	b	.LBB9_12
.Ltmp73:
.LBB9_12:                               @   in Loop: Header=BB9_1 Depth=1
	.loc	4 332 58                        @ ../../CCC_common/Library/StdDriver/src/uart.c:332:58
	ldr	r0, [sp, #8]
	adds	r0, r0, #1
	str	r0, [sp, #8]
	.loc	4 332 5 is_stmt 0               @ ../../CCC_common/Library/StdDriver/src/uart.c:332:5
	b	.LBB9_1
.Ltmp74:
.LBB9_13:
	.loc	4 359 12 is_stmt 1              @ ../../CCC_common/Library/StdDriver/src/uart.c:359:12
	ldr	r0, [sp, #8]
	.loc	4 359 5 epilogue_begin is_stmt 0 @ ../../CCC_common/Library/StdDriver/src/uart.c:359:5
	add	sp, #24
	bx	lr
.Ltmp75:
.Lfunc_end9:
	.size	UART_Read, .Lfunc_end9-UART_Read
	.cfi_endproc
	.cantunwind
	.fnend
                                        @ -- End function
	.section	.text.UART_SetLineConfig,"ax",%progbits
	.hidden	UART_SetLineConfig              @ -- Begin function UART_SetLineConfig
	.globl	UART_SetLineConfig
	.p2align	2
	.type	UART_SetLineConfig,%function
	.code	16                              @ @UART_SetLineConfig
	.thumb_func
UART_SetLineConfig:
.Lfunc_begin10:
	.loc	4 390 0 is_stmt 1               @ ../../CCC_common/Library/StdDriver/src/uart.c:390:0
	.fnstart
	.cfi_startproc
@ %bb.0:
	.save	{r4, lr}
	push	{r4, lr}
	.cfi_def_cfa_offset 8
	.cfi_offset lr, -4
	.cfi_offset r4, -8
	.pad	#72
	sub	sp, #72
	.cfi_def_cfa_offset 80
	ldr	r4, [sp, #80]
	str	r0, [sp, #68]
	str	r1, [sp, #64]
	str	r2, [sp, #60]
	str	r3, [sp, #56]
	ldr	r1, __arm_cp.10_0
.Ltmp76:
	.loc	4 392 14 prologue_end           @ ../../CCC_common/Library/StdDriver/src/uart.c:392:14
	str	r1, [sp, #44]
	movw	r0, #32768
	str	r0, [sp, #40]
	movs	r0, #0
	str	r0, [sp, #36]
	str	r1, [sp, #32]
	.loc	4 393 14                        @ ../../CCC_common/Library/StdDriver/src/uart.c:393:14
	str	r0, [sp, #28]
	.loc	4 396 22                        @ ../../CCC_common/Library/StdDriver/src/uart.c:396:22
	ldr	r0, [sp, #68]
	str	r0, [sp, #24]                   @ 4-byte Spill
	ldr	r1, __arm_cp.10_1
	.loc	4 396 5 is_stmt 0               @ ../../CCC_common/Library/StdDriver/src/uart.c:396:5
	cmp	r0, r1
	beq	.LBB10_6
	b	.LBB10_1
.LBB10_1:
	.loc	4 0 5                           @ ../../CCC_common/Library/StdDriver/src/uart.c:0:5
	ldr	r0, [sp, #24]                   @ 4-byte Reload
	ldr	r1, __arm_cp.10_2
	.loc	4 396 5                         @ ../../CCC_common/Library/StdDriver/src/uart.c:396:5
	cmp	r0, r1
	beq	.LBB10_7
	b	.LBB10_2
.LBB10_2:
	.loc	4 0 5                           @ ../../CCC_common/Library/StdDriver/src/uart.c:0:5
	ldr	r0, [sp, #24]                   @ 4-byte Reload
	ldr	r1, __arm_cp.10_3
	.loc	4 396 5                         @ ../../CCC_common/Library/StdDriver/src/uart.c:396:5
	cmp	r0, r1
	beq	.LBB10_8
	b	.LBB10_3
.LBB10_3:
	.loc	4 0 5                           @ ../../CCC_common/Library/StdDriver/src/uart.c:0:5
	ldr	r0, [sp, #24]                   @ 4-byte Reload
	ldr	r1, __arm_cp.10_4
	.loc	4 396 5                         @ ../../CCC_common/Library/StdDriver/src/uart.c:396:5
	cmp	r0, r1
	beq	.LBB10_9
	b	.LBB10_4
.LBB10_4:
	.loc	4 0 5                           @ ../../CCC_common/Library/StdDriver/src/uart.c:0:5
	ldr	r0, [sp, #24]                   @ 4-byte Reload
	ldr	r1, __arm_cp.10_5
	.loc	4 396 5                         @ ../../CCC_common/Library/StdDriver/src/uart.c:396:5
	cmp	r0, r1
	beq	.LBB10_10
	b	.LBB10_5
.LBB10_5:
	.loc	4 0 5                           @ ../../CCC_common/Library/StdDriver/src/uart.c:0:5
	ldr	r0, [sp, #24]                   @ 4-byte Reload
	ldr	r1, __arm_cp.10_6
	.loc	4 396 5                         @ ../../CCC_common/Library/StdDriver/src/uart.c:396:5
	cmp	r0, r1
	beq	.LBB10_11
	b	.LBB10_12
.LBB10_6:
	.loc	4 0 5                           @ ../../CCC_common/Library/StdDriver/src/uart.c:0:5
	ldr	r0, __arm_cp.10_12
.Ltmp77:
	.loc	4 399 32 is_stmt 1              @ ../../CCC_common/Library/StdDriver/src/uart.c:399:32
	str	r0, [sp, #20]                   @ 4-byte Spill
	bl	CLK_GetModuleClockSource
	mov	r1, r0
	.loc	4 399 30 is_stmt 0              @ ../../CCC_common/Library/StdDriver/src/uart.c:399:30
	ldr	r0, [sp, #20]                   @ 4-byte Reload
	str	r1, [sp, #52]
	.loc	4 400 32 is_stmt 1              @ ../../CCC_common/Library/StdDriver/src/uart.c:400:32
	bl	CLK_GetModuleClockDivider
	.loc	4 400 30 is_stmt 0              @ ../../CCC_common/Library/StdDriver/src/uart.c:400:30
	str	r0, [sp, #48]
	.loc	4 401 13 is_stmt 1              @ ../../CCC_common/Library/StdDriver/src/uart.c:401:13
	b	.LBB10_13
.LBB10_7:
	.loc	4 0 13 is_stmt 0                @ ../../CCC_common/Library/StdDriver/src/uart.c:0:13
	ldr	r0, __arm_cp.10_11
	.loc	4 403 32 is_stmt 1              @ ../../CCC_common/Library/StdDriver/src/uart.c:403:32
	str	r0, [sp, #16]                   @ 4-byte Spill
	bl	CLK_GetModuleClockSource
	mov	r1, r0
	.loc	4 403 30 is_stmt 0              @ ../../CCC_common/Library/StdDriver/src/uart.c:403:30
	ldr	r0, [sp, #16]                   @ 4-byte Reload
	str	r1, [sp, #52]
	.loc	4 404 32 is_stmt 1              @ ../../CCC_common/Library/StdDriver/src/uart.c:404:32
	bl	CLK_GetModuleClockDivider
	.loc	4 404 30 is_stmt 0              @ ../../CCC_common/Library/StdDriver/src/uart.c:404:30
	str	r0, [sp, #48]
	.loc	4 405 13 is_stmt 1              @ ../../CCC_common/Library/StdDriver/src/uart.c:405:13
	b	.LBB10_13
.LBB10_8:
	.loc	4 0 13 is_stmt 0                @ ../../CCC_common/Library/StdDriver/src/uart.c:0:13
	ldr	r0, __arm_cp.10_10
	.loc	4 407 32 is_stmt 1              @ ../../CCC_common/Library/StdDriver/src/uart.c:407:32
	str	r0, [sp, #12]                   @ 4-byte Spill
	bl	CLK_GetModuleClockSource
	mov	r1, r0
	.loc	4 407 30 is_stmt 0              @ ../../CCC_common/Library/StdDriver/src/uart.c:407:30
	ldr	r0, [sp, #12]                   @ 4-byte Reload
	str	r1, [sp, #52]
	.loc	4 408 32 is_stmt 1              @ ../../CCC_common/Library/StdDriver/src/uart.c:408:32
	bl	CLK_GetModuleClockDivider
	.loc	4 408 30 is_stmt 0              @ ../../CCC_common/Library/StdDriver/src/uart.c:408:30
	str	r0, [sp, #48]
	.loc	4 409 13 is_stmt 1              @ ../../CCC_common/Library/StdDriver/src/uart.c:409:13
	b	.LBB10_13
.LBB10_9:
	.loc	4 0 13 is_stmt 0                @ ../../CCC_common/Library/StdDriver/src/uart.c:0:13
	ldr	r0, __arm_cp.10_9
	.loc	4 411 32 is_stmt 1              @ ../../CCC_common/Library/StdDriver/src/uart.c:411:32
	str	r0, [sp, #8]                    @ 4-byte Spill
	bl	CLK_GetModuleClockSource
	mov	r1, r0
	.loc	4 411 30 is_stmt 0              @ ../../CCC_common/Library/StdDriver/src/uart.c:411:30
	ldr	r0, [sp, #8]                    @ 4-byte Reload
	str	r1, [sp, #52]
	.loc	4 412 32 is_stmt 1              @ ../../CCC_common/Library/StdDriver/src/uart.c:412:32
	bl	CLK_GetModuleClockDivider
	.loc	4 412 30 is_stmt 0              @ ../../CCC_common/Library/StdDriver/src/uart.c:412:30
	str	r0, [sp, #48]
	.loc	4 413 13 is_stmt 1              @ ../../CCC_common/Library/StdDriver/src/uart.c:413:13
	b	.LBB10_13
.LBB10_10:
	.loc	4 0 13 is_stmt 0                @ ../../CCC_common/Library/StdDriver/src/uart.c:0:13
	ldr	r0, __arm_cp.10_8
	.loc	4 415 32 is_stmt 1              @ ../../CCC_common/Library/StdDriver/src/uart.c:415:32
	str	r0, [sp, #4]                    @ 4-byte Spill
	bl	CLK_GetModuleClockSource
	mov	r1, r0
	.loc	4 415 30 is_stmt 0              @ ../../CCC_common/Library/StdDriver/src/uart.c:415:30
	ldr	r0, [sp, #4]                    @ 4-byte Reload
	str	r1, [sp, #52]
	.loc	4 416 32 is_stmt 1              @ ../../CCC_common/Library/StdDriver/src/uart.c:416:32
	bl	CLK_GetModuleClockDivider
	.loc	4 416 30 is_stmt 0              @ ../../CCC_common/Library/StdDriver/src/uart.c:416:30
	str	r0, [sp, #48]
	.loc	4 417 13 is_stmt 1              @ ../../CCC_common/Library/StdDriver/src/uart.c:417:13
	b	.LBB10_13
.LBB10_11:
	.loc	4 0 13 is_stmt 0                @ ../../CCC_common/Library/StdDriver/src/uart.c:0:13
	ldr	r0, __arm_cp.10_7
	.loc	4 419 32 is_stmt 1              @ ../../CCC_common/Library/StdDriver/src/uart.c:419:32
	str	r0, [sp]                        @ 4-byte Spill
	bl	CLK_GetModuleClockSource
	mov	r1, r0
	.loc	4 419 30 is_stmt 0              @ ../../CCC_common/Library/StdDriver/src/uart.c:419:30
	ldr	r0, [sp]                        @ 4-byte Reload
	str	r1, [sp, #52]
	.loc	4 420 32 is_stmt 1              @ ../../CCC_common/Library/StdDriver/src/uart.c:420:32
	bl	CLK_GetModuleClockDivider
	.loc	4 420 30 is_stmt 0              @ ../../CCC_common/Library/StdDriver/src/uart.c:420:30
	str	r0, [sp, #48]
	.loc	4 421 13 is_stmt 1              @ ../../CCC_common/Library/StdDriver/src/uart.c:421:13
	b	.LBB10_13
.LBB10_12:
	.loc	4 423 13                        @ ../../CCC_common/Library/StdDriver/src/uart.c:423:13
	b	.LBB10_21
.Ltmp78:
.LBB10_13:
	.loc	4 427 8                         @ ../../CCC_common/Library/StdDriver/src/uart.c:427:8
	ldr	r0, [sp, #52]
.Ltmp79:
	.loc	4 427 8 is_stmt 0               @ ../../CCC_common/Library/StdDriver/src/uart.c:427:8
	cmp	r0, #1
	bne	.LBB10_15
	b	.LBB10_14
.LBB10_14:
.Ltmp80:
	.loc	4 429 40 is_stmt 1              @ ../../CCC_common/Library/StdDriver/src/uart.c:429:40
	bl	CLK_GetPLLClockFreq
	.loc	4 429 20 is_stmt 0              @ ../../CCC_common/Library/StdDriver/src/uart.c:429:20
	ldr	r1, [sp, #52]
	.loc	4 429 9                         @ ../../CCC_common/Library/StdDriver/src/uart.c:429:9
	lsls	r2, r1, #2
	add	r1, sp, #32
	.loc	4 429 38                        @ ../../CCC_common/Library/StdDriver/src/uart.c:429:38
	str	r0, [r1, r2]
	.loc	4 430 5 is_stmt 1               @ ../../CCC_common/Library/StdDriver/src/uart.c:430:5
	b	.LBB10_15
.Ltmp81:
.LBB10_15:
	.loc	4 433 8                         @ ../../CCC_common/Library/StdDriver/src/uart.c:433:8
	ldr	r0, [sp, #64]
.Ltmp82:
	.loc	4 433 8 is_stmt 0               @ ../../CCC_common/Library/StdDriver/src/uart.c:433:8
	cbz	r0, .LBB10_20
	b	.LBB10_16
.LBB10_16:
.Ltmp83:
	.loc	4 435 22 is_stmt 1              @ ../../CCC_common/Library/StdDriver/src/uart.c:435:22
	ldr	r0, [sp, #52]
	lsls	r1, r0, #2
	add	r0, sp, #32
	ldr	r0, [r0, r1]
	ldr	r1, [sp, #48]
	adds	r1, r1, #1
	udiv	r0, r0, r1
	ldr	r1, [sp, #64]
	lsrs	r2, r1, #1
	adds	r0, r0, r2
	udiv	r0, r0, r1
	subs	r0, r0, #2
	.loc	4 435 20 is_stmt 0              @ ../../CCC_common/Library/StdDriver/src/uart.c:435:20
	str	r0, [sp, #28]
	add	r0, sp, #28
.Ltmp84:
	.loc	4 437 12 is_stmt 1              @ ../../CCC_common/Library/StdDriver/src/uart.c:437:12
	ldrh	r0, [r0, #2]
.Ltmp85:
	.loc	4 437 12 is_stmt 0              @ ../../CCC_common/Library/StdDriver/src/uart.c:437:12
	cbz	r0, .LBB10_18
	b	.LBB10_17
.LBB10_17:
.Ltmp86:
	.loc	4 439 45 is_stmt 1              @ ../../CCC_common/Library/StdDriver/src/uart.c:439:45
	ldr	r0, [sp, #52]
	lsls	r1, r0, #2
	add	r0, sp, #32
	ldr	r0, [r0, r1]
	ldr	r1, [sp, #48]
	adds	r1, r1, #1
	udiv	r0, r0, r1
	ldr	r1, [sp, #64]
	lsls	r2, r1, #3
	adds	r0, r0, r2
	udiv	r0, r0, r1
	lsrs	r0, r0, #4
	subs	r0, r0, #2
	.loc	4 439 13 is_stmt 0              @ ../../CCC_common/Library/StdDriver/src/uart.c:439:13
	ldr	r1, [sp, #68]
	.loc	4 439 24                        @ ../../CCC_common/Library/StdDriver/src/uart.c:439:24
	str	r0, [r1, #36]
	.loc	4 440 9 is_stmt 1               @ ../../CCC_common/Library/StdDriver/src/uart.c:440:9
	b	.LBB10_19
.Ltmp87:
.LBB10_18:
	.loc	4 443 45                        @ ../../CCC_common/Library/StdDriver/src/uart.c:443:45
	ldr	r0, [sp, #28]
	movs	r1, #3
	lsls	r1, r1, #28
	.loc	4 443 43 is_stmt 0              @ ../../CCC_common/Library/StdDriver/src/uart.c:443:43
	orrs	r0, r1
	.loc	4 443 13                        @ ../../CCC_common/Library/StdDriver/src/uart.c:443:13
	ldr	r1, [sp, #68]
	.loc	4 443 24                        @ ../../CCC_common/Library/StdDriver/src/uart.c:443:24
	str	r0, [r1, #36]
	b	.LBB10_19
.Ltmp88:
.LBB10_19:
	.loc	4 445 5 is_stmt 1               @ ../../CCC_common/Library/StdDriver/src/uart.c:445:5
	b	.LBB10_20
.Ltmp89:
.LBB10_20:
	.loc	4 448 18                        @ ../../CCC_common/Library/StdDriver/src/uart.c:448:18
	ldr	r0, [sp, #60]
	.loc	4 448 34 is_stmt 0              @ ../../CCC_common/Library/StdDriver/src/uart.c:448:34
	ldr	r1, [sp, #56]
	.loc	4 448 32                        @ ../../CCC_common/Library/StdDriver/src/uart.c:448:32
	orrs	r0, r1
	.loc	4 448 46                        @ ../../CCC_common/Library/StdDriver/src/uart.c:448:46
	ldr	r1, [sp, #80]
	.loc	4 448 44                        @ ../../CCC_common/Library/StdDriver/src/uart.c:448:44
	orrs	r0, r1
	.loc	4 448 5                         @ ../../CCC_common/Library/StdDriver/src/uart.c:448:5
	ldr	r1, [sp, #68]
	.loc	4 448 16                        @ ../../CCC_common/Library/StdDriver/src/uart.c:448:16
	str	r0, [r1, #12]
	.loc	4 449 1 is_stmt 1               @ ../../CCC_common/Library/StdDriver/src/uart.c:449:1
	b	.LBB10_21
.LBB10_21:
	.loc	4 449 1 epilogue_begin is_stmt 0 @ ../../CCC_common/Library/StdDriver/src/uart.c:449:1
	add	sp, #72
	pop	{r4, pc}
.Ltmp90:
	.loc	4 0 1                           @ :0:1
.Ltmp91:
	.p2align	2
@ %bb.22:
__arm_cp.10_0:
	.long	12000000                        @ 0xb71b00
.Lcpi_end30:
	.size	__arm_cp.10_0, .Lcpi_end30-__arm_cp.10_0
__arm_cp.10_1:
	.long	1074200576                      @ 0x40070000
.Lcpi_end31:
	.size	__arm_cp.10_1, .Lcpi_end31-__arm_cp.10_1
__arm_cp.10_2:
	.long	1074204672                      @ 0x40071000
.Lcpi_end32:
	.size	__arm_cp.10_2, .Lcpi_end32-__arm_cp.10_2
__arm_cp.10_3:
	.long	1074208768                      @ 0x40072000
.Lcpi_end33:
	.size	__arm_cp.10_3, .Lcpi_end33-__arm_cp.10_3
__arm_cp.10_4:
	.long	1074212864                      @ 0x40073000
.Lcpi_end34:
	.size	__arm_cp.10_4, .Lcpi_end34-__arm_cp.10_4
__arm_cp.10_5:
	.long	1074216960                      @ 0x40074000
.Lcpi_end35:
	.size	__arm_cp.10_5, .Lcpi_end35-__arm_cp.10_5
__arm_cp.10_6:
	.long	1074221056                      @ 0x40075000
.Lcpi_end36:
	.size	__arm_cp.10_6, .Lcpi_end36-__arm_cp.10_6
__arm_cp.10_7:
	.long	2011970965                      @ 0x77ec3d95
.Lcpi_end37:
	.size	__arm_cp.10_7, .Lcpi_end37-__arm_cp.10_7
__arm_cp.10_8:
	.long	2009873684                      @ 0x77cc3d14
.Lcpi_end38:
	.size	__arm_cp.10_8, .Lcpi_end38-__arm_cp.10_8
__arm_cp.10_9:
	.long	2007776403                      @ 0x77ac3c93
.Lcpi_end39:
	.size	__arm_cp.10_9, .Lcpi_end39-__arm_cp.10_9
__arm_cp.10_10:
	.long	2005679122                      @ 0x778c3c12
.Lcpi_end40:
	.size	__arm_cp.10_10, .Lcpi_end40-__arm_cp.10_10
__arm_cp.10_11:
	.long	1470119313                      @ 0x57a03d91
.Lcpi_end41:
	.size	__arm_cp.10_11, .Lcpi_end41-__arm_cp.10_11
__arm_cp.10_12:
	.long	1468022032                      @ 0x57803d10
.Lcpi_end42:
	.size	__arm_cp.10_12, .Lcpi_end42-__arm_cp.10_12
.Lfunc_end10:
	.size	UART_SetLineConfig, .Lfunc_end10-UART_SetLineConfig
	.cfi_endproc
	.cantunwind
	.fnend
                                        @ -- End function
	.section	.text.UART_SetTimeoutCnt,"ax",%progbits
	.hidden	UART_SetTimeoutCnt              @ -- Begin function UART_SetTimeoutCnt
	.globl	UART_SetTimeoutCnt
	.p2align	1
	.type	UART_SetTimeoutCnt,%function
	.code	16                              @ @UART_SetTimeoutCnt
	.thumb_func
UART_SetTimeoutCnt:
.Lfunc_begin11:
	.loc	4 463 0 is_stmt 1               @ ../../CCC_common/Library/StdDriver/src/uart.c:463:0
	.fnstart
	.cfi_startproc
@ %bb.0:
	.pad	#8
	sub	sp, #8
	.cfi_def_cfa_offset 8
	str	r0, [sp, #4]
	str	r1, [sp]
.Ltmp92:
	.loc	4 465 19 prologue_end           @ ../../CCC_common/Library/StdDriver/src/uart.c:465:19
	ldr	r0, [sp, #4]
	.loc	4 465 25 is_stmt 0              @ ../../CCC_common/Library/StdDriver/src/uart.c:465:25
	ldr	r0, [r0, #32]
	movs	r1, #255
	.loc	4 465 30                        @ ../../CCC_common/Library/StdDriver/src/uart.c:465:30
	bics	r0, r1
	.loc	4 465 56                        @ ../../CCC_common/Library/StdDriver/src/uart.c:465:56
	ldr	r1, [sp]
	.loc	4 465 53                        @ ../../CCC_common/Library/StdDriver/src/uart.c:465:53
	orrs	r0, r1
	.loc	4 465 5                         @ ../../CCC_common/Library/StdDriver/src/uart.c:465:5
	ldr	r1, [sp, #4]
	.loc	4 465 16                        @ ../../CCC_common/Library/StdDriver/src/uart.c:465:16
	str	r0, [r1, #32]
	.loc	4 468 5 is_stmt 1               @ ../../CCC_common/Library/StdDriver/src/uart.c:468:5
	ldr	r1, [sp, #4]
	.loc	4 468 17 is_stmt 0              @ ../../CCC_common/Library/StdDriver/src/uart.c:468:17
	ldr	r0, [r1, #4]
	movw	r2, #2048
	orrs	r0, r2
	str	r0, [r1, #4]
	.loc	4 469 1 epilogue_begin is_stmt 1 @ ../../CCC_common/Library/StdDriver/src/uart.c:469:1
	add	sp, #8
	bx	lr
.Ltmp93:
.Lfunc_end11:
	.size	UART_SetTimeoutCnt, .Lfunc_end11-UART_SetTimeoutCnt
	.cfi_endproc
	.cantunwind
	.fnend
                                        @ -- End function
	.section	.text.UART_SelectIrDAMode,"ax",%progbits
	.hidden	UART_SelectIrDAMode             @ -- Begin function UART_SelectIrDAMode
	.globl	UART_SelectIrDAMode
	.p2align	2
	.type	UART_SelectIrDAMode,%function
	.code	16                              @ @UART_SelectIrDAMode
	.thumb_func
UART_SelectIrDAMode:
.Lfunc_begin12:
	.loc	4 486 0                         @ ../../CCC_common/Library/StdDriver/src/uart.c:486:0
	.fnstart
	.cfi_startproc
@ %bb.0:
	.save	{r7, lr}
	push	{r7, lr}
	.cfi_def_cfa_offset 8
	.cfi_offset lr, -4
	.cfi_offset r7, -8
	.pad	#72
	sub	sp, #72
	.cfi_def_cfa_offset 80
	str	r0, [sp, #68]
	str	r1, [sp, #64]
	str	r2, [sp, #60]
	ldr	r0, __arm_cp.12_0
.Ltmp94:
	.loc	4 488 14 prologue_end           @ ../../CCC_common/Library/StdDriver/src/uart.c:488:14
	str	r0, [sp, #48]
	movw	r1, #32768
	str	r1, [sp, #44]
	movs	r1, #0
	str	r1, [sp, #40]
	str	r0, [sp, #36]
	.loc	4 492 5                         @ ../../CCC_common/Library/StdDriver/src/uart.c:492:5
	ldr	r1, [sp, #68]
	movs	r0, #2
	.loc	4 492 19 is_stmt 0              @ ../../CCC_common/Library/StdDriver/src/uart.c:492:19
	str	r0, [r1, #48]
	.loc	4 495 22 is_stmt 1              @ ../../CCC_common/Library/StdDriver/src/uart.c:495:22
	ldr	r0, [sp, #68]
	str	r0, [sp, #28]                   @ 4-byte Spill
	ldr	r1, __arm_cp.12_1
	.loc	4 495 5 is_stmt 0               @ ../../CCC_common/Library/StdDriver/src/uart.c:495:5
	cmp	r0, r1
	beq	.LBB12_6
	b	.LBB12_1
.LBB12_1:
	.loc	4 0 5                           @ ../../CCC_common/Library/StdDriver/src/uart.c:0:5
	ldr	r0, [sp, #28]                   @ 4-byte Reload
	ldr	r1, __arm_cp.12_2
	.loc	4 495 5                         @ ../../CCC_common/Library/StdDriver/src/uart.c:495:5
	cmp	r0, r1
	beq	.LBB12_7
	b	.LBB12_2
.LBB12_2:
	.loc	4 0 5                           @ ../../CCC_common/Library/StdDriver/src/uart.c:0:5
	ldr	r0, [sp, #28]                   @ 4-byte Reload
	ldr	r1, __arm_cp.12_3
	.loc	4 495 5                         @ ../../CCC_common/Library/StdDriver/src/uart.c:495:5
	cmp	r0, r1
	beq	.LBB12_8
	b	.LBB12_3
.LBB12_3:
	.loc	4 0 5                           @ ../../CCC_common/Library/StdDriver/src/uart.c:0:5
	ldr	r0, [sp, #28]                   @ 4-byte Reload
	ldr	r1, __arm_cp.12_4
	.loc	4 495 5                         @ ../../CCC_common/Library/StdDriver/src/uart.c:495:5
	cmp	r0, r1
	beq	.LBB12_9
	b	.LBB12_4
.LBB12_4:
	.loc	4 0 5                           @ ../../CCC_common/Library/StdDriver/src/uart.c:0:5
	ldr	r0, [sp, #28]                   @ 4-byte Reload
	ldr	r1, __arm_cp.12_5
	.loc	4 495 5                         @ ../../CCC_common/Library/StdDriver/src/uart.c:495:5
	cmp	r0, r1
	beq	.LBB12_10
	b	.LBB12_5
.LBB12_5:
	.loc	4 0 5                           @ ../../CCC_common/Library/StdDriver/src/uart.c:0:5
	ldr	r0, [sp, #28]                   @ 4-byte Reload
	ldr	r1, __arm_cp.12_6
	.loc	4 495 5                         @ ../../CCC_common/Library/StdDriver/src/uart.c:495:5
	cmp	r0, r1
	beq	.LBB12_11
	b	.LBB12_12
.LBB12_6:
	.loc	4 0 5                           @ ../../CCC_common/Library/StdDriver/src/uart.c:0:5
	ldr	r0, __arm_cp.12_12
.Ltmp95:
	.loc	4 498 32 is_stmt 1              @ ../../CCC_common/Library/StdDriver/src/uart.c:498:32
	str	r0, [sp, #24]                   @ 4-byte Spill
	bl	CLK_GetModuleClockSource
	mov	r1, r0
	.loc	4 498 30 is_stmt 0              @ ../../CCC_common/Library/StdDriver/src/uart.c:498:30
	ldr	r0, [sp, #24]                   @ 4-byte Reload
	str	r1, [sp, #56]
	.loc	4 499 32 is_stmt 1              @ ../../CCC_common/Library/StdDriver/src/uart.c:499:32
	bl	CLK_GetModuleClockDivider
	.loc	4 499 30 is_stmt 0              @ ../../CCC_common/Library/StdDriver/src/uart.c:499:30
	str	r0, [sp, #52]
	.loc	4 500 13 is_stmt 1              @ ../../CCC_common/Library/StdDriver/src/uart.c:500:13
	b	.LBB12_13
.LBB12_7:
	.loc	4 0 13 is_stmt 0                @ ../../CCC_common/Library/StdDriver/src/uart.c:0:13
	ldr	r0, __arm_cp.12_11
	.loc	4 502 32 is_stmt 1              @ ../../CCC_common/Library/StdDriver/src/uart.c:502:32
	str	r0, [sp, #20]                   @ 4-byte Spill
	bl	CLK_GetModuleClockSource
	mov	r1, r0
	.loc	4 502 30 is_stmt 0              @ ../../CCC_common/Library/StdDriver/src/uart.c:502:30
	ldr	r0, [sp, #20]                   @ 4-byte Reload
	str	r1, [sp, #56]
	.loc	4 503 32 is_stmt 1              @ ../../CCC_common/Library/StdDriver/src/uart.c:503:32
	bl	CLK_GetModuleClockDivider
	.loc	4 503 30 is_stmt 0              @ ../../CCC_common/Library/StdDriver/src/uart.c:503:30
	str	r0, [sp, #52]
	.loc	4 504 13 is_stmt 1              @ ../../CCC_common/Library/StdDriver/src/uart.c:504:13
	b	.LBB12_13
.LBB12_8:
	.loc	4 0 13 is_stmt 0                @ ../../CCC_common/Library/StdDriver/src/uart.c:0:13
	ldr	r0, __arm_cp.12_10
	.loc	4 506 32 is_stmt 1              @ ../../CCC_common/Library/StdDriver/src/uart.c:506:32
	str	r0, [sp, #16]                   @ 4-byte Spill
	bl	CLK_GetModuleClockSource
	mov	r1, r0
	.loc	4 506 30 is_stmt 0              @ ../../CCC_common/Library/StdDriver/src/uart.c:506:30
	ldr	r0, [sp, #16]                   @ 4-byte Reload
	str	r1, [sp, #56]
	.loc	4 507 32 is_stmt 1              @ ../../CCC_common/Library/StdDriver/src/uart.c:507:32
	bl	CLK_GetModuleClockDivider
	.loc	4 507 30 is_stmt 0              @ ../../CCC_common/Library/StdDriver/src/uart.c:507:30
	str	r0, [sp, #52]
	.loc	4 508 13 is_stmt 1              @ ../../CCC_common/Library/StdDriver/src/uart.c:508:13
	b	.LBB12_13
.LBB12_9:
	.loc	4 0 13 is_stmt 0                @ ../../CCC_common/Library/StdDriver/src/uart.c:0:13
	ldr	r0, __arm_cp.12_9
	.loc	4 510 32 is_stmt 1              @ ../../CCC_common/Library/StdDriver/src/uart.c:510:32
	str	r0, [sp, #12]                   @ 4-byte Spill
	bl	CLK_GetModuleClockSource
	mov	r1, r0
	.loc	4 510 30 is_stmt 0              @ ../../CCC_common/Library/StdDriver/src/uart.c:510:30
	ldr	r0, [sp, #12]                   @ 4-byte Reload
	str	r1, [sp, #56]
	.loc	4 511 32 is_stmt 1              @ ../../CCC_common/Library/StdDriver/src/uart.c:511:32
	bl	CLK_GetModuleClockDivider
	.loc	4 511 30 is_stmt 0              @ ../../CCC_common/Library/StdDriver/src/uart.c:511:30
	str	r0, [sp, #52]
	.loc	4 512 13 is_stmt 1              @ ../../CCC_common/Library/StdDriver/src/uart.c:512:13
	b	.LBB12_13
.LBB12_10:
	.loc	4 0 13 is_stmt 0                @ ../../CCC_common/Library/StdDriver/src/uart.c:0:13
	ldr	r0, __arm_cp.12_8
	.loc	4 514 32 is_stmt 1              @ ../../CCC_common/Library/StdDriver/src/uart.c:514:32
	str	r0, [sp, #8]                    @ 4-byte Spill
	bl	CLK_GetModuleClockSource
	mov	r1, r0
	.loc	4 514 30 is_stmt 0              @ ../../CCC_common/Library/StdDriver/src/uart.c:514:30
	ldr	r0, [sp, #8]                    @ 4-byte Reload
	str	r1, [sp, #56]
	.loc	4 515 32 is_stmt 1              @ ../../CCC_common/Library/StdDriver/src/uart.c:515:32
	bl	CLK_GetModuleClockDivider
	.loc	4 515 30 is_stmt 0              @ ../../CCC_common/Library/StdDriver/src/uart.c:515:30
	str	r0, [sp, #52]
	.loc	4 516 13 is_stmt 1              @ ../../CCC_common/Library/StdDriver/src/uart.c:516:13
	b	.LBB12_13
.LBB12_11:
	.loc	4 0 13 is_stmt 0                @ ../../CCC_common/Library/StdDriver/src/uart.c:0:13
	ldr	r0, __arm_cp.12_7
	.loc	4 518 32 is_stmt 1              @ ../../CCC_common/Library/StdDriver/src/uart.c:518:32
	str	r0, [sp, #4]                    @ 4-byte Spill
	bl	CLK_GetModuleClockSource
	mov	r1, r0
	.loc	4 518 30 is_stmt 0              @ ../../CCC_common/Library/StdDriver/src/uart.c:518:30
	ldr	r0, [sp, #4]                    @ 4-byte Reload
	str	r1, [sp, #56]
	.loc	4 519 32 is_stmt 1              @ ../../CCC_common/Library/StdDriver/src/uart.c:519:32
	bl	CLK_GetModuleClockDivider
	.loc	4 519 30 is_stmt 0              @ ../../CCC_common/Library/StdDriver/src/uart.c:519:30
	str	r0, [sp, #52]
	.loc	4 520 13 is_stmt 1              @ ../../CCC_common/Library/StdDriver/src/uart.c:520:13
	b	.LBB12_13
.LBB12_12:
	.loc	4 522 13                        @ ../../CCC_common/Library/StdDriver/src/uart.c:522:13
	b	.LBB12_22
.Ltmp96:
.LBB12_13:
	.loc	4 526 8                         @ ../../CCC_common/Library/StdDriver/src/uart.c:526:8
	ldr	r0, [sp, #56]
.Ltmp97:
	.loc	4 526 8 is_stmt 0               @ ../../CCC_common/Library/StdDriver/src/uart.c:526:8
	cmp	r0, #1
	bne	.LBB12_15
	b	.LBB12_14
.LBB12_14:
.Ltmp98:
	.loc	4 528 40 is_stmt 1              @ ../../CCC_common/Library/StdDriver/src/uart.c:528:40
	bl	CLK_GetPLLClockFreq
	.loc	4 528 20 is_stmt 0              @ ../../CCC_common/Library/StdDriver/src/uart.c:528:20
	ldr	r1, [sp, #56]
	.loc	4 528 9                         @ ../../CCC_common/Library/StdDriver/src/uart.c:528:9
	lsls	r2, r1, #2
	add	r1, sp, #36
	.loc	4 528 38                        @ ../../CCC_common/Library/StdDriver/src/uart.c:528:38
	str	r0, [r1, r2]
	.loc	4 529 5 is_stmt 1               @ ../../CCC_common/Library/StdDriver/src/uart.c:529:5
	b	.LBB12_15
.Ltmp99:
.LBB12_15:
	.loc	4 532 8                         @ ../../CCC_common/Library/StdDriver/src/uart.c:532:8
	ldr	r0, [sp, #64]
.Ltmp100:
	.loc	4 532 8 is_stmt 0               @ ../../CCC_common/Library/StdDriver/src/uart.c:532:8
	cbz	r0, .LBB12_19
	b	.LBB12_16
.LBB12_16:
.Ltmp101:
	.loc	4 534 22 is_stmt 1              @ ../../CCC_common/Library/StdDriver/src/uart.c:534:22
	ldr	r0, [sp, #56]
	lsls	r1, r0, #2
	add	r0, sp, #36
	ldr	r0, [r0, r1]
	ldr	r1, [sp, #52]
	adds	r1, r1, #1
	udiv	r0, r0, r1
	ldr	r1, [sp, #64]
	lsls	r2, r1, #3
	adds	r0, r0, r2
	udiv	r0, r0, r1
	lsrs	r0, r0, #4
	subs	r0, r0, #2
	.loc	4 534 20 is_stmt 0              @ ../../CCC_common/Library/StdDriver/src/uart.c:534:20
	str	r0, [sp, #32]
.Ltmp102:
	.loc	4 536 12 is_stmt 1              @ ../../CCC_common/Library/StdDriver/src/uart.c:536:12
	ldr	r0, [sp, #32]
	ldr	r1, __arm_cp.12_13
.Ltmp103:
	.loc	4 536 12 is_stmt 0              @ ../../CCC_common/Library/StdDriver/src/uart.c:536:12
	cmp	r0, r1
	bhi	.LBB12_18
	b	.LBB12_17
.LBB12_17:
.Ltmp104:
	.loc	4 538 45 is_stmt 1              @ ../../CCC_common/Library/StdDriver/src/uart.c:538:45
	ldr	r0, [sp, #32]
	.loc	4 538 13 is_stmt 0              @ ../../CCC_common/Library/StdDriver/src/uart.c:538:13
	ldr	r1, [sp, #68]
	.loc	4 538 24                        @ ../../CCC_common/Library/StdDriver/src/uart.c:538:24
	str	r0, [r1, #36]
	.loc	4 539 9 is_stmt 1               @ ../../CCC_common/Library/StdDriver/src/uart.c:539:9
	b	.LBB12_18
.Ltmp105:
.LBB12_18:
	.loc	4 540 5                         @ ../../CCC_common/Library/StdDriver/src/uart.c:540:5
	b	.LBB12_19
.Ltmp106:
.LBB12_19:
	.loc	4 543 8                         @ ../../CCC_common/Library/StdDriver/src/uart.c:543:8
	ldr	r0, [sp, #60]
.Ltmp107:
	.loc	4 543 8 is_stmt 0               @ ../../CCC_common/Library/StdDriver/src/uart.c:543:8
	cbnz	r0, .LBB12_21
	b	.LBB12_20
.LBB12_20:
.Ltmp108:
	.loc	4 545 9 is_stmt 1               @ ../../CCC_common/Library/StdDriver/src/uart.c:545:9
	ldr	r1, [sp, #68]
	.loc	4 545 20 is_stmt 0              @ ../../CCC_common/Library/StdDriver/src/uart.c:545:20
	ldr	r0, [r1, #40]
	movs	r2, #64
	orrs	r0, r2
	str	r0, [r1, #40]
	.loc	4 546 9 is_stmt 1               @ ../../CCC_common/Library/StdDriver/src/uart.c:546:9
	ldr	r1, [sp, #68]
	.loc	4 546 20 is_stmt 0              @ ../../CCC_common/Library/StdDriver/src/uart.c:546:20
	ldr	r0, [r1, #40]
	movs	r2, #2
	bics	r0, r2
	str	r0, [r1, #40]
	.loc	4 547 5 is_stmt 1               @ ../../CCC_common/Library/StdDriver/src/uart.c:547:5
	b	.LBB12_22
.Ltmp109:
.LBB12_21:
	.loc	4 550 9                         @ ../../CCC_common/Library/StdDriver/src/uart.c:550:9
	ldr	r1, [sp, #68]
	.loc	4 550 20 is_stmt 0              @ ../../CCC_common/Library/StdDriver/src/uart.c:550:20
	ldr	r0, [r1, #40]
	movs	r2, #32
	bics	r0, r2
	str	r0, [r1, #40]
	.loc	4 551 9 is_stmt 1               @ ../../CCC_common/Library/StdDriver/src/uart.c:551:9
	ldr	r1, [sp, #68]
	.loc	4 551 20 is_stmt 0              @ ../../CCC_common/Library/StdDriver/src/uart.c:551:20
	ldr	r0, [r1, #40]
	movs	r2, #2
	orrs	r0, r2
	str	r0, [r1, #40]
	b	.LBB12_22
.Ltmp110:
.LBB12_22:
	.loc	4 554 1 epilogue_begin is_stmt 1 @ ../../CCC_common/Library/StdDriver/src/uart.c:554:1
	add	sp, #72
	pop	{r7, pc}
.Ltmp111:
	.loc	4 0 1 is_stmt 0                 @ :0:1
.Ltmp112:
	.p2align	2
@ %bb.23:
__arm_cp.12_0:
	.long	12000000                        @ 0xb71b00
.Lcpi_end43:
	.size	__arm_cp.12_0, .Lcpi_end43-__arm_cp.12_0
__arm_cp.12_1:
	.long	1074200576                      @ 0x40070000
.Lcpi_end44:
	.size	__arm_cp.12_1, .Lcpi_end44-__arm_cp.12_1
__arm_cp.12_2:
	.long	1074204672                      @ 0x40071000
.Lcpi_end45:
	.size	__arm_cp.12_2, .Lcpi_end45-__arm_cp.12_2
__arm_cp.12_3:
	.long	1074208768                      @ 0x40072000
.Lcpi_end46:
	.size	__arm_cp.12_3, .Lcpi_end46-__arm_cp.12_3
__arm_cp.12_4:
	.long	1074212864                      @ 0x40073000
.Lcpi_end47:
	.size	__arm_cp.12_4, .Lcpi_end47-__arm_cp.12_4
__arm_cp.12_5:
	.long	1074216960                      @ 0x40074000
.Lcpi_end48:
	.size	__arm_cp.12_5, .Lcpi_end48-__arm_cp.12_5
__arm_cp.12_6:
	.long	1074221056                      @ 0x40075000
.Lcpi_end49:
	.size	__arm_cp.12_6, .Lcpi_end49-__arm_cp.12_6
__arm_cp.12_7:
	.long	2011970965                      @ 0x77ec3d95
.Lcpi_end50:
	.size	__arm_cp.12_7, .Lcpi_end50-__arm_cp.12_7
__arm_cp.12_8:
	.long	2009873684                      @ 0x77cc3d14
.Lcpi_end51:
	.size	__arm_cp.12_8, .Lcpi_end51-__arm_cp.12_8
__arm_cp.12_9:
	.long	2007776403                      @ 0x77ac3c93
.Lcpi_end52:
	.size	__arm_cp.12_9, .Lcpi_end52-__arm_cp.12_9
__arm_cp.12_10:
	.long	2005679122                      @ 0x778c3c12
.Lcpi_end53:
	.size	__arm_cp.12_10, .Lcpi_end53-__arm_cp.12_10
__arm_cp.12_11:
	.long	1470119313                      @ 0x57a03d91
.Lcpi_end54:
	.size	__arm_cp.12_11, .Lcpi_end54-__arm_cp.12_11
__arm_cp.12_12:
	.long	1468022032                      @ 0x57803d10
.Lcpi_end55:
	.size	__arm_cp.12_12, .Lcpi_end55-__arm_cp.12_12
__arm_cp.12_13:
	.long	65534                           @ 0xfffe
.Lcpi_end56:
	.size	__arm_cp.12_13, .Lcpi_end56-__arm_cp.12_13
.Lfunc_end12:
	.size	UART_SelectIrDAMode, .Lfunc_end12-UART_SelectIrDAMode
	.cfi_endproc
	.cantunwind
	.fnend
                                        @ -- End function
	.section	.text.UART_SelectRS485Mode,"ax",%progbits
	.hidden	UART_SelectRS485Mode            @ -- Begin function UART_SelectRS485Mode
	.globl	UART_SelectRS485Mode
	.p2align	2
	.type	UART_SelectRS485Mode,%function
	.code	16                              @ @UART_SelectRS485Mode
	.thumb_func
UART_SelectRS485Mode:
.Lfunc_begin13:
	.loc	4 572 0 is_stmt 1               @ ../../CCC_common/Library/StdDriver/src/uart.c:572:0
	.fnstart
	.cfi_startproc
@ %bb.0:
	.pad	#12
	sub	sp, #12
	.cfi_def_cfa_offset 12
	str	r0, [sp, #8]
	str	r1, [sp, #4]
	str	r2, [sp]
.Ltmp113:
	.loc	4 574 5 prologue_end            @ ../../CCC_common/Library/StdDriver/src/uart.c:574:5
	ldr	r1, [sp, #8]
	movs	r0, #3
	.loc	4 574 19 is_stmt 0              @ ../../CCC_common/Library/StdDriver/src/uart.c:574:19
	str	r0, [r1, #48]
	.loc	4 577 5 is_stmt 1               @ ../../CCC_common/Library/StdDriver/src/uart.c:577:5
	ldr	r1, [sp, #8]
	.loc	4 577 18 is_stmt 0              @ ../../CCC_common/Library/StdDriver/src/uart.c:577:18
	ldr	r0, [r1, #44]
	ldr	r2, __arm_cp.13_0
	ands	r0, r2
	str	r0, [r1, #44]
	.loc	4 578 22 is_stmt 1              @ ../../CCC_common/Library/StdDriver/src/uart.c:578:22
	ldr	r2, [sp, #4]
	.loc	4 578 33 is_stmt 0              @ ../../CCC_common/Library/StdDriver/src/uart.c:578:33
	ldr	r0, [sp]
	.loc	4 578 41                        @ ../../CCC_common/Library/StdDriver/src/uart.c:578:41
	lsls	r0, r0, #24
	.loc	4 578 30                        @ ../../CCC_common/Library/StdDriver/src/uart.c:578:30
	orrs	r2, r0
	.loc	4 578 5                         @ ../../CCC_common/Library/StdDriver/src/uart.c:578:5
	ldr	r1, [sp, #8]
	.loc	4 578 18                        @ ../../CCC_common/Library/StdDriver/src/uart.c:578:18
	ldr	r0, [r1, #44]
	orrs	r0, r2
	str	r0, [r1, #44]
	.loc	4 579 1 epilogue_begin is_stmt 1 @ ../../CCC_common/Library/StdDriver/src/uart.c:579:1
	add	sp, #12
	bx	lr
.Ltmp114:
	.loc	4 0 1 is_stmt 0                 @ :0:1
.Ltmp115:
	.p2align	2
@ %bb.1:
__arm_cp.13_0:
	.long	16775423                        @ 0xfff8ff
.Lcpi_end57:
	.size	__arm_cp.13_0, .Lcpi_end57-__arm_cp.13_0
.Lfunc_end13:
	.size	UART_SelectRS485Mode, .Lfunc_end13-UART_SelectRS485Mode
	.cfi_endproc
	.cantunwind
	.fnend
                                        @ -- End function
	.section	.text.UART_SelectLINMode,"ax",%progbits
	.hidden	UART_SelectLINMode              @ -- Begin function UART_SelectLINMode
	.globl	UART_SelectLINMode
	.p2align	1
	.type	UART_SelectLINMode,%function
	.code	16                              @ @UART_SelectLINMode
	.thumb_func
UART_SelectLINMode:
.Lfunc_begin14:
	.loc	4 596 0 is_stmt 1               @ ../../CCC_common/Library/StdDriver/src/uart.c:596:0
	.fnstart
	.cfi_startproc
@ %bb.0:
	.pad	#12
	sub	sp, #12
	.cfi_def_cfa_offset 12
	str	r0, [sp, #8]
	str	r1, [sp, #4]
	str	r2, [sp]
.Ltmp116:
	.loc	4 598 5 prologue_end            @ ../../CCC_common/Library/StdDriver/src/uart.c:598:5
	ldr	r1, [sp, #8]
	movs	r0, #1
	.loc	4 598 19 is_stmt 0              @ ../../CCC_common/Library/StdDriver/src/uart.c:598:19
	str	r0, [r1, #48]
	.loc	4 601 5 is_stmt 1               @ ../../CCC_common/Library/StdDriver/src/uart.c:601:5
	ldr	r1, [sp, #8]
	.loc	4 601 18 is_stmt 0              @ ../../CCC_common/Library/StdDriver/src/uart.c:601:18
	ldr	r0, [r1, #44]
	movs	r2, #207
	bics	r0, r2
	str	r0, [r1, #44]
	.loc	4 602 22 is_stmt 1              @ ../../CCC_common/Library/StdDriver/src/uart.c:602:22
	ldr	r2, [sp, #4]
	.loc	4 602 33 is_stmt 0              @ ../../CCC_common/Library/StdDriver/src/uart.c:602:33
	ldr	r0, [sp]
	.loc	4 602 30                        @ ../../CCC_common/Library/StdDriver/src/uart.c:602:30
	orrs	r2, r0
	.loc	4 602 5                         @ ../../CCC_common/Library/StdDriver/src/uart.c:602:5
	ldr	r1, [sp, #8]
	.loc	4 602 18                        @ ../../CCC_common/Library/StdDriver/src/uart.c:602:18
	ldr	r0, [r1, #44]
	orrs	r0, r2
	str	r0, [r1, #44]
	.loc	4 603 1 epilogue_begin is_stmt 1 @ ../../CCC_common/Library/StdDriver/src/uart.c:603:1
	add	sp, #12
	bx	lr
.Ltmp117:
.Lfunc_end14:
	.size	UART_SelectLINMode, .Lfunc_end14-UART_SelectLINMode
	.cfi_endproc
	.cantunwind
	.fnend
                                        @ -- End function
	.section	.text.UART_Write,"ax",%progbits
	.hidden	UART_Write                      @ -- Begin function UART_Write
	.globl	UART_Write
	.p2align	1
	.type	UART_Write,%function
	.code	16                              @ @UART_Write
	.thumb_func
UART_Write:
.Lfunc_begin15:
	.loc	4 618 0                         @ ../../CCC_common/Library/StdDriver/src/uart.c:618:0
	.fnstart
	.cfi_startproc
@ %bb.0:
	.pad	#24
	sub	sp, #24
	.cfi_def_cfa_offset 24
	str	r0, [sp, #20]
	str	r1, [sp, #16]
	str	r2, [sp, #12]
	movs	r0, #0
.Ltmp118:
	.loc	4 620 15 prologue_end           @ ../../CCC_common/Library/StdDriver/src/uart.c:620:15
	str	r0, [sp]
.Ltmp119:
	.loc	4 622 18                        @ ../../CCC_common/Library/StdDriver/src/uart.c:622:18
	str	r0, [sp, #8]
	.loc	4 622 9 is_stmt 0               @ ../../CCC_common/Library/StdDriver/src/uart.c:622:9
	b	.LBB15_1
.LBB15_1:                               @ =>This Loop Header: Depth=1
                                        @     Child Loop BB15_3 Depth 2
.Ltmp120:
	.loc	4 622 25                        @ ../../CCC_common/Library/StdDriver/src/uart.c:622:25
	ldr	r0, [sp, #8]
	.loc	4 622 37                        @ ../../CCC_common/Library/StdDriver/src/uart.c:622:37
	ldr	r1, [sp, #12]
.Ltmp121:
	.loc	4 622 5                         @ ../../CCC_common/Library/StdDriver/src/uart.c:622:5
	cmp	r0, r1
	beq	.LBB15_13
	b	.LBB15_2
.LBB15_2:                               @   in Loop: Header=BB15_1 Depth=1
	.loc	4 0 5                           @ ../../CCC_common/Library/StdDriver/src/uart.c:0:5
	movs	r0, #0
.Ltmp122:
	.loc	4 624 20 is_stmt 1              @ ../../CCC_common/Library/StdDriver/src/uart.c:624:20
	str	r0, [sp, #4]
	.loc	4 625 9                         @ ../../CCC_common/Library/StdDriver/src/uart.c:625:9
	b	.LBB15_3
.LBB15_3:                               @   Parent Loop BB15_1 Depth=1
                                        @ =>  This Inner Loop Header: Depth=2
	.loc	4 625 16 is_stmt 0              @ ../../CCC_common/Library/StdDriver/src/uart.c:625:16
	ldr	r0, [sp, #20]
	.loc	4 625 22                        @ ../../CCC_common/Library/StdDriver/src/uart.c:625:22
	ldr	r0, [r0, #24]
	.loc	4 625 9                         @ ../../CCC_common/Library/StdDriver/src/uart.c:625:9
	lsls	r0, r0, #8
	cmp	r0, #0
	bpl	.LBB15_8
	b	.LBB15_4
.LBB15_4:                               @   in Loop: Header=BB15_3 Depth=2
.Ltmp123:
	.loc	4 627 23 is_stmt 1              @ ../../CCC_common/Library/StdDriver/src/uart.c:627:23
	ldr	r0, [sp, #4]
	adds	r0, r0, #1
	str	r0, [sp, #4]
.Ltmp124:
	.loc	4 628 16                        @ ../../CCC_common/Library/StdDriver/src/uart.c:628:16
	ldr	r0, [sp, #4]
.Ltmp125:
	.loc	4 628 16 is_stmt 0              @ ../../CCC_common/Library/StdDriver/src/uart.c:628:16
	lsrs	r0, r0, #30
	cbz	r0, .LBB15_6
	b	.LBB15_5
.LBB15_5:                               @   in Loop: Header=BB15_1 Depth=1
	.loc	4 0 16                          @ ../../CCC_common/Library/StdDriver/src/uart.c:0:16
	movs	r0, #1
.Ltmp126:
	.loc	4 630 25 is_stmt 1              @ ../../CCC_common/Library/StdDriver/src/uart.c:630:25
	str	r0, [sp]
	.loc	4 631 17                        @ ../../CCC_common/Library/StdDriver/src/uart.c:631:17
	b	.LBB15_8
.Ltmp127:
.LBB15_6:                               @   in Loop: Header=BB15_3 Depth=2
	.loc	4 0 17 is_stmt 0                @ ../../CCC_common/Library/StdDriver/src/uart.c:0:17
	b	.LBB15_7
.LBB15_7:                               @   in Loop: Header=BB15_3 Depth=2
	.loc	4 625 9 is_stmt 1               @ ../../CCC_common/Library/StdDriver/src/uart.c:625:9
	b	.LBB15_3
.LBB15_8:                               @   in Loop: Header=BB15_1 Depth=1
.Ltmp128:
	.loc	4 638 12                        @ ../../CCC_common/Library/StdDriver/src/uart.c:638:12
	ldr	r0, [sp]
.Ltmp129:
	.loc	4 638 12 is_stmt 0              @ ../../CCC_common/Library/StdDriver/src/uart.c:638:12
	cmp	r0, #1
	bne	.LBB15_10
	b	.LBB15_9
.LBB15_9:
.Ltmp130:
	.loc	4 640 13 is_stmt 1              @ ../../CCC_common/Library/StdDriver/src/uart.c:640:13
	b	.LBB15_13
.Ltmp131:
.LBB15_10:                              @   in Loop: Header=BB15_1 Depth=1
	.loc	4 644 25                        @ ../../CCC_common/Library/StdDriver/src/uart.c:644:25
	ldr	r0, [sp, #16]
	.loc	4 644 34 is_stmt 0              @ ../../CCC_common/Library/StdDriver/src/uart.c:644:34
	ldr	r1, [sp, #8]
	.loc	4 644 25                        @ ../../CCC_common/Library/StdDriver/src/uart.c:644:25
	ldrb	r0, [r0, r1]
	.loc	4 644 13                        @ ../../CCC_common/Library/StdDriver/src/uart.c:644:13
	ldr	r1, [sp, #20]
	.loc	4 644 23                        @ ../../CCC_common/Library/StdDriver/src/uart.c:644:23
	str	r0, [r1]
	b	.LBB15_11
.Ltmp132:
.LBB15_11:                              @   in Loop: Header=BB15_1 Depth=1
	.loc	4 646 5 is_stmt 1               @ ../../CCC_common/Library/StdDriver/src/uart.c:646:5
	b	.LBB15_12
.Ltmp133:
.LBB15_12:                              @   in Loop: Header=BB15_1 Depth=1
	.loc	4 622 60                        @ ../../CCC_common/Library/StdDriver/src/uart.c:622:60
	ldr	r0, [sp, #8]
	adds	r0, r0, #1
	str	r0, [sp, #8]
	.loc	4 622 5 is_stmt 0               @ ../../CCC_common/Library/StdDriver/src/uart.c:622:5
	b	.LBB15_1
.Ltmp134:
.LBB15_13:
	.loc	4 648 12 is_stmt 1              @ ../../CCC_common/Library/StdDriver/src/uart.c:648:12
	ldr	r0, [sp, #8]
	.loc	4 648 5 epilogue_begin is_stmt 0 @ ../../CCC_common/Library/StdDriver/src/uart.c:648:5
	add	sp, #24
	bx	lr
.Ltmp135:
.Lfunc_end15:
	.size	UART_Write, .Lfunc_end15-UART_Write
	.cfi_endproc
	.cantunwind
	.fnend
                                        @ -- End function
	.type	.L__const.UART_Open.au32ClkTbl,%object @ @__const.UART_Open.au32ClkTbl
	.section	.rodata.cst16,"aM",%progbits,16
	.p2align	2, 0x0
.L__const.UART_Open.au32ClkTbl:
	.long	12000000                        @ 0xb71b00
	.long	0                               @ 0x0
	.long	32768                           @ 0x8000
	.long	12000000                        @ 0xb71b00
	.size	.L__const.UART_Open.au32ClkTbl, 16

	.type	.L__const.UART_SetLineConfig.au32ClkTbl,%object @ @__const.UART_SetLineConfig.au32ClkTbl
	.p2align	2, 0x0
.L__const.UART_SetLineConfig.au32ClkTbl:
	.long	12000000                        @ 0xb71b00
	.long	0                               @ 0x0
	.long	32768                           @ 0x8000
	.long	12000000                        @ 0xb71b00
	.size	.L__const.UART_SetLineConfig.au32ClkTbl, 16

	.type	.L__const.UART_SelectIrDAMode.au32ClkTbl,%object @ @__const.UART_SelectIrDAMode.au32ClkTbl
	.p2align	2, 0x0
.L__const.UART_SelectIrDAMode.au32ClkTbl:
	.long	12000000                        @ 0xb71b00
	.long	0                               @ 0x0
	.long	32768                           @ 0x8000
	.long	12000000                        @ 0xb71b00
	.size	.L__const.UART_SelectIrDAMode.au32ClkTbl, 16

	.file	5 "D:\\work\\dheeraj\\local\\CEL\\CCC\\CCC_CPU123\\Code" "../../CCC_common/Library/Device/Nuvoton/M261/Include\\uart_reg.h"
	.section	".note.GNU-stack","",%progbits
	.eabi_attribute	30, 6	@ Tag_ABI_optimization_goals
	.ARM_attribute	16, 1	@ Tag_AV_eba